
build/multimedia.elf:     file format elf32-littlearm


Disassembly of section .text:

080001a0 <__do_global_dtors_aux>:
 80001a0:	b510      	push	{r4, lr}
 80001a2:	4c05      	ldr	r4, [pc, #20]	; (80001b8 <__do_global_dtors_aux+0x18>)
 80001a4:	7823      	ldrb	r3, [r4, #0]
 80001a6:	b933      	cbnz	r3, 80001b6 <__do_global_dtors_aux+0x16>
 80001a8:	4b04      	ldr	r3, [pc, #16]	; (80001bc <__do_global_dtors_aux+0x1c>)
 80001aa:	b113      	cbz	r3, 80001b2 <__do_global_dtors_aux+0x12>
 80001ac:	4804      	ldr	r0, [pc, #16]	; (80001c0 <__do_global_dtors_aux+0x20>)
 80001ae:	f3af 8000 	nop.w
 80001b2:	2301      	movs	r3, #1
 80001b4:	7023      	strb	r3, [r4, #0]
 80001b6:	bd10      	pop	{r4, pc}
 80001b8:	20000070 	.word	0x20000070
 80001bc:	00000000 	.word	0x00000000
 80001c0:	08003a4c 	.word	0x08003a4c

080001c4 <frame_dummy>:
 80001c4:	b508      	push	{r3, lr}
 80001c6:	4b03      	ldr	r3, [pc, #12]	; (80001d4 <frame_dummy+0x10>)
 80001c8:	b11b      	cbz	r3, 80001d2 <frame_dummy+0xe>
 80001ca:	4903      	ldr	r1, [pc, #12]	; (80001d8 <frame_dummy+0x14>)
 80001cc:	4803      	ldr	r0, [pc, #12]	; (80001dc <frame_dummy+0x18>)
 80001ce:	f3af 8000 	nop.w
 80001d2:	bd08      	pop	{r3, pc}
 80001d4:	00000000 	.word	0x00000000
 80001d8:	20000074 	.word	0x20000074
 80001dc:	08003a4c 	.word	0x08003a4c

080001e0 <memchr>:
 80001e0:	f001 01ff 	and.w	r1, r1, #255	; 0xff
 80001e4:	2a10      	cmp	r2, #16
 80001e6:	db2b      	blt.n	8000240 <memchr+0x60>
 80001e8:	f010 0f07 	tst.w	r0, #7
 80001ec:	d008      	beq.n	8000200 <memchr+0x20>
 80001ee:	f810 3b01 	ldrb.w	r3, [r0], #1
 80001f2:	3a01      	subs	r2, #1
 80001f4:	428b      	cmp	r3, r1
 80001f6:	d02d      	beq.n	8000254 <memchr+0x74>
 80001f8:	f010 0f07 	tst.w	r0, #7
 80001fc:	b342      	cbz	r2, 8000250 <memchr+0x70>
 80001fe:	d1f6      	bne.n	80001ee <memchr+0xe>
 8000200:	b4f0      	push	{r4, r5, r6, r7}
 8000202:	ea41 2101 	orr.w	r1, r1, r1, lsl #8
 8000206:	ea41 4101 	orr.w	r1, r1, r1, lsl #16
 800020a:	f022 0407 	bic.w	r4, r2, #7
 800020e:	f07f 0700 	mvns.w	r7, #0
 8000212:	2300      	movs	r3, #0
 8000214:	e8f0 5602 	ldrd	r5, r6, [r0], #8
 8000218:	3c08      	subs	r4, #8
 800021a:	ea85 0501 	eor.w	r5, r5, r1
 800021e:	ea86 0601 	eor.w	r6, r6, r1
 8000222:	fa85 f547 	uadd8	r5, r5, r7
 8000226:	faa3 f587 	sel	r5, r3, r7
 800022a:	fa86 f647 	uadd8	r6, r6, r7
 800022e:	faa5 f687 	sel	r6, r5, r7
 8000232:	b98e      	cbnz	r6, 8000258 <memchr+0x78>
 8000234:	d1ee      	bne.n	8000214 <memchr+0x34>
 8000236:	bcf0      	pop	{r4, r5, r6, r7}
 8000238:	f001 01ff 	and.w	r1, r1, #255	; 0xff
 800023c:	f002 0207 	and.w	r2, r2, #7
 8000240:	b132      	cbz	r2, 8000250 <memchr+0x70>
 8000242:	f810 3b01 	ldrb.w	r3, [r0], #1
 8000246:	3a01      	subs	r2, #1
 8000248:	ea83 0301 	eor.w	r3, r3, r1
 800024c:	b113      	cbz	r3, 8000254 <memchr+0x74>
 800024e:	d1f8      	bne.n	8000242 <memchr+0x62>
 8000250:	2000      	movs	r0, #0
 8000252:	4770      	bx	lr
 8000254:	3801      	subs	r0, #1
 8000256:	4770      	bx	lr
 8000258:	2d00      	cmp	r5, #0
 800025a:	bf06      	itte	eq
 800025c:	4635      	moveq	r5, r6
 800025e:	3803      	subeq	r0, #3
 8000260:	3807      	subne	r0, #7
 8000262:	f015 0f01 	tst.w	r5, #1
 8000266:	d107      	bne.n	8000278 <memchr+0x98>
 8000268:	3001      	adds	r0, #1
 800026a:	f415 7f80 	tst.w	r5, #256	; 0x100
 800026e:	bf02      	ittt	eq
 8000270:	3001      	addeq	r0, #1
 8000272:	f415 3fc0 	tsteq.w	r5, #98304	; 0x18000
 8000276:	3001      	addeq	r0, #1
 8000278:	bcf0      	pop	{r4, r5, r6, r7}
 800027a:	3801      	subs	r0, #1
 800027c:	4770      	bx	lr
 800027e:	bf00      	nop

08000280 <__aeabi_uldivmod>:
 8000280:	b953      	cbnz	r3, 8000298 <__aeabi_uldivmod+0x18>
 8000282:	b94a      	cbnz	r2, 8000298 <__aeabi_uldivmod+0x18>
 8000284:	2900      	cmp	r1, #0
 8000286:	bf08      	it	eq
 8000288:	2800      	cmpeq	r0, #0
 800028a:	bf1c      	itt	ne
 800028c:	f04f 31ff 	movne.w	r1, #4294967295	; 0xffffffff
 8000290:	f04f 30ff 	movne.w	r0, #4294967295	; 0xffffffff
 8000294:	f000 b96e 	b.w	8000574 <__aeabi_idiv0>
 8000298:	f1ad 0c08 	sub.w	ip, sp, #8
 800029c:	e96d ce04 	strd	ip, lr, [sp, #-16]!
 80002a0:	f000 f806 	bl	80002b0 <__udivmoddi4>
 80002a4:	f8dd e004 	ldr.w	lr, [sp, #4]
 80002a8:	e9dd 2302 	ldrd	r2, r3, [sp, #8]
 80002ac:	b004      	add	sp, #16
 80002ae:	4770      	bx	lr

080002b0 <__udivmoddi4>:
 80002b0:	e92d 47f0 	stmdb	sp!, {r4, r5, r6, r7, r8, r9, sl, lr}
 80002b4:	9d08      	ldr	r5, [sp, #32]
 80002b6:	4604      	mov	r4, r0
 80002b8:	468c      	mov	ip, r1
 80002ba:	2b00      	cmp	r3, #0
 80002bc:	f040 8083 	bne.w	80003c6 <__udivmoddi4+0x116>
 80002c0:	428a      	cmp	r2, r1
 80002c2:	4617      	mov	r7, r2
 80002c4:	d947      	bls.n	8000356 <__udivmoddi4+0xa6>
 80002c6:	fab2 f282 	clz	r2, r2
 80002ca:	b142      	cbz	r2, 80002de <__udivmoddi4+0x2e>
 80002cc:	f1c2 0020 	rsb	r0, r2, #32
 80002d0:	fa24 f000 	lsr.w	r0, r4, r0
 80002d4:	4091      	lsls	r1, r2
 80002d6:	4097      	lsls	r7, r2
 80002d8:	ea40 0c01 	orr.w	ip, r0, r1
 80002dc:	4094      	lsls	r4, r2
 80002de:	ea4f 4817 	mov.w	r8, r7, lsr #16
 80002e2:	0c23      	lsrs	r3, r4, #16
 80002e4:	fbbc f6f8 	udiv	r6, ip, r8
 80002e8:	fa1f fe87 	uxth.w	lr, r7
 80002ec:	fb08 c116 	mls	r1, r8, r6, ip
 80002f0:	ea43 4301 	orr.w	r3, r3, r1, lsl #16
 80002f4:	fb06 f10e 	mul.w	r1, r6, lr
 80002f8:	4299      	cmp	r1, r3
 80002fa:	d909      	bls.n	8000310 <__udivmoddi4+0x60>
 80002fc:	18fb      	adds	r3, r7, r3
 80002fe:	f106 30ff 	add.w	r0, r6, #4294967295	; 0xffffffff
 8000302:	f080 8119 	bcs.w	8000538 <__udivmoddi4+0x288>
 8000306:	4299      	cmp	r1, r3
 8000308:	f240 8116 	bls.w	8000538 <__udivmoddi4+0x288>
 800030c:	3e02      	subs	r6, #2
 800030e:	443b      	add	r3, r7
 8000310:	1a5b      	subs	r3, r3, r1
 8000312:	b2a4      	uxth	r4, r4
 8000314:	fbb3 f0f8 	udiv	r0, r3, r8
 8000318:	fb08 3310 	mls	r3, r8, r0, r3
 800031c:	ea44 4403 	orr.w	r4, r4, r3, lsl #16
 8000320:	fb00 fe0e 	mul.w	lr, r0, lr
 8000324:	45a6      	cmp	lr, r4
 8000326:	d909      	bls.n	800033c <__udivmoddi4+0x8c>
 8000328:	193c      	adds	r4, r7, r4
 800032a:	f100 33ff 	add.w	r3, r0, #4294967295	; 0xffffffff
 800032e:	f080 8105 	bcs.w	800053c <__udivmoddi4+0x28c>
 8000332:	45a6      	cmp	lr, r4
 8000334:	f240 8102 	bls.w	800053c <__udivmoddi4+0x28c>
 8000338:	3802      	subs	r0, #2
 800033a:	443c      	add	r4, r7
 800033c:	ea40 4006 	orr.w	r0, r0, r6, lsl #16
 8000340:	eba4 040e 	sub.w	r4, r4, lr
 8000344:	2600      	movs	r6, #0
 8000346:	b11d      	cbz	r5, 8000350 <__udivmoddi4+0xa0>
 8000348:	40d4      	lsrs	r4, r2
 800034a:	2300      	movs	r3, #0
 800034c:	e9c5 4300 	strd	r4, r3, [r5]
 8000350:	4631      	mov	r1, r6
 8000352:	e8bd 87f0 	ldmia.w	sp!, {r4, r5, r6, r7, r8, r9, sl, pc}
 8000356:	b902      	cbnz	r2, 800035a <__udivmoddi4+0xaa>
 8000358:	deff      	udf	#255	; 0xff
 800035a:	fab2 f282 	clz	r2, r2
 800035e:	2a00      	cmp	r2, #0
 8000360:	d150      	bne.n	8000404 <__udivmoddi4+0x154>
 8000362:	1bcb      	subs	r3, r1, r7
 8000364:	ea4f 4e17 	mov.w	lr, r7, lsr #16
 8000368:	fa1f f887 	uxth.w	r8, r7
 800036c:	2601      	movs	r6, #1
 800036e:	fbb3 fcfe 	udiv	ip, r3, lr
 8000372:	0c21      	lsrs	r1, r4, #16
 8000374:	fb0e 331c 	mls	r3, lr, ip, r3
 8000378:	ea41 4103 	orr.w	r1, r1, r3, lsl #16
 800037c:	fb08 f30c 	mul.w	r3, r8, ip
 8000380:	428b      	cmp	r3, r1
 8000382:	d907      	bls.n	8000394 <__udivmoddi4+0xe4>
 8000384:	1879      	adds	r1, r7, r1
 8000386:	f10c 30ff 	add.w	r0, ip, #4294967295	; 0xffffffff
 800038a:	d202      	bcs.n	8000392 <__udivmoddi4+0xe2>
 800038c:	428b      	cmp	r3, r1
 800038e:	f200 80e9 	bhi.w	8000564 <__udivmoddi4+0x2b4>
 8000392:	4684      	mov	ip, r0
 8000394:	1ac9      	subs	r1, r1, r3
 8000396:	b2a3      	uxth	r3, r4
 8000398:	fbb1 f0fe 	udiv	r0, r1, lr
 800039c:	fb0e 1110 	mls	r1, lr, r0, r1
 80003a0:	ea43 4401 	orr.w	r4, r3, r1, lsl #16
 80003a4:	fb08 f800 	mul.w	r8, r8, r0
 80003a8:	45a0      	cmp	r8, r4
 80003aa:	d907      	bls.n	80003bc <__udivmoddi4+0x10c>
 80003ac:	193c      	adds	r4, r7, r4
 80003ae:	f100 33ff 	add.w	r3, r0, #4294967295	; 0xffffffff
 80003b2:	d202      	bcs.n	80003ba <__udivmoddi4+0x10a>
 80003b4:	45a0      	cmp	r8, r4
 80003b6:	f200 80d9 	bhi.w	800056c <__udivmoddi4+0x2bc>
 80003ba:	4618      	mov	r0, r3
 80003bc:	eba4 0408 	sub.w	r4, r4, r8
 80003c0:	ea40 400c 	orr.w	r0, r0, ip, lsl #16
 80003c4:	e7bf      	b.n	8000346 <__udivmoddi4+0x96>
 80003c6:	428b      	cmp	r3, r1
 80003c8:	d909      	bls.n	80003de <__udivmoddi4+0x12e>
 80003ca:	2d00      	cmp	r5, #0
 80003cc:	f000 80b1 	beq.w	8000532 <__udivmoddi4+0x282>
 80003d0:	2600      	movs	r6, #0
 80003d2:	e9c5 0100 	strd	r0, r1, [r5]
 80003d6:	4630      	mov	r0, r6
 80003d8:	4631      	mov	r1, r6
 80003da:	e8bd 87f0 	ldmia.w	sp!, {r4, r5, r6, r7, r8, r9, sl, pc}
 80003de:	fab3 f683 	clz	r6, r3
 80003e2:	2e00      	cmp	r6, #0
 80003e4:	d14a      	bne.n	800047c <__udivmoddi4+0x1cc>
 80003e6:	428b      	cmp	r3, r1
 80003e8:	d302      	bcc.n	80003f0 <__udivmoddi4+0x140>
 80003ea:	4282      	cmp	r2, r0
 80003ec:	f200 80b8 	bhi.w	8000560 <__udivmoddi4+0x2b0>
 80003f0:	1a84      	subs	r4, r0, r2
 80003f2:	eb61 0103 	sbc.w	r1, r1, r3
 80003f6:	2001      	movs	r0, #1
 80003f8:	468c      	mov	ip, r1
 80003fa:	2d00      	cmp	r5, #0
 80003fc:	d0a8      	beq.n	8000350 <__udivmoddi4+0xa0>
 80003fe:	e9c5 4c00 	strd	r4, ip, [r5]
 8000402:	e7a5      	b.n	8000350 <__udivmoddi4+0xa0>
 8000404:	f1c2 0320 	rsb	r3, r2, #32
 8000408:	fa20 f603 	lsr.w	r6, r0, r3
 800040c:	4097      	lsls	r7, r2
 800040e:	fa01 f002 	lsl.w	r0, r1, r2
 8000412:	ea4f 4e17 	mov.w	lr, r7, lsr #16
 8000416:	40d9      	lsrs	r1, r3
 8000418:	4330      	orrs	r0, r6
 800041a:	0c03      	lsrs	r3, r0, #16
 800041c:	fbb1 f6fe 	udiv	r6, r1, lr
 8000420:	fa1f f887 	uxth.w	r8, r7
 8000424:	fb0e 1116 	mls	r1, lr, r6, r1
 8000428:	ea43 4301 	orr.w	r3, r3, r1, lsl #16
 800042c:	fb06 f108 	mul.w	r1, r6, r8
 8000430:	4299      	cmp	r1, r3
 8000432:	fa04 f402 	lsl.w	r4, r4, r2
 8000436:	d909      	bls.n	800044c <__udivmoddi4+0x19c>
 8000438:	18fb      	adds	r3, r7, r3
 800043a:	f106 3cff 	add.w	ip, r6, #4294967295	; 0xffffffff
 800043e:	f080 808d 	bcs.w	800055c <__udivmoddi4+0x2ac>
 8000442:	4299      	cmp	r1, r3
 8000444:	f240 808a 	bls.w	800055c <__udivmoddi4+0x2ac>
 8000448:	3e02      	subs	r6, #2
 800044a:	443b      	add	r3, r7
 800044c:	1a5b      	subs	r3, r3, r1
 800044e:	b281      	uxth	r1, r0
 8000450:	fbb3 f0fe 	udiv	r0, r3, lr
 8000454:	fb0e 3310 	mls	r3, lr, r0, r3
 8000458:	ea41 4103 	orr.w	r1, r1, r3, lsl #16
 800045c:	fb00 f308 	mul.w	r3, r0, r8
 8000460:	428b      	cmp	r3, r1
 8000462:	d907      	bls.n	8000474 <__udivmoddi4+0x1c4>
 8000464:	1879      	adds	r1, r7, r1
 8000466:	f100 3cff 	add.w	ip, r0, #4294967295	; 0xffffffff
 800046a:	d273      	bcs.n	8000554 <__udivmoddi4+0x2a4>
 800046c:	428b      	cmp	r3, r1
 800046e:	d971      	bls.n	8000554 <__udivmoddi4+0x2a4>
 8000470:	3802      	subs	r0, #2
 8000472:	4439      	add	r1, r7
 8000474:	1acb      	subs	r3, r1, r3
 8000476:	ea40 4606 	orr.w	r6, r0, r6, lsl #16
 800047a:	e778      	b.n	800036e <__udivmoddi4+0xbe>
 800047c:	f1c6 0c20 	rsb	ip, r6, #32
 8000480:	fa03 f406 	lsl.w	r4, r3, r6
 8000484:	fa22 f30c 	lsr.w	r3, r2, ip
 8000488:	431c      	orrs	r4, r3
 800048a:	fa20 f70c 	lsr.w	r7, r0, ip
 800048e:	fa01 f306 	lsl.w	r3, r1, r6
 8000492:	ea4f 4e14 	mov.w	lr, r4, lsr #16
 8000496:	fa21 f10c 	lsr.w	r1, r1, ip
 800049a:	431f      	orrs	r7, r3
 800049c:	0c3b      	lsrs	r3, r7, #16
 800049e:	fbb1 f9fe 	udiv	r9, r1, lr
 80004a2:	fa1f f884 	uxth.w	r8, r4
 80004a6:	fb0e 1119 	mls	r1, lr, r9, r1
 80004aa:	ea43 4101 	orr.w	r1, r3, r1, lsl #16
 80004ae:	fb09 fa08 	mul.w	sl, r9, r8
 80004b2:	458a      	cmp	sl, r1
 80004b4:	fa02 f206 	lsl.w	r2, r2, r6
 80004b8:	fa00 f306 	lsl.w	r3, r0, r6
 80004bc:	d908      	bls.n	80004d0 <__udivmoddi4+0x220>
 80004be:	1861      	adds	r1, r4, r1
 80004c0:	f109 30ff 	add.w	r0, r9, #4294967295	; 0xffffffff
 80004c4:	d248      	bcs.n	8000558 <__udivmoddi4+0x2a8>
 80004c6:	458a      	cmp	sl, r1
 80004c8:	d946      	bls.n	8000558 <__udivmoddi4+0x2a8>
 80004ca:	f1a9 0902 	sub.w	r9, r9, #2
 80004ce:	4421      	add	r1, r4
 80004d0:	eba1 010a 	sub.w	r1, r1, sl
 80004d4:	b2bf      	uxth	r7, r7
 80004d6:	fbb1 f0fe 	udiv	r0, r1, lr
 80004da:	fb0e 1110 	mls	r1, lr, r0, r1
 80004de:	ea47 4701 	orr.w	r7, r7, r1, lsl #16
 80004e2:	fb00 f808 	mul.w	r8, r0, r8
 80004e6:	45b8      	cmp	r8, r7
 80004e8:	d907      	bls.n	80004fa <__udivmoddi4+0x24a>
 80004ea:	19e7      	adds	r7, r4, r7
 80004ec:	f100 31ff 	add.w	r1, r0, #4294967295	; 0xffffffff
 80004f0:	d22e      	bcs.n	8000550 <__udivmoddi4+0x2a0>
 80004f2:	45b8      	cmp	r8, r7
 80004f4:	d92c      	bls.n	8000550 <__udivmoddi4+0x2a0>
 80004f6:	3802      	subs	r0, #2
 80004f8:	4427      	add	r7, r4
 80004fa:	ea40 4009 	orr.w	r0, r0, r9, lsl #16
 80004fe:	eba7 0708 	sub.w	r7, r7, r8
 8000502:	fba0 8902 	umull	r8, r9, r0, r2
 8000506:	454f      	cmp	r7, r9
 8000508:	46c6      	mov	lr, r8
 800050a:	4649      	mov	r1, r9
 800050c:	d31a      	bcc.n	8000544 <__udivmoddi4+0x294>
 800050e:	d017      	beq.n	8000540 <__udivmoddi4+0x290>
 8000510:	b15d      	cbz	r5, 800052a <__udivmoddi4+0x27a>
 8000512:	ebb3 020e 	subs.w	r2, r3, lr
 8000516:	eb67 0701 	sbc.w	r7, r7, r1
 800051a:	fa07 fc0c 	lsl.w	ip, r7, ip
 800051e:	40f2      	lsrs	r2, r6
 8000520:	ea4c 0202 	orr.w	r2, ip, r2
 8000524:	40f7      	lsrs	r7, r6
 8000526:	e9c5 2700 	strd	r2, r7, [r5]
 800052a:	2600      	movs	r6, #0
 800052c:	4631      	mov	r1, r6
 800052e:	e8bd 87f0 	ldmia.w	sp!, {r4, r5, r6, r7, r8, r9, sl, pc}
 8000532:	462e      	mov	r6, r5
 8000534:	4628      	mov	r0, r5
 8000536:	e70b      	b.n	8000350 <__udivmoddi4+0xa0>
 8000538:	4606      	mov	r6, r0
 800053a:	e6e9      	b.n	8000310 <__udivmoddi4+0x60>
 800053c:	4618      	mov	r0, r3
 800053e:	e6fd      	b.n	800033c <__udivmoddi4+0x8c>
 8000540:	4543      	cmp	r3, r8
 8000542:	d2e5      	bcs.n	8000510 <__udivmoddi4+0x260>
 8000544:	ebb8 0e02 	subs.w	lr, r8, r2
 8000548:	eb69 0104 	sbc.w	r1, r9, r4
 800054c:	3801      	subs	r0, #1
 800054e:	e7df      	b.n	8000510 <__udivmoddi4+0x260>
 8000550:	4608      	mov	r0, r1
 8000552:	e7d2      	b.n	80004fa <__udivmoddi4+0x24a>
 8000554:	4660      	mov	r0, ip
 8000556:	e78d      	b.n	8000474 <__udivmoddi4+0x1c4>
 8000558:	4681      	mov	r9, r0
 800055a:	e7b9      	b.n	80004d0 <__udivmoddi4+0x220>
 800055c:	4666      	mov	r6, ip
 800055e:	e775      	b.n	800044c <__udivmoddi4+0x19c>
 8000560:	4630      	mov	r0, r6
 8000562:	e74a      	b.n	80003fa <__udivmoddi4+0x14a>
 8000564:	f1ac 0c02 	sub.w	ip, ip, #2
 8000568:	4439      	add	r1, r7
 800056a:	e713      	b.n	8000394 <__udivmoddi4+0xe4>
 800056c:	3802      	subs	r0, #2
 800056e:	443c      	add	r4, r7
 8000570:	e724      	b.n	80003bc <__udivmoddi4+0x10c>
 8000572:	bf00      	nop

08000574 <__aeabi_idiv0>:
 8000574:	4770      	bx	lr
 8000576:	bf00      	nop

08000578 <Error_Handler>:
 8000578:	b672      	cpsid	i
 800057a:	e7fe      	b.n	800057a <Error_Handler+0x2>

0800057c <SystemClock_Config>:
 800057c:	b500      	push	{lr}
 800057e:	b095      	sub	sp, #84	; 0x54
 8000580:	2230      	movs	r2, #48	; 0x30
 8000582:	2100      	movs	r1, #0
 8000584:	a808      	add	r0, sp, #32
 8000586:	f002 fa07 	bl	8002998 <memset>
 800058a:	2300      	movs	r3, #0
 800058c:	9303      	str	r3, [sp, #12]
 800058e:	9304      	str	r3, [sp, #16]
 8000590:	9305      	str	r3, [sp, #20]
 8000592:	9306      	str	r3, [sp, #24]
 8000594:	9307      	str	r3, [sp, #28]
 8000596:	9301      	str	r3, [sp, #4]
 8000598:	4a1e      	ldr	r2, [pc, #120]	; (8000614 <SystemClock_Config+0x98>)
 800059a:	6c11      	ldr	r1, [r2, #64]	; 0x40
 800059c:	f041 5180 	orr.w	r1, r1, #268435456	; 0x10000000
 80005a0:	6411      	str	r1, [r2, #64]	; 0x40
 80005a2:	6c12      	ldr	r2, [r2, #64]	; 0x40
 80005a4:	f002 5280 	and.w	r2, r2, #268435456	; 0x10000000
 80005a8:	9201      	str	r2, [sp, #4]
 80005aa:	9a01      	ldr	r2, [sp, #4]
 80005ac:	9302      	str	r3, [sp, #8]
 80005ae:	4a1a      	ldr	r2, [pc, #104]	; (8000618 <SystemClock_Config+0x9c>)
 80005b0:	6811      	ldr	r1, [r2, #0]
 80005b2:	f441 4140 	orr.w	r1, r1, #49152	; 0xc000
 80005b6:	6011      	str	r1, [r2, #0]
 80005b8:	6812      	ldr	r2, [r2, #0]
 80005ba:	f402 4240 	and.w	r2, r2, #49152	; 0xc000
 80005be:	9202      	str	r2, [sp, #8]
 80005c0:	9a02      	ldr	r2, [sp, #8]
 80005c2:	2202      	movs	r2, #2
 80005c4:	9208      	str	r2, [sp, #32]
 80005c6:	2101      	movs	r1, #1
 80005c8:	910b      	str	r1, [sp, #44]	; 0x2c
 80005ca:	2110      	movs	r1, #16
 80005cc:	910c      	str	r1, [sp, #48]	; 0x30
 80005ce:	920e      	str	r2, [sp, #56]	; 0x38
 80005d0:	930f      	str	r3, [sp, #60]	; 0x3c
 80005d2:	9110      	str	r1, [sp, #64]	; 0x40
 80005d4:	23c0      	movs	r3, #192	; 0xc0
 80005d6:	9311      	str	r3, [sp, #68]	; 0x44
 80005d8:	9212      	str	r2, [sp, #72]	; 0x48
 80005da:	2304      	movs	r3, #4
 80005dc:	9313      	str	r3, [sp, #76]	; 0x4c
 80005de:	a808      	add	r0, sp, #32
 80005e0:	f001 fcb2 	bl	8001f48 <HAL_RCC_OscConfig>
 80005e4:	b988      	cbnz	r0, 800060a <SystemClock_Config+0x8e>
 80005e6:	230f      	movs	r3, #15
 80005e8:	9303      	str	r3, [sp, #12]
 80005ea:	2302      	movs	r3, #2
 80005ec:	9304      	str	r3, [sp, #16]
 80005ee:	2300      	movs	r3, #0
 80005f0:	9305      	str	r3, [sp, #20]
 80005f2:	f44f 5280 	mov.w	r2, #4096	; 0x1000
 80005f6:	9206      	str	r2, [sp, #24]
 80005f8:	9307      	str	r3, [sp, #28]
 80005fa:	2103      	movs	r1, #3
 80005fc:	a803      	add	r0, sp, #12
 80005fe:	f001 feef 	bl	80023e0 <HAL_RCC_ClockConfig>
 8000602:	b920      	cbnz	r0, 800060e <SystemClock_Config+0x92>
 8000604:	b015      	add	sp, #84	; 0x54
 8000606:	f85d fb04 	ldr.w	pc, [sp], #4
 800060a:	f7ff ffb5 	bl	8000578 <Error_Handler>
 800060e:	f7ff ffb3 	bl	8000578 <Error_Handler>
 8000612:	bf00      	nop
 8000614:	40023800 	.word	0x40023800
 8000618:	40007000 	.word	0x40007000

0800061c <main>:
 800061c:	b530      	push	{r4, r5, lr}
 800061e:	b091      	sub	sp, #68	; 0x44
 8000620:	f002 f922 	bl	8002868 <HAL_Init>
 8000624:	f7ff ffaa 	bl	800057c <SystemClock_Config>
 8000628:	f000 f844 	bl	80006b4 <MX_GPIO_Init>
 800062c:	f000 f854 	bl	80006d8 <MX_I2C1_Init>
 8000630:	f000 f92a 	bl	8000888 <lcd_init>
 8000634:	ac08      	add	r4, sp, #32
 8000636:	4d1e      	ldr	r5, [pc, #120]	; (80006b0 <main+0x94>)
 8000638:	cd0f      	ldmia	r5!, {r0, r1, r2, r3}
 800063a:	c40f      	stmia	r4!, {r0, r1, r2, r3}
 800063c:	e895 000f 	ldmia.w	r5, {r0, r1, r2, r3}
 8000640:	e884 000f 	stmia.w	r4, {r0, r1, r2, r3}
 8000644:	2300      	movs	r3, #0
 8000646:	e004      	b.n	8000652 <main+0x36>
 8000648:	aa10      	add	r2, sp, #64	; 0x40
 800064a:	441a      	add	r2, r3
 800064c:	f802 3c40 	strb.w	r3, [r2, #-64]
 8000650:	3301      	adds	r3, #1
 8000652:	2b1f      	cmp	r3, #31
 8000654:	ddf8      	ble.n	8000648 <main+0x2c>
 8000656:	2400      	movs	r4, #0
 8000658:	e014      	b.n	8000684 <main+0x68>
 800065a:	f002 f9a5 	bl	80029a8 <rand>
 800065e:	f1c4 0220 	rsb	r2, r4, #32
 8000662:	fb90 f3f2 	sdiv	r3, r0, r2
 8000666:	fb02 0313 	mls	r3, r2, r3, r0
 800066a:	aa10      	add	r2, sp, #64	; 0x40
 800066c:	4422      	add	r2, r4
 800066e:	f812 1c40 	ldrb.w	r1, [r2, #-64]
 8000672:	a810      	add	r0, sp, #64	; 0x40
 8000674:	4403      	add	r3, r0
 8000676:	f813 0c40 	ldrb.w	r0, [r3, #-64]
 800067a:	f802 0c40 	strb.w	r0, [r2, #-64]
 800067e:	f803 1c40 	strb.w	r1, [r3, #-64]
 8000682:	3401      	adds	r4, #1
 8000684:	2c1e      	cmp	r4, #30
 8000686:	dde8      	ble.n	800065a <main+0x3e>
 8000688:	2400      	movs	r4, #0
 800068a:	e00d      	b.n	80006a8 <main+0x8c>
 800068c:	ab10      	add	r3, sp, #64	; 0x40
 800068e:	191d      	adds	r5, r3, r4
 8000690:	f815 0c40 	ldrb.w	r0, [r5, #-64]
 8000694:	f000 010f 	and.w	r1, r0, #15
 8000698:	0900      	lsrs	r0, r0, #4
 800069a:	f000 f8e3 	bl	8000864 <lcd_put_cur>
 800069e:	f815 0c20 	ldrb.w	r0, [r5, #-32]
 80006a2:	f000 f8da 	bl	800085a <lcd_send_byte_it>
 80006a6:	3401      	adds	r4, #1
 80006a8:	2c1f      	cmp	r4, #31
 80006aa:	ddef      	ble.n	800068c <main+0x70>
 80006ac:	e7fe      	b.n	80006ac <main+0x90>
 80006ae:	bf00      	nop
 80006b0:	08003a64 	.word	0x08003a64

080006b4 <MX_GPIO_Init>:
 80006b4:	b082      	sub	sp, #8
 80006b6:	2300      	movs	r3, #0
 80006b8:	9301      	str	r3, [sp, #4]
 80006ba:	4b06      	ldr	r3, [pc, #24]	; (80006d4 <MX_GPIO_Init+0x20>)
 80006bc:	6b1a      	ldr	r2, [r3, #48]	; 0x30
 80006be:	f042 0202 	orr.w	r2, r2, #2
 80006c2:	631a      	str	r2, [r3, #48]	; 0x30
 80006c4:	6b1b      	ldr	r3, [r3, #48]	; 0x30
 80006c6:	f003 0302 	and.w	r3, r3, #2
 80006ca:	9301      	str	r3, [sp, #4]
 80006cc:	9b01      	ldr	r3, [sp, #4]
 80006ce:	b002      	add	sp, #8
 80006d0:	4770      	bx	lr
 80006d2:	bf00      	nop
 80006d4:	40023800 	.word	0x40023800

080006d8 <MX_I2C1_Init>:
 80006d8:	b508      	push	{r3, lr}
 80006da:	480b      	ldr	r0, [pc, #44]	; (8000708 <MX_I2C1_Init+0x30>)
 80006dc:	4b0b      	ldr	r3, [pc, #44]	; (800070c <MX_I2C1_Init+0x34>)
 80006de:	6003      	str	r3, [r0, #0]
 80006e0:	4b0b      	ldr	r3, [pc, #44]	; (8000710 <MX_I2C1_Init+0x38>)
 80006e2:	6043      	str	r3, [r0, #4]
 80006e4:	2300      	movs	r3, #0
 80006e6:	6083      	str	r3, [r0, #8]
 80006e8:	60c3      	str	r3, [r0, #12]
 80006ea:	f44f 4280 	mov.w	r2, #16384	; 0x4000
 80006ee:	6102      	str	r2, [r0, #16]
 80006f0:	6143      	str	r3, [r0, #20]
 80006f2:	6183      	str	r3, [r0, #24]
 80006f4:	61c3      	str	r3, [r0, #28]
 80006f6:	6203      	str	r3, [r0, #32]
 80006f8:	f000 fc22 	bl	8000f40 <HAL_I2C_Init>
 80006fc:	b900      	cbnz	r0, 8000700 <MX_I2C1_Init+0x28>
 80006fe:	bd08      	pop	{r3, pc}
 8000700:	f7ff ff3a 	bl	8000578 <Error_Handler>
 8000704:	e7fb      	b.n	80006fe <MX_I2C1_Init+0x26>
 8000706:	bf00      	nop
 8000708:	20000098 	.word	0x20000098
 800070c:	40005400 	.word	0x40005400
 8000710:	000186a0 	.word	0x000186a0

08000714 <HAL_I2C_MspInit>:
 8000714:	b530      	push	{r4, r5, lr}
 8000716:	b089      	sub	sp, #36	; 0x24
 8000718:	2300      	movs	r3, #0
 800071a:	9303      	str	r3, [sp, #12]
 800071c:	9304      	str	r3, [sp, #16]
 800071e:	9305      	str	r3, [sp, #20]
 8000720:	9306      	str	r3, [sp, #24]
 8000722:	9307      	str	r3, [sp, #28]
 8000724:	6802      	ldr	r2, [r0, #0]
 8000726:	4b1d      	ldr	r3, [pc, #116]	; (800079c <HAL_I2C_MspInit+0x88>)
 8000728:	429a      	cmp	r2, r3
 800072a:	d001      	beq.n	8000730 <HAL_I2C_MspInit+0x1c>
 800072c:	b009      	add	sp, #36	; 0x24
 800072e:	bd30      	pop	{r4, r5, pc}
 8000730:	2400      	movs	r4, #0
 8000732:	9401      	str	r4, [sp, #4]
 8000734:	4d1a      	ldr	r5, [pc, #104]	; (80007a0 <HAL_I2C_MspInit+0x8c>)
 8000736:	6b2b      	ldr	r3, [r5, #48]	; 0x30
 8000738:	f043 0302 	orr.w	r3, r3, #2
 800073c:	632b      	str	r3, [r5, #48]	; 0x30
 800073e:	6b2b      	ldr	r3, [r5, #48]	; 0x30
 8000740:	f003 0302 	and.w	r3, r3, #2
 8000744:	9301      	str	r3, [sp, #4]
 8000746:	9b01      	ldr	r3, [sp, #4]
 8000748:	f44f 7340 	mov.w	r3, #768	; 0x300
 800074c:	9303      	str	r3, [sp, #12]
 800074e:	2312      	movs	r3, #18
 8000750:	9304      	str	r3, [sp, #16]
 8000752:	2301      	movs	r3, #1
 8000754:	9305      	str	r3, [sp, #20]
 8000756:	2303      	movs	r3, #3
 8000758:	9306      	str	r3, [sp, #24]
 800075a:	2304      	movs	r3, #4
 800075c:	9307      	str	r3, [sp, #28]
 800075e:	a903      	add	r1, sp, #12
 8000760:	4810      	ldr	r0, [pc, #64]	; (80007a4 <HAL_I2C_MspInit+0x90>)
 8000762:	f001 ff03 	bl	800256c <HAL_GPIO_Init>
 8000766:	9402      	str	r4, [sp, #8]
 8000768:	6c2b      	ldr	r3, [r5, #64]	; 0x40
 800076a:	f443 1300 	orr.w	r3, r3, #2097152	; 0x200000
 800076e:	642b      	str	r3, [r5, #64]	; 0x40
 8000770:	6c2b      	ldr	r3, [r5, #64]	; 0x40
 8000772:	f403 1300 	and.w	r3, r3, #2097152	; 0x200000
 8000776:	9302      	str	r3, [sp, #8]
 8000778:	9b02      	ldr	r3, [sp, #8]
 800077a:	4622      	mov	r2, r4
 800077c:	4621      	mov	r1, r4
 800077e:	201f      	movs	r0, #31
 8000780:	f001 fff4 	bl	800276c <HAL_NVIC_SetPriority>
 8000784:	201f      	movs	r0, #31
 8000786:	f002 f825 	bl	80027d4 <HAL_NVIC_EnableIRQ>
 800078a:	4622      	mov	r2, r4
 800078c:	4621      	mov	r1, r4
 800078e:	2020      	movs	r0, #32
 8000790:	f001 ffec 	bl	800276c <HAL_NVIC_SetPriority>
 8000794:	2020      	movs	r0, #32
 8000796:	f002 f81d 	bl	80027d4 <HAL_NVIC_EnableIRQ>
 800079a:	e7c7      	b.n	800072c <HAL_I2C_MspInit+0x18>
 800079c:	40005400 	.word	0x40005400
 80007a0:	40023800 	.word	0x40023800
 80007a4:	40020400 	.word	0x40020400

080007a8 <lcd_send_hook>:
 80007a8:	b500      	push	{lr}
 80007aa:	b085      	sub	sp, #20
 80007ac:	f000 02f0 	and.w	r2, r0, #240	; 0xf0
 80007b0:	0103      	lsls	r3, r0, #4
 80007b2:	b2db      	uxtb	r3, r3
 80007b4:	430a      	orrs	r2, r1
 80007b6:	f042 000c 	orr.w	r0, r2, #12
 80007ba:	f88d 000c 	strb.w	r0, [sp, #12]
 80007be:	f042 0208 	orr.w	r2, r2, #8
 80007c2:	f88d 200d 	strb.w	r2, [sp, #13]
 80007c6:	430b      	orrs	r3, r1
 80007c8:	f043 020c 	orr.w	r2, r3, #12
 80007cc:	f88d 200e 	strb.w	r2, [sp, #14]
 80007d0:	f043 0308 	orr.w	r3, r3, #8
 80007d4:	f88d 300f 	strb.w	r3, [sp, #15]
 80007d8:	f04f 33ff 	mov.w	r3, #4294967295	; 0xffffffff
 80007dc:	9300      	str	r3, [sp, #0]
 80007de:	2304      	movs	r3, #4
 80007e0:	aa03      	add	r2, sp, #12
 80007e2:	217e      	movs	r1, #126	; 0x7e
 80007e4:	4803      	ldr	r0, [pc, #12]	; (80007f4 <lcd_send_hook+0x4c>)
 80007e6:	f000 fc89 	bl	80010fc <HAL_I2C_Master_Transmit>
 80007ea:	b100      	cbz	r0, 80007ee <lcd_send_hook+0x46>
 80007ec:	e7fe      	b.n	80007ec <lcd_send_hook+0x44>
 80007ee:	b005      	add	sp, #20
 80007f0:	f85d fb04 	ldr.w	pc, [sp], #4
 80007f4:	20000098 	.word	0x20000098

080007f8 <lcd_send_hook_it>:
 80007f8:	b500      	push	{lr}
 80007fa:	b083      	sub	sp, #12
 80007fc:	f000 02f0 	and.w	r2, r0, #240	; 0xf0
 8000800:	0103      	lsls	r3, r0, #4
 8000802:	b2db      	uxtb	r3, r3
 8000804:	430a      	orrs	r2, r1
 8000806:	f042 000c 	orr.w	r0, r2, #12
 800080a:	f88d 0004 	strb.w	r0, [sp, #4]
 800080e:	f042 0208 	orr.w	r2, r2, #8
 8000812:	f88d 2005 	strb.w	r2, [sp, #5]
 8000816:	430b      	orrs	r3, r1
 8000818:	f043 020c 	orr.w	r2, r3, #12
 800081c:	f88d 2006 	strb.w	r2, [sp, #6]
 8000820:	f043 0308 	orr.w	r3, r3, #8
 8000824:	f88d 3007 	strb.w	r3, [sp, #7]
 8000828:	2304      	movs	r3, #4
 800082a:	eb0d 0203 	add.w	r2, sp, r3
 800082e:	217e      	movs	r1, #126	; 0x7e
 8000830:	4806      	ldr	r0, [pc, #24]	; (800084c <lcd_send_hook_it+0x54>)
 8000832:	f000 fd1f 	bl	8001274 <HAL_I2C_Master_Transmit_IT>
 8000836:	b100      	cbz	r0, 800083a <lcd_send_hook_it+0x42>
 8000838:	e7fe      	b.n	8000838 <lcd_send_hook_it+0x40>
 800083a:	4804      	ldr	r0, [pc, #16]	; (800084c <lcd_send_hook_it+0x54>)
 800083c:	f001 fb81 	bl	8001f42 <HAL_I2C_GetState>
 8000840:	2820      	cmp	r0, #32
 8000842:	d1fa      	bne.n	800083a <lcd_send_hook_it+0x42>
 8000844:	b003      	add	sp, #12
 8000846:	f85d fb04 	ldr.w	pc, [sp], #4
 800084a:	bf00      	nop
 800084c:	20000098 	.word	0x20000098

08000850 <lcd_send_cmd>:
 8000850:	b508      	push	{r3, lr}
 8000852:	2100      	movs	r1, #0
 8000854:	f7ff ffa8 	bl	80007a8 <lcd_send_hook>
 8000858:	bd08      	pop	{r3, pc}

0800085a <lcd_send_byte_it>:
 800085a:	b508      	push	{r3, lr}
 800085c:	2101      	movs	r1, #1
 800085e:	f7ff ffcb 	bl	80007f8 <lcd_send_hook_it>
 8000862:	bd08      	pop	{r3, pc}

08000864 <lcd_put_cur>:
 8000864:	b508      	push	{r3, lr}
 8000866:	b128      	cbz	r0, 8000874 <lcd_put_cur+0x10>
 8000868:	20c0      	movs	r0, #192	; 0xc0
 800086a:	4308      	orrs	r0, r1
 800086c:	b2c0      	uxtb	r0, r0
 800086e:	f7ff ffef 	bl	8000850 <lcd_send_cmd>
 8000872:	bd08      	pop	{r3, pc}
 8000874:	2080      	movs	r0, #128	; 0x80
 8000876:	e7f8      	b.n	800086a <lcd_put_cur+0x6>

08000878 <lcd_clear>:
 8000878:	b508      	push	{r3, lr}
 800087a:	2001      	movs	r0, #1
 800087c:	f7ff ffe8 	bl	8000850 <lcd_send_cmd>
 8000880:	200a      	movs	r0, #10
 8000882:	f002 f81d 	bl	80028c0 <HAL_Delay>
 8000886:	bd08      	pop	{r3, pc}

08000888 <lcd_init>:
 8000888:	b508      	push	{r3, lr}
 800088a:	2030      	movs	r0, #48	; 0x30
 800088c:	f7ff ffe0 	bl	8000850 <lcd_send_cmd>
 8000890:	2002      	movs	r0, #2
 8000892:	f7ff ffdd 	bl	8000850 <lcd_send_cmd>
 8000896:	200c      	movs	r0, #12
 8000898:	f7ff ffda 	bl	8000850 <lcd_send_cmd>
 800089c:	f7ff ffec 	bl	8000878 <lcd_clear>
 80008a0:	bd08      	pop	{r3, pc}

080008a2 <NMI_Handler>:
 80008a2:	e7fe      	b.n	80008a2 <NMI_Handler>

080008a4 <HardFault_Handler>:
 80008a4:	e7fe      	b.n	80008a4 <HardFault_Handler>

080008a6 <MemManage_Handler>:
 80008a6:	e7fe      	b.n	80008a6 <MemManage_Handler>

080008a8 <BusFault_Handler>:
 80008a8:	e7fe      	b.n	80008a8 <BusFault_Handler>

080008aa <UsageFault_Handler>:
 80008aa:	e7fe      	b.n	80008aa <UsageFault_Handler>

080008ac <SVC_Handler>:
 80008ac:	4770      	bx	lr

080008ae <DebugMon_Handler>:
 80008ae:	4770      	bx	lr

080008b0 <PendSV_Handler>:
 80008b0:	4770      	bx	lr

080008b2 <SysTick_Handler>:
 80008b2:	b508      	push	{r3, lr}
 80008b4:	f001 fff2 	bl	800289c <HAL_IncTick>
 80008b8:	bd08      	pop	{r3, pc}
	...

080008bc <I2C1_EV_IRQHandler>:
 80008bc:	b508      	push	{r3, lr}
 80008be:	4802      	ldr	r0, [pc, #8]	; (80008c8 <I2C1_EV_IRQHandler+0xc>)
 80008c0:	f001 fa10 	bl	8001ce4 <HAL_I2C_EV_IRQHandler>
 80008c4:	bd08      	pop	{r3, pc}
 80008c6:	bf00      	nop
 80008c8:	20000098 	.word	0x20000098

080008cc <I2C1_ER_IRQHandler>:
 80008cc:	b508      	push	{r3, lr}
 80008ce:	4802      	ldr	r0, [pc, #8]	; (80008d8 <I2C1_ER_IRQHandler+0xc>)
 80008d0:	f001 fad5 	bl	8001e7e <HAL_I2C_ER_IRQHandler>
 80008d4:	bd08      	pop	{r3, pc}
 80008d6:	bf00      	nop
 80008d8:	20000098 	.word	0x20000098

080008dc <HAL_MspInit>:
 80008dc:	b082      	sub	sp, #8
 80008de:	2100      	movs	r1, #0
 80008e0:	9100      	str	r1, [sp, #0]
 80008e2:	4b0b      	ldr	r3, [pc, #44]	; (8000910 <HAL_MspInit+0x34>)
 80008e4:	6c5a      	ldr	r2, [r3, #68]	; 0x44
 80008e6:	f442 4280 	orr.w	r2, r2, #16384	; 0x4000
 80008ea:	645a      	str	r2, [r3, #68]	; 0x44
 80008ec:	6c5a      	ldr	r2, [r3, #68]	; 0x44
 80008ee:	f402 4280 	and.w	r2, r2, #16384	; 0x4000
 80008f2:	9200      	str	r2, [sp, #0]
 80008f4:	9a00      	ldr	r2, [sp, #0]
 80008f6:	9101      	str	r1, [sp, #4]
 80008f8:	6c1a      	ldr	r2, [r3, #64]	; 0x40
 80008fa:	f042 5280 	orr.w	r2, r2, #268435456	; 0x10000000
 80008fe:	641a      	str	r2, [r3, #64]	; 0x40
 8000900:	6c1b      	ldr	r3, [r3, #64]	; 0x40
 8000902:	f003 5380 	and.w	r3, r3, #268435456	; 0x10000000
 8000906:	9301      	str	r3, [sp, #4]
 8000908:	9b01      	ldr	r3, [sp, #4]
 800090a:	b002      	add	sp, #8
 800090c:	4770      	bx	lr
 800090e:	bf00      	nop
 8000910:	40023800 	.word	0x40023800

08000914 <I2C_Master_SB>:
 8000914:	f890 303e 	ldrb.w	r3, [r0, #62]	; 0x3e
 8000918:	b2db      	uxtb	r3, r3
 800091a:	2b40      	cmp	r3, #64	; 0x40
 800091c:	d010      	beq.n	8000940 <I2C_Master_SB+0x2c>
 800091e:	6903      	ldr	r3, [r0, #16]
 8000920:	f5b3 4f80 	cmp.w	r3, #16384	; 0x4000
 8000924:	d01b      	beq.n	800095e <I2C_Master_SB+0x4a>
 8000926:	6d03      	ldr	r3, [r0, #80]	; 0x50
 8000928:	2b00      	cmp	r3, #0
 800092a:	d139      	bne.n	80009a0 <I2C_Master_SB+0x8c>
 800092c:	6c43      	ldr	r3, [r0, #68]	; 0x44
 800092e:	f3c3 13c8 	ubfx	r3, r3, #7, #9
 8000932:	6802      	ldr	r2, [r0, #0]
 8000934:	f003 0306 	and.w	r3, r3, #6
 8000938:	f043 03f0 	orr.w	r3, r3, #240	; 0xf0
 800093c:	6113      	str	r3, [r2, #16]
 800093e:	4770      	bx	lr
 8000940:	6d03      	ldr	r3, [r0, #80]	; 0x50
 8000942:	b92b      	cbnz	r3, 8000950 <I2C_Master_SB+0x3c>
 8000944:	6c43      	ldr	r3, [r0, #68]	; 0x44
 8000946:	6802      	ldr	r2, [r0, #0]
 8000948:	f003 03fe 	and.w	r3, r3, #254	; 0xfe
 800094c:	6113      	str	r3, [r2, #16]
 800094e:	4770      	bx	lr
 8000950:	6c43      	ldr	r3, [r0, #68]	; 0x44
 8000952:	6802      	ldr	r2, [r0, #0]
 8000954:	f043 0301 	orr.w	r3, r3, #1
 8000958:	b2db      	uxtb	r3, r3
 800095a:	6113      	str	r3, [r2, #16]
 800095c:	4770      	bx	lr
 800095e:	f890 303d 	ldrb.w	r3, [r0, #61]	; 0x3d
 8000962:	b2db      	uxtb	r3, r3
 8000964:	2b21      	cmp	r3, #33	; 0x21
 8000966:	d00f      	beq.n	8000988 <I2C_Master_SB+0x74>
 8000968:	6c43      	ldr	r3, [r0, #68]	; 0x44
 800096a:	6802      	ldr	r2, [r0, #0]
 800096c:	f043 0301 	orr.w	r3, r3, #1
 8000970:	b2db      	uxtb	r3, r3
 8000972:	6113      	str	r3, [r2, #16]
 8000974:	6b43      	ldr	r3, [r0, #52]	; 0x34
 8000976:	b16b      	cbz	r3, 8000994 <I2C_Master_SB+0x80>
 8000978:	6bdb      	ldr	r3, [r3, #60]	; 0x3c
 800097a:	b15b      	cbz	r3, 8000994 <I2C_Master_SB+0x80>
 800097c:	6802      	ldr	r2, [r0, #0]
 800097e:	6853      	ldr	r3, [r2, #4]
 8000980:	f443 6300 	orr.w	r3, r3, #2048	; 0x800
 8000984:	6053      	str	r3, [r2, #4]
 8000986:	4770      	bx	lr
 8000988:	6c43      	ldr	r3, [r0, #68]	; 0x44
 800098a:	6802      	ldr	r2, [r0, #0]
 800098c:	f003 03fe 	and.w	r3, r3, #254	; 0xfe
 8000990:	6113      	str	r3, [r2, #16]
 8000992:	e7ef      	b.n	8000974 <I2C_Master_SB+0x60>
 8000994:	6b83      	ldr	r3, [r0, #56]	; 0x38
 8000996:	b133      	cbz	r3, 80009a6 <I2C_Master_SB+0x92>
 8000998:	6bdb      	ldr	r3, [r3, #60]	; 0x3c
 800099a:	2b00      	cmp	r3, #0
 800099c:	d1ee      	bne.n	800097c <I2C_Master_SB+0x68>
 800099e:	e002      	b.n	80009a6 <I2C_Master_SB+0x92>
 80009a0:	6d03      	ldr	r3, [r0, #80]	; 0x50
 80009a2:	2b01      	cmp	r3, #1
 80009a4:	d000      	beq.n	80009a8 <I2C_Master_SB+0x94>
 80009a6:	4770      	bx	lr
 80009a8:	6c43      	ldr	r3, [r0, #68]	; 0x44
 80009aa:	f3c3 13c8 	ubfx	r3, r3, #7, #9
 80009ae:	6802      	ldr	r2, [r0, #0]
 80009b0:	f003 0306 	and.w	r3, r3, #6
 80009b4:	f043 03f1 	orr.w	r3, r3, #241	; 0xf1
 80009b8:	6113      	str	r3, [r2, #16]
 80009ba:	e7f4      	b.n	80009a6 <I2C_Master_SB+0x92>

080009bc <I2C_Master_ADD10>:
 80009bc:	6c43      	ldr	r3, [r0, #68]	; 0x44
 80009be:	6802      	ldr	r2, [r0, #0]
 80009c0:	b2db      	uxtb	r3, r3
 80009c2:	6113      	str	r3, [r2, #16]
 80009c4:	6b43      	ldr	r3, [r0, #52]	; 0x34
 80009c6:	b13b      	cbz	r3, 80009d8 <I2C_Master_ADD10+0x1c>
 80009c8:	6bdb      	ldr	r3, [r3, #60]	; 0x3c
 80009ca:	b12b      	cbz	r3, 80009d8 <I2C_Master_ADD10+0x1c>
 80009cc:	6802      	ldr	r2, [r0, #0]
 80009ce:	6853      	ldr	r3, [r2, #4]
 80009d0:	f443 6300 	orr.w	r3, r3, #2048	; 0x800
 80009d4:	6053      	str	r3, [r2, #4]
 80009d6:	4770      	bx	lr
 80009d8:	6b83      	ldr	r3, [r0, #56]	; 0x38
 80009da:	2b00      	cmp	r3, #0
 80009dc:	d0fb      	beq.n	80009d6 <I2C_Master_ADD10+0x1a>
 80009de:	6bdb      	ldr	r3, [r3, #60]	; 0x3c
 80009e0:	2b00      	cmp	r3, #0
 80009e2:	d1f3      	bne.n	80009cc <I2C_Master_ADD10+0x10>
 80009e4:	e7f7      	b.n	80009d6 <I2C_Master_ADD10+0x1a>

080009e6 <I2C_Master_ADDR>:
 80009e6:	b410      	push	{r4}
 80009e8:	b08b      	sub	sp, #44	; 0x2c
 80009ea:	f890 303e 	ldrb.w	r3, [r0, #62]	; 0x3e
 80009ee:	b2da      	uxtb	r2, r3
 80009f0:	6ac1      	ldr	r1, [r0, #44]	; 0x2c
 80009f2:	6b04      	ldr	r4, [r0, #48]	; 0x30
 80009f4:	f890 303d 	ldrb.w	r3, [r0, #61]	; 0x3d
 80009f8:	b2db      	uxtb	r3, r3
 80009fa:	2b22      	cmp	r3, #34	; 0x22
 80009fc:	d00b      	beq.n	8000a16 <I2C_Master_ADDR+0x30>
 80009fe:	2300      	movs	r3, #0
 8000a00:	9309      	str	r3, [sp, #36]	; 0x24
 8000a02:	6803      	ldr	r3, [r0, #0]
 8000a04:	695a      	ldr	r2, [r3, #20]
 8000a06:	9209      	str	r2, [sp, #36]	; 0x24
 8000a08:	699b      	ldr	r3, [r3, #24]
 8000a0a:	9309      	str	r3, [sp, #36]	; 0x24
 8000a0c:	9b09      	ldr	r3, [sp, #36]	; 0x24
 8000a0e:	b00b      	add	sp, #44	; 0x2c
 8000a10:	f85d 4b04 	ldr.w	r4, [sp], #4
 8000a14:	4770      	bx	lr
 8000a16:	6d03      	ldr	r3, [r0, #80]	; 0x50
 8000a18:	b90b      	cbnz	r3, 8000a1e <I2C_Master_ADDR+0x38>
 8000a1a:	2a40      	cmp	r2, #64	; 0x40
 8000a1c:	d017      	beq.n	8000a4e <I2C_Master_ADDR+0x68>
 8000a1e:	6d03      	ldr	r3, [r0, #80]	; 0x50
 8000a20:	b91b      	cbnz	r3, 8000a2a <I2C_Master_ADDR+0x44>
 8000a22:	6903      	ldr	r3, [r0, #16]
 8000a24:	f5b3 4f40 	cmp.w	r3, #49152	; 0xc000
 8000a28:	d019      	beq.n	8000a5e <I2C_Master_ADDR+0x78>
 8000a2a:	8d43      	ldrh	r3, [r0, #42]	; 0x2a
 8000a2c:	b29b      	uxth	r3, r3
 8000a2e:	2b00      	cmp	r3, #0
 8000a30:	d125      	bne.n	8000a7e <I2C_Master_ADDR+0x98>
 8000a32:	9302      	str	r3, [sp, #8]
 8000a34:	6803      	ldr	r3, [r0, #0]
 8000a36:	695a      	ldr	r2, [r3, #20]
 8000a38:	9202      	str	r2, [sp, #8]
 8000a3a:	699a      	ldr	r2, [r3, #24]
 8000a3c:	9202      	str	r2, [sp, #8]
 8000a3e:	9a02      	ldr	r2, [sp, #8]
 8000a40:	681a      	ldr	r2, [r3, #0]
 8000a42:	f442 7200 	orr.w	r2, r2, #512	; 0x200
 8000a46:	601a      	str	r2, [r3, #0]
 8000a48:	2300      	movs	r3, #0
 8000a4a:	6503      	str	r3, [r0, #80]	; 0x50
 8000a4c:	e7df      	b.n	8000a0e <I2C_Master_ADDR+0x28>
 8000a4e:	9300      	str	r3, [sp, #0]
 8000a50:	6803      	ldr	r3, [r0, #0]
 8000a52:	695a      	ldr	r2, [r3, #20]
 8000a54:	9200      	str	r2, [sp, #0]
 8000a56:	699b      	ldr	r3, [r3, #24]
 8000a58:	9300      	str	r3, [sp, #0]
 8000a5a:	9b00      	ldr	r3, [sp, #0]
 8000a5c:	e7d7      	b.n	8000a0e <I2C_Master_ADDR+0x28>
 8000a5e:	2300      	movs	r3, #0
 8000a60:	9301      	str	r3, [sp, #4]
 8000a62:	6803      	ldr	r3, [r0, #0]
 8000a64:	695a      	ldr	r2, [r3, #20]
 8000a66:	9201      	str	r2, [sp, #4]
 8000a68:	699a      	ldr	r2, [r3, #24]
 8000a6a:	9201      	str	r2, [sp, #4]
 8000a6c:	9a01      	ldr	r2, [sp, #4]
 8000a6e:	681a      	ldr	r2, [r3, #0]
 8000a70:	f442 7280 	orr.w	r2, r2, #256	; 0x100
 8000a74:	601a      	str	r2, [r3, #0]
 8000a76:	6d03      	ldr	r3, [r0, #80]	; 0x50
 8000a78:	3301      	adds	r3, #1
 8000a7a:	6503      	str	r3, [r0, #80]	; 0x50
 8000a7c:	e7c7      	b.n	8000a0e <I2C_Master_ADDR+0x28>
 8000a7e:	8d43      	ldrh	r3, [r0, #42]	; 0x2a
 8000a80:	b29b      	uxth	r3, r3
 8000a82:	2b01      	cmp	r3, #1
 8000a84:	d025      	beq.n	8000ad2 <I2C_Master_ADDR+0xec>
 8000a86:	8d43      	ldrh	r3, [r0, #42]	; 0x2a
 8000a88:	b29b      	uxth	r3, r3
 8000a8a:	2b02      	cmp	r3, #2
 8000a8c:	d07b      	beq.n	8000b86 <I2C_Master_ADDR+0x1a0>
 8000a8e:	6802      	ldr	r2, [r0, #0]
 8000a90:	6813      	ldr	r3, [r2, #0]
 8000a92:	f443 6380 	orr.w	r3, r3, #1024	; 0x400
 8000a96:	6013      	str	r3, [r2, #0]
 8000a98:	6803      	ldr	r3, [r0, #0]
 8000a9a:	685a      	ldr	r2, [r3, #4]
 8000a9c:	f412 6f00 	tst.w	r2, #2048	; 0x800
 8000aa0:	d00e      	beq.n	8000ac0 <I2C_Master_ADDR+0xda>
 8000aa2:	f511 3f80 	cmn.w	r1, #65536	; 0x10000
 8000aa6:	d007      	beq.n	8000ab8 <I2C_Master_ADDR+0xd2>
 8000aa8:	2901      	cmp	r1, #1
 8000aaa:	d005      	beq.n	8000ab8 <I2C_Master_ADDR+0xd2>
 8000aac:	2908      	cmp	r1, #8
 8000aae:	d003      	beq.n	8000ab8 <I2C_Master_ADDR+0xd2>
 8000ab0:	2910      	cmp	r1, #16
 8000ab2:	d001      	beq.n	8000ab8 <I2C_Master_ADDR+0xd2>
 8000ab4:	2920      	cmp	r1, #32
 8000ab6:	d103      	bne.n	8000ac0 <I2C_Master_ADDR+0xda>
 8000ab8:	685a      	ldr	r2, [r3, #4]
 8000aba:	f442 5280 	orr.w	r2, r2, #4096	; 0x1000
 8000abe:	605a      	str	r2, [r3, #4]
 8000ac0:	2300      	movs	r3, #0
 8000ac2:	9308      	str	r3, [sp, #32]
 8000ac4:	6803      	ldr	r3, [r0, #0]
 8000ac6:	695a      	ldr	r2, [r3, #20]
 8000ac8:	9208      	str	r2, [sp, #32]
 8000aca:	699b      	ldr	r3, [r3, #24]
 8000acc:	9308      	str	r3, [sp, #32]
 8000ace:	9b08      	ldr	r3, [sp, #32]
 8000ad0:	e7ba      	b.n	8000a48 <I2C_Master_ADDR+0x62>
 8000ad2:	f511 3f80 	cmn.w	r1, #65536	; 0x10000
 8000ad6:	d011      	beq.n	8000afc <I2C_Master_ADDR+0x116>
 8000ad8:	2908      	cmp	r1, #8
 8000ada:	d034      	beq.n	8000b46 <I2C_Master_ADDR+0x160>
 8000adc:	2920      	cmp	r1, #32
 8000ade:	d032      	beq.n	8000b46 <I2C_Master_ADDR+0x160>
 8000ae0:	2c12      	cmp	r4, #18
 8000ae2:	d02e      	beq.n	8000b42 <I2C_Master_ADDR+0x15c>
 8000ae4:	2904      	cmp	r1, #4
 8000ae6:	d040      	beq.n	8000b6a <I2C_Master_ADDR+0x184>
 8000ae8:	2902      	cmp	r1, #2
 8000aea:	d03e      	beq.n	8000b6a <I2C_Master_ADDR+0x184>
 8000aec:	2910      	cmp	r1, #16
 8000aee:	d03c      	beq.n	8000b6a <I2C_Master_ADDR+0x184>
 8000af0:	6802      	ldr	r2, [r0, #0]
 8000af2:	6813      	ldr	r3, [r2, #0]
 8000af4:	f423 6380 	bic.w	r3, r3, #1024	; 0x400
 8000af8:	6013      	str	r3, [r2, #0]
 8000afa:	e03b      	b.n	8000b74 <I2C_Master_ADDR+0x18e>
 8000afc:	6802      	ldr	r2, [r0, #0]
 8000afe:	6813      	ldr	r3, [r2, #0]
 8000b00:	f423 6380 	bic.w	r3, r3, #1024	; 0x400
 8000b04:	6013      	str	r3, [r2, #0]
 8000b06:	6803      	ldr	r3, [r0, #0]
 8000b08:	685a      	ldr	r2, [r3, #4]
 8000b0a:	f412 6f00 	tst.w	r2, #2048	; 0x800
 8000b0e:	d00c      	beq.n	8000b2a <I2C_Master_ADDR+0x144>
 8000b10:	681a      	ldr	r2, [r3, #0]
 8000b12:	f422 6280 	bic.w	r2, r2, #1024	; 0x400
 8000b16:	601a      	str	r2, [r3, #0]
 8000b18:	2300      	movs	r3, #0
 8000b1a:	9303      	str	r3, [sp, #12]
 8000b1c:	6803      	ldr	r3, [r0, #0]
 8000b1e:	695a      	ldr	r2, [r3, #20]
 8000b20:	9203      	str	r2, [sp, #12]
 8000b22:	699b      	ldr	r3, [r3, #24]
 8000b24:	9303      	str	r3, [sp, #12]
 8000b26:	9b03      	ldr	r3, [sp, #12]
 8000b28:	e78e      	b.n	8000a48 <I2C_Master_ADDR+0x62>
 8000b2a:	2200      	movs	r2, #0
 8000b2c:	9204      	str	r2, [sp, #16]
 8000b2e:	695a      	ldr	r2, [r3, #20]
 8000b30:	9204      	str	r2, [sp, #16]
 8000b32:	699a      	ldr	r2, [r3, #24]
 8000b34:	9204      	str	r2, [sp, #16]
 8000b36:	9a04      	ldr	r2, [sp, #16]
 8000b38:	681a      	ldr	r2, [r3, #0]
 8000b3a:	f442 7200 	orr.w	r2, r2, #512	; 0x200
 8000b3e:	601a      	str	r2, [r3, #0]
 8000b40:	e782      	b.n	8000a48 <I2C_Master_ADDR+0x62>
 8000b42:	2901      	cmp	r1, #1
 8000b44:	d0ce      	beq.n	8000ae4 <I2C_Master_ADDR+0xfe>
 8000b46:	6802      	ldr	r2, [r0, #0]
 8000b48:	6813      	ldr	r3, [r2, #0]
 8000b4a:	f423 6380 	bic.w	r3, r3, #1024	; 0x400
 8000b4e:	6013      	str	r3, [r2, #0]
 8000b50:	2300      	movs	r3, #0
 8000b52:	9306      	str	r3, [sp, #24]
 8000b54:	6803      	ldr	r3, [r0, #0]
 8000b56:	695a      	ldr	r2, [r3, #20]
 8000b58:	9206      	str	r2, [sp, #24]
 8000b5a:	699a      	ldr	r2, [r3, #24]
 8000b5c:	9206      	str	r2, [sp, #24]
 8000b5e:	9a06      	ldr	r2, [sp, #24]
 8000b60:	681a      	ldr	r2, [r3, #0]
 8000b62:	f442 7200 	orr.w	r2, r2, #512	; 0x200
 8000b66:	601a      	str	r2, [r3, #0]
 8000b68:	e76e      	b.n	8000a48 <I2C_Master_ADDR+0x62>
 8000b6a:	6802      	ldr	r2, [r0, #0]
 8000b6c:	6813      	ldr	r3, [r2, #0]
 8000b6e:	f443 6380 	orr.w	r3, r3, #1024	; 0x400
 8000b72:	6013      	str	r3, [r2, #0]
 8000b74:	2300      	movs	r3, #0
 8000b76:	9305      	str	r3, [sp, #20]
 8000b78:	6803      	ldr	r3, [r0, #0]
 8000b7a:	695a      	ldr	r2, [r3, #20]
 8000b7c:	9205      	str	r2, [sp, #20]
 8000b7e:	699b      	ldr	r3, [r3, #24]
 8000b80:	9305      	str	r3, [sp, #20]
 8000b82:	9b05      	ldr	r3, [sp, #20]
 8000b84:	e760      	b.n	8000a48 <I2C_Master_ADDR+0x62>
 8000b86:	2904      	cmp	r1, #4
 8000b88:	d00e      	beq.n	8000ba8 <I2C_Master_ADDR+0x1c2>
 8000b8a:	2902      	cmp	r1, #2
 8000b8c:	d00c      	beq.n	8000ba8 <I2C_Master_ADDR+0x1c2>
 8000b8e:	2910      	cmp	r1, #16
 8000b90:	d00a      	beq.n	8000ba8 <I2C_Master_ADDR+0x1c2>
 8000b92:	6802      	ldr	r2, [r0, #0]
 8000b94:	6813      	ldr	r3, [r2, #0]
 8000b96:	f423 6380 	bic.w	r3, r3, #1024	; 0x400
 8000b9a:	6013      	str	r3, [r2, #0]
 8000b9c:	6802      	ldr	r2, [r0, #0]
 8000b9e:	6813      	ldr	r3, [r2, #0]
 8000ba0:	f443 6300 	orr.w	r3, r3, #2048	; 0x800
 8000ba4:	6013      	str	r3, [r2, #0]
 8000ba6:	e004      	b.n	8000bb2 <I2C_Master_ADDR+0x1cc>
 8000ba8:	6802      	ldr	r2, [r0, #0]
 8000baa:	6813      	ldr	r3, [r2, #0]
 8000bac:	f443 6380 	orr.w	r3, r3, #1024	; 0x400
 8000bb0:	6013      	str	r3, [r2, #0]
 8000bb2:	6803      	ldr	r3, [r0, #0]
 8000bb4:	685a      	ldr	r2, [r3, #4]
 8000bb6:	f412 6f00 	tst.w	r2, #2048	; 0x800
 8000bba:	d00e      	beq.n	8000bda <I2C_Master_ADDR+0x1f4>
 8000bbc:	f511 3f80 	cmn.w	r1, #65536	; 0x10000
 8000bc0:	d007      	beq.n	8000bd2 <I2C_Master_ADDR+0x1ec>
 8000bc2:	2901      	cmp	r1, #1
 8000bc4:	d005      	beq.n	8000bd2 <I2C_Master_ADDR+0x1ec>
 8000bc6:	2908      	cmp	r1, #8
 8000bc8:	d003      	beq.n	8000bd2 <I2C_Master_ADDR+0x1ec>
 8000bca:	2910      	cmp	r1, #16
 8000bcc:	d001      	beq.n	8000bd2 <I2C_Master_ADDR+0x1ec>
 8000bce:	2920      	cmp	r1, #32
 8000bd0:	d103      	bne.n	8000bda <I2C_Master_ADDR+0x1f4>
 8000bd2:	685a      	ldr	r2, [r3, #4]
 8000bd4:	f442 5280 	orr.w	r2, r2, #4096	; 0x1000
 8000bd8:	605a      	str	r2, [r3, #4]
 8000bda:	2300      	movs	r3, #0
 8000bdc:	9307      	str	r3, [sp, #28]
 8000bde:	6803      	ldr	r3, [r0, #0]
 8000be0:	695a      	ldr	r2, [r3, #20]
 8000be2:	9207      	str	r2, [sp, #28]
 8000be4:	699b      	ldr	r3, [r3, #24]
 8000be6:	9307      	str	r3, [sp, #28]
 8000be8:	9b07      	ldr	r3, [sp, #28]
 8000bea:	e72d      	b.n	8000a48 <I2C_Master_ADDR+0x62>

08000bec <I2C_SlaveTransmit_BTF>:
 8000bec:	8d43      	ldrh	r3, [r0, #42]	; 0x2a
 8000bee:	b29b      	uxth	r3, r3
 8000bf0:	b15b      	cbz	r3, 8000c0a <I2C_SlaveTransmit_BTF+0x1e>
 8000bf2:	6a42      	ldr	r2, [r0, #36]	; 0x24
 8000bf4:	6803      	ldr	r3, [r0, #0]
 8000bf6:	7812      	ldrb	r2, [r2, #0]
 8000bf8:	611a      	str	r2, [r3, #16]
 8000bfa:	6a43      	ldr	r3, [r0, #36]	; 0x24
 8000bfc:	3301      	adds	r3, #1
 8000bfe:	6243      	str	r3, [r0, #36]	; 0x24
 8000c00:	8d43      	ldrh	r3, [r0, #42]	; 0x2a
 8000c02:	b29b      	uxth	r3, r3
 8000c04:	3b01      	subs	r3, #1
 8000c06:	b29b      	uxth	r3, r3
 8000c08:	8543      	strh	r3, [r0, #42]	; 0x2a
 8000c0a:	4770      	bx	lr

08000c0c <I2C_SlaveReceive_BTF>:
 8000c0c:	8d43      	ldrh	r3, [r0, #42]	; 0x2a
 8000c0e:	b29b      	uxth	r3, r3
 8000c10:	b15b      	cbz	r3, 8000c2a <I2C_SlaveReceive_BTF+0x1e>
 8000c12:	6803      	ldr	r3, [r0, #0]
 8000c14:	691a      	ldr	r2, [r3, #16]
 8000c16:	6a43      	ldr	r3, [r0, #36]	; 0x24
 8000c18:	701a      	strb	r2, [r3, #0]
 8000c1a:	6a43      	ldr	r3, [r0, #36]	; 0x24
 8000c1c:	3301      	adds	r3, #1
 8000c1e:	6243      	str	r3, [r0, #36]	; 0x24
 8000c20:	8d43      	ldrh	r3, [r0, #42]	; 0x2a
 8000c22:	b29b      	uxth	r3, r3
 8000c24:	3b01      	subs	r3, #1
 8000c26:	b29b      	uxth	r3, r3
 8000c28:	8543      	strh	r3, [r0, #42]	; 0x2a
 8000c2a:	4770      	bx	lr

08000c2c <I2C_WaitOnSTOPRequestThroughIT>:
 8000c2c:	b082      	sub	sp, #8
 8000c2e:	2300      	movs	r3, #0
 8000c30:	9301      	str	r3, [sp, #4]
 8000c32:	4b0e      	ldr	r3, [pc, #56]	; (8000c6c <I2C_WaitOnSTOPRequestThroughIT+0x40>)
 8000c34:	681b      	ldr	r3, [r3, #0]
 8000c36:	08db      	lsrs	r3, r3, #3
 8000c38:	4a0d      	ldr	r2, [pc, #52]	; (8000c70 <I2C_WaitOnSTOPRequestThroughIT+0x44>)
 8000c3a:	fba2 2303 	umull	r2, r3, r2, r3
 8000c3e:	0a1b      	lsrs	r3, r3, #8
 8000c40:	eb03 0383 	add.w	r3, r3, r3, lsl #2
 8000c44:	9301      	str	r3, [sp, #4]
 8000c46:	9b01      	ldr	r3, [sp, #4]
 8000c48:	3b01      	subs	r3, #1
 8000c4a:	9301      	str	r3, [sp, #4]
 8000c4c:	9b01      	ldr	r3, [sp, #4]
 8000c4e:	b133      	cbz	r3, 8000c5e <I2C_WaitOnSTOPRequestThroughIT+0x32>
 8000c50:	6803      	ldr	r3, [r0, #0]
 8000c52:	681b      	ldr	r3, [r3, #0]
 8000c54:	f413 7f00 	tst.w	r3, #512	; 0x200
 8000c58:	d1f5      	bne.n	8000c46 <I2C_WaitOnSTOPRequestThroughIT+0x1a>
 8000c5a:	2000      	movs	r0, #0
 8000c5c:	e004      	b.n	8000c68 <I2C_WaitOnSTOPRequestThroughIT+0x3c>
 8000c5e:	6c03      	ldr	r3, [r0, #64]	; 0x40
 8000c60:	f043 0320 	orr.w	r3, r3, #32
 8000c64:	6403      	str	r3, [r0, #64]	; 0x40
 8000c66:	2001      	movs	r0, #1
 8000c68:	b002      	add	sp, #8
 8000c6a:	4770      	bx	lr
 8000c6c:	20000008 	.word	0x20000008
 8000c70:	14f8b589 	.word	0x14f8b589

08000c74 <I2C_IsAcknowledgeFailed>:
 8000c74:	6803      	ldr	r3, [r0, #0]
 8000c76:	695a      	ldr	r2, [r3, #20]
 8000c78:	f412 6f80 	tst.w	r2, #1024	; 0x400
 8000c7c:	d101      	bne.n	8000c82 <I2C_IsAcknowledgeFailed+0xe>
 8000c7e:	2000      	movs	r0, #0
 8000c80:	4770      	bx	lr
 8000c82:	f46f 6280 	mvn.w	r2, #1024	; 0x400
 8000c86:	615a      	str	r2, [r3, #20]
 8000c88:	2300      	movs	r3, #0
 8000c8a:	6303      	str	r3, [r0, #48]	; 0x30
 8000c8c:	2220      	movs	r2, #32
 8000c8e:	f880 203d 	strb.w	r2, [r0, #61]	; 0x3d
 8000c92:	f880 303e 	strb.w	r3, [r0, #62]	; 0x3e
 8000c96:	6c02      	ldr	r2, [r0, #64]	; 0x40
 8000c98:	f042 0204 	orr.w	r2, r2, #4
 8000c9c:	6402      	str	r2, [r0, #64]	; 0x40
 8000c9e:	f880 303c 	strb.w	r3, [r0, #60]	; 0x3c
 8000ca2:	2001      	movs	r0, #1
 8000ca4:	4770      	bx	lr

08000ca6 <I2C_ConvertOtherXferOptions>:
 8000ca6:	6ac3      	ldr	r3, [r0, #44]	; 0x2c
 8000ca8:	f5b3 0f2a 	cmp.w	r3, #11141120	; 0xaa0000
 8000cac:	d004      	beq.n	8000cb8 <I2C_ConvertOtherXferOptions+0x12>
 8000cae:	6ac3      	ldr	r3, [r0, #44]	; 0x2c
 8000cb0:	f1b3 4f2a 	cmp.w	r3, #2852126720	; 0xaa000000
 8000cb4:	d003      	beq.n	8000cbe <I2C_ConvertOtherXferOptions+0x18>
 8000cb6:	4770      	bx	lr
 8000cb8:	2301      	movs	r3, #1
 8000cba:	62c3      	str	r3, [r0, #44]	; 0x2c
 8000cbc:	4770      	bx	lr
 8000cbe:	2308      	movs	r3, #8
 8000cc0:	62c3      	str	r3, [r0, #44]	; 0x2c
 8000cc2:	e7f8      	b.n	8000cb6 <I2C_ConvertOtherXferOptions+0x10>

08000cc4 <I2C_WaitOnFlagUntilTimeout>:
 8000cc4:	e92d 41f0 	stmdb	sp!, {r4, r5, r6, r7, r8, lr}
 8000cc8:	4607      	mov	r7, r0
 8000cca:	460d      	mov	r5, r1
 8000ccc:	4690      	mov	r8, r2
 8000cce:	461e      	mov	r6, r3
 8000cd0:	e022      	b.n	8000d18 <I2C_WaitOnFlagUntilTimeout+0x54>
 8000cd2:	f001 fdef 	bl	80028b4 <HAL_GetTick>
 8000cd6:	9b06      	ldr	r3, [sp, #24]
 8000cd8:	1ac0      	subs	r0, r0, r3
 8000cda:	42b0      	cmp	r0, r6
 8000cdc:	d800      	bhi.n	8000ce0 <I2C_WaitOnFlagUntilTimeout+0x1c>
 8000cde:	b9de      	cbnz	r6, 8000d18 <I2C_WaitOnFlagUntilTimeout+0x54>
 8000ce0:	2300      	movs	r3, #0
 8000ce2:	633b      	str	r3, [r7, #48]	; 0x30
 8000ce4:	2220      	movs	r2, #32
 8000ce6:	f887 203d 	strb.w	r2, [r7, #61]	; 0x3d
 8000cea:	f887 303e 	strb.w	r3, [r7, #62]	; 0x3e
 8000cee:	6c3a      	ldr	r2, [r7, #64]	; 0x40
 8000cf0:	f042 0220 	orr.w	r2, r2, #32
 8000cf4:	643a      	str	r2, [r7, #64]	; 0x40
 8000cf6:	f887 303c 	strb.w	r3, [r7, #60]	; 0x3c
 8000cfa:	2001      	movs	r0, #1
 8000cfc:	e01a      	b.n	8000d34 <I2C_WaitOnFlagUntilTimeout+0x70>
 8000cfe:	683b      	ldr	r3, [r7, #0]
 8000d00:	699c      	ldr	r4, [r3, #24]
 8000d02:	ea25 0404 	bic.w	r4, r5, r4
 8000d06:	b2a4      	uxth	r4, r4
 8000d08:	fab4 f484 	clz	r4, r4
 8000d0c:	0964      	lsrs	r4, r4, #5
 8000d0e:	45a0      	cmp	r8, r4
 8000d10:	d10f      	bne.n	8000d32 <I2C_WaitOnFlagUntilTimeout+0x6e>
 8000d12:	f1b6 3fff 	cmp.w	r6, #4294967295	; 0xffffffff
 8000d16:	d1dc      	bne.n	8000cd2 <I2C_WaitOnFlagUntilTimeout+0xe>
 8000d18:	f3c5 4307 	ubfx	r3, r5, #16, #8
 8000d1c:	2b01      	cmp	r3, #1
 8000d1e:	d1ee      	bne.n	8000cfe <I2C_WaitOnFlagUntilTimeout+0x3a>
 8000d20:	683b      	ldr	r3, [r7, #0]
 8000d22:	695c      	ldr	r4, [r3, #20]
 8000d24:	ea25 0404 	bic.w	r4, r5, r4
 8000d28:	b2a4      	uxth	r4, r4
 8000d2a:	fab4 f484 	clz	r4, r4
 8000d2e:	0964      	lsrs	r4, r4, #5
 8000d30:	e7ed      	b.n	8000d0e <I2C_WaitOnFlagUntilTimeout+0x4a>
 8000d32:	2000      	movs	r0, #0
 8000d34:	e8bd 81f0 	ldmia.w	sp!, {r4, r5, r6, r7, r8, pc}

08000d38 <I2C_WaitOnMasterAddressFlagUntilTimeout>:
 8000d38:	e92d 41f0 	stmdb	sp!, {r4, r5, r6, r7, r8, lr}
 8000d3c:	4605      	mov	r5, r0
 8000d3e:	460e      	mov	r6, r1
 8000d40:	4617      	mov	r7, r2
 8000d42:	4698      	mov	r8, r3
 8000d44:	e03d      	b.n	8000dc2 <I2C_WaitOnMasterAddressFlagUntilTimeout+0x8a>
 8000d46:	681a      	ldr	r2, [r3, #0]
 8000d48:	f442 7200 	orr.w	r2, r2, #512	; 0x200
 8000d4c:	601a      	str	r2, [r3, #0]
 8000d4e:	682b      	ldr	r3, [r5, #0]
 8000d50:	f46f 6280 	mvn.w	r2, #1024	; 0x400
 8000d54:	615a      	str	r2, [r3, #20]
 8000d56:	2300      	movs	r3, #0
 8000d58:	632b      	str	r3, [r5, #48]	; 0x30
 8000d5a:	2220      	movs	r2, #32
 8000d5c:	f885 203d 	strb.w	r2, [r5, #61]	; 0x3d
 8000d60:	f885 303e 	strb.w	r3, [r5, #62]	; 0x3e
 8000d64:	6c2a      	ldr	r2, [r5, #64]	; 0x40
 8000d66:	f042 0204 	orr.w	r2, r2, #4
 8000d6a:	642a      	str	r2, [r5, #64]	; 0x40
 8000d6c:	f885 303c 	strb.w	r3, [r5, #60]	; 0x3c
 8000d70:	2001      	movs	r0, #1
 8000d72:	e034      	b.n	8000dde <I2C_WaitOnMasterAddressFlagUntilTimeout+0xa6>
 8000d74:	f001 fd9e 	bl	80028b4 <HAL_GetTick>
 8000d78:	eba0 0008 	sub.w	r0, r0, r8
 8000d7c:	42b8      	cmp	r0, r7
 8000d7e:	d800      	bhi.n	8000d82 <I2C_WaitOnMasterAddressFlagUntilTimeout+0x4a>
 8000d80:	b9ff      	cbnz	r7, 8000dc2 <I2C_WaitOnMasterAddressFlagUntilTimeout+0x8a>
 8000d82:	2300      	movs	r3, #0
 8000d84:	632b      	str	r3, [r5, #48]	; 0x30
 8000d86:	2220      	movs	r2, #32
 8000d88:	f885 203d 	strb.w	r2, [r5, #61]	; 0x3d
 8000d8c:	f885 303e 	strb.w	r3, [r5, #62]	; 0x3e
 8000d90:	6c2a      	ldr	r2, [r5, #64]	; 0x40
 8000d92:	f042 0220 	orr.w	r2, r2, #32
 8000d96:	642a      	str	r2, [r5, #64]	; 0x40
 8000d98:	f885 303c 	strb.w	r3, [r5, #60]	; 0x3c
 8000d9c:	2001      	movs	r0, #1
 8000d9e:	e01e      	b.n	8000dde <I2C_WaitOnMasterAddressFlagUntilTimeout+0xa6>
 8000da0:	682b      	ldr	r3, [r5, #0]
 8000da2:	699c      	ldr	r4, [r3, #24]
 8000da4:	ea26 0404 	bic.w	r4, r6, r4
 8000da8:	b2a4      	uxth	r4, r4
 8000daa:	3c00      	subs	r4, #0
 8000dac:	bf18      	it	ne
 8000dae:	2401      	movne	r4, #1
 8000db0:	b1a4      	cbz	r4, 8000ddc <I2C_WaitOnMasterAddressFlagUntilTimeout+0xa4>
 8000db2:	682b      	ldr	r3, [r5, #0]
 8000db4:	695a      	ldr	r2, [r3, #20]
 8000db6:	f412 6f80 	tst.w	r2, #1024	; 0x400
 8000dba:	d1c4      	bne.n	8000d46 <I2C_WaitOnMasterAddressFlagUntilTimeout+0xe>
 8000dbc:	f1b7 3fff 	cmp.w	r7, #4294967295	; 0xffffffff
 8000dc0:	d1d8      	bne.n	8000d74 <I2C_WaitOnMasterAddressFlagUntilTimeout+0x3c>
 8000dc2:	f3c6 4307 	ubfx	r3, r6, #16, #8
 8000dc6:	2b01      	cmp	r3, #1
 8000dc8:	d1ea      	bne.n	8000da0 <I2C_WaitOnMasterAddressFlagUntilTimeout+0x68>
 8000dca:	682b      	ldr	r3, [r5, #0]
 8000dcc:	695c      	ldr	r4, [r3, #20]
 8000dce:	ea26 0404 	bic.w	r4, r6, r4
 8000dd2:	b2a4      	uxth	r4, r4
 8000dd4:	3c00      	subs	r4, #0
 8000dd6:	bf18      	it	ne
 8000dd8:	2401      	movne	r4, #1
 8000dda:	e7e9      	b.n	8000db0 <I2C_WaitOnMasterAddressFlagUntilTimeout+0x78>
 8000ddc:	2000      	movs	r0, #0
 8000dde:	e8bd 81f0 	ldmia.w	sp!, {r4, r5, r6, r7, r8, pc}
	...

08000de4 <I2C_MasterRequestWrite>:
 8000de4:	b5f0      	push	{r4, r5, r6, r7, lr}
 8000de6:	b083      	sub	sp, #12
 8000de8:	4604      	mov	r4, r0
 8000dea:	460d      	mov	r5, r1
 8000dec:	4616      	mov	r6, r2
 8000dee:	461f      	mov	r7, r3
 8000df0:	6ac3      	ldr	r3, [r0, #44]	; 0x2c
 8000df2:	2b08      	cmp	r3, #8
 8000df4:	d00d      	beq.n	8000e12 <I2C_MasterRequestWrite+0x2e>
 8000df6:	2b01      	cmp	r3, #1
 8000df8:	d00b      	beq.n	8000e12 <I2C_MasterRequestWrite+0x2e>
 8000dfa:	f513 3f80 	cmn.w	r3, #65536	; 0x10000
 8000dfe:	d008      	beq.n	8000e12 <I2C_MasterRequestWrite+0x2e>
 8000e00:	6b03      	ldr	r3, [r0, #48]	; 0x30
 8000e02:	2b12      	cmp	r3, #18
 8000e04:	d10a      	bne.n	8000e1c <I2C_MasterRequestWrite+0x38>
 8000e06:	6802      	ldr	r2, [r0, #0]
 8000e08:	6813      	ldr	r3, [r2, #0]
 8000e0a:	f443 7380 	orr.w	r3, r3, #256	; 0x100
 8000e0e:	6013      	str	r3, [r2, #0]
 8000e10:	e004      	b.n	8000e1c <I2C_MasterRequestWrite+0x38>
 8000e12:	6822      	ldr	r2, [r4, #0]
 8000e14:	6813      	ldr	r3, [r2, #0]
 8000e16:	f443 7380 	orr.w	r3, r3, #256	; 0x100
 8000e1a:	6013      	str	r3, [r2, #0]
 8000e1c:	9700      	str	r7, [sp, #0]
 8000e1e:	4633      	mov	r3, r6
 8000e20:	2200      	movs	r2, #0
 8000e22:	f04f 1101 	mov.w	r1, #65537	; 0x10001
 8000e26:	4620      	mov	r0, r4
 8000e28:	f7ff ff4c 	bl	8000cc4 <I2C_WaitOnFlagUntilTimeout>
 8000e2c:	b980      	cbnz	r0, 8000e50 <I2C_MasterRequestWrite+0x6c>
 8000e2e:	6923      	ldr	r3, [r4, #16]
 8000e30:	f5b3 4f80 	cmp.w	r3, #16384	; 0x4000
 8000e34:	d116      	bne.n	8000e64 <I2C_MasterRequestWrite+0x80>
 8000e36:	6823      	ldr	r3, [r4, #0]
 8000e38:	f005 05fe 	and.w	r5, r5, #254	; 0xfe
 8000e3c:	611d      	str	r5, [r3, #16]
 8000e3e:	463b      	mov	r3, r7
 8000e40:	4632      	mov	r2, r6
 8000e42:	4913      	ldr	r1, [pc, #76]	; (8000e90 <I2C_MasterRequestWrite+0xac>)
 8000e44:	4620      	mov	r0, r4
 8000e46:	f7ff ff77 	bl	8000d38 <I2C_WaitOnMasterAddressFlagUntilTimeout>
 8000e4a:	b9f8      	cbnz	r0, 8000e8c <I2C_MasterRequestWrite+0xa8>
 8000e4c:	b003      	add	sp, #12
 8000e4e:	bdf0      	pop	{r4, r5, r6, r7, pc}
 8000e50:	6823      	ldr	r3, [r4, #0]
 8000e52:	681b      	ldr	r3, [r3, #0]
 8000e54:	f413 7f80 	tst.w	r3, #256	; 0x100
 8000e58:	d002      	beq.n	8000e60 <I2C_MasterRequestWrite+0x7c>
 8000e5a:	f44f 7300 	mov.w	r3, #512	; 0x200
 8000e5e:	6423      	str	r3, [r4, #64]	; 0x40
 8000e60:	2003      	movs	r0, #3
 8000e62:	e7f3      	b.n	8000e4c <I2C_MasterRequestWrite+0x68>
 8000e64:	11eb      	asrs	r3, r5, #7
 8000e66:	6822      	ldr	r2, [r4, #0]
 8000e68:	f003 0306 	and.w	r3, r3, #6
 8000e6c:	f043 03f0 	orr.w	r3, r3, #240	; 0xf0
 8000e70:	6113      	str	r3, [r2, #16]
 8000e72:	463b      	mov	r3, r7
 8000e74:	4632      	mov	r2, r6
 8000e76:	4907      	ldr	r1, [pc, #28]	; (8000e94 <I2C_MasterRequestWrite+0xb0>)
 8000e78:	4620      	mov	r0, r4
 8000e7a:	f7ff ff5d 	bl	8000d38 <I2C_WaitOnMasterAddressFlagUntilTimeout>
 8000e7e:	b918      	cbnz	r0, 8000e88 <I2C_MasterRequestWrite+0xa4>
 8000e80:	6823      	ldr	r3, [r4, #0]
 8000e82:	b2ed      	uxtb	r5, r5
 8000e84:	611d      	str	r5, [r3, #16]
 8000e86:	e7da      	b.n	8000e3e <I2C_MasterRequestWrite+0x5a>
 8000e88:	2001      	movs	r0, #1
 8000e8a:	e7df      	b.n	8000e4c <I2C_MasterRequestWrite+0x68>
 8000e8c:	2001      	movs	r0, #1
 8000e8e:	e7dd      	b.n	8000e4c <I2C_MasterRequestWrite+0x68>
 8000e90:	00010002 	.word	0x00010002
 8000e94:	00010008 	.word	0x00010008

08000e98 <I2C_WaitOnTXEFlagUntilTimeout>:
 8000e98:	b570      	push	{r4, r5, r6, lr}
 8000e9a:	4604      	mov	r4, r0
 8000e9c:	460d      	mov	r5, r1
 8000e9e:	4616      	mov	r6, r2
 8000ea0:	6823      	ldr	r3, [r4, #0]
 8000ea2:	695b      	ldr	r3, [r3, #20]
 8000ea4:	f013 0f80 	tst.w	r3, #128	; 0x80
 8000ea8:	d11c      	bne.n	8000ee4 <I2C_WaitOnTXEFlagUntilTimeout+0x4c>
 8000eaa:	4620      	mov	r0, r4
 8000eac:	f7ff fee2 	bl	8000c74 <I2C_IsAcknowledgeFailed>
 8000eb0:	b9d0      	cbnz	r0, 8000ee8 <I2C_WaitOnTXEFlagUntilTimeout+0x50>
 8000eb2:	f1b5 3fff 	cmp.w	r5, #4294967295	; 0xffffffff
 8000eb6:	d0f3      	beq.n	8000ea0 <I2C_WaitOnTXEFlagUntilTimeout+0x8>
 8000eb8:	f001 fcfc 	bl	80028b4 <HAL_GetTick>
 8000ebc:	1b80      	subs	r0, r0, r6
 8000ebe:	42a8      	cmp	r0, r5
 8000ec0:	d801      	bhi.n	8000ec6 <I2C_WaitOnTXEFlagUntilTimeout+0x2e>
 8000ec2:	2d00      	cmp	r5, #0
 8000ec4:	d1ec      	bne.n	8000ea0 <I2C_WaitOnTXEFlagUntilTimeout+0x8>
 8000ec6:	2300      	movs	r3, #0
 8000ec8:	6323      	str	r3, [r4, #48]	; 0x30
 8000eca:	2220      	movs	r2, #32
 8000ecc:	f884 203d 	strb.w	r2, [r4, #61]	; 0x3d
 8000ed0:	f884 303e 	strb.w	r3, [r4, #62]	; 0x3e
 8000ed4:	6c22      	ldr	r2, [r4, #64]	; 0x40
 8000ed6:	f042 0220 	orr.w	r2, r2, #32
 8000eda:	6422      	str	r2, [r4, #64]	; 0x40
 8000edc:	f884 303c 	strb.w	r3, [r4, #60]	; 0x3c
 8000ee0:	2001      	movs	r0, #1
 8000ee2:	e000      	b.n	8000ee6 <I2C_WaitOnTXEFlagUntilTimeout+0x4e>
 8000ee4:	2000      	movs	r0, #0
 8000ee6:	bd70      	pop	{r4, r5, r6, pc}
 8000ee8:	2001      	movs	r0, #1
 8000eea:	e7fc      	b.n	8000ee6 <I2C_WaitOnTXEFlagUntilTimeout+0x4e>

08000eec <I2C_WaitOnBTFFlagUntilTimeout>:
 8000eec:	b570      	push	{r4, r5, r6, lr}
 8000eee:	4604      	mov	r4, r0
 8000ef0:	460d      	mov	r5, r1
 8000ef2:	4616      	mov	r6, r2
 8000ef4:	6823      	ldr	r3, [r4, #0]
 8000ef6:	695b      	ldr	r3, [r3, #20]
 8000ef8:	f013 0f04 	tst.w	r3, #4
 8000efc:	d11c      	bne.n	8000f38 <I2C_WaitOnBTFFlagUntilTimeout+0x4c>
 8000efe:	4620      	mov	r0, r4
 8000f00:	f7ff feb8 	bl	8000c74 <I2C_IsAcknowledgeFailed>
 8000f04:	b9d0      	cbnz	r0, 8000f3c <I2C_WaitOnBTFFlagUntilTimeout+0x50>
 8000f06:	f1b5 3fff 	cmp.w	r5, #4294967295	; 0xffffffff
 8000f0a:	d0f3      	beq.n	8000ef4 <I2C_WaitOnBTFFlagUntilTimeout+0x8>
 8000f0c:	f001 fcd2 	bl	80028b4 <HAL_GetTick>
 8000f10:	1b80      	subs	r0, r0, r6
 8000f12:	42a8      	cmp	r0, r5
 8000f14:	d801      	bhi.n	8000f1a <I2C_WaitOnBTFFlagUntilTimeout+0x2e>
 8000f16:	2d00      	cmp	r5, #0
 8000f18:	d1ec      	bne.n	8000ef4 <I2C_WaitOnBTFFlagUntilTimeout+0x8>
 8000f1a:	2300      	movs	r3, #0
 8000f1c:	6323      	str	r3, [r4, #48]	; 0x30
 8000f1e:	2220      	movs	r2, #32
 8000f20:	f884 203d 	strb.w	r2, [r4, #61]	; 0x3d
 8000f24:	f884 303e 	strb.w	r3, [r4, #62]	; 0x3e
 8000f28:	6c22      	ldr	r2, [r4, #64]	; 0x40
 8000f2a:	f042 0220 	orr.w	r2, r2, #32
 8000f2e:	6422      	str	r2, [r4, #64]	; 0x40
 8000f30:	f884 303c 	strb.w	r3, [r4, #60]	; 0x3c
 8000f34:	2001      	movs	r0, #1
 8000f36:	e000      	b.n	8000f3a <I2C_WaitOnBTFFlagUntilTimeout+0x4e>
 8000f38:	2000      	movs	r0, #0
 8000f3a:	bd70      	pop	{r4, r5, r6, pc}
 8000f3c:	2001      	movs	r0, #1
 8000f3e:	e7fc      	b.n	8000f3a <I2C_WaitOnBTFFlagUntilTimeout+0x4e>

08000f40 <HAL_I2C_Init>:
 8000f40:	2800      	cmp	r0, #0
 8000f42:	f000 80cc 	beq.w	80010de <HAL_I2C_Init+0x19e>
 8000f46:	b5f8      	push	{r3, r4, r5, r6, r7, lr}
 8000f48:	4604      	mov	r4, r0
 8000f4a:	f890 303d 	ldrb.w	r3, [r0, #61]	; 0x3d
 8000f4e:	2b00      	cmp	r3, #0
 8000f50:	d077      	beq.n	8001042 <HAL_I2C_Init+0x102>
 8000f52:	2324      	movs	r3, #36	; 0x24
 8000f54:	f884 303d 	strb.w	r3, [r4, #61]	; 0x3d
 8000f58:	6822      	ldr	r2, [r4, #0]
 8000f5a:	6813      	ldr	r3, [r2, #0]
 8000f5c:	f023 0301 	bic.w	r3, r3, #1
 8000f60:	6013      	str	r3, [r2, #0]
 8000f62:	6822      	ldr	r2, [r4, #0]
 8000f64:	6813      	ldr	r3, [r2, #0]
 8000f66:	f443 4300 	orr.w	r3, r3, #32768	; 0x8000
 8000f6a:	6013      	str	r3, [r2, #0]
 8000f6c:	6822      	ldr	r2, [r4, #0]
 8000f6e:	6813      	ldr	r3, [r2, #0]
 8000f70:	f423 4300 	bic.w	r3, r3, #32768	; 0x8000
 8000f74:	6013      	str	r3, [r2, #0]
 8000f76:	f001 fae9 	bl	800254c <HAL_RCC_GetPCLK1Freq>
 8000f7a:	6862      	ldr	r2, [r4, #4]
 8000f7c:	4b5a      	ldr	r3, [pc, #360]	; (80010e8 <HAL_I2C_Init+0x1a8>)
 8000f7e:	429a      	cmp	r2, r3
 8000f80:	d864      	bhi.n	800104c <HAL_I2C_Init+0x10c>
 8000f82:	4b5a      	ldr	r3, [pc, #360]	; (80010ec <HAL_I2C_Init+0x1ac>)
 8000f84:	4298      	cmp	r0, r3
 8000f86:	bf8c      	ite	hi
 8000f88:	2300      	movhi	r3, #0
 8000f8a:	2301      	movls	r3, #1
 8000f8c:	2b00      	cmp	r3, #0
 8000f8e:	f040 80a8 	bne.w	80010e2 <HAL_I2C_Init+0x1a2>
 8000f92:	4d57      	ldr	r5, [pc, #348]	; (80010f0 <HAL_I2C_Init+0x1b0>)
 8000f94:	fba5 3500 	umull	r3, r5, r5, r0
 8000f98:	0caf      	lsrs	r7, r5, #18
 8000f9a:	6826      	ldr	r6, [r4, #0]
 8000f9c:	6871      	ldr	r1, [r6, #4]
 8000f9e:	f021 013f 	bic.w	r1, r1, #63	; 0x3f
 8000fa2:	ea41 4195 	orr.w	r1, r1, r5, lsr #18
 8000fa6:	6071      	str	r1, [r6, #4]
 8000fa8:	6821      	ldr	r1, [r4, #0]
 8000faa:	6a0b      	ldr	r3, [r1, #32]
 8000fac:	f023 033f 	bic.w	r3, r3, #63	; 0x3f
 8000fb0:	6865      	ldr	r5, [r4, #4]
 8000fb2:	4a4d      	ldr	r2, [pc, #308]	; (80010e8 <HAL_I2C_Init+0x1a8>)
 8000fb4:	4295      	cmp	r5, r2
 8000fb6:	d84f      	bhi.n	8001058 <HAL_I2C_Init+0x118>
 8000fb8:	1c7a      	adds	r2, r7, #1
 8000fba:	4313      	orrs	r3, r2
 8000fbc:	620b      	str	r3, [r1, #32]
 8000fbe:	6825      	ldr	r5, [r4, #0]
 8000fc0:	69e9      	ldr	r1, [r5, #28]
 8000fc2:	f421 414f 	bic.w	r1, r1, #52992	; 0xcf00
 8000fc6:	f021 01ff 	bic.w	r1, r1, #255	; 0xff
 8000fca:	6863      	ldr	r3, [r4, #4]
 8000fcc:	4a46      	ldr	r2, [pc, #280]	; (80010e8 <HAL_I2C_Init+0x1a8>)
 8000fce:	4293      	cmp	r3, r2
 8000fd0:	d84c      	bhi.n	800106c <HAL_I2C_Init+0x12c>
 8000fd2:	3801      	subs	r0, #1
 8000fd4:	005b      	lsls	r3, r3, #1
 8000fd6:	fbb0 f0f3 	udiv	r0, r0, r3
 8000fda:	3001      	adds	r0, #1
 8000fdc:	f640 73fc 	movw	r3, #4092	; 0xffc
 8000fe0:	4218      	tst	r0, r3
 8000fe2:	d078      	beq.n	80010d6 <HAL_I2C_Init+0x196>
 8000fe4:	f3c0 030b 	ubfx	r3, r0, #0, #12
 8000fe8:	430b      	orrs	r3, r1
 8000fea:	61eb      	str	r3, [r5, #28]
 8000fec:	6821      	ldr	r1, [r4, #0]
 8000fee:	680b      	ldr	r3, [r1, #0]
 8000ff0:	f023 03c0 	bic.w	r3, r3, #192	; 0xc0
 8000ff4:	69e2      	ldr	r2, [r4, #28]
 8000ff6:	6a20      	ldr	r0, [r4, #32]
 8000ff8:	4302      	orrs	r2, r0
 8000ffa:	4313      	orrs	r3, r2
 8000ffc:	600b      	str	r3, [r1, #0]
 8000ffe:	6821      	ldr	r1, [r4, #0]
 8001000:	688b      	ldr	r3, [r1, #8]
 8001002:	f423 4303 	bic.w	r3, r3, #33536	; 0x8300
 8001006:	f023 03ff 	bic.w	r3, r3, #255	; 0xff
 800100a:	6922      	ldr	r2, [r4, #16]
 800100c:	68e0      	ldr	r0, [r4, #12]
 800100e:	4302      	orrs	r2, r0
 8001010:	4313      	orrs	r3, r2
 8001012:	608b      	str	r3, [r1, #8]
 8001014:	6821      	ldr	r1, [r4, #0]
 8001016:	68cb      	ldr	r3, [r1, #12]
 8001018:	f023 03ff 	bic.w	r3, r3, #255	; 0xff
 800101c:	6962      	ldr	r2, [r4, #20]
 800101e:	69a0      	ldr	r0, [r4, #24]
 8001020:	4302      	orrs	r2, r0
 8001022:	4313      	orrs	r3, r2
 8001024:	60cb      	str	r3, [r1, #12]
 8001026:	6822      	ldr	r2, [r4, #0]
 8001028:	6813      	ldr	r3, [r2, #0]
 800102a:	f043 0301 	orr.w	r3, r3, #1
 800102e:	6013      	str	r3, [r2, #0]
 8001030:	2000      	movs	r0, #0
 8001032:	6420      	str	r0, [r4, #64]	; 0x40
 8001034:	2320      	movs	r3, #32
 8001036:	f884 303d 	strb.w	r3, [r4, #61]	; 0x3d
 800103a:	6320      	str	r0, [r4, #48]	; 0x30
 800103c:	f884 003e 	strb.w	r0, [r4, #62]	; 0x3e
 8001040:	bdf8      	pop	{r3, r4, r5, r6, r7, pc}
 8001042:	f880 303c 	strb.w	r3, [r0, #60]	; 0x3c
 8001046:	f7ff fb65 	bl	8000714 <HAL_I2C_MspInit>
 800104a:	e782      	b.n	8000f52 <HAL_I2C_Init+0x12>
 800104c:	4b29      	ldr	r3, [pc, #164]	; (80010f4 <HAL_I2C_Init+0x1b4>)
 800104e:	4298      	cmp	r0, r3
 8001050:	bf8c      	ite	hi
 8001052:	2300      	movhi	r3, #0
 8001054:	2301      	movls	r3, #1
 8001056:	e799      	b.n	8000f8c <HAL_I2C_Init+0x4c>
 8001058:	f44f 7296 	mov.w	r2, #300	; 0x12c
 800105c:	fb02 f207 	mul.w	r2, r2, r7
 8001060:	4d25      	ldr	r5, [pc, #148]	; (80010f8 <HAL_I2C_Init+0x1b8>)
 8001062:	fba5 5202 	umull	r5, r2, r5, r2
 8001066:	0992      	lsrs	r2, r2, #6
 8001068:	3201      	adds	r2, #1
 800106a:	e7a6      	b.n	8000fba <HAL_I2C_Init+0x7a>
 800106c:	68a2      	ldr	r2, [r4, #8]
 800106e:	b9ba      	cbnz	r2, 80010a0 <HAL_I2C_Init+0x160>
 8001070:	1e46      	subs	r6, r0, #1
 8001072:	eb03 0743 	add.w	r7, r3, r3, lsl #1
 8001076:	fbb6 f6f7 	udiv	r6, r6, r7
 800107a:	3601      	adds	r6, #1
 800107c:	f3c6 060b 	ubfx	r6, r6, #0, #12
 8001080:	fab6 f686 	clz	r6, r6
 8001084:	0976      	lsrs	r6, r6, #5
 8001086:	bb46      	cbnz	r6, 80010da <HAL_I2C_Init+0x19a>
 8001088:	b9c2      	cbnz	r2, 80010bc <HAL_I2C_Init+0x17c>
 800108a:	1e42      	subs	r2, r0, #1
 800108c:	eb03 0343 	add.w	r3, r3, r3, lsl #1
 8001090:	fbb2 f2f3 	udiv	r2, r2, r3
 8001094:	3201      	adds	r2, #1
 8001096:	f3c2 020b 	ubfx	r2, r2, #0, #12
 800109a:	f442 4300 	orr.w	r3, r2, #32768	; 0x8000
 800109e:	e7a3      	b.n	8000fe8 <HAL_I2C_Init+0xa8>
 80010a0:	1e46      	subs	r6, r0, #1
 80010a2:	eb03 0783 	add.w	r7, r3, r3, lsl #2
 80010a6:	eb07 0787 	add.w	r7, r7, r7, lsl #2
 80010aa:	fbb6 f6f7 	udiv	r6, r6, r7
 80010ae:	3601      	adds	r6, #1
 80010b0:	f3c6 060b 	ubfx	r6, r6, #0, #12
 80010b4:	fab6 f686 	clz	r6, r6
 80010b8:	0976      	lsrs	r6, r6, #5
 80010ba:	e7e4      	b.n	8001086 <HAL_I2C_Init+0x146>
 80010bc:	1e42      	subs	r2, r0, #1
 80010be:	eb03 0383 	add.w	r3, r3, r3, lsl #2
 80010c2:	eb03 0383 	add.w	r3, r3, r3, lsl #2
 80010c6:	fbb2 f2f3 	udiv	r2, r2, r3
 80010ca:	3201      	adds	r2, #1
 80010cc:	f3c2 020b 	ubfx	r2, r2, #0, #12
 80010d0:	f442 4340 	orr.w	r3, r2, #49152	; 0xc000
 80010d4:	e788      	b.n	8000fe8 <HAL_I2C_Init+0xa8>
 80010d6:	2304      	movs	r3, #4
 80010d8:	e786      	b.n	8000fe8 <HAL_I2C_Init+0xa8>
 80010da:	2301      	movs	r3, #1
 80010dc:	e784      	b.n	8000fe8 <HAL_I2C_Init+0xa8>
 80010de:	2001      	movs	r0, #1
 80010e0:	4770      	bx	lr
 80010e2:	2001      	movs	r0, #1
 80010e4:	e7ac      	b.n	8001040 <HAL_I2C_Init+0x100>
 80010e6:	bf00      	nop
 80010e8:	000186a0 	.word	0x000186a0
 80010ec:	001e847f 	.word	0x001e847f
 80010f0:	431bde83 	.word	0x431bde83
 80010f4:	003d08ff 	.word	0x003d08ff
 80010f8:	10624dd3 	.word	0x10624dd3

080010fc <HAL_I2C_Master_Transmit>:
 80010fc:	e92d 43f0 	stmdb	sp!, {r4, r5, r6, r7, r8, r9, lr}
 8001100:	b085      	sub	sp, #20
 8001102:	4604      	mov	r4, r0
 8001104:	460f      	mov	r7, r1
 8001106:	4691      	mov	r9, r2
 8001108:	4698      	mov	r8, r3
 800110a:	9e0c      	ldr	r6, [sp, #48]	; 0x30
 800110c:	f001 fbd2 	bl	80028b4 <HAL_GetTick>
 8001110:	4605      	mov	r5, r0
 8001112:	f894 003d 	ldrb.w	r0, [r4, #61]	; 0x3d
 8001116:	b2c0      	uxtb	r0, r0
 8001118:	2820      	cmp	r0, #32
 800111a:	d004      	beq.n	8001126 <HAL_I2C_Master_Transmit+0x2a>
 800111c:	2702      	movs	r7, #2
 800111e:	4638      	mov	r0, r7
 8001120:	b005      	add	sp, #20
 8001122:	e8bd 83f0 	ldmia.w	sp!, {r4, r5, r6, r7, r8, r9, pc}
 8001126:	9500      	str	r5, [sp, #0]
 8001128:	2319      	movs	r3, #25
 800112a:	2201      	movs	r2, #1
 800112c:	494f      	ldr	r1, [pc, #316]	; (800126c <HAL_I2C_Master_Transmit+0x170>)
 800112e:	4620      	mov	r0, r4
 8001130:	f7ff fdc8 	bl	8000cc4 <I2C_WaitOnFlagUntilTimeout>
 8001134:	2800      	cmp	r0, #0
 8001136:	f040 8092 	bne.w	800125e <HAL_I2C_Master_Transmit+0x162>
 800113a:	f894 303c 	ldrb.w	r3, [r4, #60]	; 0x3c
 800113e:	2b01      	cmp	r3, #1
 8001140:	f000 808f 	beq.w	8001262 <HAL_I2C_Master_Transmit+0x166>
 8001144:	2301      	movs	r3, #1
 8001146:	f884 303c 	strb.w	r3, [r4, #60]	; 0x3c
 800114a:	6823      	ldr	r3, [r4, #0]
 800114c:	681a      	ldr	r2, [r3, #0]
 800114e:	f012 0f01 	tst.w	r2, #1
 8001152:	d103      	bne.n	800115c <HAL_I2C_Master_Transmit+0x60>
 8001154:	681a      	ldr	r2, [r3, #0]
 8001156:	f042 0201 	orr.w	r2, r2, #1
 800115a:	601a      	str	r2, [r3, #0]
 800115c:	6822      	ldr	r2, [r4, #0]
 800115e:	6813      	ldr	r3, [r2, #0]
 8001160:	f423 6300 	bic.w	r3, r3, #2048	; 0x800
 8001164:	6013      	str	r3, [r2, #0]
 8001166:	2321      	movs	r3, #33	; 0x21
 8001168:	f884 303d 	strb.w	r3, [r4, #61]	; 0x3d
 800116c:	2310      	movs	r3, #16
 800116e:	f884 303e 	strb.w	r3, [r4, #62]	; 0x3e
 8001172:	2300      	movs	r3, #0
 8001174:	6423      	str	r3, [r4, #64]	; 0x40
 8001176:	f8c4 9024 	str.w	r9, [r4, #36]	; 0x24
 800117a:	f8a4 802a 	strh.w	r8, [r4, #42]	; 0x2a
 800117e:	8d63      	ldrh	r3, [r4, #42]	; 0x2a
 8001180:	8523      	strh	r3, [r4, #40]	; 0x28
 8001182:	4b3b      	ldr	r3, [pc, #236]	; (8001270 <HAL_I2C_Master_Transmit+0x174>)
 8001184:	62e3      	str	r3, [r4, #44]	; 0x2c
 8001186:	462b      	mov	r3, r5
 8001188:	4632      	mov	r2, r6
 800118a:	4639      	mov	r1, r7
 800118c:	4620      	mov	r0, r4
 800118e:	f7ff fe29 	bl	8000de4 <I2C_MasterRequestWrite>
 8001192:	4607      	mov	r7, r0
 8001194:	2800      	cmp	r0, #0
 8001196:	d166      	bne.n	8001266 <HAL_I2C_Master_Transmit+0x16a>
 8001198:	2300      	movs	r3, #0
 800119a:	9303      	str	r3, [sp, #12]
 800119c:	6823      	ldr	r3, [r4, #0]
 800119e:	695a      	ldr	r2, [r3, #20]
 80011a0:	9203      	str	r2, [sp, #12]
 80011a2:	699b      	ldr	r3, [r3, #24]
 80011a4:	9303      	str	r3, [sp, #12]
 80011a6:	9b03      	ldr	r3, [sp, #12]
 80011a8:	e011      	b.n	80011ce <HAL_I2C_Master_Transmit+0xd2>
 80011aa:	6c23      	ldr	r3, [r4, #64]	; 0x40
 80011ac:	2b04      	cmp	r3, #4
 80011ae:	d001      	beq.n	80011b4 <HAL_I2C_Master_Transmit+0xb8>
 80011b0:	2701      	movs	r7, #1
 80011b2:	e7b4      	b.n	800111e <HAL_I2C_Master_Transmit+0x22>
 80011b4:	6822      	ldr	r2, [r4, #0]
 80011b6:	6813      	ldr	r3, [r2, #0]
 80011b8:	f443 7300 	orr.w	r3, r3, #512	; 0x200
 80011bc:	6013      	str	r3, [r2, #0]
 80011be:	e7f7      	b.n	80011b0 <HAL_I2C_Master_Transmit+0xb4>
 80011c0:	462a      	mov	r2, r5
 80011c2:	4631      	mov	r1, r6
 80011c4:	4620      	mov	r0, r4
 80011c6:	f7ff fe91 	bl	8000eec <I2C_WaitOnBTFFlagUntilTimeout>
 80011ca:	2800      	cmp	r0, #0
 80011cc:	d12e      	bne.n	800122c <HAL_I2C_Master_Transmit+0x130>
 80011ce:	8d23      	ldrh	r3, [r4, #40]	; 0x28
 80011d0:	2b00      	cmp	r3, #0
 80011d2:	d036      	beq.n	8001242 <HAL_I2C_Master_Transmit+0x146>
 80011d4:	462a      	mov	r2, r5
 80011d6:	4631      	mov	r1, r6
 80011d8:	4620      	mov	r0, r4
 80011da:	f7ff fe5d 	bl	8000e98 <I2C_WaitOnTXEFlagUntilTimeout>
 80011de:	2800      	cmp	r0, #0
 80011e0:	d1e3      	bne.n	80011aa <HAL_I2C_Master_Transmit+0xae>
 80011e2:	6a62      	ldr	r2, [r4, #36]	; 0x24
 80011e4:	6823      	ldr	r3, [r4, #0]
 80011e6:	7812      	ldrb	r2, [r2, #0]
 80011e8:	611a      	str	r2, [r3, #16]
 80011ea:	6a61      	ldr	r1, [r4, #36]	; 0x24
 80011ec:	1c4b      	adds	r3, r1, #1
 80011ee:	6263      	str	r3, [r4, #36]	; 0x24
 80011f0:	8d63      	ldrh	r3, [r4, #42]	; 0x2a
 80011f2:	b29b      	uxth	r3, r3
 80011f4:	3b01      	subs	r3, #1
 80011f6:	b29b      	uxth	r3, r3
 80011f8:	8563      	strh	r3, [r4, #42]	; 0x2a
 80011fa:	8d23      	ldrh	r3, [r4, #40]	; 0x28
 80011fc:	3b01      	subs	r3, #1
 80011fe:	b29b      	uxth	r3, r3
 8001200:	8523      	strh	r3, [r4, #40]	; 0x28
 8001202:	6822      	ldr	r2, [r4, #0]
 8001204:	6950      	ldr	r0, [r2, #20]
 8001206:	f010 0f04 	tst.w	r0, #4
 800120a:	d0d9      	beq.n	80011c0 <HAL_I2C_Master_Transmit+0xc4>
 800120c:	2b00      	cmp	r3, #0
 800120e:	d0d7      	beq.n	80011c0 <HAL_I2C_Master_Transmit+0xc4>
 8001210:	784b      	ldrb	r3, [r1, #1]
 8001212:	6113      	str	r3, [r2, #16]
 8001214:	6a63      	ldr	r3, [r4, #36]	; 0x24
 8001216:	3301      	adds	r3, #1
 8001218:	6263      	str	r3, [r4, #36]	; 0x24
 800121a:	8d63      	ldrh	r3, [r4, #42]	; 0x2a
 800121c:	b29b      	uxth	r3, r3
 800121e:	3b01      	subs	r3, #1
 8001220:	b29b      	uxth	r3, r3
 8001222:	8563      	strh	r3, [r4, #42]	; 0x2a
 8001224:	8d23      	ldrh	r3, [r4, #40]	; 0x28
 8001226:	3b01      	subs	r3, #1
 8001228:	8523      	strh	r3, [r4, #40]	; 0x28
 800122a:	e7c9      	b.n	80011c0 <HAL_I2C_Master_Transmit+0xc4>
 800122c:	6c23      	ldr	r3, [r4, #64]	; 0x40
 800122e:	2b04      	cmp	r3, #4
 8001230:	d001      	beq.n	8001236 <HAL_I2C_Master_Transmit+0x13a>
 8001232:	2701      	movs	r7, #1
 8001234:	e773      	b.n	800111e <HAL_I2C_Master_Transmit+0x22>
 8001236:	6822      	ldr	r2, [r4, #0]
 8001238:	6813      	ldr	r3, [r2, #0]
 800123a:	f443 7300 	orr.w	r3, r3, #512	; 0x200
 800123e:	6013      	str	r3, [r2, #0]
 8001240:	e7f7      	b.n	8001232 <HAL_I2C_Master_Transmit+0x136>
 8001242:	6822      	ldr	r2, [r4, #0]
 8001244:	6813      	ldr	r3, [r2, #0]
 8001246:	f443 7300 	orr.w	r3, r3, #512	; 0x200
 800124a:	6013      	str	r3, [r2, #0]
 800124c:	2320      	movs	r3, #32
 800124e:	f884 303d 	strb.w	r3, [r4, #61]	; 0x3d
 8001252:	2300      	movs	r3, #0
 8001254:	f884 303e 	strb.w	r3, [r4, #62]	; 0x3e
 8001258:	f884 303c 	strb.w	r3, [r4, #60]	; 0x3c
 800125c:	e75f      	b.n	800111e <HAL_I2C_Master_Transmit+0x22>
 800125e:	2702      	movs	r7, #2
 8001260:	e75d      	b.n	800111e <HAL_I2C_Master_Transmit+0x22>
 8001262:	2702      	movs	r7, #2
 8001264:	e75b      	b.n	800111e <HAL_I2C_Master_Transmit+0x22>
 8001266:	2701      	movs	r7, #1
 8001268:	e759      	b.n	800111e <HAL_I2C_Master_Transmit+0x22>
 800126a:	bf00      	nop
 800126c:	00100002 	.word	0x00100002
 8001270:	ffff0000 	.word	0xffff0000

08001274 <HAL_I2C_Master_Transmit_IT>:
 8001274:	b430      	push	{r4, r5}
 8001276:	b082      	sub	sp, #8
 8001278:	2400      	movs	r4, #0
 800127a:	9401      	str	r4, [sp, #4]
 800127c:	f890 403d 	ldrb.w	r4, [r0, #61]	; 0x3d
 8001280:	b2e4      	uxtb	r4, r4
 8001282:	2c20      	cmp	r4, #32
 8001284:	d156      	bne.n	8001334 <HAL_I2C_Master_Transmit_IT+0xc0>
 8001286:	4c2e      	ldr	r4, [pc, #184]	; (8001340 <HAL_I2C_Master_Transmit_IT+0xcc>)
 8001288:	6824      	ldr	r4, [r4, #0]
 800128a:	08e4      	lsrs	r4, r4, #3
 800128c:	4d2d      	ldr	r5, [pc, #180]	; (8001344 <HAL_I2C_Master_Transmit_IT+0xd0>)
 800128e:	fba5 5404 	umull	r5, r4, r5, r4
 8001292:	0a24      	lsrs	r4, r4, #8
 8001294:	eb04 0484 	add.w	r4, r4, r4, lsl #2
 8001298:	eb04 0484 	add.w	r4, r4, r4, lsl #2
 800129c:	9401      	str	r4, [sp, #4]
 800129e:	9c01      	ldr	r4, [sp, #4]
 80012a0:	3c01      	subs	r4, #1
 80012a2:	9401      	str	r4, [sp, #4]
 80012a4:	9c01      	ldr	r4, [sp, #4]
 80012a6:	2c00      	cmp	r4, #0
 80012a8:	d035      	beq.n	8001316 <HAL_I2C_Master_Transmit_IT+0xa2>
 80012aa:	6804      	ldr	r4, [r0, #0]
 80012ac:	69a5      	ldr	r5, [r4, #24]
 80012ae:	f015 0f02 	tst.w	r5, #2
 80012b2:	d1f4      	bne.n	800129e <HAL_I2C_Master_Transmit_IT+0x2a>
 80012b4:	f890 503c 	ldrb.w	r5, [r0, #60]	; 0x3c
 80012b8:	2d01      	cmp	r5, #1
 80012ba:	d03f      	beq.n	800133c <HAL_I2C_Master_Transmit_IT+0xc8>
 80012bc:	2501      	movs	r5, #1
 80012be:	f880 503c 	strb.w	r5, [r0, #60]	; 0x3c
 80012c2:	6825      	ldr	r5, [r4, #0]
 80012c4:	f015 0f01 	tst.w	r5, #1
 80012c8:	d103      	bne.n	80012d2 <HAL_I2C_Master_Transmit_IT+0x5e>
 80012ca:	6825      	ldr	r5, [r4, #0]
 80012cc:	f045 0501 	orr.w	r5, r5, #1
 80012d0:	6025      	str	r5, [r4, #0]
 80012d2:	6805      	ldr	r5, [r0, #0]
 80012d4:	682c      	ldr	r4, [r5, #0]
 80012d6:	f424 6400 	bic.w	r4, r4, #2048	; 0x800
 80012da:	602c      	str	r4, [r5, #0]
 80012dc:	2421      	movs	r4, #33	; 0x21
 80012de:	f880 403d 	strb.w	r4, [r0, #61]	; 0x3d
 80012e2:	2410      	movs	r4, #16
 80012e4:	f880 403e 	strb.w	r4, [r0, #62]	; 0x3e
 80012e8:	2400      	movs	r4, #0
 80012ea:	6404      	str	r4, [r0, #64]	; 0x40
 80012ec:	6242      	str	r2, [r0, #36]	; 0x24
 80012ee:	8543      	strh	r3, [r0, #42]	; 0x2a
 80012f0:	8d43      	ldrh	r3, [r0, #42]	; 0x2a
 80012f2:	8503      	strh	r3, [r0, #40]	; 0x28
 80012f4:	4b14      	ldr	r3, [pc, #80]	; (8001348 <HAL_I2C_Master_Transmit_IT+0xd4>)
 80012f6:	62c3      	str	r3, [r0, #44]	; 0x2c
 80012f8:	6441      	str	r1, [r0, #68]	; 0x44
 80012fa:	6802      	ldr	r2, [r0, #0]
 80012fc:	6813      	ldr	r3, [r2, #0]
 80012fe:	f443 7380 	orr.w	r3, r3, #256	; 0x100
 8001302:	6013      	str	r3, [r2, #0]
 8001304:	f880 403c 	strb.w	r4, [r0, #60]	; 0x3c
 8001308:	6802      	ldr	r2, [r0, #0]
 800130a:	6853      	ldr	r3, [r2, #4]
 800130c:	f443 63e0 	orr.w	r3, r3, #1792	; 0x700
 8001310:	6053      	str	r3, [r2, #4]
 8001312:	4620      	mov	r0, r4
 8001314:	e00f      	b.n	8001336 <HAL_I2C_Master_Transmit_IT+0xc2>
 8001316:	2300      	movs	r3, #0
 8001318:	6303      	str	r3, [r0, #48]	; 0x30
 800131a:	2220      	movs	r2, #32
 800131c:	f880 203d 	strb.w	r2, [r0, #61]	; 0x3d
 8001320:	f880 303e 	strb.w	r3, [r0, #62]	; 0x3e
 8001324:	6c02      	ldr	r2, [r0, #64]	; 0x40
 8001326:	f042 0220 	orr.w	r2, r2, #32
 800132a:	6402      	str	r2, [r0, #64]	; 0x40
 800132c:	f880 303c 	strb.w	r3, [r0, #60]	; 0x3c
 8001330:	2001      	movs	r0, #1
 8001332:	e000      	b.n	8001336 <HAL_I2C_Master_Transmit_IT+0xc2>
 8001334:	2002      	movs	r0, #2
 8001336:	b002      	add	sp, #8
 8001338:	bc30      	pop	{r4, r5}
 800133a:	4770      	bx	lr
 800133c:	2002      	movs	r0, #2
 800133e:	e7fa      	b.n	8001336 <HAL_I2C_Master_Transmit_IT+0xc2>
 8001340:	20000008 	.word	0x20000008
 8001344:	14f8b589 	.word	0x14f8b589
 8001348:	ffff0000 	.word	0xffff0000

0800134c <HAL_I2C_MasterTxCpltCallback>:
 800134c:	4770      	bx	lr

0800134e <I2C_MasterTransmit_BTF>:
 800134e:	b508      	push	{r3, lr}
 8001350:	6ac2      	ldr	r2, [r0, #44]	; 0x2c
 8001352:	f890 303d 	ldrb.w	r3, [r0, #61]	; 0x3d
 8001356:	b2db      	uxtb	r3, r3
 8001358:	2b21      	cmp	r3, #33	; 0x21
 800135a:	d000      	beq.n	800135e <I2C_MasterTransmit_BTF+0x10>
 800135c:	bd08      	pop	{r3, pc}
 800135e:	8d43      	ldrh	r3, [r0, #42]	; 0x2a
 8001360:	b29b      	uxth	r3, r3
 8001362:	b163      	cbz	r3, 800137e <I2C_MasterTransmit_BTF+0x30>
 8001364:	6a42      	ldr	r2, [r0, #36]	; 0x24
 8001366:	6803      	ldr	r3, [r0, #0]
 8001368:	7812      	ldrb	r2, [r2, #0]
 800136a:	611a      	str	r2, [r3, #16]
 800136c:	6a43      	ldr	r3, [r0, #36]	; 0x24
 800136e:	3301      	adds	r3, #1
 8001370:	6243      	str	r3, [r0, #36]	; 0x24
 8001372:	8d43      	ldrh	r3, [r0, #42]	; 0x2a
 8001374:	b29b      	uxth	r3, r3
 8001376:	3b01      	subs	r3, #1
 8001378:	b29b      	uxth	r3, r3
 800137a:	8543      	strh	r3, [r0, #42]	; 0x2a
 800137c:	e7ee      	b.n	800135c <I2C_MasterTransmit_BTF+0xe>
 800137e:	2a08      	cmp	r2, #8
 8001380:	d004      	beq.n	800138c <I2C_MasterTransmit_BTF+0x3e>
 8001382:	2a20      	cmp	r2, #32
 8001384:	d002      	beq.n	800138c <I2C_MasterTransmit_BTF+0x3e>
 8001386:	f512 3f80 	cmn.w	r2, #65536	; 0x10000
 800138a:	d113      	bne.n	80013b4 <I2C_MasterTransmit_BTF+0x66>
 800138c:	6802      	ldr	r2, [r0, #0]
 800138e:	6853      	ldr	r3, [r2, #4]
 8001390:	f423 63e0 	bic.w	r3, r3, #1792	; 0x700
 8001394:	6053      	str	r3, [r2, #4]
 8001396:	6802      	ldr	r2, [r0, #0]
 8001398:	6813      	ldr	r3, [r2, #0]
 800139a:	f443 7300 	orr.w	r3, r3, #512	; 0x200
 800139e:	6013      	str	r3, [r2, #0]
 80013a0:	2300      	movs	r3, #0
 80013a2:	6303      	str	r3, [r0, #48]	; 0x30
 80013a4:	2220      	movs	r2, #32
 80013a6:	f880 203d 	strb.w	r2, [r0, #61]	; 0x3d
 80013aa:	f880 303e 	strb.w	r3, [r0, #62]	; 0x3e
 80013ae:	f7ff ffcd 	bl	800134c <HAL_I2C_MasterTxCpltCallback>
 80013b2:	e7d3      	b.n	800135c <I2C_MasterTransmit_BTF+0xe>
 80013b4:	6802      	ldr	r2, [r0, #0]
 80013b6:	6853      	ldr	r3, [r2, #4]
 80013b8:	f423 63e0 	bic.w	r3, r3, #1792	; 0x700
 80013bc:	6053      	str	r3, [r2, #4]
 80013be:	2311      	movs	r3, #17
 80013c0:	6303      	str	r3, [r0, #48]	; 0x30
 80013c2:	2300      	movs	r3, #0
 80013c4:	f880 303e 	strb.w	r3, [r0, #62]	; 0x3e
 80013c8:	2320      	movs	r3, #32
 80013ca:	f880 303d 	strb.w	r3, [r0, #61]	; 0x3d
 80013ce:	f7ff ffbd 	bl	800134c <HAL_I2C_MasterTxCpltCallback>
 80013d2:	e7c3      	b.n	800135c <I2C_MasterTransmit_BTF+0xe>

080013d4 <HAL_I2C_MasterRxCpltCallback>:
 80013d4:	4770      	bx	lr

080013d6 <HAL_I2C_SlaveTxCpltCallback>:
 80013d6:	4770      	bx	lr

080013d8 <I2C_SlaveTransmit_TXE>:
 80013d8:	b508      	push	{r3, lr}
 80013da:	f890 303d 	ldrb.w	r3, [r0, #61]	; 0x3d
 80013de:	b2da      	uxtb	r2, r3
 80013e0:	8d43      	ldrh	r3, [r0, #42]	; 0x2a
 80013e2:	b29b      	uxth	r3, r3
 80013e4:	b183      	cbz	r3, 8001408 <I2C_SlaveTransmit_TXE+0x30>
 80013e6:	6a41      	ldr	r1, [r0, #36]	; 0x24
 80013e8:	6803      	ldr	r3, [r0, #0]
 80013ea:	7809      	ldrb	r1, [r1, #0]
 80013ec:	6119      	str	r1, [r3, #16]
 80013ee:	6a43      	ldr	r3, [r0, #36]	; 0x24
 80013f0:	3301      	adds	r3, #1
 80013f2:	6243      	str	r3, [r0, #36]	; 0x24
 80013f4:	8d43      	ldrh	r3, [r0, #42]	; 0x2a
 80013f6:	b29b      	uxth	r3, r3
 80013f8:	3b01      	subs	r3, #1
 80013fa:	b29b      	uxth	r3, r3
 80013fc:	8543      	strh	r3, [r0, #42]	; 0x2a
 80013fe:	8d43      	ldrh	r3, [r0, #42]	; 0x2a
 8001400:	b29b      	uxth	r3, r3
 8001402:	b90b      	cbnz	r3, 8001408 <I2C_SlaveTransmit_TXE+0x30>
 8001404:	2a29      	cmp	r2, #41	; 0x29
 8001406:	d000      	beq.n	800140a <I2C_SlaveTransmit_TXE+0x32>
 8001408:	bd08      	pop	{r3, pc}
 800140a:	6802      	ldr	r2, [r0, #0]
 800140c:	6853      	ldr	r3, [r2, #4]
 800140e:	f423 6380 	bic.w	r3, r3, #1024	; 0x400
 8001412:	6053      	str	r3, [r2, #4]
 8001414:	2321      	movs	r3, #33	; 0x21
 8001416:	6303      	str	r3, [r0, #48]	; 0x30
 8001418:	2328      	movs	r3, #40	; 0x28
 800141a:	f880 303d 	strb.w	r3, [r0, #61]	; 0x3d
 800141e:	f7ff ffda 	bl	80013d6 <HAL_I2C_SlaveTxCpltCallback>
 8001422:	e7f1      	b.n	8001408 <I2C_SlaveTransmit_TXE+0x30>

08001424 <HAL_I2C_SlaveRxCpltCallback>:
 8001424:	4770      	bx	lr

08001426 <I2C_SlaveReceive_RXNE>:
 8001426:	b508      	push	{r3, lr}
 8001428:	f890 303d 	ldrb.w	r3, [r0, #61]	; 0x3d
 800142c:	b2da      	uxtb	r2, r3
 800142e:	8d43      	ldrh	r3, [r0, #42]	; 0x2a
 8001430:	b29b      	uxth	r3, r3
 8001432:	b183      	cbz	r3, 8001456 <I2C_SlaveReceive_RXNE+0x30>
 8001434:	6803      	ldr	r3, [r0, #0]
 8001436:	6919      	ldr	r1, [r3, #16]
 8001438:	6a43      	ldr	r3, [r0, #36]	; 0x24
 800143a:	7019      	strb	r1, [r3, #0]
 800143c:	6a43      	ldr	r3, [r0, #36]	; 0x24
 800143e:	3301      	adds	r3, #1
 8001440:	6243      	str	r3, [r0, #36]	; 0x24
 8001442:	8d43      	ldrh	r3, [r0, #42]	; 0x2a
 8001444:	b29b      	uxth	r3, r3
 8001446:	3b01      	subs	r3, #1
 8001448:	b29b      	uxth	r3, r3
 800144a:	8543      	strh	r3, [r0, #42]	; 0x2a
 800144c:	8d43      	ldrh	r3, [r0, #42]	; 0x2a
 800144e:	b29b      	uxth	r3, r3
 8001450:	b90b      	cbnz	r3, 8001456 <I2C_SlaveReceive_RXNE+0x30>
 8001452:	2a2a      	cmp	r2, #42	; 0x2a
 8001454:	d000      	beq.n	8001458 <I2C_SlaveReceive_RXNE+0x32>
 8001456:	bd08      	pop	{r3, pc}
 8001458:	6802      	ldr	r2, [r0, #0]
 800145a:	6853      	ldr	r3, [r2, #4]
 800145c:	f423 6380 	bic.w	r3, r3, #1024	; 0x400
 8001460:	6053      	str	r3, [r2, #4]
 8001462:	2322      	movs	r3, #34	; 0x22
 8001464:	6303      	str	r3, [r0, #48]	; 0x30
 8001466:	2328      	movs	r3, #40	; 0x28
 8001468:	f880 303d 	strb.w	r3, [r0, #61]	; 0x3d
 800146c:	f7ff ffda 	bl	8001424 <HAL_I2C_SlaveRxCpltCallback>
 8001470:	e7f1      	b.n	8001456 <I2C_SlaveReceive_RXNE+0x30>

08001472 <HAL_I2C_AddrCallback>:
 8001472:	4770      	bx	lr

08001474 <I2C_Slave_ADDR>:
 8001474:	b508      	push	{r3, lr}
 8001476:	f890 303d 	ldrb.w	r3, [r0, #61]	; 0x3d
 800147a:	f003 0328 	and.w	r3, r3, #40	; 0x28
 800147e:	2b28      	cmp	r3, #40	; 0x28
 8001480:	d007      	beq.n	8001492 <I2C_Slave_ADDR+0x1e>
 8001482:	6803      	ldr	r3, [r0, #0]
 8001484:	f06f 0202 	mvn.w	r2, #2
 8001488:	615a      	str	r2, [r3, #20]
 800148a:	2300      	movs	r3, #0
 800148c:	f880 303c 	strb.w	r3, [r0, #60]	; 0x3c
 8001490:	bd08      	pop	{r3, pc}
 8001492:	6802      	ldr	r2, [r0, #0]
 8001494:	6853      	ldr	r3, [r2, #4]
 8001496:	f423 6380 	bic.w	r3, r3, #1024	; 0x400
 800149a:	6053      	str	r3, [r2, #4]
 800149c:	f011 0f04 	tst.w	r1, #4
 80014a0:	d00b      	beq.n	80014ba <I2C_Slave_ADDR+0x46>
 80014a2:	2300      	movs	r3, #0
 80014a4:	f011 0f80 	tst.w	r1, #128	; 0x80
 80014a8:	d109      	bne.n	80014be <I2C_Slave_ADDR+0x4a>
 80014aa:	8982      	ldrh	r2, [r0, #12]
 80014ac:	2100      	movs	r1, #0
 80014ae:	f880 103c 	strb.w	r1, [r0, #60]	; 0x3c
 80014b2:	4619      	mov	r1, r3
 80014b4:	f7ff ffdd 	bl	8001472 <HAL_I2C_AddrCallback>
 80014b8:	e7ea      	b.n	8001490 <I2C_Slave_ADDR+0x1c>
 80014ba:	2301      	movs	r3, #1
 80014bc:	e7f2      	b.n	80014a4 <I2C_Slave_ADDR+0x30>
 80014be:	8b02      	ldrh	r2, [r0, #24]
 80014c0:	e7f4      	b.n	80014ac <I2C_Slave_ADDR+0x38>

080014c2 <HAL_I2C_ListenCpltCallback>:
 80014c2:	4770      	bx	lr

080014c4 <I2C_Slave_AF>:
 80014c4:	b508      	push	{r3, lr}
 80014c6:	f890 303d 	ldrb.w	r3, [r0, #61]	; 0x3d
 80014ca:	b2db      	uxtb	r3, r3
 80014cc:	6ac2      	ldr	r2, [r0, #44]	; 0x2c
 80014ce:	2a08      	cmp	r2, #8
 80014d0:	d001      	beq.n	80014d6 <I2C_Slave_AF+0x12>
 80014d2:	2a20      	cmp	r2, #32
 80014d4:	d101      	bne.n	80014da <I2C_Slave_AF+0x16>
 80014d6:	2b28      	cmp	r3, #40	; 0x28
 80014d8:	d006      	beq.n	80014e8 <I2C_Slave_AF+0x24>
 80014da:	2b21      	cmp	r3, #33	; 0x21
 80014dc:	d01e      	beq.n	800151c <I2C_Slave_AF+0x58>
 80014de:	6803      	ldr	r3, [r0, #0]
 80014e0:	f46f 6280 	mvn.w	r2, #1024	; 0x400
 80014e4:	615a      	str	r2, [r3, #20]
 80014e6:	bd08      	pop	{r3, pc}
 80014e8:	4b1a      	ldr	r3, [pc, #104]	; (8001554 <I2C_Slave_AF+0x90>)
 80014ea:	62c3      	str	r3, [r0, #44]	; 0x2c
 80014ec:	6802      	ldr	r2, [r0, #0]
 80014ee:	6853      	ldr	r3, [r2, #4]
 80014f0:	f423 63e0 	bic.w	r3, r3, #1792	; 0x700
 80014f4:	6053      	str	r3, [r2, #4]
 80014f6:	6803      	ldr	r3, [r0, #0]
 80014f8:	f46f 6280 	mvn.w	r2, #1024	; 0x400
 80014fc:	615a      	str	r2, [r3, #20]
 80014fe:	6802      	ldr	r2, [r0, #0]
 8001500:	6813      	ldr	r3, [r2, #0]
 8001502:	f423 6380 	bic.w	r3, r3, #1024	; 0x400
 8001506:	6013      	str	r3, [r2, #0]
 8001508:	2300      	movs	r3, #0
 800150a:	6303      	str	r3, [r0, #48]	; 0x30
 800150c:	2220      	movs	r2, #32
 800150e:	f880 203d 	strb.w	r2, [r0, #61]	; 0x3d
 8001512:	f880 303e 	strb.w	r3, [r0, #62]	; 0x3e
 8001516:	f7ff ffd4 	bl	80014c2 <HAL_I2C_ListenCpltCallback>
 800151a:	e7e4      	b.n	80014e6 <I2C_Slave_AF+0x22>
 800151c:	4b0d      	ldr	r3, [pc, #52]	; (8001554 <I2C_Slave_AF+0x90>)
 800151e:	62c3      	str	r3, [r0, #44]	; 0x2c
 8001520:	2321      	movs	r3, #33	; 0x21
 8001522:	6303      	str	r3, [r0, #48]	; 0x30
 8001524:	2320      	movs	r3, #32
 8001526:	f880 303d 	strb.w	r3, [r0, #61]	; 0x3d
 800152a:	2300      	movs	r3, #0
 800152c:	f880 303e 	strb.w	r3, [r0, #62]	; 0x3e
 8001530:	6802      	ldr	r2, [r0, #0]
 8001532:	6853      	ldr	r3, [r2, #4]
 8001534:	f423 63e0 	bic.w	r3, r3, #1792	; 0x700
 8001538:	6053      	str	r3, [r2, #4]
 800153a:	6803      	ldr	r3, [r0, #0]
 800153c:	f46f 6280 	mvn.w	r2, #1024	; 0x400
 8001540:	615a      	str	r2, [r3, #20]
 8001542:	6802      	ldr	r2, [r0, #0]
 8001544:	6813      	ldr	r3, [r2, #0]
 8001546:	f423 6380 	bic.w	r3, r3, #1024	; 0x400
 800154a:	6013      	str	r3, [r2, #0]
 800154c:	f7ff ff43 	bl	80013d6 <HAL_I2C_SlaveTxCpltCallback>
 8001550:	e7c9      	b.n	80014e6 <I2C_Slave_AF+0x22>
 8001552:	bf00      	nop
 8001554:	ffff0000 	.word	0xffff0000

08001558 <HAL_I2C_MemTxCpltCallback>:
 8001558:	4770      	bx	lr

0800155a <I2C_MemoryTransmit_TXE_BTF>:
 800155a:	b508      	push	{r3, lr}
 800155c:	f890 303d 	ldrb.w	r3, [r0, #61]	; 0x3d
 8001560:	6d02      	ldr	r2, [r0, #80]	; 0x50
 8001562:	b99a      	cbnz	r2, 800158c <I2C_MemoryTransmit_TXE_BTF+0x32>
 8001564:	6cc3      	ldr	r3, [r0, #76]	; 0x4c
 8001566:	2b01      	cmp	r3, #1
 8001568:	d008      	beq.n	800157c <I2C_MemoryTransmit_TXE_BTF+0x22>
 800156a:	6c83      	ldr	r3, [r0, #72]	; 0x48
 800156c:	f3c3 2307 	ubfx	r3, r3, #8, #8
 8001570:	6802      	ldr	r2, [r0, #0]
 8001572:	6113      	str	r3, [r2, #16]
 8001574:	6d03      	ldr	r3, [r0, #80]	; 0x50
 8001576:	3301      	adds	r3, #1
 8001578:	6503      	str	r3, [r0, #80]	; 0x50
 800157a:	bd08      	pop	{r3, pc}
 800157c:	6c83      	ldr	r3, [r0, #72]	; 0x48
 800157e:	6802      	ldr	r2, [r0, #0]
 8001580:	b2db      	uxtb	r3, r3
 8001582:	6113      	str	r3, [r2, #16]
 8001584:	6d03      	ldr	r3, [r0, #80]	; 0x50
 8001586:	3302      	adds	r3, #2
 8001588:	6503      	str	r3, [r0, #80]	; 0x50
 800158a:	e7f6      	b.n	800157a <I2C_MemoryTransmit_TXE_BTF+0x20>
 800158c:	b2db      	uxtb	r3, r3
 800158e:	6d02      	ldr	r2, [r0, #80]	; 0x50
 8001590:	2a01      	cmp	r2, #1
 8001592:	d023      	beq.n	80015dc <I2C_MemoryTransmit_TXE_BTF+0x82>
 8001594:	6d02      	ldr	r2, [r0, #80]	; 0x50
 8001596:	2a02      	cmp	r2, #2
 8001598:	d1ef      	bne.n	800157a <I2C_MemoryTransmit_TXE_BTF+0x20>
 800159a:	2b22      	cmp	r3, #34	; 0x22
 800159c:	d026      	beq.n	80015ec <I2C_MemoryTransmit_TXE_BTF+0x92>
 800159e:	8d42      	ldrh	r2, [r0, #42]	; 0x2a
 80015a0:	b292      	uxth	r2, r2
 80015a2:	b10a      	cbz	r2, 80015a8 <I2C_MemoryTransmit_TXE_BTF+0x4e>
 80015a4:	2b21      	cmp	r3, #33	; 0x21
 80015a6:	d027      	beq.n	80015f8 <I2C_MemoryTransmit_TXE_BTF+0x9e>
 80015a8:	8d42      	ldrh	r2, [r0, #42]	; 0x2a
 80015aa:	b292      	uxth	r2, r2
 80015ac:	2a00      	cmp	r2, #0
 80015ae:	d1e4      	bne.n	800157a <I2C_MemoryTransmit_TXE_BTF+0x20>
 80015b0:	2b21      	cmp	r3, #33	; 0x21
 80015b2:	d1e2      	bne.n	800157a <I2C_MemoryTransmit_TXE_BTF+0x20>
 80015b4:	6802      	ldr	r2, [r0, #0]
 80015b6:	6853      	ldr	r3, [r2, #4]
 80015b8:	f423 63e0 	bic.w	r3, r3, #1792	; 0x700
 80015bc:	6053      	str	r3, [r2, #4]
 80015be:	6802      	ldr	r2, [r0, #0]
 80015c0:	6813      	ldr	r3, [r2, #0]
 80015c2:	f443 7300 	orr.w	r3, r3, #512	; 0x200
 80015c6:	6013      	str	r3, [r2, #0]
 80015c8:	2300      	movs	r3, #0
 80015ca:	6303      	str	r3, [r0, #48]	; 0x30
 80015cc:	2220      	movs	r2, #32
 80015ce:	f880 203d 	strb.w	r2, [r0, #61]	; 0x3d
 80015d2:	f880 303e 	strb.w	r3, [r0, #62]	; 0x3e
 80015d6:	f7ff ffbf 	bl	8001558 <HAL_I2C_MemTxCpltCallback>
 80015da:	e7ce      	b.n	800157a <I2C_MemoryTransmit_TXE_BTF+0x20>
 80015dc:	6c83      	ldr	r3, [r0, #72]	; 0x48
 80015de:	6802      	ldr	r2, [r0, #0]
 80015e0:	b2db      	uxtb	r3, r3
 80015e2:	6113      	str	r3, [r2, #16]
 80015e4:	6d03      	ldr	r3, [r0, #80]	; 0x50
 80015e6:	3301      	adds	r3, #1
 80015e8:	6503      	str	r3, [r0, #80]	; 0x50
 80015ea:	e7c6      	b.n	800157a <I2C_MemoryTransmit_TXE_BTF+0x20>
 80015ec:	6802      	ldr	r2, [r0, #0]
 80015ee:	6813      	ldr	r3, [r2, #0]
 80015f0:	f443 7380 	orr.w	r3, r3, #256	; 0x100
 80015f4:	6013      	str	r3, [r2, #0]
 80015f6:	e7c0      	b.n	800157a <I2C_MemoryTransmit_TXE_BTF+0x20>
 80015f8:	6a42      	ldr	r2, [r0, #36]	; 0x24
 80015fa:	6803      	ldr	r3, [r0, #0]
 80015fc:	7812      	ldrb	r2, [r2, #0]
 80015fe:	611a      	str	r2, [r3, #16]
 8001600:	6a43      	ldr	r3, [r0, #36]	; 0x24
 8001602:	3301      	adds	r3, #1
 8001604:	6243      	str	r3, [r0, #36]	; 0x24
 8001606:	8d43      	ldrh	r3, [r0, #42]	; 0x2a
 8001608:	b29b      	uxth	r3, r3
 800160a:	3b01      	subs	r3, #1
 800160c:	b29b      	uxth	r3, r3
 800160e:	8543      	strh	r3, [r0, #42]	; 0x2a
 8001610:	e7b3      	b.n	800157a <I2C_MemoryTransmit_TXE_BTF+0x20>

08001612 <I2C_MasterTransmit_TXE>:
 8001612:	b510      	push	{r4, lr}
 8001614:	f890 303d 	ldrb.w	r3, [r0, #61]	; 0x3d
 8001618:	b2db      	uxtb	r3, r3
 800161a:	f890 203e 	ldrb.w	r2, [r0, #62]	; 0x3e
 800161e:	b2d2      	uxtb	r2, r2
 8001620:	6ac4      	ldr	r4, [r0, #44]	; 0x2c
 8001622:	8d01      	ldrh	r1, [r0, #40]	; 0x28
 8001624:	b909      	cbnz	r1, 800162a <I2C_MasterTransmit_TXE+0x18>
 8001626:	2b21      	cmp	r3, #33	; 0x21
 8001628:	d004      	beq.n	8001634 <I2C_MasterTransmit_TXE+0x22>
 800162a:	2b21      	cmp	r3, #33	; 0x21
 800162c:	d03b      	beq.n	80016a6 <I2C_MasterTransmit_TXE+0x94>
 800162e:	2a40      	cmp	r2, #64	; 0x40
 8001630:	d037      	beq.n	80016a2 <I2C_MasterTransmit_TXE+0x90>
 8001632:	bd10      	pop	{r4, pc}
 8001634:	2c08      	cmp	r4, #8
 8001636:	d004      	beq.n	8001642 <I2C_MasterTransmit_TXE+0x30>
 8001638:	2c20      	cmp	r4, #32
 800163a:	d002      	beq.n	8001642 <I2C_MasterTransmit_TXE+0x30>
 800163c:	f514 3f80 	cmn.w	r4, #65536	; 0x10000
 8001640:	d119      	bne.n	8001676 <I2C_MasterTransmit_TXE+0x64>
 8001642:	6802      	ldr	r2, [r0, #0]
 8001644:	6853      	ldr	r3, [r2, #4]
 8001646:	f423 63e0 	bic.w	r3, r3, #1792	; 0x700
 800164a:	6053      	str	r3, [r2, #4]
 800164c:	6802      	ldr	r2, [r0, #0]
 800164e:	6813      	ldr	r3, [r2, #0]
 8001650:	f443 7300 	orr.w	r3, r3, #512	; 0x200
 8001654:	6013      	str	r3, [r2, #0]
 8001656:	2300      	movs	r3, #0
 8001658:	6303      	str	r3, [r0, #48]	; 0x30
 800165a:	2320      	movs	r3, #32
 800165c:	f880 303d 	strb.w	r3, [r0, #61]	; 0x3d
 8001660:	f890 303e 	ldrb.w	r3, [r0, #62]	; 0x3e
 8001664:	b2db      	uxtb	r3, r3
 8001666:	2b40      	cmp	r3, #64	; 0x40
 8001668:	d015      	beq.n	8001696 <I2C_MasterTransmit_TXE+0x84>
 800166a:	2300      	movs	r3, #0
 800166c:	f880 303e 	strb.w	r3, [r0, #62]	; 0x3e
 8001670:	f7ff fe6c 	bl	800134c <HAL_I2C_MasterTxCpltCallback>
 8001674:	e7dd      	b.n	8001632 <I2C_MasterTransmit_TXE+0x20>
 8001676:	6802      	ldr	r2, [r0, #0]
 8001678:	6853      	ldr	r3, [r2, #4]
 800167a:	f423 63e0 	bic.w	r3, r3, #1792	; 0x700
 800167e:	6053      	str	r3, [r2, #4]
 8001680:	2311      	movs	r3, #17
 8001682:	6303      	str	r3, [r0, #48]	; 0x30
 8001684:	2300      	movs	r3, #0
 8001686:	f880 303e 	strb.w	r3, [r0, #62]	; 0x3e
 800168a:	2320      	movs	r3, #32
 800168c:	f880 303d 	strb.w	r3, [r0, #61]	; 0x3d
 8001690:	f7ff fe5c 	bl	800134c <HAL_I2C_MasterTxCpltCallback>
 8001694:	e7cd      	b.n	8001632 <I2C_MasterTransmit_TXE+0x20>
 8001696:	2300      	movs	r3, #0
 8001698:	f880 303e 	strb.w	r3, [r0, #62]	; 0x3e
 800169c:	f7ff ff5c 	bl	8001558 <HAL_I2C_MemTxCpltCallback>
 80016a0:	e7c7      	b.n	8001632 <I2C_MasterTransmit_TXE+0x20>
 80016a2:	2b22      	cmp	r3, #34	; 0x22
 80016a4:	d1c5      	bne.n	8001632 <I2C_MasterTransmit_TXE+0x20>
 80016a6:	8d43      	ldrh	r3, [r0, #42]	; 0x2a
 80016a8:	b29b      	uxth	r3, r3
 80016aa:	b92b      	cbnz	r3, 80016b8 <I2C_MasterTransmit_TXE+0xa6>
 80016ac:	6802      	ldr	r2, [r0, #0]
 80016ae:	6853      	ldr	r3, [r2, #4]
 80016b0:	f423 6380 	bic.w	r3, r3, #1024	; 0x400
 80016b4:	6053      	str	r3, [r2, #4]
 80016b6:	e7bc      	b.n	8001632 <I2C_MasterTransmit_TXE+0x20>
 80016b8:	f890 303e 	ldrb.w	r3, [r0, #62]	; 0x3e
 80016bc:	b2db      	uxtb	r3, r3
 80016be:	2b40      	cmp	r3, #64	; 0x40
 80016c0:	d00c      	beq.n	80016dc <I2C_MasterTransmit_TXE+0xca>
 80016c2:	6a42      	ldr	r2, [r0, #36]	; 0x24
 80016c4:	6803      	ldr	r3, [r0, #0]
 80016c6:	7812      	ldrb	r2, [r2, #0]
 80016c8:	611a      	str	r2, [r3, #16]
 80016ca:	6a43      	ldr	r3, [r0, #36]	; 0x24
 80016cc:	3301      	adds	r3, #1
 80016ce:	6243      	str	r3, [r0, #36]	; 0x24
 80016d0:	8d43      	ldrh	r3, [r0, #42]	; 0x2a
 80016d2:	b29b      	uxth	r3, r3
 80016d4:	3b01      	subs	r3, #1
 80016d6:	b29b      	uxth	r3, r3
 80016d8:	8543      	strh	r3, [r0, #42]	; 0x2a
 80016da:	e7aa      	b.n	8001632 <I2C_MasterTransmit_TXE+0x20>
 80016dc:	f7ff ff3d 	bl	800155a <I2C_MemoryTransmit_TXE_BTF>
 80016e0:	e7a7      	b.n	8001632 <I2C_MasterTransmit_TXE+0x20>

080016e2 <HAL_I2C_MemRxCpltCallback>:
 80016e2:	4770      	bx	lr

080016e4 <I2C_MasterReceive_BTF>:
 80016e4:	b508      	push	{r3, lr}
 80016e6:	6ac2      	ldr	r2, [r0, #44]	; 0x2c
 80016e8:	8d43      	ldrh	r3, [r0, #42]	; 0x2a
 80016ea:	b29b      	uxth	r3, r3
 80016ec:	2b04      	cmp	r3, #4
 80016ee:	d014      	beq.n	800171a <I2C_MasterReceive_BTF+0x36>
 80016f0:	8d43      	ldrh	r3, [r0, #42]	; 0x2a
 80016f2:	b29b      	uxth	r3, r3
 80016f4:	2b03      	cmp	r3, #3
 80016f6:	d022      	beq.n	800173e <I2C_MasterReceive_BTF+0x5a>
 80016f8:	8d43      	ldrh	r3, [r0, #42]	; 0x2a
 80016fa:	b29b      	uxth	r3, r3
 80016fc:	2b02      	cmp	r3, #2
 80016fe:	d039      	beq.n	8001774 <I2C_MasterReceive_BTF+0x90>
 8001700:	6803      	ldr	r3, [r0, #0]
 8001702:	691a      	ldr	r2, [r3, #16]
 8001704:	6a43      	ldr	r3, [r0, #36]	; 0x24
 8001706:	701a      	strb	r2, [r3, #0]
 8001708:	6a43      	ldr	r3, [r0, #36]	; 0x24
 800170a:	3301      	adds	r3, #1
 800170c:	6243      	str	r3, [r0, #36]	; 0x24
 800170e:	8d43      	ldrh	r3, [r0, #42]	; 0x2a
 8001710:	b29b      	uxth	r3, r3
 8001712:	3b01      	subs	r3, #1
 8001714:	b29b      	uxth	r3, r3
 8001716:	8543      	strh	r3, [r0, #42]	; 0x2a
 8001718:	e010      	b.n	800173c <I2C_MasterReceive_BTF+0x58>
 800171a:	6802      	ldr	r2, [r0, #0]
 800171c:	6853      	ldr	r3, [r2, #4]
 800171e:	f423 6380 	bic.w	r3, r3, #1024	; 0x400
 8001722:	6053      	str	r3, [r2, #4]
 8001724:	6803      	ldr	r3, [r0, #0]
 8001726:	691a      	ldr	r2, [r3, #16]
 8001728:	6a43      	ldr	r3, [r0, #36]	; 0x24
 800172a:	701a      	strb	r2, [r3, #0]
 800172c:	6a43      	ldr	r3, [r0, #36]	; 0x24
 800172e:	3301      	adds	r3, #1
 8001730:	6243      	str	r3, [r0, #36]	; 0x24
 8001732:	8d43      	ldrh	r3, [r0, #42]	; 0x2a
 8001734:	b29b      	uxth	r3, r3
 8001736:	3b01      	subs	r3, #1
 8001738:	b29b      	uxth	r3, r3
 800173a:	8543      	strh	r3, [r0, #42]	; 0x2a
 800173c:	bd08      	pop	{r3, pc}
 800173e:	6801      	ldr	r1, [r0, #0]
 8001740:	684b      	ldr	r3, [r1, #4]
 8001742:	f423 6380 	bic.w	r3, r3, #1024	; 0x400
 8001746:	604b      	str	r3, [r1, #4]
 8001748:	2a04      	cmp	r2, #4
 800174a:	d006      	beq.n	800175a <I2C_MasterReceive_BTF+0x76>
 800174c:	2a02      	cmp	r2, #2
 800174e:	d004      	beq.n	800175a <I2C_MasterReceive_BTF+0x76>
 8001750:	6802      	ldr	r2, [r0, #0]
 8001752:	6813      	ldr	r3, [r2, #0]
 8001754:	f423 6380 	bic.w	r3, r3, #1024	; 0x400
 8001758:	6013      	str	r3, [r2, #0]
 800175a:	6803      	ldr	r3, [r0, #0]
 800175c:	691a      	ldr	r2, [r3, #16]
 800175e:	6a43      	ldr	r3, [r0, #36]	; 0x24
 8001760:	701a      	strb	r2, [r3, #0]
 8001762:	6a43      	ldr	r3, [r0, #36]	; 0x24
 8001764:	3301      	adds	r3, #1
 8001766:	6243      	str	r3, [r0, #36]	; 0x24
 8001768:	8d43      	ldrh	r3, [r0, #42]	; 0x2a
 800176a:	b29b      	uxth	r3, r3
 800176c:	3b01      	subs	r3, #1
 800176e:	b29b      	uxth	r3, r3
 8001770:	8543      	strh	r3, [r0, #42]	; 0x2a
 8001772:	e7e3      	b.n	800173c <I2C_MasterReceive_BTF+0x58>
 8001774:	2a01      	cmp	r2, #1
 8001776:	d00b      	beq.n	8001790 <I2C_MasterReceive_BTF+0xac>
 8001778:	2a10      	cmp	r2, #16
 800177a:	d009      	beq.n	8001790 <I2C_MasterReceive_BTF+0xac>
 800177c:	2a04      	cmp	r2, #4
 800177e:	d038      	beq.n	80017f2 <I2C_MasterReceive_BTF+0x10e>
 8001780:	2a02      	cmp	r2, #2
 8001782:	d036      	beq.n	80017f2 <I2C_MasterReceive_BTF+0x10e>
 8001784:	6802      	ldr	r2, [r0, #0]
 8001786:	6813      	ldr	r3, [r2, #0]
 8001788:	f443 7300 	orr.w	r3, r3, #512	; 0x200
 800178c:	6013      	str	r3, [r2, #0]
 800178e:	e004      	b.n	800179a <I2C_MasterReceive_BTF+0xb6>
 8001790:	6802      	ldr	r2, [r0, #0]
 8001792:	6813      	ldr	r3, [r2, #0]
 8001794:	f423 6380 	bic.w	r3, r3, #1024	; 0x400
 8001798:	6013      	str	r3, [r2, #0]
 800179a:	6803      	ldr	r3, [r0, #0]
 800179c:	691a      	ldr	r2, [r3, #16]
 800179e:	6a43      	ldr	r3, [r0, #36]	; 0x24
 80017a0:	701a      	strb	r2, [r3, #0]
 80017a2:	6a42      	ldr	r2, [r0, #36]	; 0x24
 80017a4:	1c53      	adds	r3, r2, #1
 80017a6:	6243      	str	r3, [r0, #36]	; 0x24
 80017a8:	8d43      	ldrh	r3, [r0, #42]	; 0x2a
 80017aa:	b29b      	uxth	r3, r3
 80017ac:	3b01      	subs	r3, #1
 80017ae:	b29b      	uxth	r3, r3
 80017b0:	8543      	strh	r3, [r0, #42]	; 0x2a
 80017b2:	6803      	ldr	r3, [r0, #0]
 80017b4:	691b      	ldr	r3, [r3, #16]
 80017b6:	7053      	strb	r3, [r2, #1]
 80017b8:	6a43      	ldr	r3, [r0, #36]	; 0x24
 80017ba:	3301      	adds	r3, #1
 80017bc:	6243      	str	r3, [r0, #36]	; 0x24
 80017be:	8d43      	ldrh	r3, [r0, #42]	; 0x2a
 80017c0:	b29b      	uxth	r3, r3
 80017c2:	3b01      	subs	r3, #1
 80017c4:	b29b      	uxth	r3, r3
 80017c6:	8543      	strh	r3, [r0, #42]	; 0x2a
 80017c8:	6802      	ldr	r2, [r0, #0]
 80017ca:	6853      	ldr	r3, [r2, #4]
 80017cc:	f423 7340 	bic.w	r3, r3, #768	; 0x300
 80017d0:	6053      	str	r3, [r2, #4]
 80017d2:	2320      	movs	r3, #32
 80017d4:	f880 303d 	strb.w	r3, [r0, #61]	; 0x3d
 80017d8:	f890 303e 	ldrb.w	r3, [r0, #62]	; 0x3e
 80017dc:	b2db      	uxtb	r3, r3
 80017de:	2b40      	cmp	r3, #64	; 0x40
 80017e0:	d00d      	beq.n	80017fe <I2C_MasterReceive_BTF+0x11a>
 80017e2:	2300      	movs	r3, #0
 80017e4:	f880 303e 	strb.w	r3, [r0, #62]	; 0x3e
 80017e8:	2312      	movs	r3, #18
 80017ea:	6303      	str	r3, [r0, #48]	; 0x30
 80017ec:	f7ff fdf2 	bl	80013d4 <HAL_I2C_MasterRxCpltCallback>
 80017f0:	e7a4      	b.n	800173c <I2C_MasterReceive_BTF+0x58>
 80017f2:	6802      	ldr	r2, [r0, #0]
 80017f4:	6813      	ldr	r3, [r2, #0]
 80017f6:	f443 6380 	orr.w	r3, r3, #1024	; 0x400
 80017fa:	6013      	str	r3, [r2, #0]
 80017fc:	e7cd      	b.n	800179a <I2C_MasterReceive_BTF+0xb6>
 80017fe:	2300      	movs	r3, #0
 8001800:	f880 303e 	strb.w	r3, [r0, #62]	; 0x3e
 8001804:	6303      	str	r3, [r0, #48]	; 0x30
 8001806:	f7ff ff6c 	bl	80016e2 <HAL_I2C_MemRxCpltCallback>
 800180a:	e797      	b.n	800173c <I2C_MasterReceive_BTF+0x58>

0800180c <HAL_I2C_ErrorCallback>:
 800180c:	4770      	bx	lr

0800180e <I2C_MasterReceive_RXNE>:
 800180e:	f890 303d 	ldrb.w	r3, [r0, #61]	; 0x3d
 8001812:	b2db      	uxtb	r3, r3
 8001814:	2b22      	cmp	r3, #34	; 0x22
 8001816:	d000      	beq.n	800181a <I2C_MasterReceive_RXNE+0xc>
 8001818:	4770      	bx	lr
 800181a:	b510      	push	{r4, lr}
 800181c:	4604      	mov	r4, r0
 800181e:	8d43      	ldrh	r3, [r0, #42]	; 0x2a
 8001820:	b29b      	uxth	r3, r3
 8001822:	2b03      	cmp	r3, #3
 8001824:	d916      	bls.n	8001854 <I2C_MasterReceive_RXNE+0x46>
 8001826:	6803      	ldr	r3, [r0, #0]
 8001828:	691a      	ldr	r2, [r3, #16]
 800182a:	6a43      	ldr	r3, [r0, #36]	; 0x24
 800182c:	701a      	strb	r2, [r3, #0]
 800182e:	6a43      	ldr	r3, [r0, #36]	; 0x24
 8001830:	3301      	adds	r3, #1
 8001832:	6243      	str	r3, [r0, #36]	; 0x24
 8001834:	8d43      	ldrh	r3, [r0, #42]	; 0x2a
 8001836:	b29b      	uxth	r3, r3
 8001838:	3b01      	subs	r3, #1
 800183a:	b29b      	uxth	r3, r3
 800183c:	8543      	strh	r3, [r0, #42]	; 0x2a
 800183e:	8d43      	ldrh	r3, [r0, #42]	; 0x2a
 8001840:	b29b      	uxth	r3, r3
 8001842:	2b03      	cmp	r3, #3
 8001844:	d000      	beq.n	8001848 <I2C_MasterReceive_RXNE+0x3a>
 8001846:	bd10      	pop	{r4, pc}
 8001848:	6802      	ldr	r2, [r0, #0]
 800184a:	6853      	ldr	r3, [r2, #4]
 800184c:	f423 6380 	bic.w	r3, r3, #1024	; 0x400
 8001850:	6053      	str	r3, [r2, #4]
 8001852:	e7f8      	b.n	8001846 <I2C_MasterReceive_RXNE+0x38>
 8001854:	6ac2      	ldr	r2, [r0, #44]	; 0x2c
 8001856:	2a02      	cmp	r2, #2
 8001858:	d0f5      	beq.n	8001846 <I2C_MasterReceive_RXNE+0x38>
 800185a:	2b01      	cmp	r3, #1
 800185c:	d8f3      	bhi.n	8001846 <I2C_MasterReceive_RXNE+0x38>
 800185e:	f7ff f9e5 	bl	8000c2c <I2C_WaitOnSTOPRequestThroughIT>
 8001862:	2800      	cmp	r0, #0
 8001864:	d12e      	bne.n	80018c4 <I2C_MasterReceive_RXNE+0xb6>
 8001866:	6822      	ldr	r2, [r4, #0]
 8001868:	6813      	ldr	r3, [r2, #0]
 800186a:	f423 6380 	bic.w	r3, r3, #1024	; 0x400
 800186e:	6013      	str	r3, [r2, #0]
 8001870:	6822      	ldr	r2, [r4, #0]
 8001872:	6853      	ldr	r3, [r2, #4]
 8001874:	f423 63e0 	bic.w	r3, r3, #1792	; 0x700
 8001878:	6053      	str	r3, [r2, #4]
 800187a:	6823      	ldr	r3, [r4, #0]
 800187c:	691a      	ldr	r2, [r3, #16]
 800187e:	6a63      	ldr	r3, [r4, #36]	; 0x24
 8001880:	701a      	strb	r2, [r3, #0]
 8001882:	6a63      	ldr	r3, [r4, #36]	; 0x24
 8001884:	3301      	adds	r3, #1
 8001886:	6263      	str	r3, [r4, #36]	; 0x24
 8001888:	8d63      	ldrh	r3, [r4, #42]	; 0x2a
 800188a:	b29b      	uxth	r3, r3
 800188c:	3b01      	subs	r3, #1
 800188e:	b29b      	uxth	r3, r3
 8001890:	8563      	strh	r3, [r4, #42]	; 0x2a
 8001892:	2320      	movs	r3, #32
 8001894:	f884 303d 	strb.w	r3, [r4, #61]	; 0x3d
 8001898:	f894 303e 	ldrb.w	r3, [r4, #62]	; 0x3e
 800189c:	b2db      	uxtb	r3, r3
 800189e:	2b40      	cmp	r3, #64	; 0x40
 80018a0:	d008      	beq.n	80018b4 <I2C_MasterReceive_RXNE+0xa6>
 80018a2:	2300      	movs	r3, #0
 80018a4:	f884 303e 	strb.w	r3, [r4, #62]	; 0x3e
 80018a8:	2312      	movs	r3, #18
 80018aa:	6323      	str	r3, [r4, #48]	; 0x30
 80018ac:	4620      	mov	r0, r4
 80018ae:	f7ff fd91 	bl	80013d4 <HAL_I2C_MasterRxCpltCallback>
 80018b2:	e7c8      	b.n	8001846 <I2C_MasterReceive_RXNE+0x38>
 80018b4:	2300      	movs	r3, #0
 80018b6:	f884 303e 	strb.w	r3, [r4, #62]	; 0x3e
 80018ba:	6323      	str	r3, [r4, #48]	; 0x30
 80018bc:	4620      	mov	r0, r4
 80018be:	f7ff ff10 	bl	80016e2 <HAL_I2C_MemRxCpltCallback>
 80018c2:	e7c0      	b.n	8001846 <I2C_MasterReceive_RXNE+0x38>
 80018c4:	6822      	ldr	r2, [r4, #0]
 80018c6:	6853      	ldr	r3, [r2, #4]
 80018c8:	f423 63e0 	bic.w	r3, r3, #1792	; 0x700
 80018cc:	6053      	str	r3, [r2, #4]
 80018ce:	6823      	ldr	r3, [r4, #0]
 80018d0:	691a      	ldr	r2, [r3, #16]
 80018d2:	6a63      	ldr	r3, [r4, #36]	; 0x24
 80018d4:	701a      	strb	r2, [r3, #0]
 80018d6:	6a63      	ldr	r3, [r4, #36]	; 0x24
 80018d8:	3301      	adds	r3, #1
 80018da:	6263      	str	r3, [r4, #36]	; 0x24
 80018dc:	8d63      	ldrh	r3, [r4, #42]	; 0x2a
 80018de:	b29b      	uxth	r3, r3
 80018e0:	3b01      	subs	r3, #1
 80018e2:	b29b      	uxth	r3, r3
 80018e4:	8563      	strh	r3, [r4, #42]	; 0x2a
 80018e6:	2320      	movs	r3, #32
 80018e8:	f884 303d 	strb.w	r3, [r4, #61]	; 0x3d
 80018ec:	2300      	movs	r3, #0
 80018ee:	f884 303e 	strb.w	r3, [r4, #62]	; 0x3e
 80018f2:	4620      	mov	r0, r4
 80018f4:	f7ff ff8a 	bl	800180c <HAL_I2C_ErrorCallback>
 80018f8:	e7a5      	b.n	8001846 <I2C_MasterReceive_RXNE+0x38>

080018fa <HAL_I2C_AbortCpltCallback>:
 80018fa:	4770      	bx	lr

080018fc <I2C_DMAAbort>:
 80018fc:	b500      	push	{lr}
 80018fe:	b083      	sub	sp, #12
 8001900:	2300      	movs	r3, #0
 8001902:	9301      	str	r3, [sp, #4]
 8001904:	6b80      	ldr	r0, [r0, #56]	; 0x38
 8001906:	f890 203d 	ldrb.w	r2, [r0, #61]	; 0x3d
 800190a:	b2d2      	uxtb	r2, r2
 800190c:	4b32      	ldr	r3, [pc, #200]	; (80019d8 <I2C_DMAAbort+0xdc>)
 800190e:	681b      	ldr	r3, [r3, #0]
 8001910:	08db      	lsrs	r3, r3, #3
 8001912:	4932      	ldr	r1, [pc, #200]	; (80019dc <I2C_DMAAbort+0xe0>)
 8001914:	fba1 1303 	umull	r1, r3, r1, r3
 8001918:	0a1b      	lsrs	r3, r3, #8
 800191a:	eb03 0383 	add.w	r3, r3, r3, lsl #2
 800191e:	ebc3 03c3 	rsb	r3, r3, r3, lsl #3
 8001922:	9301      	str	r3, [sp, #4]
 8001924:	9b01      	ldr	r3, [sp, #4]
 8001926:	b143      	cbz	r3, 800193a <I2C_DMAAbort+0x3e>
 8001928:	9b01      	ldr	r3, [sp, #4]
 800192a:	3b01      	subs	r3, #1
 800192c:	9301      	str	r3, [sp, #4]
 800192e:	6803      	ldr	r3, [r0, #0]
 8001930:	681b      	ldr	r3, [r3, #0]
 8001932:	f413 7f00 	tst.w	r3, #512	; 0x200
 8001936:	d1f5      	bne.n	8001924 <I2C_DMAAbort+0x28>
 8001938:	e003      	b.n	8001942 <I2C_DMAAbort+0x46>
 800193a:	6c03      	ldr	r3, [r0, #64]	; 0x40
 800193c:	f043 0320 	orr.w	r3, r3, #32
 8001940:	6403      	str	r3, [r0, #64]	; 0x40
 8001942:	6b43      	ldr	r3, [r0, #52]	; 0x34
 8001944:	b10b      	cbz	r3, 800194a <I2C_DMAAbort+0x4e>
 8001946:	2100      	movs	r1, #0
 8001948:	63d9      	str	r1, [r3, #60]	; 0x3c
 800194a:	6b83      	ldr	r3, [r0, #56]	; 0x38
 800194c:	b10b      	cbz	r3, 8001952 <I2C_DMAAbort+0x56>
 800194e:	2100      	movs	r1, #0
 8001950:	63d9      	str	r1, [r3, #60]	; 0x3c
 8001952:	6801      	ldr	r1, [r0, #0]
 8001954:	680b      	ldr	r3, [r1, #0]
 8001956:	f423 6380 	bic.w	r3, r3, #1024	; 0x400
 800195a:	600b      	str	r3, [r1, #0]
 800195c:	2300      	movs	r3, #0
 800195e:	8543      	strh	r3, [r0, #42]	; 0x2a
 8001960:	6b43      	ldr	r3, [r0, #52]	; 0x34
 8001962:	b10b      	cbz	r3, 8001968 <I2C_DMAAbort+0x6c>
 8001964:	2100      	movs	r1, #0
 8001966:	6519      	str	r1, [r3, #80]	; 0x50
 8001968:	6b83      	ldr	r3, [r0, #56]	; 0x38
 800196a:	b10b      	cbz	r3, 8001970 <I2C_DMAAbort+0x74>
 800196c:	2100      	movs	r1, #0
 800196e:	6519      	str	r1, [r3, #80]	; 0x50
 8001970:	6801      	ldr	r1, [r0, #0]
 8001972:	680b      	ldr	r3, [r1, #0]
 8001974:	f023 0301 	bic.w	r3, r3, #1
 8001978:	600b      	str	r3, [r1, #0]
 800197a:	f890 303d 	ldrb.w	r3, [r0, #61]	; 0x3d
 800197e:	b2db      	uxtb	r3, r3
 8001980:	2b60      	cmp	r3, #96	; 0x60
 8001982:	d00e      	beq.n	80019a2 <I2C_DMAAbort+0xa6>
 8001984:	f002 0228 	and.w	r2, r2, #40	; 0x28
 8001988:	2a28      	cmp	r2, #40	; 0x28
 800198a:	d014      	beq.n	80019b6 <I2C_DMAAbort+0xba>
 800198c:	2320      	movs	r3, #32
 800198e:	f880 303d 	strb.w	r3, [r0, #61]	; 0x3d
 8001992:	2300      	movs	r3, #0
 8001994:	f880 303e 	strb.w	r3, [r0, #62]	; 0x3e
 8001998:	f7ff ff38 	bl	800180c <HAL_I2C_ErrorCallback>
 800199c:	b003      	add	sp, #12
 800199e:	f85d fb04 	ldr.w	pc, [sp], #4
 80019a2:	2320      	movs	r3, #32
 80019a4:	f880 303d 	strb.w	r3, [r0, #61]	; 0x3d
 80019a8:	2300      	movs	r3, #0
 80019aa:	f880 303e 	strb.w	r3, [r0, #62]	; 0x3e
 80019ae:	6403      	str	r3, [r0, #64]	; 0x40
 80019b0:	f7ff ffa3 	bl	80018fa <HAL_I2C_AbortCpltCallback>
 80019b4:	e7f2      	b.n	800199c <I2C_DMAAbort+0xa0>
 80019b6:	6802      	ldr	r2, [r0, #0]
 80019b8:	6813      	ldr	r3, [r2, #0]
 80019ba:	f043 0301 	orr.w	r3, r3, #1
 80019be:	6013      	str	r3, [r2, #0]
 80019c0:	6802      	ldr	r2, [r0, #0]
 80019c2:	6813      	ldr	r3, [r2, #0]
 80019c4:	f443 6380 	orr.w	r3, r3, #1024	; 0x400
 80019c8:	6013      	str	r3, [r2, #0]
 80019ca:	2300      	movs	r3, #0
 80019cc:	6303      	str	r3, [r0, #48]	; 0x30
 80019ce:	2328      	movs	r3, #40	; 0x28
 80019d0:	f880 303d 	strb.w	r3, [r0, #61]	; 0x3d
 80019d4:	e7e0      	b.n	8001998 <I2C_DMAAbort+0x9c>
 80019d6:	bf00      	nop
 80019d8:	20000008 	.word	0x20000008
 80019dc:	14f8b589 	.word	0x14f8b589

080019e0 <I2C_ITError>:
 80019e0:	b510      	push	{r4, lr}
 80019e2:	4604      	mov	r4, r0
 80019e4:	f890 303d 	ldrb.w	r3, [r0, #61]	; 0x3d
 80019e8:	b2db      	uxtb	r3, r3
 80019ea:	f890 203e 	ldrb.w	r2, [r0, #62]	; 0x3e
 80019ee:	b2d2      	uxtb	r2, r2
 80019f0:	2a10      	cmp	r2, #16
 80019f2:	d036      	beq.n	8001a62 <I2C_ITError+0x82>
 80019f4:	2a40      	cmp	r2, #64	; 0x40
 80019f6:	d034      	beq.n	8001a62 <I2C_ITError+0x82>
 80019f8:	f003 0228 	and.w	r2, r3, #40	; 0x28
 80019fc:	2a28      	cmp	r2, #40	; 0x28
 80019fe:	d038      	beq.n	8001a72 <I2C_ITError+0x92>
 8001a00:	6822      	ldr	r2, [r4, #0]
 8001a02:	6852      	ldr	r2, [r2, #4]
 8001a04:	f412 6f00 	tst.w	r2, #2048	; 0x800
 8001a08:	d107      	bne.n	8001a1a <I2C_ITError+0x3a>
 8001a0a:	2b60      	cmp	r3, #96	; 0x60
 8001a0c:	d005      	beq.n	8001a1a <I2C_ITError+0x3a>
 8001a0e:	2320      	movs	r3, #32
 8001a10:	f884 303d 	strb.w	r3, [r4, #61]	; 0x3d
 8001a14:	2300      	movs	r3, #0
 8001a16:	f884 303e 	strb.w	r3, [r4, #62]	; 0x3e
 8001a1a:	2300      	movs	r3, #0
 8001a1c:	6323      	str	r3, [r4, #48]	; 0x30
 8001a1e:	6823      	ldr	r3, [r4, #0]
 8001a20:	685a      	ldr	r2, [r3, #4]
 8001a22:	f412 6f00 	tst.w	r2, #2048	; 0x800
 8001a26:	d048      	beq.n	8001aba <I2C_ITError+0xda>
 8001a28:	685a      	ldr	r2, [r3, #4]
 8001a2a:	f422 6200 	bic.w	r2, r2, #2048	; 0x800
 8001a2e:	605a      	str	r2, [r3, #4]
 8001a30:	6b62      	ldr	r2, [r4, #52]	; 0x34
 8001a32:	f892 3035 	ldrb.w	r3, [r2, #53]	; 0x35
 8001a36:	b2db      	uxtb	r3, r3
 8001a38:	2b01      	cmp	r3, #1
 8001a3a:	d020      	beq.n	8001a7e <I2C_ITError+0x9e>
 8001a3c:	4b44      	ldr	r3, [pc, #272]	; (8001b50 <I2C_ITError+0x170>)
 8001a3e:	6513      	str	r3, [r2, #80]	; 0x50
 8001a40:	6b60      	ldr	r0, [r4, #52]	; 0x34
 8001a42:	f000 fe6b 	bl	800271c <HAL_DMA_Abort_IT>
 8001a46:	2800      	cmp	r0, #0
 8001a48:	d049      	beq.n	8001ade <I2C_ITError+0xfe>
 8001a4a:	6822      	ldr	r2, [r4, #0]
 8001a4c:	6813      	ldr	r3, [r2, #0]
 8001a4e:	f023 0301 	bic.w	r3, r3, #1
 8001a52:	6013      	str	r3, [r2, #0]
 8001a54:	2320      	movs	r3, #32
 8001a56:	f884 303d 	strb.w	r3, [r4, #61]	; 0x3d
 8001a5a:	6b60      	ldr	r0, [r4, #52]	; 0x34
 8001a5c:	6d03      	ldr	r3, [r0, #80]	; 0x50
 8001a5e:	4798      	blx	r3
 8001a60:	e03d      	b.n	8001ade <I2C_ITError+0xfe>
 8001a62:	2b22      	cmp	r3, #34	; 0x22
 8001a64:	d1c8      	bne.n	80019f8 <I2C_ITError+0x18>
 8001a66:	6821      	ldr	r1, [r4, #0]
 8001a68:	680a      	ldr	r2, [r1, #0]
 8001a6a:	f422 6200 	bic.w	r2, r2, #2048	; 0x800
 8001a6e:	600a      	str	r2, [r1, #0]
 8001a70:	e7c2      	b.n	80019f8 <I2C_ITError+0x18>
 8001a72:	2300      	movs	r3, #0
 8001a74:	6323      	str	r3, [r4, #48]	; 0x30
 8001a76:	2328      	movs	r3, #40	; 0x28
 8001a78:	f884 303d 	strb.w	r3, [r4, #61]	; 0x3d
 8001a7c:	e7cf      	b.n	8001a1e <I2C_ITError+0x3e>
 8001a7e:	6ba3      	ldr	r3, [r4, #56]	; 0x38
 8001a80:	4a33      	ldr	r2, [pc, #204]	; (8001b50 <I2C_ITError+0x170>)
 8001a82:	651a      	str	r2, [r3, #80]	; 0x50
 8001a84:	6ba0      	ldr	r0, [r4, #56]	; 0x38
 8001a86:	f000 fe49 	bl	800271c <HAL_DMA_Abort_IT>
 8001a8a:	b340      	cbz	r0, 8001ade <I2C_ITError+0xfe>
 8001a8c:	6823      	ldr	r3, [r4, #0]
 8001a8e:	695a      	ldr	r2, [r3, #20]
 8001a90:	f012 0f40 	tst.w	r2, #64	; 0x40
 8001a94:	d005      	beq.n	8001aa2 <I2C_ITError+0xc2>
 8001a96:	691a      	ldr	r2, [r3, #16]
 8001a98:	6a63      	ldr	r3, [r4, #36]	; 0x24
 8001a9a:	701a      	strb	r2, [r3, #0]
 8001a9c:	6a63      	ldr	r3, [r4, #36]	; 0x24
 8001a9e:	3301      	adds	r3, #1
 8001aa0:	6263      	str	r3, [r4, #36]	; 0x24
 8001aa2:	6822      	ldr	r2, [r4, #0]
 8001aa4:	6813      	ldr	r3, [r2, #0]
 8001aa6:	f023 0301 	bic.w	r3, r3, #1
 8001aaa:	6013      	str	r3, [r2, #0]
 8001aac:	2320      	movs	r3, #32
 8001aae:	f884 303d 	strb.w	r3, [r4, #61]	; 0x3d
 8001ab2:	6ba0      	ldr	r0, [r4, #56]	; 0x38
 8001ab4:	6d03      	ldr	r3, [r0, #80]	; 0x50
 8001ab6:	4798      	blx	r3
 8001ab8:	e011      	b.n	8001ade <I2C_ITError+0xfe>
 8001aba:	f894 203d 	ldrb.w	r2, [r4, #61]	; 0x3d
 8001abe:	b2d2      	uxtb	r2, r2
 8001ac0:	2a60      	cmp	r2, #96	; 0x60
 8001ac2:	d01f      	beq.n	8001b04 <I2C_ITError+0x124>
 8001ac4:	695a      	ldr	r2, [r3, #20]
 8001ac6:	f012 0f40 	tst.w	r2, #64	; 0x40
 8001aca:	d005      	beq.n	8001ad8 <I2C_ITError+0xf8>
 8001acc:	691a      	ldr	r2, [r3, #16]
 8001ace:	6a63      	ldr	r3, [r4, #36]	; 0x24
 8001ad0:	701a      	strb	r2, [r3, #0]
 8001ad2:	6a63      	ldr	r3, [r4, #36]	; 0x24
 8001ad4:	3301      	adds	r3, #1
 8001ad6:	6263      	str	r3, [r4, #36]	; 0x24
 8001ad8:	4620      	mov	r0, r4
 8001ada:	f7ff fe97 	bl	800180c <HAL_I2C_ErrorCallback>
 8001ade:	6c23      	ldr	r3, [r4, #64]	; 0x40
 8001ae0:	f013 0f0f 	tst.w	r3, #15
 8001ae4:	d004      	beq.n	8001af0 <I2C_ITError+0x110>
 8001ae6:	6822      	ldr	r2, [r4, #0]
 8001ae8:	6853      	ldr	r3, [r2, #4]
 8001aea:	f423 63e0 	bic.w	r3, r3, #1792	; 0x700
 8001aee:	6053      	str	r3, [r2, #4]
 8001af0:	f894 303d 	ldrb.w	r3, [r4, #61]	; 0x3d
 8001af4:	b2db      	uxtb	r3, r3
 8001af6:	6c22      	ldr	r2, [r4, #64]	; 0x40
 8001af8:	f012 0f04 	tst.w	r2, #4
 8001afc:	d001      	beq.n	8001b02 <I2C_ITError+0x122>
 8001afe:	2b28      	cmp	r3, #40	; 0x28
 8001b00:	d018      	beq.n	8001b34 <I2C_ITError+0x154>
 8001b02:	bd10      	pop	{r4, pc}
 8001b04:	2220      	movs	r2, #32
 8001b06:	f884 203d 	strb.w	r2, [r4, #61]	; 0x3d
 8001b0a:	2200      	movs	r2, #0
 8001b0c:	6422      	str	r2, [r4, #64]	; 0x40
 8001b0e:	695a      	ldr	r2, [r3, #20]
 8001b10:	f012 0f40 	tst.w	r2, #64	; 0x40
 8001b14:	d005      	beq.n	8001b22 <I2C_ITError+0x142>
 8001b16:	691a      	ldr	r2, [r3, #16]
 8001b18:	6a63      	ldr	r3, [r4, #36]	; 0x24
 8001b1a:	701a      	strb	r2, [r3, #0]
 8001b1c:	6a63      	ldr	r3, [r4, #36]	; 0x24
 8001b1e:	3301      	adds	r3, #1
 8001b20:	6263      	str	r3, [r4, #36]	; 0x24
 8001b22:	6822      	ldr	r2, [r4, #0]
 8001b24:	6813      	ldr	r3, [r2, #0]
 8001b26:	f023 0301 	bic.w	r3, r3, #1
 8001b2a:	6013      	str	r3, [r2, #0]
 8001b2c:	4620      	mov	r0, r4
 8001b2e:	f7ff fee4 	bl	80018fa <HAL_I2C_AbortCpltCallback>
 8001b32:	e7d4      	b.n	8001ade <I2C_ITError+0xfe>
 8001b34:	4b07      	ldr	r3, [pc, #28]	; (8001b54 <I2C_ITError+0x174>)
 8001b36:	62e3      	str	r3, [r4, #44]	; 0x2c
 8001b38:	2300      	movs	r3, #0
 8001b3a:	6323      	str	r3, [r4, #48]	; 0x30
 8001b3c:	2220      	movs	r2, #32
 8001b3e:	f884 203d 	strb.w	r2, [r4, #61]	; 0x3d
 8001b42:	f884 303e 	strb.w	r3, [r4, #62]	; 0x3e
 8001b46:	4620      	mov	r0, r4
 8001b48:	f7ff fcbb 	bl	80014c2 <HAL_I2C_ListenCpltCallback>
 8001b4c:	e7d9      	b.n	8001b02 <I2C_ITError+0x122>
 8001b4e:	bf00      	nop
 8001b50:	080018fd 	.word	0x080018fd
 8001b54:	ffff0000 	.word	0xffff0000

08001b58 <I2C_Slave_STOPF>:
 8001b58:	b530      	push	{r4, r5, lr}
 8001b5a:	b083      	sub	sp, #12
 8001b5c:	4604      	mov	r4, r0
 8001b5e:	f890 503d 	ldrb.w	r5, [r0, #61]	; 0x3d
 8001b62:	b2ed      	uxtb	r5, r5
 8001b64:	6802      	ldr	r2, [r0, #0]
 8001b66:	6853      	ldr	r3, [r2, #4]
 8001b68:	f423 63e0 	bic.w	r3, r3, #1792	; 0x700
 8001b6c:	6053      	str	r3, [r2, #4]
 8001b6e:	2300      	movs	r3, #0
 8001b70:	9301      	str	r3, [sp, #4]
 8001b72:	6803      	ldr	r3, [r0, #0]
 8001b74:	695a      	ldr	r2, [r3, #20]
 8001b76:	9201      	str	r2, [sp, #4]
 8001b78:	681a      	ldr	r2, [r3, #0]
 8001b7a:	f042 0201 	orr.w	r2, r2, #1
 8001b7e:	601a      	str	r2, [r3, #0]
 8001b80:	9b01      	ldr	r3, [sp, #4]
 8001b82:	6802      	ldr	r2, [r0, #0]
 8001b84:	6813      	ldr	r3, [r2, #0]
 8001b86:	f423 6380 	bic.w	r3, r3, #1024	; 0x400
 8001b8a:	6013      	str	r3, [r2, #0]
 8001b8c:	6803      	ldr	r3, [r0, #0]
 8001b8e:	685a      	ldr	r2, [r3, #4]
 8001b90:	f412 6f00 	tst.w	r2, #2048	; 0x800
 8001b94:	d038      	beq.n	8001c08 <I2C_Slave_STOPF+0xb0>
 8001b96:	2d22      	cmp	r5, #34	; 0x22
 8001b98:	d021      	beq.n	8001bde <I2C_Slave_STOPF+0x86>
 8001b9a:	2d2a      	cmp	r5, #42	; 0x2a
 8001b9c:	d01f      	beq.n	8001bde <I2C_Slave_STOPF+0x86>
 8001b9e:	6b42      	ldr	r2, [r0, #52]	; 0x34
 8001ba0:	6812      	ldr	r2, [r2, #0]
 8001ba2:	6852      	ldr	r2, [r2, #4]
 8001ba4:	b292      	uxth	r2, r2
 8001ba6:	8542      	strh	r2, [r0, #42]	; 0x2a
 8001ba8:	8d42      	ldrh	r2, [r0, #42]	; 0x2a
 8001baa:	b292      	uxth	r2, r2
 8001bac:	b11a      	cbz	r2, 8001bb6 <I2C_Slave_STOPF+0x5e>
 8001bae:	6c02      	ldr	r2, [r0, #64]	; 0x40
 8001bb0:	f042 0204 	orr.w	r2, r2, #4
 8001bb4:	6402      	str	r2, [r0, #64]	; 0x40
 8001bb6:	685a      	ldr	r2, [r3, #4]
 8001bb8:	f422 6200 	bic.w	r2, r2, #2048	; 0x800
 8001bbc:	605a      	str	r2, [r3, #4]
 8001bbe:	6b60      	ldr	r0, [r4, #52]	; 0x34
 8001bc0:	f000 fdbf 	bl	8002742 <HAL_DMA_GetState>
 8001bc4:	2801      	cmp	r0, #1
 8001bc6:	d01f      	beq.n	8001c08 <I2C_Slave_STOPF+0xb0>
 8001bc8:	6b63      	ldr	r3, [r4, #52]	; 0x34
 8001bca:	4a44      	ldr	r2, [pc, #272]	; (8001cdc <I2C_Slave_STOPF+0x184>)
 8001bcc:	651a      	str	r2, [r3, #80]	; 0x50
 8001bce:	6b60      	ldr	r0, [r4, #52]	; 0x34
 8001bd0:	f000 fda4 	bl	800271c <HAL_DMA_Abort_IT>
 8001bd4:	b1c0      	cbz	r0, 8001c08 <I2C_Slave_STOPF+0xb0>
 8001bd6:	6b60      	ldr	r0, [r4, #52]	; 0x34
 8001bd8:	6d03      	ldr	r3, [r0, #80]	; 0x50
 8001bda:	4798      	blx	r3
 8001bdc:	e014      	b.n	8001c08 <I2C_Slave_STOPF+0xb0>
 8001bde:	6ba2      	ldr	r2, [r4, #56]	; 0x38
 8001be0:	6812      	ldr	r2, [r2, #0]
 8001be2:	6852      	ldr	r2, [r2, #4]
 8001be4:	b292      	uxth	r2, r2
 8001be6:	8562      	strh	r2, [r4, #42]	; 0x2a
 8001be8:	8d62      	ldrh	r2, [r4, #42]	; 0x2a
 8001bea:	b292      	uxth	r2, r2
 8001bec:	b11a      	cbz	r2, 8001bf6 <I2C_Slave_STOPF+0x9e>
 8001bee:	6c22      	ldr	r2, [r4, #64]	; 0x40
 8001bf0:	f042 0204 	orr.w	r2, r2, #4
 8001bf4:	6422      	str	r2, [r4, #64]	; 0x40
 8001bf6:	685a      	ldr	r2, [r3, #4]
 8001bf8:	f422 6200 	bic.w	r2, r2, #2048	; 0x800
 8001bfc:	605a      	str	r2, [r3, #4]
 8001bfe:	6ba0      	ldr	r0, [r4, #56]	; 0x38
 8001c00:	f000 fd9f 	bl	8002742 <HAL_DMA_GetState>
 8001c04:	2801      	cmp	r0, #1
 8001c06:	d142      	bne.n	8001c8e <I2C_Slave_STOPF+0x136>
 8001c08:	8d63      	ldrh	r3, [r4, #42]	; 0x2a
 8001c0a:	b29b      	uxth	r3, r3
 8001c0c:	b333      	cbz	r3, 8001c5c <I2C_Slave_STOPF+0x104>
 8001c0e:	6823      	ldr	r3, [r4, #0]
 8001c10:	695a      	ldr	r2, [r3, #20]
 8001c12:	f012 0f04 	tst.w	r2, #4
 8001c16:	d00a      	beq.n	8001c2e <I2C_Slave_STOPF+0xd6>
 8001c18:	691a      	ldr	r2, [r3, #16]
 8001c1a:	6a63      	ldr	r3, [r4, #36]	; 0x24
 8001c1c:	701a      	strb	r2, [r3, #0]
 8001c1e:	6a63      	ldr	r3, [r4, #36]	; 0x24
 8001c20:	3301      	adds	r3, #1
 8001c22:	6263      	str	r3, [r4, #36]	; 0x24
 8001c24:	8d63      	ldrh	r3, [r4, #42]	; 0x2a
 8001c26:	b29b      	uxth	r3, r3
 8001c28:	3b01      	subs	r3, #1
 8001c2a:	b29b      	uxth	r3, r3
 8001c2c:	8563      	strh	r3, [r4, #42]	; 0x2a
 8001c2e:	6823      	ldr	r3, [r4, #0]
 8001c30:	695a      	ldr	r2, [r3, #20]
 8001c32:	f012 0f40 	tst.w	r2, #64	; 0x40
 8001c36:	d00a      	beq.n	8001c4e <I2C_Slave_STOPF+0xf6>
 8001c38:	691a      	ldr	r2, [r3, #16]
 8001c3a:	6a63      	ldr	r3, [r4, #36]	; 0x24
 8001c3c:	701a      	strb	r2, [r3, #0]
 8001c3e:	6a63      	ldr	r3, [r4, #36]	; 0x24
 8001c40:	3301      	adds	r3, #1
 8001c42:	6263      	str	r3, [r4, #36]	; 0x24
 8001c44:	8d63      	ldrh	r3, [r4, #42]	; 0x2a
 8001c46:	b29b      	uxth	r3, r3
 8001c48:	3b01      	subs	r3, #1
 8001c4a:	b29b      	uxth	r3, r3
 8001c4c:	8563      	strh	r3, [r4, #42]	; 0x2a
 8001c4e:	8d63      	ldrh	r3, [r4, #42]	; 0x2a
 8001c50:	b29b      	uxth	r3, r3
 8001c52:	b11b      	cbz	r3, 8001c5c <I2C_Slave_STOPF+0x104>
 8001c54:	6c23      	ldr	r3, [r4, #64]	; 0x40
 8001c56:	f043 0304 	orr.w	r3, r3, #4
 8001c5a:	6423      	str	r3, [r4, #64]	; 0x40
 8001c5c:	6c23      	ldr	r3, [r4, #64]	; 0x40
 8001c5e:	bb13      	cbnz	r3, 8001ca6 <I2C_Slave_STOPF+0x14e>
 8001c60:	2d2a      	cmp	r5, #42	; 0x2a
 8001c62:	d025      	beq.n	8001cb0 <I2C_Slave_STOPF+0x158>
 8001c64:	f894 303d 	ldrb.w	r3, [r4, #61]	; 0x3d
 8001c68:	b2db      	uxtb	r3, r3
 8001c6a:	2b28      	cmp	r3, #40	; 0x28
 8001c6c:	d029      	beq.n	8001cc2 <I2C_Slave_STOPF+0x16a>
 8001c6e:	6b23      	ldr	r3, [r4, #48]	; 0x30
 8001c70:	2b22      	cmp	r3, #34	; 0x22
 8001c72:	d001      	beq.n	8001c78 <I2C_Slave_STOPF+0x120>
 8001c74:	2d22      	cmp	r5, #34	; 0x22
 8001c76:	d119      	bne.n	8001cac <I2C_Slave_STOPF+0x154>
 8001c78:	2300      	movs	r3, #0
 8001c7a:	6323      	str	r3, [r4, #48]	; 0x30
 8001c7c:	2220      	movs	r2, #32
 8001c7e:	f884 203d 	strb.w	r2, [r4, #61]	; 0x3d
 8001c82:	f884 303e 	strb.w	r3, [r4, #62]	; 0x3e
 8001c86:	4620      	mov	r0, r4
 8001c88:	f7ff fbcc 	bl	8001424 <HAL_I2C_SlaveRxCpltCallback>
 8001c8c:	e00e      	b.n	8001cac <I2C_Slave_STOPF+0x154>
 8001c8e:	6ba3      	ldr	r3, [r4, #56]	; 0x38
 8001c90:	4a12      	ldr	r2, [pc, #72]	; (8001cdc <I2C_Slave_STOPF+0x184>)
 8001c92:	651a      	str	r2, [r3, #80]	; 0x50
 8001c94:	6ba0      	ldr	r0, [r4, #56]	; 0x38
 8001c96:	f000 fd41 	bl	800271c <HAL_DMA_Abort_IT>
 8001c9a:	2800      	cmp	r0, #0
 8001c9c:	d0b4      	beq.n	8001c08 <I2C_Slave_STOPF+0xb0>
 8001c9e:	6ba0      	ldr	r0, [r4, #56]	; 0x38
 8001ca0:	6d03      	ldr	r3, [r0, #80]	; 0x50
 8001ca2:	4798      	blx	r3
 8001ca4:	e7b0      	b.n	8001c08 <I2C_Slave_STOPF+0xb0>
 8001ca6:	4620      	mov	r0, r4
 8001ca8:	f7ff fe9a 	bl	80019e0 <I2C_ITError>
 8001cac:	b003      	add	sp, #12
 8001cae:	bd30      	pop	{r4, r5, pc}
 8001cb0:	2300      	movs	r3, #0
 8001cb2:	6323      	str	r3, [r4, #48]	; 0x30
 8001cb4:	2328      	movs	r3, #40	; 0x28
 8001cb6:	f884 303d 	strb.w	r3, [r4, #61]	; 0x3d
 8001cba:	4620      	mov	r0, r4
 8001cbc:	f7ff fbb2 	bl	8001424 <HAL_I2C_SlaveRxCpltCallback>
 8001cc0:	e7d0      	b.n	8001c64 <I2C_Slave_STOPF+0x10c>
 8001cc2:	4b07      	ldr	r3, [pc, #28]	; (8001ce0 <I2C_Slave_STOPF+0x188>)
 8001cc4:	62e3      	str	r3, [r4, #44]	; 0x2c
 8001cc6:	2300      	movs	r3, #0
 8001cc8:	6323      	str	r3, [r4, #48]	; 0x30
 8001cca:	2220      	movs	r2, #32
 8001ccc:	f884 203d 	strb.w	r2, [r4, #61]	; 0x3d
 8001cd0:	f884 303e 	strb.w	r3, [r4, #62]	; 0x3e
 8001cd4:	4620      	mov	r0, r4
 8001cd6:	f7ff fbf4 	bl	80014c2 <HAL_I2C_ListenCpltCallback>
 8001cda:	e7e7      	b.n	8001cac <I2C_Slave_STOPF+0x154>
 8001cdc:	080018fd 	.word	0x080018fd
 8001ce0:	ffff0000 	.word	0xffff0000

08001ce4 <HAL_I2C_EV_IRQHandler>:
 8001ce4:	b5f8      	push	{r3, r4, r5, r6, r7, lr}
 8001ce6:	4604      	mov	r4, r0
 8001ce8:	6802      	ldr	r2, [r0, #0]
 8001cea:	6855      	ldr	r5, [r2, #4]
 8001cec:	6ac6      	ldr	r6, [r0, #44]	; 0x2c
 8001cee:	f890 303e 	ldrb.w	r3, [r0, #62]	; 0x3e
 8001cf2:	b2db      	uxtb	r3, r3
 8001cf4:	f890 103d 	ldrb.w	r1, [r0, #61]	; 0x3d
 8001cf8:	2b10      	cmp	r3, #16
 8001cfa:	d014      	beq.n	8001d26 <HAL_I2C_EV_IRQHandler+0x42>
 8001cfc:	b2c8      	uxtb	r0, r1
 8001cfe:	2b40      	cmp	r3, #64	; 0x40
 8001d00:	d011      	beq.n	8001d26 <HAL_I2C_EV_IRQHandler+0x42>
 8001d02:	6c23      	ldr	r3, [r4, #64]	; 0x40
 8001d04:	2b00      	cmp	r3, #0
 8001d06:	d077      	beq.n	8001df8 <HAL_I2C_EV_IRQHandler+0x114>
 8001d08:	6953      	ldr	r3, [r2, #20]
 8001d0a:	2100      	movs	r1, #0
 8001d0c:	f013 0f02 	tst.w	r3, #2
 8001d10:	d075      	beq.n	8001dfe <HAL_I2C_EV_IRQHandler+0x11a>
 8001d12:	f415 7f00 	tst.w	r5, #512	; 0x200
 8001d16:	d072      	beq.n	8001dfe <HAL_I2C_EV_IRQHandler+0x11a>
 8001d18:	6c23      	ldr	r3, [r4, #64]	; 0x40
 8001d1a:	b103      	cbz	r3, 8001d1e <HAL_I2C_EV_IRQHandler+0x3a>
 8001d1c:	6991      	ldr	r1, [r2, #24]
 8001d1e:	4620      	mov	r0, r4
 8001d20:	f7ff fba8 	bl	8001474 <I2C_Slave_ADDR>
 8001d24:	bdf8      	pop	{r3, r4, r5, r6, r7, pc}
 8001d26:	6997      	ldr	r7, [r2, #24]
 8001d28:	6951      	ldr	r1, [r2, #20]
 8001d2a:	f011 0001 	ands.w	r0, r1, #1
 8001d2e:	d105      	bne.n	8001d3c <HAL_I2C_EV_IRQHandler+0x58>
 8001d30:	f5b6 0f2a 	cmp.w	r6, #11141120	; 0xaa0000
 8001d34:	d0f6      	beq.n	8001d24 <HAL_I2C_EV_IRQHandler+0x40>
 8001d36:	f1b6 4f2a 	cmp.w	r6, #2852126720	; 0xaa000000
 8001d3a:	d0f3      	beq.n	8001d24 <HAL_I2C_EV_IRQHandler+0x40>
 8001d3c:	b110      	cbz	r0, 8001d44 <HAL_I2C_EV_IRQHandler+0x60>
 8001d3e:	f415 7f00 	tst.w	r5, #512	; 0x200
 8001d42:	d127      	bne.n	8001d94 <HAL_I2C_EV_IRQHandler+0xb0>
 8001d44:	f011 0f08 	tst.w	r1, #8
 8001d48:	d002      	beq.n	8001d50 <HAL_I2C_EV_IRQHandler+0x6c>
 8001d4a:	f415 7f00 	tst.w	r5, #512	; 0x200
 8001d4e:	d128      	bne.n	8001da2 <HAL_I2C_EV_IRQHandler+0xbe>
 8001d50:	f011 0f02 	tst.w	r1, #2
 8001d54:	d002      	beq.n	8001d5c <HAL_I2C_EV_IRQHandler+0x78>
 8001d56:	f415 7f00 	tst.w	r5, #512	; 0x200
 8001d5a:	d126      	bne.n	8001daa <HAL_I2C_EV_IRQHandler+0xc6>
 8001d5c:	f017 0f04 	tst.w	r7, #4
 8001d60:	d02f      	beq.n	8001dc2 <HAL_I2C_EV_IRQHandler+0xde>
 8001d62:	6852      	ldr	r2, [r2, #4]
 8001d64:	f412 6f00 	tst.w	r2, #2048	; 0x800
 8001d68:	d1dc      	bne.n	8001d24 <HAL_I2C_EV_IRQHandler+0x40>
 8001d6a:	f011 0f80 	tst.w	r1, #128	; 0x80
 8001d6e:	d005      	beq.n	8001d7c <HAL_I2C_EV_IRQHandler+0x98>
 8001d70:	f415 6f80 	tst.w	r5, #1024	; 0x400
 8001d74:	d002      	beq.n	8001d7c <HAL_I2C_EV_IRQHandler+0x98>
 8001d76:	f011 0f04 	tst.w	r1, #4
 8001d7a:	d01a      	beq.n	8001db2 <HAL_I2C_EV_IRQHandler+0xce>
 8001d7c:	f011 0f04 	tst.w	r1, #4
 8001d80:	d0d0      	beq.n	8001d24 <HAL_I2C_EV_IRQHandler+0x40>
 8001d82:	f415 7f00 	tst.w	r5, #512	; 0x200
 8001d86:	d0cd      	beq.n	8001d24 <HAL_I2C_EV_IRQHandler+0x40>
 8001d88:	2b10      	cmp	r3, #16
 8001d8a:	d016      	beq.n	8001dba <HAL_I2C_EV_IRQHandler+0xd6>
 8001d8c:	4620      	mov	r0, r4
 8001d8e:	f7ff fbe4 	bl	800155a <I2C_MemoryTransmit_TXE_BTF>
 8001d92:	e7c7      	b.n	8001d24 <HAL_I2C_EV_IRQHandler+0x40>
 8001d94:	4620      	mov	r0, r4
 8001d96:	f7fe ff86 	bl	8000ca6 <I2C_ConvertOtherXferOptions>
 8001d9a:	4620      	mov	r0, r4
 8001d9c:	f7fe fdba 	bl	8000914 <I2C_Master_SB>
 8001da0:	e7c0      	b.n	8001d24 <HAL_I2C_EV_IRQHandler+0x40>
 8001da2:	4620      	mov	r0, r4
 8001da4:	f7fe fe0a 	bl	80009bc <I2C_Master_ADD10>
 8001da8:	e7bc      	b.n	8001d24 <HAL_I2C_EV_IRQHandler+0x40>
 8001daa:	4620      	mov	r0, r4
 8001dac:	f7fe fe1b 	bl	80009e6 <I2C_Master_ADDR>
 8001db0:	e7b8      	b.n	8001d24 <HAL_I2C_EV_IRQHandler+0x40>
 8001db2:	4620      	mov	r0, r4
 8001db4:	f7ff fc2d 	bl	8001612 <I2C_MasterTransmit_TXE>
 8001db8:	e7b4      	b.n	8001d24 <HAL_I2C_EV_IRQHandler+0x40>
 8001dba:	4620      	mov	r0, r4
 8001dbc:	f7ff fac7 	bl	800134e <I2C_MasterTransmit_BTF>
 8001dc0:	e7b0      	b.n	8001d24 <HAL_I2C_EV_IRQHandler+0x40>
 8001dc2:	6853      	ldr	r3, [r2, #4]
 8001dc4:	f413 6f00 	tst.w	r3, #2048	; 0x800
 8001dc8:	d1ac      	bne.n	8001d24 <HAL_I2C_EV_IRQHandler+0x40>
 8001dca:	f011 0f40 	tst.w	r1, #64	; 0x40
 8001dce:	d005      	beq.n	8001ddc <HAL_I2C_EV_IRQHandler+0xf8>
 8001dd0:	f415 6f80 	tst.w	r5, #1024	; 0x400
 8001dd4:	d002      	beq.n	8001ddc <HAL_I2C_EV_IRQHandler+0xf8>
 8001dd6:	f011 0f04 	tst.w	r1, #4
 8001dda:	d009      	beq.n	8001df0 <HAL_I2C_EV_IRQHandler+0x10c>
 8001ddc:	f011 0f04 	tst.w	r1, #4
 8001de0:	d0a0      	beq.n	8001d24 <HAL_I2C_EV_IRQHandler+0x40>
 8001de2:	f415 7f00 	tst.w	r5, #512	; 0x200
 8001de6:	d09d      	beq.n	8001d24 <HAL_I2C_EV_IRQHandler+0x40>
 8001de8:	4620      	mov	r0, r4
 8001dea:	f7ff fc7b 	bl	80016e4 <I2C_MasterReceive_BTF>
 8001dee:	e799      	b.n	8001d24 <HAL_I2C_EV_IRQHandler+0x40>
 8001df0:	4620      	mov	r0, r4
 8001df2:	f7ff fd0c 	bl	800180e <I2C_MasterReceive_RXNE>
 8001df6:	e795      	b.n	8001d24 <HAL_I2C_EV_IRQHandler+0x40>
 8001df8:	6991      	ldr	r1, [r2, #24]
 8001dfa:	6953      	ldr	r3, [r2, #20]
 8001dfc:	e786      	b.n	8001d0c <HAL_I2C_EV_IRQHandler+0x28>
 8001dfe:	f013 0f10 	tst.w	r3, #16
 8001e02:	d002      	beq.n	8001e0a <HAL_I2C_EV_IRQHandler+0x126>
 8001e04:	f415 7f00 	tst.w	r5, #512	; 0x200
 8001e08:	d118      	bne.n	8001e3c <HAL_I2C_EV_IRQHandler+0x158>
 8001e0a:	2821      	cmp	r0, #33	; 0x21
 8001e0c:	d01a      	beq.n	8001e44 <HAL_I2C_EV_IRQHandler+0x160>
 8001e0e:	2829      	cmp	r0, #41	; 0x29
 8001e10:	d018      	beq.n	8001e44 <HAL_I2C_EV_IRQHandler+0x160>
 8001e12:	f013 0f40 	tst.w	r3, #64	; 0x40
 8001e16:	d005      	beq.n	8001e24 <HAL_I2C_EV_IRQHandler+0x140>
 8001e18:	f415 6f80 	tst.w	r5, #1024	; 0x400
 8001e1c:	d002      	beq.n	8001e24 <HAL_I2C_EV_IRQHandler+0x140>
 8001e1e:	f013 0f04 	tst.w	r3, #4
 8001e22:	d028      	beq.n	8001e76 <HAL_I2C_EV_IRQHandler+0x192>
 8001e24:	f013 0f04 	tst.w	r3, #4
 8001e28:	f43f af7c 	beq.w	8001d24 <HAL_I2C_EV_IRQHandler+0x40>
 8001e2c:	f415 7f00 	tst.w	r5, #512	; 0x200
 8001e30:	f43f af78 	beq.w	8001d24 <HAL_I2C_EV_IRQHandler+0x40>
 8001e34:	4620      	mov	r0, r4
 8001e36:	f7fe fee9 	bl	8000c0c <I2C_SlaveReceive_BTF>
 8001e3a:	e773      	b.n	8001d24 <HAL_I2C_EV_IRQHandler+0x40>
 8001e3c:	4620      	mov	r0, r4
 8001e3e:	f7ff fe8b 	bl	8001b58 <I2C_Slave_STOPF>
 8001e42:	e76f      	b.n	8001d24 <HAL_I2C_EV_IRQHandler+0x40>
 8001e44:	f013 0f80 	tst.w	r3, #128	; 0x80
 8001e48:	d005      	beq.n	8001e56 <HAL_I2C_EV_IRQHandler+0x172>
 8001e4a:	f415 6f80 	tst.w	r5, #1024	; 0x400
 8001e4e:	d002      	beq.n	8001e56 <HAL_I2C_EV_IRQHandler+0x172>
 8001e50:	f013 0f04 	tst.w	r3, #4
 8001e54:	d00b      	beq.n	8001e6e <HAL_I2C_EV_IRQHandler+0x18a>
 8001e56:	f013 0f04 	tst.w	r3, #4
 8001e5a:	f43f af63 	beq.w	8001d24 <HAL_I2C_EV_IRQHandler+0x40>
 8001e5e:	f415 7f00 	tst.w	r5, #512	; 0x200
 8001e62:	f43f af5f 	beq.w	8001d24 <HAL_I2C_EV_IRQHandler+0x40>
 8001e66:	4620      	mov	r0, r4
 8001e68:	f7fe fec0 	bl	8000bec <I2C_SlaveTransmit_BTF>
 8001e6c:	e75a      	b.n	8001d24 <HAL_I2C_EV_IRQHandler+0x40>
 8001e6e:	4620      	mov	r0, r4
 8001e70:	f7ff fab2 	bl	80013d8 <I2C_SlaveTransmit_TXE>
 8001e74:	e756      	b.n	8001d24 <HAL_I2C_EV_IRQHandler+0x40>
 8001e76:	4620      	mov	r0, r4
 8001e78:	f7ff fad5 	bl	8001426 <I2C_SlaveReceive_RXNE>
 8001e7c:	e752      	b.n	8001d24 <HAL_I2C_EV_IRQHandler+0x40>

08001e7e <HAL_I2C_ER_IRQHandler>:
 8001e7e:	b5f8      	push	{r3, r4, r5, r6, r7, lr}
 8001e80:	4604      	mov	r4, r0
 8001e82:	6803      	ldr	r3, [r0, #0]
 8001e84:	695d      	ldr	r5, [r3, #20]
 8001e86:	685f      	ldr	r7, [r3, #4]
 8001e88:	f890 203e 	ldrb.w	r2, [r0, #62]	; 0x3e
 8001e8c:	b2d2      	uxtb	r2, r2
 8001e8e:	f415 7f80 	tst.w	r5, #256	; 0x100
 8001e92:	d007      	beq.n	8001ea4 <HAL_I2C_ER_IRQHandler+0x26>
 8001e94:	f417 7f80 	tst.w	r7, #256	; 0x100
 8001e98:	d03c      	beq.n	8001f14 <HAL_I2C_ER_IRQHandler+0x96>
 8001e9a:	f46f 7180 	mvn.w	r1, #256	; 0x100
 8001e9e:	6159      	str	r1, [r3, #20]
 8001ea0:	2601      	movs	r6, #1
 8001ea2:	e000      	b.n	8001ea6 <HAL_I2C_ER_IRQHandler+0x28>
 8001ea4:	2600      	movs	r6, #0
 8001ea6:	f415 7f00 	tst.w	r5, #512	; 0x200
 8001eaa:	d008      	beq.n	8001ebe <HAL_I2C_ER_IRQHandler+0x40>
 8001eac:	f417 7f80 	tst.w	r7, #256	; 0x100
 8001eb0:	d005      	beq.n	8001ebe <HAL_I2C_ER_IRQHandler+0x40>
 8001eb2:	f046 0602 	orr.w	r6, r6, #2
 8001eb6:	6823      	ldr	r3, [r4, #0]
 8001eb8:	f46f 7100 	mvn.w	r1, #512	; 0x200
 8001ebc:	6159      	str	r1, [r3, #20]
 8001ebe:	f415 6f80 	tst.w	r5, #1024	; 0x400
 8001ec2:	d019      	beq.n	8001ef8 <HAL_I2C_ER_IRQHandler+0x7a>
 8001ec4:	f417 7f80 	tst.w	r7, #256	; 0x100
 8001ec8:	d016      	beq.n	8001ef8 <HAL_I2C_ER_IRQHandler+0x7a>
 8001eca:	8d63      	ldrh	r3, [r4, #42]	; 0x2a
 8001ecc:	b299      	uxth	r1, r3
 8001ece:	f894 303d 	ldrb.w	r3, [r4, #61]	; 0x3d
 8001ed2:	b2db      	uxtb	r3, r3
 8001ed4:	6b20      	ldr	r0, [r4, #48]	; 0x30
 8001ed6:	2a20      	cmp	r2, #32
 8001ed8:	d01e      	beq.n	8001f18 <HAL_I2C_ER_IRQHandler+0x9a>
 8001eda:	6823      	ldr	r3, [r4, #0]
 8001edc:	f46f 6180 	mvn.w	r1, #1024	; 0x400
 8001ee0:	6159      	str	r1, [r3, #20]
 8001ee2:	f046 0604 	orr.w	r6, r6, #4
 8001ee6:	2a10      	cmp	r2, #16
 8001ee8:	d001      	beq.n	8001eee <HAL_I2C_ER_IRQHandler+0x70>
 8001eea:	2a40      	cmp	r2, #64	; 0x40
 8001eec:	d104      	bne.n	8001ef8 <HAL_I2C_ER_IRQHandler+0x7a>
 8001eee:	6822      	ldr	r2, [r4, #0]
 8001ef0:	6813      	ldr	r3, [r2, #0]
 8001ef2:	f443 7300 	orr.w	r3, r3, #512	; 0x200
 8001ef6:	6013      	str	r3, [r2, #0]
 8001ef8:	f415 6f00 	tst.w	r5, #2048	; 0x800
 8001efc:	d008      	beq.n	8001f10 <HAL_I2C_ER_IRQHandler+0x92>
 8001efe:	f417 7f80 	tst.w	r7, #256	; 0x100
 8001f02:	d005      	beq.n	8001f10 <HAL_I2C_ER_IRQHandler+0x92>
 8001f04:	f046 0608 	orr.w	r6, r6, #8
 8001f08:	6823      	ldr	r3, [r4, #0]
 8001f0a:	f46f 6200 	mvn.w	r2, #2048	; 0x800
 8001f0e:	615a      	str	r2, [r3, #20]
 8001f10:	b986      	cbnz	r6, 8001f34 <HAL_I2C_ER_IRQHandler+0xb6>
 8001f12:	bdf8      	pop	{r3, r4, r5, r6, r7, pc}
 8001f14:	2600      	movs	r6, #0
 8001f16:	e7c6      	b.n	8001ea6 <HAL_I2C_ER_IRQHandler+0x28>
 8001f18:	2900      	cmp	r1, #0
 8001f1a:	d1de      	bne.n	8001eda <HAL_I2C_ER_IRQHandler+0x5c>
 8001f1c:	2b21      	cmp	r3, #33	; 0x21
 8001f1e:	d005      	beq.n	8001f2c <HAL_I2C_ER_IRQHandler+0xae>
 8001f20:	2b29      	cmp	r3, #41	; 0x29
 8001f22:	d003      	beq.n	8001f2c <HAL_I2C_ER_IRQHandler+0xae>
 8001f24:	2b28      	cmp	r3, #40	; 0x28
 8001f26:	d1d8      	bne.n	8001eda <HAL_I2C_ER_IRQHandler+0x5c>
 8001f28:	2821      	cmp	r0, #33	; 0x21
 8001f2a:	d1d6      	bne.n	8001eda <HAL_I2C_ER_IRQHandler+0x5c>
 8001f2c:	4620      	mov	r0, r4
 8001f2e:	f7ff fac9 	bl	80014c4 <I2C_Slave_AF>
 8001f32:	e7e1      	b.n	8001ef8 <HAL_I2C_ER_IRQHandler+0x7a>
 8001f34:	6c23      	ldr	r3, [r4, #64]	; 0x40
 8001f36:	431e      	orrs	r6, r3
 8001f38:	6426      	str	r6, [r4, #64]	; 0x40
 8001f3a:	4620      	mov	r0, r4
 8001f3c:	f7ff fd50 	bl	80019e0 <I2C_ITError>
 8001f40:	e7e7      	b.n	8001f12 <HAL_I2C_ER_IRQHandler+0x94>

08001f42 <HAL_I2C_GetState>:
 8001f42:	f890 003d 	ldrb.w	r0, [r0, #61]	; 0x3d
 8001f46:	4770      	bx	lr

08001f48 <HAL_RCC_OscConfig>:
 8001f48:	2800      	cmp	r0, #0
 8001f4a:	f000 81df 	beq.w	800230c <HAL_RCC_OscConfig+0x3c4>
 8001f4e:	b570      	push	{r4, r5, r6, lr}
 8001f50:	b082      	sub	sp, #8
 8001f52:	4604      	mov	r4, r0
 8001f54:	6803      	ldr	r3, [r0, #0]
 8001f56:	f013 0f01 	tst.w	r3, #1
 8001f5a:	d03b      	beq.n	8001fd4 <HAL_RCC_OscConfig+0x8c>
 8001f5c:	4ba6      	ldr	r3, [pc, #664]	; (80021f8 <HAL_RCC_OscConfig+0x2b0>)
 8001f5e:	689b      	ldr	r3, [r3, #8]
 8001f60:	f003 030c 	and.w	r3, r3, #12
 8001f64:	2b04      	cmp	r3, #4
 8001f66:	d02c      	beq.n	8001fc2 <HAL_RCC_OscConfig+0x7a>
 8001f68:	4ba3      	ldr	r3, [pc, #652]	; (80021f8 <HAL_RCC_OscConfig+0x2b0>)
 8001f6a:	689b      	ldr	r3, [r3, #8]
 8001f6c:	f003 030c 	and.w	r3, r3, #12
 8001f70:	2b08      	cmp	r3, #8
 8001f72:	d021      	beq.n	8001fb8 <HAL_RCC_OscConfig+0x70>
 8001f74:	6863      	ldr	r3, [r4, #4]
 8001f76:	f5b3 3f80 	cmp.w	r3, #65536	; 0x10000
 8001f7a:	d04f      	beq.n	800201c <HAL_RCC_OscConfig+0xd4>
 8001f7c:	f5b3 2fa0 	cmp.w	r3, #327680	; 0x50000
 8001f80:	d052      	beq.n	8002028 <HAL_RCC_OscConfig+0xe0>
 8001f82:	4b9d      	ldr	r3, [pc, #628]	; (80021f8 <HAL_RCC_OscConfig+0x2b0>)
 8001f84:	681a      	ldr	r2, [r3, #0]
 8001f86:	f422 3280 	bic.w	r2, r2, #65536	; 0x10000
 8001f8a:	601a      	str	r2, [r3, #0]
 8001f8c:	681a      	ldr	r2, [r3, #0]
 8001f8e:	f422 2280 	bic.w	r2, r2, #262144	; 0x40000
 8001f92:	601a      	str	r2, [r3, #0]
 8001f94:	6863      	ldr	r3, [r4, #4]
 8001f96:	2b00      	cmp	r3, #0
 8001f98:	d050      	beq.n	800203c <HAL_RCC_OscConfig+0xf4>
 8001f9a:	f000 fc8b 	bl	80028b4 <HAL_GetTick>
 8001f9e:	4605      	mov	r5, r0
 8001fa0:	4b95      	ldr	r3, [pc, #596]	; (80021f8 <HAL_RCC_OscConfig+0x2b0>)
 8001fa2:	681b      	ldr	r3, [r3, #0]
 8001fa4:	f413 3f00 	tst.w	r3, #131072	; 0x20000
 8001fa8:	d114      	bne.n	8001fd4 <HAL_RCC_OscConfig+0x8c>
 8001faa:	f000 fc83 	bl	80028b4 <HAL_GetTick>
 8001fae:	1b40      	subs	r0, r0, r5
 8001fb0:	2864      	cmp	r0, #100	; 0x64
 8001fb2:	d9f5      	bls.n	8001fa0 <HAL_RCC_OscConfig+0x58>
 8001fb4:	2003      	movs	r0, #3
 8001fb6:	e1b0      	b.n	800231a <HAL_RCC_OscConfig+0x3d2>
 8001fb8:	4b8f      	ldr	r3, [pc, #572]	; (80021f8 <HAL_RCC_OscConfig+0x2b0>)
 8001fba:	685b      	ldr	r3, [r3, #4]
 8001fbc:	f413 0f80 	tst.w	r3, #4194304	; 0x400000
 8001fc0:	d0d8      	beq.n	8001f74 <HAL_RCC_OscConfig+0x2c>
 8001fc2:	4b8d      	ldr	r3, [pc, #564]	; (80021f8 <HAL_RCC_OscConfig+0x2b0>)
 8001fc4:	681b      	ldr	r3, [r3, #0]
 8001fc6:	f413 3f00 	tst.w	r3, #131072	; 0x20000
 8001fca:	d003      	beq.n	8001fd4 <HAL_RCC_OscConfig+0x8c>
 8001fcc:	6863      	ldr	r3, [r4, #4]
 8001fce:	2b00      	cmp	r3, #0
 8001fd0:	f000 819e 	beq.w	8002310 <HAL_RCC_OscConfig+0x3c8>
 8001fd4:	6823      	ldr	r3, [r4, #0]
 8001fd6:	f013 0f02 	tst.w	r3, #2
 8001fda:	d054      	beq.n	8002086 <HAL_RCC_OscConfig+0x13e>
 8001fdc:	4b86      	ldr	r3, [pc, #536]	; (80021f8 <HAL_RCC_OscConfig+0x2b0>)
 8001fde:	689b      	ldr	r3, [r3, #8]
 8001fe0:	f013 0f0c 	tst.w	r3, #12
 8001fe4:	d03e      	beq.n	8002064 <HAL_RCC_OscConfig+0x11c>
 8001fe6:	4b84      	ldr	r3, [pc, #528]	; (80021f8 <HAL_RCC_OscConfig+0x2b0>)
 8001fe8:	689b      	ldr	r3, [r3, #8]
 8001fea:	f003 030c 	and.w	r3, r3, #12
 8001fee:	2b08      	cmp	r3, #8
 8001ff0:	d033      	beq.n	800205a <HAL_RCC_OscConfig+0x112>
 8001ff2:	68e3      	ldr	r3, [r4, #12]
 8001ff4:	2b00      	cmp	r3, #0
 8001ff6:	d067      	beq.n	80020c8 <HAL_RCC_OscConfig+0x180>
 8001ff8:	4b80      	ldr	r3, [pc, #512]	; (80021fc <HAL_RCC_OscConfig+0x2b4>)
 8001ffa:	2201      	movs	r2, #1
 8001ffc:	601a      	str	r2, [r3, #0]
 8001ffe:	f000 fc59 	bl	80028b4 <HAL_GetTick>
 8002002:	4605      	mov	r5, r0
 8002004:	4b7c      	ldr	r3, [pc, #496]	; (80021f8 <HAL_RCC_OscConfig+0x2b0>)
 8002006:	681b      	ldr	r3, [r3, #0]
 8002008:	f013 0f02 	tst.w	r3, #2
 800200c:	d153      	bne.n	80020b6 <HAL_RCC_OscConfig+0x16e>
 800200e:	f000 fc51 	bl	80028b4 <HAL_GetTick>
 8002012:	1b40      	subs	r0, r0, r5
 8002014:	2802      	cmp	r0, #2
 8002016:	d9f5      	bls.n	8002004 <HAL_RCC_OscConfig+0xbc>
 8002018:	2003      	movs	r0, #3
 800201a:	e17e      	b.n	800231a <HAL_RCC_OscConfig+0x3d2>
 800201c:	4a76      	ldr	r2, [pc, #472]	; (80021f8 <HAL_RCC_OscConfig+0x2b0>)
 800201e:	6813      	ldr	r3, [r2, #0]
 8002020:	f443 3380 	orr.w	r3, r3, #65536	; 0x10000
 8002024:	6013      	str	r3, [r2, #0]
 8002026:	e7b5      	b.n	8001f94 <HAL_RCC_OscConfig+0x4c>
 8002028:	4b73      	ldr	r3, [pc, #460]	; (80021f8 <HAL_RCC_OscConfig+0x2b0>)
 800202a:	681a      	ldr	r2, [r3, #0]
 800202c:	f442 2280 	orr.w	r2, r2, #262144	; 0x40000
 8002030:	601a      	str	r2, [r3, #0]
 8002032:	681a      	ldr	r2, [r3, #0]
 8002034:	f442 3280 	orr.w	r2, r2, #65536	; 0x10000
 8002038:	601a      	str	r2, [r3, #0]
 800203a:	e7ab      	b.n	8001f94 <HAL_RCC_OscConfig+0x4c>
 800203c:	f000 fc3a 	bl	80028b4 <HAL_GetTick>
 8002040:	4605      	mov	r5, r0
 8002042:	4b6d      	ldr	r3, [pc, #436]	; (80021f8 <HAL_RCC_OscConfig+0x2b0>)
 8002044:	681b      	ldr	r3, [r3, #0]
 8002046:	f413 3f00 	tst.w	r3, #131072	; 0x20000
 800204a:	d0c3      	beq.n	8001fd4 <HAL_RCC_OscConfig+0x8c>
 800204c:	f000 fc32 	bl	80028b4 <HAL_GetTick>
 8002050:	1b40      	subs	r0, r0, r5
 8002052:	2864      	cmp	r0, #100	; 0x64
 8002054:	d9f5      	bls.n	8002042 <HAL_RCC_OscConfig+0xfa>
 8002056:	2003      	movs	r0, #3
 8002058:	e15f      	b.n	800231a <HAL_RCC_OscConfig+0x3d2>
 800205a:	4b67      	ldr	r3, [pc, #412]	; (80021f8 <HAL_RCC_OscConfig+0x2b0>)
 800205c:	685b      	ldr	r3, [r3, #4]
 800205e:	f413 0f80 	tst.w	r3, #4194304	; 0x400000
 8002062:	d1c6      	bne.n	8001ff2 <HAL_RCC_OscConfig+0xaa>
 8002064:	4b64      	ldr	r3, [pc, #400]	; (80021f8 <HAL_RCC_OscConfig+0x2b0>)
 8002066:	681b      	ldr	r3, [r3, #0]
 8002068:	f013 0f02 	tst.w	r3, #2
 800206c:	d003      	beq.n	8002076 <HAL_RCC_OscConfig+0x12e>
 800206e:	68e3      	ldr	r3, [r4, #12]
 8002070:	2b01      	cmp	r3, #1
 8002072:	f040 814f 	bne.w	8002314 <HAL_RCC_OscConfig+0x3cc>
 8002076:	4a60      	ldr	r2, [pc, #384]	; (80021f8 <HAL_RCC_OscConfig+0x2b0>)
 8002078:	6813      	ldr	r3, [r2, #0]
 800207a:	f023 03f8 	bic.w	r3, r3, #248	; 0xf8
 800207e:	6921      	ldr	r1, [r4, #16]
 8002080:	ea43 03c1 	orr.w	r3, r3, r1, lsl #3
 8002084:	6013      	str	r3, [r2, #0]
 8002086:	6823      	ldr	r3, [r4, #0]
 8002088:	f013 0f08 	tst.w	r3, #8
 800208c:	d040      	beq.n	8002110 <HAL_RCC_OscConfig+0x1c8>
 800208e:	6963      	ldr	r3, [r4, #20]
 8002090:	b363      	cbz	r3, 80020ec <HAL_RCC_OscConfig+0x1a4>
 8002092:	4b5b      	ldr	r3, [pc, #364]	; (8002200 <HAL_RCC_OscConfig+0x2b8>)
 8002094:	2201      	movs	r2, #1
 8002096:	601a      	str	r2, [r3, #0]
 8002098:	f000 fc0c 	bl	80028b4 <HAL_GetTick>
 800209c:	4605      	mov	r5, r0
 800209e:	4b56      	ldr	r3, [pc, #344]	; (80021f8 <HAL_RCC_OscConfig+0x2b0>)
 80020a0:	6f5b      	ldr	r3, [r3, #116]	; 0x74
 80020a2:	f013 0f02 	tst.w	r3, #2
 80020a6:	d133      	bne.n	8002110 <HAL_RCC_OscConfig+0x1c8>
 80020a8:	f000 fc04 	bl	80028b4 <HAL_GetTick>
 80020ac:	1b40      	subs	r0, r0, r5
 80020ae:	2802      	cmp	r0, #2
 80020b0:	d9f5      	bls.n	800209e <HAL_RCC_OscConfig+0x156>
 80020b2:	2003      	movs	r0, #3
 80020b4:	e131      	b.n	800231a <HAL_RCC_OscConfig+0x3d2>
 80020b6:	4a50      	ldr	r2, [pc, #320]	; (80021f8 <HAL_RCC_OscConfig+0x2b0>)
 80020b8:	6813      	ldr	r3, [r2, #0]
 80020ba:	f023 03f8 	bic.w	r3, r3, #248	; 0xf8
 80020be:	6921      	ldr	r1, [r4, #16]
 80020c0:	ea43 03c1 	orr.w	r3, r3, r1, lsl #3
 80020c4:	6013      	str	r3, [r2, #0]
 80020c6:	e7de      	b.n	8002086 <HAL_RCC_OscConfig+0x13e>
 80020c8:	4b4c      	ldr	r3, [pc, #304]	; (80021fc <HAL_RCC_OscConfig+0x2b4>)
 80020ca:	2200      	movs	r2, #0
 80020cc:	601a      	str	r2, [r3, #0]
 80020ce:	f000 fbf1 	bl	80028b4 <HAL_GetTick>
 80020d2:	4605      	mov	r5, r0
 80020d4:	4b48      	ldr	r3, [pc, #288]	; (80021f8 <HAL_RCC_OscConfig+0x2b0>)
 80020d6:	681b      	ldr	r3, [r3, #0]
 80020d8:	f013 0f02 	tst.w	r3, #2
 80020dc:	d0d3      	beq.n	8002086 <HAL_RCC_OscConfig+0x13e>
 80020de:	f000 fbe9 	bl	80028b4 <HAL_GetTick>
 80020e2:	1b40      	subs	r0, r0, r5
 80020e4:	2802      	cmp	r0, #2
 80020e6:	d9f5      	bls.n	80020d4 <HAL_RCC_OscConfig+0x18c>
 80020e8:	2003      	movs	r0, #3
 80020ea:	e116      	b.n	800231a <HAL_RCC_OscConfig+0x3d2>
 80020ec:	4b44      	ldr	r3, [pc, #272]	; (8002200 <HAL_RCC_OscConfig+0x2b8>)
 80020ee:	2200      	movs	r2, #0
 80020f0:	601a      	str	r2, [r3, #0]
 80020f2:	f000 fbdf 	bl	80028b4 <HAL_GetTick>
 80020f6:	4605      	mov	r5, r0
 80020f8:	4b3f      	ldr	r3, [pc, #252]	; (80021f8 <HAL_RCC_OscConfig+0x2b0>)
 80020fa:	6f5b      	ldr	r3, [r3, #116]	; 0x74
 80020fc:	f013 0f02 	tst.w	r3, #2
 8002100:	d006      	beq.n	8002110 <HAL_RCC_OscConfig+0x1c8>
 8002102:	f000 fbd7 	bl	80028b4 <HAL_GetTick>
 8002106:	1b40      	subs	r0, r0, r5
 8002108:	2802      	cmp	r0, #2
 800210a:	d9f5      	bls.n	80020f8 <HAL_RCC_OscConfig+0x1b0>
 800210c:	2003      	movs	r0, #3
 800210e:	e104      	b.n	800231a <HAL_RCC_OscConfig+0x3d2>
 8002110:	6823      	ldr	r3, [r4, #0]
 8002112:	f013 0f04 	tst.w	r3, #4
 8002116:	d078      	beq.n	800220a <HAL_RCC_OscConfig+0x2c2>
 8002118:	4b37      	ldr	r3, [pc, #220]	; (80021f8 <HAL_RCC_OscConfig+0x2b0>)
 800211a:	6c1b      	ldr	r3, [r3, #64]	; 0x40
 800211c:	f013 5f80 	tst.w	r3, #268435456	; 0x10000000
 8002120:	d10d      	bne.n	800213e <HAL_RCC_OscConfig+0x1f6>
 8002122:	2300      	movs	r3, #0
 8002124:	9301      	str	r3, [sp, #4]
 8002126:	4b34      	ldr	r3, [pc, #208]	; (80021f8 <HAL_RCC_OscConfig+0x2b0>)
 8002128:	6c1a      	ldr	r2, [r3, #64]	; 0x40
 800212a:	f042 5280 	orr.w	r2, r2, #268435456	; 0x10000000
 800212e:	641a      	str	r2, [r3, #64]	; 0x40
 8002130:	6c1b      	ldr	r3, [r3, #64]	; 0x40
 8002132:	f003 5380 	and.w	r3, r3, #268435456	; 0x10000000
 8002136:	9301      	str	r3, [sp, #4]
 8002138:	9b01      	ldr	r3, [sp, #4]
 800213a:	2501      	movs	r5, #1
 800213c:	e000      	b.n	8002140 <HAL_RCC_OscConfig+0x1f8>
 800213e:	2500      	movs	r5, #0
 8002140:	4b30      	ldr	r3, [pc, #192]	; (8002204 <HAL_RCC_OscConfig+0x2bc>)
 8002142:	681b      	ldr	r3, [r3, #0]
 8002144:	f413 7f80 	tst.w	r3, #256	; 0x100
 8002148:	d021      	beq.n	800218e <HAL_RCC_OscConfig+0x246>
 800214a:	68a3      	ldr	r3, [r4, #8]
 800214c:	2b01      	cmp	r3, #1
 800214e:	d032      	beq.n	80021b6 <HAL_RCC_OscConfig+0x26e>
 8002150:	2b05      	cmp	r3, #5
 8002152:	d036      	beq.n	80021c2 <HAL_RCC_OscConfig+0x27a>
 8002154:	4b28      	ldr	r3, [pc, #160]	; (80021f8 <HAL_RCC_OscConfig+0x2b0>)
 8002156:	6f1a      	ldr	r2, [r3, #112]	; 0x70
 8002158:	f022 0201 	bic.w	r2, r2, #1
 800215c:	671a      	str	r2, [r3, #112]	; 0x70
 800215e:	6f1a      	ldr	r2, [r3, #112]	; 0x70
 8002160:	f022 0204 	bic.w	r2, r2, #4
 8002164:	671a      	str	r2, [r3, #112]	; 0x70
 8002166:	68a3      	ldr	r3, [r4, #8]
 8002168:	2b00      	cmp	r3, #0
 800216a:	d034      	beq.n	80021d6 <HAL_RCC_OscConfig+0x28e>
 800216c:	f000 fba2 	bl	80028b4 <HAL_GetTick>
 8002170:	4606      	mov	r6, r0
 8002172:	4b21      	ldr	r3, [pc, #132]	; (80021f8 <HAL_RCC_OscConfig+0x2b0>)
 8002174:	6f1b      	ldr	r3, [r3, #112]	; 0x70
 8002176:	f013 0f02 	tst.w	r3, #2
 800217a:	d145      	bne.n	8002208 <HAL_RCC_OscConfig+0x2c0>
 800217c:	f000 fb9a 	bl	80028b4 <HAL_GetTick>
 8002180:	1b80      	subs	r0, r0, r6
 8002182:	f241 3388 	movw	r3, #5000	; 0x1388
 8002186:	4298      	cmp	r0, r3
 8002188:	d9f3      	bls.n	8002172 <HAL_RCC_OscConfig+0x22a>
 800218a:	2003      	movs	r0, #3
 800218c:	e0c5      	b.n	800231a <HAL_RCC_OscConfig+0x3d2>
 800218e:	4a1d      	ldr	r2, [pc, #116]	; (8002204 <HAL_RCC_OscConfig+0x2bc>)
 8002190:	6813      	ldr	r3, [r2, #0]
 8002192:	f443 7380 	orr.w	r3, r3, #256	; 0x100
 8002196:	6013      	str	r3, [r2, #0]
 8002198:	f000 fb8c 	bl	80028b4 <HAL_GetTick>
 800219c:	4606      	mov	r6, r0
 800219e:	4b19      	ldr	r3, [pc, #100]	; (8002204 <HAL_RCC_OscConfig+0x2bc>)
 80021a0:	681b      	ldr	r3, [r3, #0]
 80021a2:	f413 7f80 	tst.w	r3, #256	; 0x100
 80021a6:	d1d0      	bne.n	800214a <HAL_RCC_OscConfig+0x202>
 80021a8:	f000 fb84 	bl	80028b4 <HAL_GetTick>
 80021ac:	1b80      	subs	r0, r0, r6
 80021ae:	2802      	cmp	r0, #2
 80021b0:	d9f5      	bls.n	800219e <HAL_RCC_OscConfig+0x256>
 80021b2:	2003      	movs	r0, #3
 80021b4:	e0b1      	b.n	800231a <HAL_RCC_OscConfig+0x3d2>
 80021b6:	4a10      	ldr	r2, [pc, #64]	; (80021f8 <HAL_RCC_OscConfig+0x2b0>)
 80021b8:	6f13      	ldr	r3, [r2, #112]	; 0x70
 80021ba:	f043 0301 	orr.w	r3, r3, #1
 80021be:	6713      	str	r3, [r2, #112]	; 0x70
 80021c0:	e7d1      	b.n	8002166 <HAL_RCC_OscConfig+0x21e>
 80021c2:	4b0d      	ldr	r3, [pc, #52]	; (80021f8 <HAL_RCC_OscConfig+0x2b0>)
 80021c4:	6f1a      	ldr	r2, [r3, #112]	; 0x70
 80021c6:	f042 0204 	orr.w	r2, r2, #4
 80021ca:	671a      	str	r2, [r3, #112]	; 0x70
 80021cc:	6f1a      	ldr	r2, [r3, #112]	; 0x70
 80021ce:	f042 0201 	orr.w	r2, r2, #1
 80021d2:	671a      	str	r2, [r3, #112]	; 0x70
 80021d4:	e7c7      	b.n	8002166 <HAL_RCC_OscConfig+0x21e>
 80021d6:	f000 fb6d 	bl	80028b4 <HAL_GetTick>
 80021da:	4606      	mov	r6, r0
 80021dc:	4b06      	ldr	r3, [pc, #24]	; (80021f8 <HAL_RCC_OscConfig+0x2b0>)
 80021de:	6f1b      	ldr	r3, [r3, #112]	; 0x70
 80021e0:	f013 0f02 	tst.w	r3, #2
 80021e4:	d010      	beq.n	8002208 <HAL_RCC_OscConfig+0x2c0>
 80021e6:	f000 fb65 	bl	80028b4 <HAL_GetTick>
 80021ea:	1b80      	subs	r0, r0, r6
 80021ec:	f241 3388 	movw	r3, #5000	; 0x1388
 80021f0:	4298      	cmp	r0, r3
 80021f2:	d9f3      	bls.n	80021dc <HAL_RCC_OscConfig+0x294>
 80021f4:	2003      	movs	r0, #3
 80021f6:	e090      	b.n	800231a <HAL_RCC_OscConfig+0x3d2>
 80021f8:	40023800 	.word	0x40023800
 80021fc:	42470000 	.word	0x42470000
 8002200:	42470e80 	.word	0x42470e80
 8002204:	40007000 	.word	0x40007000
 8002208:	b9ed      	cbnz	r5, 8002246 <HAL_RCC_OscConfig+0x2fe>
 800220a:	69a3      	ldr	r3, [r4, #24]
 800220c:	2b00      	cmp	r3, #0
 800220e:	f000 8083 	beq.w	8002318 <HAL_RCC_OscConfig+0x3d0>
 8002212:	4a49      	ldr	r2, [pc, #292]	; (8002338 <HAL_RCC_OscConfig+0x3f0>)
 8002214:	6892      	ldr	r2, [r2, #8]
 8002216:	f002 020c 	and.w	r2, r2, #12
 800221a:	2a08      	cmp	r2, #8
 800221c:	d051      	beq.n	80022c2 <HAL_RCC_OscConfig+0x37a>
 800221e:	2b02      	cmp	r3, #2
 8002220:	d017      	beq.n	8002252 <HAL_RCC_OscConfig+0x30a>
 8002222:	4b46      	ldr	r3, [pc, #280]	; (800233c <HAL_RCC_OscConfig+0x3f4>)
 8002224:	2200      	movs	r2, #0
 8002226:	601a      	str	r2, [r3, #0]
 8002228:	f000 fb44 	bl	80028b4 <HAL_GetTick>
 800222c:	4604      	mov	r4, r0
 800222e:	4b42      	ldr	r3, [pc, #264]	; (8002338 <HAL_RCC_OscConfig+0x3f0>)
 8002230:	681b      	ldr	r3, [r3, #0]
 8002232:	f013 7f00 	tst.w	r3, #33554432	; 0x2000000
 8002236:	d042      	beq.n	80022be <HAL_RCC_OscConfig+0x376>
 8002238:	f000 fb3c 	bl	80028b4 <HAL_GetTick>
 800223c:	1b00      	subs	r0, r0, r4
 800223e:	2802      	cmp	r0, #2
 8002240:	d9f5      	bls.n	800222e <HAL_RCC_OscConfig+0x2e6>
 8002242:	2003      	movs	r0, #3
 8002244:	e069      	b.n	800231a <HAL_RCC_OscConfig+0x3d2>
 8002246:	4a3c      	ldr	r2, [pc, #240]	; (8002338 <HAL_RCC_OscConfig+0x3f0>)
 8002248:	6c13      	ldr	r3, [r2, #64]	; 0x40
 800224a:	f023 5380 	bic.w	r3, r3, #268435456	; 0x10000000
 800224e:	6413      	str	r3, [r2, #64]	; 0x40
 8002250:	e7db      	b.n	800220a <HAL_RCC_OscConfig+0x2c2>
 8002252:	4b3a      	ldr	r3, [pc, #232]	; (800233c <HAL_RCC_OscConfig+0x3f4>)
 8002254:	2200      	movs	r2, #0
 8002256:	601a      	str	r2, [r3, #0]
 8002258:	f000 fb2c 	bl	80028b4 <HAL_GetTick>
 800225c:	4605      	mov	r5, r0
 800225e:	4b36      	ldr	r3, [pc, #216]	; (8002338 <HAL_RCC_OscConfig+0x3f0>)
 8002260:	681b      	ldr	r3, [r3, #0]
 8002262:	f013 7f00 	tst.w	r3, #33554432	; 0x2000000
 8002266:	d006      	beq.n	8002276 <HAL_RCC_OscConfig+0x32e>
 8002268:	f000 fb24 	bl	80028b4 <HAL_GetTick>
 800226c:	1b40      	subs	r0, r0, r5
 800226e:	2802      	cmp	r0, #2
 8002270:	d9f5      	bls.n	800225e <HAL_RCC_OscConfig+0x316>
 8002272:	2003      	movs	r0, #3
 8002274:	e051      	b.n	800231a <HAL_RCC_OscConfig+0x3d2>
 8002276:	69e3      	ldr	r3, [r4, #28]
 8002278:	6a22      	ldr	r2, [r4, #32]
 800227a:	4313      	orrs	r3, r2
 800227c:	6a62      	ldr	r2, [r4, #36]	; 0x24
 800227e:	ea43 1382 	orr.w	r3, r3, r2, lsl #6
 8002282:	6aa2      	ldr	r2, [r4, #40]	; 0x28
 8002284:	0852      	lsrs	r2, r2, #1
 8002286:	3a01      	subs	r2, #1
 8002288:	ea43 4302 	orr.w	r3, r3, r2, lsl #16
 800228c:	6ae2      	ldr	r2, [r4, #44]	; 0x2c
 800228e:	ea43 6302 	orr.w	r3, r3, r2, lsl #24
 8002292:	4a29      	ldr	r2, [pc, #164]	; (8002338 <HAL_RCC_OscConfig+0x3f0>)
 8002294:	6053      	str	r3, [r2, #4]
 8002296:	4b29      	ldr	r3, [pc, #164]	; (800233c <HAL_RCC_OscConfig+0x3f4>)
 8002298:	2201      	movs	r2, #1
 800229a:	601a      	str	r2, [r3, #0]
 800229c:	f000 fb0a 	bl	80028b4 <HAL_GetTick>
 80022a0:	4604      	mov	r4, r0
 80022a2:	4b25      	ldr	r3, [pc, #148]	; (8002338 <HAL_RCC_OscConfig+0x3f0>)
 80022a4:	681b      	ldr	r3, [r3, #0]
 80022a6:	f013 7f00 	tst.w	r3, #33554432	; 0x2000000
 80022aa:	d106      	bne.n	80022ba <HAL_RCC_OscConfig+0x372>
 80022ac:	f000 fb02 	bl	80028b4 <HAL_GetTick>
 80022b0:	1b00      	subs	r0, r0, r4
 80022b2:	2802      	cmp	r0, #2
 80022b4:	d9f5      	bls.n	80022a2 <HAL_RCC_OscConfig+0x35a>
 80022b6:	2003      	movs	r0, #3
 80022b8:	e02f      	b.n	800231a <HAL_RCC_OscConfig+0x3d2>
 80022ba:	2000      	movs	r0, #0
 80022bc:	e02d      	b.n	800231a <HAL_RCC_OscConfig+0x3d2>
 80022be:	2000      	movs	r0, #0
 80022c0:	e02b      	b.n	800231a <HAL_RCC_OscConfig+0x3d2>
 80022c2:	2b01      	cmp	r3, #1
 80022c4:	d02b      	beq.n	800231e <HAL_RCC_OscConfig+0x3d6>
 80022c6:	4b1c      	ldr	r3, [pc, #112]	; (8002338 <HAL_RCC_OscConfig+0x3f0>)
 80022c8:	685b      	ldr	r3, [r3, #4]
 80022ca:	f403 0180 	and.w	r1, r3, #4194304	; 0x400000
 80022ce:	69e2      	ldr	r2, [r4, #28]
 80022d0:	4291      	cmp	r1, r2
 80022d2:	d126      	bne.n	8002322 <HAL_RCC_OscConfig+0x3da>
 80022d4:	f003 023f 	and.w	r2, r3, #63	; 0x3f
 80022d8:	6a21      	ldr	r1, [r4, #32]
 80022da:	428a      	cmp	r2, r1
 80022dc:	d123      	bne.n	8002326 <HAL_RCC_OscConfig+0x3de>
 80022de:	6a61      	ldr	r1, [r4, #36]	; 0x24
 80022e0:	f647 72c0 	movw	r2, #32704	; 0x7fc0
 80022e4:	401a      	ands	r2, r3
 80022e6:	ebb2 1f81 	cmp.w	r2, r1, lsl #6
 80022ea:	d11e      	bne.n	800232a <HAL_RCC_OscConfig+0x3e2>
 80022ec:	f403 3140 	and.w	r1, r3, #196608	; 0x30000
 80022f0:	6aa2      	ldr	r2, [r4, #40]	; 0x28
 80022f2:	0852      	lsrs	r2, r2, #1
 80022f4:	3a01      	subs	r2, #1
 80022f6:	ebb1 4f02 	cmp.w	r1, r2, lsl #16
 80022fa:	d118      	bne.n	800232e <HAL_RCC_OscConfig+0x3e6>
 80022fc:	f003 6370 	and.w	r3, r3, #251658240	; 0xf000000
 8002300:	6ae2      	ldr	r2, [r4, #44]	; 0x2c
 8002302:	ebb3 6f02 	cmp.w	r3, r2, lsl #24
 8002306:	d114      	bne.n	8002332 <HAL_RCC_OscConfig+0x3ea>
 8002308:	2000      	movs	r0, #0
 800230a:	e006      	b.n	800231a <HAL_RCC_OscConfig+0x3d2>
 800230c:	2001      	movs	r0, #1
 800230e:	4770      	bx	lr
 8002310:	2001      	movs	r0, #1
 8002312:	e002      	b.n	800231a <HAL_RCC_OscConfig+0x3d2>
 8002314:	2001      	movs	r0, #1
 8002316:	e000      	b.n	800231a <HAL_RCC_OscConfig+0x3d2>
 8002318:	2000      	movs	r0, #0
 800231a:	b002      	add	sp, #8
 800231c:	bd70      	pop	{r4, r5, r6, pc}
 800231e:	2001      	movs	r0, #1
 8002320:	e7fb      	b.n	800231a <HAL_RCC_OscConfig+0x3d2>
 8002322:	2001      	movs	r0, #1
 8002324:	e7f9      	b.n	800231a <HAL_RCC_OscConfig+0x3d2>
 8002326:	2001      	movs	r0, #1
 8002328:	e7f7      	b.n	800231a <HAL_RCC_OscConfig+0x3d2>
 800232a:	2001      	movs	r0, #1
 800232c:	e7f5      	b.n	800231a <HAL_RCC_OscConfig+0x3d2>
 800232e:	2001      	movs	r0, #1
 8002330:	e7f3      	b.n	800231a <HAL_RCC_OscConfig+0x3d2>
 8002332:	2001      	movs	r0, #1
 8002334:	e7f1      	b.n	800231a <HAL_RCC_OscConfig+0x3d2>
 8002336:	bf00      	nop
 8002338:	40023800 	.word	0x40023800
 800233c:	42470060 	.word	0x42470060

08002340 <HAL_RCC_GetSysClockFreq>:
 8002340:	b5f8      	push	{r3, r4, r5, r6, r7, lr}
 8002342:	4b24      	ldr	r3, [pc, #144]	; (80023d4 <HAL_RCC_GetSysClockFreq+0x94>)
 8002344:	689b      	ldr	r3, [r3, #8]
 8002346:	f003 030c 	and.w	r3, r3, #12
 800234a:	2b04      	cmp	r3, #4
 800234c:	d03d      	beq.n	80023ca <HAL_RCC_GetSysClockFreq+0x8a>
 800234e:	2b08      	cmp	r3, #8
 8002350:	d13d      	bne.n	80023ce <HAL_RCC_GetSysClockFreq+0x8e>
 8002352:	4b20      	ldr	r3, [pc, #128]	; (80023d4 <HAL_RCC_GetSysClockFreq+0x94>)
 8002354:	685a      	ldr	r2, [r3, #4]
 8002356:	f002 023f 	and.w	r2, r2, #63	; 0x3f
 800235a:	685b      	ldr	r3, [r3, #4]
 800235c:	f413 0f80 	tst.w	r3, #4194304	; 0x400000
 8002360:	d012      	beq.n	8002388 <HAL_RCC_GetSysClockFreq+0x48>
 8002362:	4b1c      	ldr	r3, [pc, #112]	; (80023d4 <HAL_RCC_GetSysClockFreq+0x94>)
 8002364:	6859      	ldr	r1, [r3, #4]
 8002366:	f3c1 1188 	ubfx	r1, r1, #6, #9
 800236a:	2300      	movs	r3, #0
 800236c:	481a      	ldr	r0, [pc, #104]	; (80023d8 <HAL_RCC_GetSysClockFreq+0x98>)
 800236e:	fba1 0100 	umull	r0, r1, r1, r0
 8002372:	f7fd ff85 	bl	8000280 <__aeabi_uldivmod>
 8002376:	4b17      	ldr	r3, [pc, #92]	; (80023d4 <HAL_RCC_GetSysClockFreq+0x94>)
 8002378:	685b      	ldr	r3, [r3, #4]
 800237a:	f3c3 4301 	ubfx	r3, r3, #16, #2
 800237e:	3301      	adds	r3, #1
 8002380:	005b      	lsls	r3, r3, #1
 8002382:	fbb0 f0f3 	udiv	r0, r0, r3
 8002386:	e023      	b.n	80023d0 <HAL_RCC_GetSysClockFreq+0x90>
 8002388:	4b12      	ldr	r3, [pc, #72]	; (80023d4 <HAL_RCC_GetSysClockFreq+0x94>)
 800238a:	685b      	ldr	r3, [r3, #4]
 800238c:	f3c3 1388 	ubfx	r3, r3, #6, #9
 8002390:	015c      	lsls	r4, r3, #5
 8002392:	2500      	movs	r5, #0
 8002394:	1ae4      	subs	r4, r4, r3
 8002396:	f165 0500 	sbc.w	r5, r5, #0
 800239a:	01ae      	lsls	r6, r5, #6
 800239c:	ea46 6694 	orr.w	r6, r6, r4, lsr #26
 80023a0:	01a7      	lsls	r7, r4, #6
 80023a2:	1b38      	subs	r0, r7, r4
 80023a4:	eb66 0105 	sbc.w	r1, r6, r5
 80023a8:	00cc      	lsls	r4, r1, #3
 80023aa:	ea44 7450 	orr.w	r4, r4, r0, lsr #29
 80023ae:	00c5      	lsls	r5, r0, #3
 80023b0:	18e8      	adds	r0, r5, r3
 80023b2:	f144 0100 	adc.w	r1, r4, #0
 80023b6:	028b      	lsls	r3, r1, #10
 80023b8:	ea43 5390 	orr.w	r3, r3, r0, lsr #22
 80023bc:	0284      	lsls	r4, r0, #10
 80023be:	4620      	mov	r0, r4
 80023c0:	4619      	mov	r1, r3
 80023c2:	2300      	movs	r3, #0
 80023c4:	f7fd ff5c 	bl	8000280 <__aeabi_uldivmod>
 80023c8:	e7d5      	b.n	8002376 <HAL_RCC_GetSysClockFreq+0x36>
 80023ca:	4803      	ldr	r0, [pc, #12]	; (80023d8 <HAL_RCC_GetSysClockFreq+0x98>)
 80023cc:	e000      	b.n	80023d0 <HAL_RCC_GetSysClockFreq+0x90>
 80023ce:	4803      	ldr	r0, [pc, #12]	; (80023dc <HAL_RCC_GetSysClockFreq+0x9c>)
 80023d0:	bdf8      	pop	{r3, r4, r5, r6, r7, pc}
 80023d2:	bf00      	nop
 80023d4:	40023800 	.word	0x40023800
 80023d8:	017d7840 	.word	0x017d7840
 80023dc:	00f42400 	.word	0x00f42400

080023e0 <HAL_RCC_ClockConfig>:
 80023e0:	2800      	cmp	r0, #0
 80023e2:	f000 809b 	beq.w	800251c <HAL_RCC_ClockConfig+0x13c>
 80023e6:	b570      	push	{r4, r5, r6, lr}
 80023e8:	460d      	mov	r5, r1
 80023ea:	4604      	mov	r4, r0
 80023ec:	4b4f      	ldr	r3, [pc, #316]	; (800252c <HAL_RCC_ClockConfig+0x14c>)
 80023ee:	681b      	ldr	r3, [r3, #0]
 80023f0:	f003 0307 	and.w	r3, r3, #7
 80023f4:	428b      	cmp	r3, r1
 80023f6:	d208      	bcs.n	800240a <HAL_RCC_ClockConfig+0x2a>
 80023f8:	b2cb      	uxtb	r3, r1
 80023fa:	4a4c      	ldr	r2, [pc, #304]	; (800252c <HAL_RCC_ClockConfig+0x14c>)
 80023fc:	7013      	strb	r3, [r2, #0]
 80023fe:	6813      	ldr	r3, [r2, #0]
 8002400:	f003 0307 	and.w	r3, r3, #7
 8002404:	428b      	cmp	r3, r1
 8002406:	f040 808b 	bne.w	8002520 <HAL_RCC_ClockConfig+0x140>
 800240a:	6823      	ldr	r3, [r4, #0]
 800240c:	f013 0f02 	tst.w	r3, #2
 8002410:	d017      	beq.n	8002442 <HAL_RCC_ClockConfig+0x62>
 8002412:	f013 0f04 	tst.w	r3, #4
 8002416:	d004      	beq.n	8002422 <HAL_RCC_ClockConfig+0x42>
 8002418:	4a45      	ldr	r2, [pc, #276]	; (8002530 <HAL_RCC_ClockConfig+0x150>)
 800241a:	6893      	ldr	r3, [r2, #8]
 800241c:	f443 53e0 	orr.w	r3, r3, #7168	; 0x1c00
 8002420:	6093      	str	r3, [r2, #8]
 8002422:	6823      	ldr	r3, [r4, #0]
 8002424:	f013 0f08 	tst.w	r3, #8
 8002428:	d004      	beq.n	8002434 <HAL_RCC_ClockConfig+0x54>
 800242a:	4a41      	ldr	r2, [pc, #260]	; (8002530 <HAL_RCC_ClockConfig+0x150>)
 800242c:	6893      	ldr	r3, [r2, #8]
 800242e:	f443 4360 	orr.w	r3, r3, #57344	; 0xe000
 8002432:	6093      	str	r3, [r2, #8]
 8002434:	4a3e      	ldr	r2, [pc, #248]	; (8002530 <HAL_RCC_ClockConfig+0x150>)
 8002436:	6893      	ldr	r3, [r2, #8]
 8002438:	f023 03f0 	bic.w	r3, r3, #240	; 0xf0
 800243c:	68a1      	ldr	r1, [r4, #8]
 800243e:	430b      	orrs	r3, r1
 8002440:	6093      	str	r3, [r2, #8]
 8002442:	6823      	ldr	r3, [r4, #0]
 8002444:	f013 0f01 	tst.w	r3, #1
 8002448:	d032      	beq.n	80024b0 <HAL_RCC_ClockConfig+0xd0>
 800244a:	6863      	ldr	r3, [r4, #4]
 800244c:	2b01      	cmp	r3, #1
 800244e:	d021      	beq.n	8002494 <HAL_RCC_ClockConfig+0xb4>
 8002450:	1e9a      	subs	r2, r3, #2
 8002452:	2a01      	cmp	r2, #1
 8002454:	d925      	bls.n	80024a2 <HAL_RCC_ClockConfig+0xc2>
 8002456:	4a36      	ldr	r2, [pc, #216]	; (8002530 <HAL_RCC_ClockConfig+0x150>)
 8002458:	6812      	ldr	r2, [r2, #0]
 800245a:	f012 0f02 	tst.w	r2, #2
 800245e:	d061      	beq.n	8002524 <HAL_RCC_ClockConfig+0x144>
 8002460:	4933      	ldr	r1, [pc, #204]	; (8002530 <HAL_RCC_ClockConfig+0x150>)
 8002462:	688a      	ldr	r2, [r1, #8]
 8002464:	f022 0203 	bic.w	r2, r2, #3
 8002468:	4313      	orrs	r3, r2
 800246a:	608b      	str	r3, [r1, #8]
 800246c:	f000 fa22 	bl	80028b4 <HAL_GetTick>
 8002470:	4606      	mov	r6, r0
 8002472:	4b2f      	ldr	r3, [pc, #188]	; (8002530 <HAL_RCC_ClockConfig+0x150>)
 8002474:	689b      	ldr	r3, [r3, #8]
 8002476:	f003 030c 	and.w	r3, r3, #12
 800247a:	6862      	ldr	r2, [r4, #4]
 800247c:	ebb3 0f82 	cmp.w	r3, r2, lsl #2
 8002480:	d016      	beq.n	80024b0 <HAL_RCC_ClockConfig+0xd0>
 8002482:	f000 fa17 	bl	80028b4 <HAL_GetTick>
 8002486:	1b80      	subs	r0, r0, r6
 8002488:	f241 3388 	movw	r3, #5000	; 0x1388
 800248c:	4298      	cmp	r0, r3
 800248e:	d9f0      	bls.n	8002472 <HAL_RCC_ClockConfig+0x92>
 8002490:	2003      	movs	r0, #3
 8002492:	e042      	b.n	800251a <HAL_RCC_ClockConfig+0x13a>
 8002494:	4a26      	ldr	r2, [pc, #152]	; (8002530 <HAL_RCC_ClockConfig+0x150>)
 8002496:	6812      	ldr	r2, [r2, #0]
 8002498:	f412 3f00 	tst.w	r2, #131072	; 0x20000
 800249c:	d1e0      	bne.n	8002460 <HAL_RCC_ClockConfig+0x80>
 800249e:	2001      	movs	r0, #1
 80024a0:	e03b      	b.n	800251a <HAL_RCC_ClockConfig+0x13a>
 80024a2:	4a23      	ldr	r2, [pc, #140]	; (8002530 <HAL_RCC_ClockConfig+0x150>)
 80024a4:	6812      	ldr	r2, [r2, #0]
 80024a6:	f012 7f00 	tst.w	r2, #33554432	; 0x2000000
 80024aa:	d1d9      	bne.n	8002460 <HAL_RCC_ClockConfig+0x80>
 80024ac:	2001      	movs	r0, #1
 80024ae:	e034      	b.n	800251a <HAL_RCC_ClockConfig+0x13a>
 80024b0:	4b1e      	ldr	r3, [pc, #120]	; (800252c <HAL_RCC_ClockConfig+0x14c>)
 80024b2:	681b      	ldr	r3, [r3, #0]
 80024b4:	f003 0307 	and.w	r3, r3, #7
 80024b8:	42ab      	cmp	r3, r5
 80024ba:	d907      	bls.n	80024cc <HAL_RCC_ClockConfig+0xec>
 80024bc:	b2ea      	uxtb	r2, r5
 80024be:	4b1b      	ldr	r3, [pc, #108]	; (800252c <HAL_RCC_ClockConfig+0x14c>)
 80024c0:	701a      	strb	r2, [r3, #0]
 80024c2:	681b      	ldr	r3, [r3, #0]
 80024c4:	f003 0307 	and.w	r3, r3, #7
 80024c8:	42ab      	cmp	r3, r5
 80024ca:	d12d      	bne.n	8002528 <HAL_RCC_ClockConfig+0x148>
 80024cc:	6823      	ldr	r3, [r4, #0]
 80024ce:	f013 0f04 	tst.w	r3, #4
 80024d2:	d006      	beq.n	80024e2 <HAL_RCC_ClockConfig+0x102>
 80024d4:	4a16      	ldr	r2, [pc, #88]	; (8002530 <HAL_RCC_ClockConfig+0x150>)
 80024d6:	6893      	ldr	r3, [r2, #8]
 80024d8:	f423 53e0 	bic.w	r3, r3, #7168	; 0x1c00
 80024dc:	68e1      	ldr	r1, [r4, #12]
 80024de:	430b      	orrs	r3, r1
 80024e0:	6093      	str	r3, [r2, #8]
 80024e2:	6823      	ldr	r3, [r4, #0]
 80024e4:	f013 0f08 	tst.w	r3, #8
 80024e8:	d007      	beq.n	80024fa <HAL_RCC_ClockConfig+0x11a>
 80024ea:	4a11      	ldr	r2, [pc, #68]	; (8002530 <HAL_RCC_ClockConfig+0x150>)
 80024ec:	6893      	ldr	r3, [r2, #8]
 80024ee:	f423 4360 	bic.w	r3, r3, #57344	; 0xe000
 80024f2:	6921      	ldr	r1, [r4, #16]
 80024f4:	ea43 03c1 	orr.w	r3, r3, r1, lsl #3
 80024f8:	6093      	str	r3, [r2, #8]
 80024fa:	f7ff ff21 	bl	8002340 <HAL_RCC_GetSysClockFreq>
 80024fe:	4b0c      	ldr	r3, [pc, #48]	; (8002530 <HAL_RCC_ClockConfig+0x150>)
 8002500:	689b      	ldr	r3, [r3, #8]
 8002502:	f3c3 1303 	ubfx	r3, r3, #4, #4
 8002506:	4a0b      	ldr	r2, [pc, #44]	; (8002534 <HAL_RCC_ClockConfig+0x154>)
 8002508:	5cd3      	ldrb	r3, [r2, r3]
 800250a:	40d8      	lsrs	r0, r3
 800250c:	4b0a      	ldr	r3, [pc, #40]	; (8002538 <HAL_RCC_ClockConfig+0x158>)
 800250e:	6018      	str	r0, [r3, #0]
 8002510:	4b0a      	ldr	r3, [pc, #40]	; (800253c <HAL_RCC_ClockConfig+0x15c>)
 8002512:	6818      	ldr	r0, [r3, #0]
 8002514:	f000 f982 	bl	800281c <HAL_InitTick>
 8002518:	2000      	movs	r0, #0
 800251a:	bd70      	pop	{r4, r5, r6, pc}
 800251c:	2001      	movs	r0, #1
 800251e:	4770      	bx	lr
 8002520:	2001      	movs	r0, #1
 8002522:	e7fa      	b.n	800251a <HAL_RCC_ClockConfig+0x13a>
 8002524:	2001      	movs	r0, #1
 8002526:	e7f8      	b.n	800251a <HAL_RCC_ClockConfig+0x13a>
 8002528:	2001      	movs	r0, #1
 800252a:	e7f6      	b.n	800251a <HAL_RCC_ClockConfig+0x13a>
 800252c:	40023c00 	.word	0x40023c00
 8002530:	40023800 	.word	0x40023800
 8002534:	08003a88 	.word	0x08003a88
 8002538:	20000008 	.word	0x20000008
 800253c:	20000004 	.word	0x20000004

08002540 <HAL_RCC_GetHCLKFreq>:
 8002540:	4b01      	ldr	r3, [pc, #4]	; (8002548 <HAL_RCC_GetHCLKFreq+0x8>)
 8002542:	6818      	ldr	r0, [r3, #0]
 8002544:	4770      	bx	lr
 8002546:	bf00      	nop
 8002548:	20000008 	.word	0x20000008

0800254c <HAL_RCC_GetPCLK1Freq>:
 800254c:	b508      	push	{r3, lr}
 800254e:	f7ff fff7 	bl	8002540 <HAL_RCC_GetHCLKFreq>
 8002552:	4b04      	ldr	r3, [pc, #16]	; (8002564 <HAL_RCC_GetPCLK1Freq+0x18>)
 8002554:	689b      	ldr	r3, [r3, #8]
 8002556:	f3c3 2382 	ubfx	r3, r3, #10, #3
 800255a:	4a03      	ldr	r2, [pc, #12]	; (8002568 <HAL_RCC_GetPCLK1Freq+0x1c>)
 800255c:	5cd3      	ldrb	r3, [r2, r3]
 800255e:	40d8      	lsrs	r0, r3
 8002560:	bd08      	pop	{r3, pc}
 8002562:	bf00      	nop
 8002564:	40023800 	.word	0x40023800
 8002568:	08003a98 	.word	0x08003a98

0800256c <HAL_GPIO_Init>:
 800256c:	2300      	movs	r3, #0
 800256e:	2b0f      	cmp	r3, #15
 8002570:	f200 80cb 	bhi.w	800270a <HAL_GPIO_Init+0x19e>
 8002574:	b4f0      	push	{r4, r5, r6, r7}
 8002576:	b082      	sub	sp, #8
 8002578:	e05d      	b.n	8002636 <HAL_GPIO_Init+0xca>
 800257a:	6886      	ldr	r6, [r0, #8]
 800257c:	005f      	lsls	r7, r3, #1
 800257e:	2403      	movs	r4, #3
 8002580:	40bc      	lsls	r4, r7
 8002582:	ea26 0604 	bic.w	r6, r6, r4
 8002586:	68cc      	ldr	r4, [r1, #12]
 8002588:	40bc      	lsls	r4, r7
 800258a:	4334      	orrs	r4, r6
 800258c:	6084      	str	r4, [r0, #8]
 800258e:	6846      	ldr	r6, [r0, #4]
 8002590:	ea26 0602 	bic.w	r6, r6, r2
 8002594:	684c      	ldr	r4, [r1, #4]
 8002596:	f3c4 1200 	ubfx	r2, r4, #4, #1
 800259a:	409a      	lsls	r2, r3
 800259c:	4332      	orrs	r2, r6
 800259e:	6042      	str	r2, [r0, #4]
 80025a0:	e057      	b.n	8002652 <HAL_GPIO_Init+0xe6>
 80025a2:	08dc      	lsrs	r4, r3, #3
 80025a4:	3408      	adds	r4, #8
 80025a6:	f850 7024 	ldr.w	r7, [r0, r4, lsl #2]
 80025aa:	f003 0207 	and.w	r2, r3, #7
 80025ae:	0096      	lsls	r6, r2, #2
 80025b0:	220f      	movs	r2, #15
 80025b2:	40b2      	lsls	r2, r6
 80025b4:	ea27 0702 	bic.w	r7, r7, r2
 80025b8:	690a      	ldr	r2, [r1, #16]
 80025ba:	40b2      	lsls	r2, r6
 80025bc:	433a      	orrs	r2, r7
 80025be:	f840 2024 	str.w	r2, [r0, r4, lsl #2]
 80025c2:	e05a      	b.n	800267a <HAL_GPIO_Init+0x10e>
 80025c4:	2204      	movs	r2, #4
 80025c6:	e000      	b.n	80025ca <HAL_GPIO_Init+0x5e>
 80025c8:	2200      	movs	r2, #0
 80025ca:	40b2      	lsls	r2, r6
 80025cc:	433a      	orrs	r2, r7
 80025ce:	3402      	adds	r4, #2
 80025d0:	4e4e      	ldr	r6, [pc, #312]	; (800270c <HAL_GPIO_Init+0x1a0>)
 80025d2:	f846 2024 	str.w	r2, [r6, r4, lsl #2]
 80025d6:	4a4e      	ldr	r2, [pc, #312]	; (8002710 <HAL_GPIO_Init+0x1a4>)
 80025d8:	6814      	ldr	r4, [r2, #0]
 80025da:	43ea      	mvns	r2, r5
 80025dc:	ea24 0605 	bic.w	r6, r4, r5
 80025e0:	684f      	ldr	r7, [r1, #4]
 80025e2:	f417 3f80 	tst.w	r7, #65536	; 0x10000
 80025e6:	d001      	beq.n	80025ec <HAL_GPIO_Init+0x80>
 80025e8:	ea45 0604 	orr.w	r6, r5, r4
 80025ec:	4c48      	ldr	r4, [pc, #288]	; (8002710 <HAL_GPIO_Init+0x1a4>)
 80025ee:	6026      	str	r6, [r4, #0]
 80025f0:	6864      	ldr	r4, [r4, #4]
 80025f2:	ea02 0604 	and.w	r6, r2, r4
 80025f6:	684f      	ldr	r7, [r1, #4]
 80025f8:	f417 3f00 	tst.w	r7, #131072	; 0x20000
 80025fc:	d001      	beq.n	8002602 <HAL_GPIO_Init+0x96>
 80025fe:	ea45 0604 	orr.w	r6, r5, r4
 8002602:	4c43      	ldr	r4, [pc, #268]	; (8002710 <HAL_GPIO_Init+0x1a4>)
 8002604:	6066      	str	r6, [r4, #4]
 8002606:	68a4      	ldr	r4, [r4, #8]
 8002608:	ea02 0604 	and.w	r6, r2, r4
 800260c:	684f      	ldr	r7, [r1, #4]
 800260e:	f417 1f80 	tst.w	r7, #1048576	; 0x100000
 8002612:	d001      	beq.n	8002618 <HAL_GPIO_Init+0xac>
 8002614:	ea45 0604 	orr.w	r6, r5, r4
 8002618:	4c3d      	ldr	r4, [pc, #244]	; (8002710 <HAL_GPIO_Init+0x1a4>)
 800261a:	60a6      	str	r6, [r4, #8]
 800261c:	68e4      	ldr	r4, [r4, #12]
 800261e:	4022      	ands	r2, r4
 8002620:	684e      	ldr	r6, [r1, #4]
 8002622:	f416 1f00 	tst.w	r6, #2097152	; 0x200000
 8002626:	d001      	beq.n	800262c <HAL_GPIO_Init+0xc0>
 8002628:	ea45 0204 	orr.w	r2, r5, r4
 800262c:	4c38      	ldr	r4, [pc, #224]	; (8002710 <HAL_GPIO_Init+0x1a4>)
 800262e:	60e2      	str	r2, [r4, #12]
 8002630:	3301      	adds	r3, #1
 8002632:	2b0f      	cmp	r3, #15
 8002634:	d866      	bhi.n	8002704 <HAL_GPIO_Init+0x198>
 8002636:	2201      	movs	r2, #1
 8002638:	409a      	lsls	r2, r3
 800263a:	680c      	ldr	r4, [r1, #0]
 800263c:	ea04 0502 	and.w	r5, r4, r2
 8002640:	ea32 0404 	bics.w	r4, r2, r4
 8002644:	d1f4      	bne.n	8002630 <HAL_GPIO_Init+0xc4>
 8002646:	684c      	ldr	r4, [r1, #4]
 8002648:	f004 0403 	and.w	r4, r4, #3
 800264c:	3c01      	subs	r4, #1
 800264e:	2c01      	cmp	r4, #1
 8002650:	d993      	bls.n	800257a <HAL_GPIO_Init+0xe>
 8002652:	684a      	ldr	r2, [r1, #4]
 8002654:	f002 0203 	and.w	r2, r2, #3
 8002658:	2a03      	cmp	r2, #3
 800265a:	d009      	beq.n	8002670 <HAL_GPIO_Init+0x104>
 800265c:	68c4      	ldr	r4, [r0, #12]
 800265e:	005e      	lsls	r6, r3, #1
 8002660:	2203      	movs	r2, #3
 8002662:	40b2      	lsls	r2, r6
 8002664:	ea24 0402 	bic.w	r4, r4, r2
 8002668:	688a      	ldr	r2, [r1, #8]
 800266a:	40b2      	lsls	r2, r6
 800266c:	4322      	orrs	r2, r4
 800266e:	60c2      	str	r2, [r0, #12]
 8002670:	684a      	ldr	r2, [r1, #4]
 8002672:	f002 0203 	and.w	r2, r2, #3
 8002676:	2a02      	cmp	r2, #2
 8002678:	d093      	beq.n	80025a2 <HAL_GPIO_Init+0x36>
 800267a:	6804      	ldr	r4, [r0, #0]
 800267c:	005e      	lsls	r6, r3, #1
 800267e:	2203      	movs	r2, #3
 8002680:	40b2      	lsls	r2, r6
 8002682:	ea24 0402 	bic.w	r4, r4, r2
 8002686:	684a      	ldr	r2, [r1, #4]
 8002688:	f002 0203 	and.w	r2, r2, #3
 800268c:	40b2      	lsls	r2, r6
 800268e:	4322      	orrs	r2, r4
 8002690:	6002      	str	r2, [r0, #0]
 8002692:	684a      	ldr	r2, [r1, #4]
 8002694:	f012 5f80 	tst.w	r2, #268435456	; 0x10000000
 8002698:	d0ca      	beq.n	8002630 <HAL_GPIO_Init+0xc4>
 800269a:	2200      	movs	r2, #0
 800269c:	9201      	str	r2, [sp, #4]
 800269e:	4a1d      	ldr	r2, [pc, #116]	; (8002714 <HAL_GPIO_Init+0x1a8>)
 80026a0:	6c54      	ldr	r4, [r2, #68]	; 0x44
 80026a2:	f444 4480 	orr.w	r4, r4, #16384	; 0x4000
 80026a6:	6454      	str	r4, [r2, #68]	; 0x44
 80026a8:	6c52      	ldr	r2, [r2, #68]	; 0x44
 80026aa:	f402 4280 	and.w	r2, r2, #16384	; 0x4000
 80026ae:	9201      	str	r2, [sp, #4]
 80026b0:	9a01      	ldr	r2, [sp, #4]
 80026b2:	089c      	lsrs	r4, r3, #2
 80026b4:	1ca6      	adds	r6, r4, #2
 80026b6:	4a15      	ldr	r2, [pc, #84]	; (800270c <HAL_GPIO_Init+0x1a0>)
 80026b8:	f852 7026 	ldr.w	r7, [r2, r6, lsl #2]
 80026bc:	f003 0203 	and.w	r2, r3, #3
 80026c0:	0096      	lsls	r6, r2, #2
 80026c2:	220f      	movs	r2, #15
 80026c4:	40b2      	lsls	r2, r6
 80026c6:	ea27 0702 	bic.w	r7, r7, r2
 80026ca:	4a13      	ldr	r2, [pc, #76]	; (8002718 <HAL_GPIO_Init+0x1ac>)
 80026cc:	4290      	cmp	r0, r2
 80026ce:	f43f af7b 	beq.w	80025c8 <HAL_GPIO_Init+0x5c>
 80026d2:	f502 6280 	add.w	r2, r2, #1024	; 0x400
 80026d6:	4290      	cmp	r0, r2
 80026d8:	d00e      	beq.n	80026f8 <HAL_GPIO_Init+0x18c>
 80026da:	f502 6280 	add.w	r2, r2, #1024	; 0x400
 80026de:	4290      	cmp	r0, r2
 80026e0:	d00c      	beq.n	80026fc <HAL_GPIO_Init+0x190>
 80026e2:	f502 6280 	add.w	r2, r2, #1024	; 0x400
 80026e6:	4290      	cmp	r0, r2
 80026e8:	d00a      	beq.n	8002700 <HAL_GPIO_Init+0x194>
 80026ea:	f502 6280 	add.w	r2, r2, #1024	; 0x400
 80026ee:	4290      	cmp	r0, r2
 80026f0:	f43f af68 	beq.w	80025c4 <HAL_GPIO_Init+0x58>
 80026f4:	2207      	movs	r2, #7
 80026f6:	e768      	b.n	80025ca <HAL_GPIO_Init+0x5e>
 80026f8:	2201      	movs	r2, #1
 80026fa:	e766      	b.n	80025ca <HAL_GPIO_Init+0x5e>
 80026fc:	2202      	movs	r2, #2
 80026fe:	e764      	b.n	80025ca <HAL_GPIO_Init+0x5e>
 8002700:	2203      	movs	r2, #3
 8002702:	e762      	b.n	80025ca <HAL_GPIO_Init+0x5e>
 8002704:	b002      	add	sp, #8
 8002706:	bcf0      	pop	{r4, r5, r6, r7}
 8002708:	4770      	bx	lr
 800270a:	4770      	bx	lr
 800270c:	40013800 	.word	0x40013800
 8002710:	40013c00 	.word	0x40013c00
 8002714:	40023800 	.word	0x40023800
 8002718:	40020000 	.word	0x40020000

0800271c <HAL_DMA_Abort_IT>:
 800271c:	f890 3035 	ldrb.w	r3, [r0, #53]	; 0x35
 8002720:	b2db      	uxtb	r3, r3
 8002722:	2b02      	cmp	r3, #2
 8002724:	d003      	beq.n	800272e <HAL_DMA_Abort_IT+0x12>
 8002726:	2380      	movs	r3, #128	; 0x80
 8002728:	6543      	str	r3, [r0, #84]	; 0x54
 800272a:	2001      	movs	r0, #1
 800272c:	4770      	bx	lr
 800272e:	2305      	movs	r3, #5
 8002730:	f880 3035 	strb.w	r3, [r0, #53]	; 0x35
 8002734:	6802      	ldr	r2, [r0, #0]
 8002736:	6813      	ldr	r3, [r2, #0]
 8002738:	f023 0301 	bic.w	r3, r3, #1
 800273c:	6013      	str	r3, [r2, #0]
 800273e:	2000      	movs	r0, #0
 8002740:	4770      	bx	lr

08002742 <HAL_DMA_GetState>:
 8002742:	f890 0035 	ldrb.w	r0, [r0, #53]	; 0x35
 8002746:	4770      	bx	lr

08002748 <HAL_NVIC_SetPriorityGrouping>:
 8002748:	4a07      	ldr	r2, [pc, #28]	; (8002768 <HAL_NVIC_SetPriorityGrouping+0x20>)
 800274a:	68d3      	ldr	r3, [r2, #12]
 800274c:	f423 63e0 	bic.w	r3, r3, #1792	; 0x700
 8002750:	041b      	lsls	r3, r3, #16
 8002752:	0c1b      	lsrs	r3, r3, #16
 8002754:	0200      	lsls	r0, r0, #8
 8002756:	f400 60e0 	and.w	r0, r0, #1792	; 0x700
 800275a:	4303      	orrs	r3, r0
 800275c:	f043 63bf 	orr.w	r3, r3, #100139008	; 0x5f80000
 8002760:	f443 3300 	orr.w	r3, r3, #131072	; 0x20000
 8002764:	60d3      	str	r3, [r2, #12]
 8002766:	4770      	bx	lr
 8002768:	e000ed00 	.word	0xe000ed00

0800276c <HAL_NVIC_SetPriority>:
 800276c:	b430      	push	{r4, r5}
 800276e:	4b17      	ldr	r3, [pc, #92]	; (80027cc <HAL_NVIC_SetPriority+0x60>)
 8002770:	68db      	ldr	r3, [r3, #12]
 8002772:	f3c3 2302 	ubfx	r3, r3, #8, #3
 8002776:	f1c3 0407 	rsb	r4, r3, #7
 800277a:	2c04      	cmp	r4, #4
 800277c:	bf28      	it	cs
 800277e:	2404      	movcs	r4, #4
 8002780:	1d1d      	adds	r5, r3, #4
 8002782:	2d06      	cmp	r5, #6
 8002784:	d918      	bls.n	80027b8 <HAL_NVIC_SetPriority+0x4c>
 8002786:	3b03      	subs	r3, #3
 8002788:	f04f 35ff 	mov.w	r5, #4294967295	; 0xffffffff
 800278c:	fa05 f404 	lsl.w	r4, r5, r4
 8002790:	ea21 0104 	bic.w	r1, r1, r4
 8002794:	4099      	lsls	r1, r3
 8002796:	fa05 f303 	lsl.w	r3, r5, r3
 800279a:	ea22 0303 	bic.w	r3, r2, r3
 800279e:	4319      	orrs	r1, r3
 80027a0:	2800      	cmp	r0, #0
 80027a2:	db0b      	blt.n	80027bc <HAL_NVIC_SetPriority+0x50>
 80027a4:	0109      	lsls	r1, r1, #4
 80027a6:	b2c9      	uxtb	r1, r1
 80027a8:	f100 4060 	add.w	r0, r0, #3758096384	; 0xe0000000
 80027ac:	f500 4061 	add.w	r0, r0, #57600	; 0xe100
 80027b0:	f880 1300 	strb.w	r1, [r0, #768]	; 0x300
 80027b4:	bc30      	pop	{r4, r5}
 80027b6:	4770      	bx	lr
 80027b8:	2300      	movs	r3, #0
 80027ba:	e7e5      	b.n	8002788 <HAL_NVIC_SetPriority+0x1c>
 80027bc:	f000 000f 	and.w	r0, r0, #15
 80027c0:	0109      	lsls	r1, r1, #4
 80027c2:	b2c9      	uxtb	r1, r1
 80027c4:	4b02      	ldr	r3, [pc, #8]	; (80027d0 <HAL_NVIC_SetPriority+0x64>)
 80027c6:	5419      	strb	r1, [r3, r0]
 80027c8:	e7f4      	b.n	80027b4 <HAL_NVIC_SetPriority+0x48>
 80027ca:	bf00      	nop
 80027cc:	e000ed00 	.word	0xe000ed00
 80027d0:	e000ed14 	.word	0xe000ed14

080027d4 <HAL_NVIC_EnableIRQ>:
 80027d4:	2800      	cmp	r0, #0
 80027d6:	db07      	blt.n	80027e8 <HAL_NVIC_EnableIRQ+0x14>
 80027d8:	f000 021f 	and.w	r2, r0, #31
 80027dc:	0940      	lsrs	r0, r0, #5
 80027de:	2301      	movs	r3, #1
 80027e0:	4093      	lsls	r3, r2
 80027e2:	4a02      	ldr	r2, [pc, #8]	; (80027ec <HAL_NVIC_EnableIRQ+0x18>)
 80027e4:	f842 3020 	str.w	r3, [r2, r0, lsl #2]
 80027e8:	4770      	bx	lr
 80027ea:	bf00      	nop
 80027ec:	e000e100 	.word	0xe000e100

080027f0 <HAL_SYSTICK_Config>:
 80027f0:	3801      	subs	r0, #1
 80027f2:	f1b0 7f80 	cmp.w	r0, #16777216	; 0x1000000
 80027f6:	d20a      	bcs.n	800280e <HAL_SYSTICK_Config+0x1e>
 80027f8:	4b06      	ldr	r3, [pc, #24]	; (8002814 <HAL_SYSTICK_Config+0x24>)
 80027fa:	6058      	str	r0, [r3, #4]
 80027fc:	4a06      	ldr	r2, [pc, #24]	; (8002818 <HAL_SYSTICK_Config+0x28>)
 80027fe:	21f0      	movs	r1, #240	; 0xf0
 8002800:	f882 1023 	strb.w	r1, [r2, #35]	; 0x23
 8002804:	2000      	movs	r0, #0
 8002806:	6098      	str	r0, [r3, #8]
 8002808:	2207      	movs	r2, #7
 800280a:	601a      	str	r2, [r3, #0]
 800280c:	4770      	bx	lr
 800280e:	2001      	movs	r0, #1
 8002810:	4770      	bx	lr
 8002812:	bf00      	nop
 8002814:	e000e010 	.word	0xe000e010
 8002818:	e000ed00 	.word	0xe000ed00

0800281c <HAL_InitTick>:
 800281c:	b510      	push	{r4, lr}
 800281e:	4604      	mov	r4, r0
 8002820:	4b0e      	ldr	r3, [pc, #56]	; (800285c <HAL_InitTick+0x40>)
 8002822:	7818      	ldrb	r0, [r3, #0]
 8002824:	f44f 737a 	mov.w	r3, #1000	; 0x3e8
 8002828:	fbb3 f3f0 	udiv	r3, r3, r0
 800282c:	4a0c      	ldr	r2, [pc, #48]	; (8002860 <HAL_InitTick+0x44>)
 800282e:	6810      	ldr	r0, [r2, #0]
 8002830:	fbb0 f0f3 	udiv	r0, r0, r3
 8002834:	f7ff ffdc 	bl	80027f0 <HAL_SYSTICK_Config>
 8002838:	b968      	cbnz	r0, 8002856 <HAL_InitTick+0x3a>
 800283a:	2c0f      	cmp	r4, #15
 800283c:	d901      	bls.n	8002842 <HAL_InitTick+0x26>
 800283e:	2001      	movs	r0, #1
 8002840:	e00a      	b.n	8002858 <HAL_InitTick+0x3c>
 8002842:	2200      	movs	r2, #0
 8002844:	4621      	mov	r1, r4
 8002846:	f04f 30ff 	mov.w	r0, #4294967295	; 0xffffffff
 800284a:	f7ff ff8f 	bl	800276c <HAL_NVIC_SetPriority>
 800284e:	4b05      	ldr	r3, [pc, #20]	; (8002864 <HAL_InitTick+0x48>)
 8002850:	601c      	str	r4, [r3, #0]
 8002852:	2000      	movs	r0, #0
 8002854:	e000      	b.n	8002858 <HAL_InitTick+0x3c>
 8002856:	2001      	movs	r0, #1
 8002858:	bd10      	pop	{r4, pc}
 800285a:	bf00      	nop
 800285c:	20000000 	.word	0x20000000
 8002860:	20000008 	.word	0x20000008
 8002864:	20000004 	.word	0x20000004

08002868 <HAL_Init>:
 8002868:	b508      	push	{r3, lr}
 800286a:	4b0b      	ldr	r3, [pc, #44]	; (8002898 <HAL_Init+0x30>)
 800286c:	681a      	ldr	r2, [r3, #0]
 800286e:	f442 7200 	orr.w	r2, r2, #512	; 0x200
 8002872:	601a      	str	r2, [r3, #0]
 8002874:	681a      	ldr	r2, [r3, #0]
 8002876:	f442 6280 	orr.w	r2, r2, #1024	; 0x400
 800287a:	601a      	str	r2, [r3, #0]
 800287c:	681a      	ldr	r2, [r3, #0]
 800287e:	f442 7280 	orr.w	r2, r2, #256	; 0x100
 8002882:	601a      	str	r2, [r3, #0]
 8002884:	2003      	movs	r0, #3
 8002886:	f7ff ff5f 	bl	8002748 <HAL_NVIC_SetPriorityGrouping>
 800288a:	2000      	movs	r0, #0
 800288c:	f7ff ffc6 	bl	800281c <HAL_InitTick>
 8002890:	f7fe f824 	bl	80008dc <HAL_MspInit>
 8002894:	2000      	movs	r0, #0
 8002896:	bd08      	pop	{r3, pc}
 8002898:	40023c00 	.word	0x40023c00

0800289c <HAL_IncTick>:
 800289c:	4a03      	ldr	r2, [pc, #12]	; (80028ac <HAL_IncTick+0x10>)
 800289e:	6811      	ldr	r1, [r2, #0]
 80028a0:	4b03      	ldr	r3, [pc, #12]	; (80028b0 <HAL_IncTick+0x14>)
 80028a2:	781b      	ldrb	r3, [r3, #0]
 80028a4:	440b      	add	r3, r1
 80028a6:	6013      	str	r3, [r2, #0]
 80028a8:	4770      	bx	lr
 80028aa:	bf00      	nop
 80028ac:	200000ec 	.word	0x200000ec
 80028b0:	20000000 	.word	0x20000000

080028b4 <HAL_GetTick>:
 80028b4:	4b01      	ldr	r3, [pc, #4]	; (80028bc <HAL_GetTick+0x8>)
 80028b6:	6818      	ldr	r0, [r3, #0]
 80028b8:	4770      	bx	lr
 80028ba:	bf00      	nop
 80028bc:	200000ec 	.word	0x200000ec

080028c0 <HAL_Delay>:
 80028c0:	b538      	push	{r3, r4, r5, lr}
 80028c2:	4604      	mov	r4, r0
 80028c4:	f7ff fff6 	bl	80028b4 <HAL_GetTick>
 80028c8:	4605      	mov	r5, r0
 80028ca:	f1b4 3fff 	cmp.w	r4, #4294967295	; 0xffffffff
 80028ce:	d002      	beq.n	80028d6 <HAL_Delay+0x16>
 80028d0:	4b04      	ldr	r3, [pc, #16]	; (80028e4 <HAL_Delay+0x24>)
 80028d2:	781b      	ldrb	r3, [r3, #0]
 80028d4:	441c      	add	r4, r3
 80028d6:	f7ff ffed 	bl	80028b4 <HAL_GetTick>
 80028da:	1b40      	subs	r0, r0, r5
 80028dc:	42a0      	cmp	r0, r4
 80028de:	d3fa      	bcc.n	80028d6 <HAL_Delay+0x16>
 80028e0:	bd38      	pop	{r3, r4, r5, pc}
 80028e2:	bf00      	nop
 80028e4:	20000000 	.word	0x20000000

080028e8 <SystemInit>:
 80028e8:	4a03      	ldr	r2, [pc, #12]	; (80028f8 <SystemInit+0x10>)
 80028ea:	f8d2 3088 	ldr.w	r3, [r2, #136]	; 0x88
 80028ee:	f443 0370 	orr.w	r3, r3, #15728640	; 0xf00000
 80028f2:	f8c2 3088 	str.w	r3, [r2, #136]	; 0x88
 80028f6:	4770      	bx	lr
 80028f8:	e000ed00 	.word	0xe000ed00

080028fc <Reset_Handler>:
 80028fc:	f8df d034 	ldr.w	sp, [pc, #52]	; 8002934 <LoopFillZerobss+0x12>
 8002900:	480d      	ldr	r0, [pc, #52]	; (8002938 <LoopFillZerobss+0x16>)
 8002902:	490e      	ldr	r1, [pc, #56]	; (800293c <LoopFillZerobss+0x1a>)
 8002904:	4a0e      	ldr	r2, [pc, #56]	; (8002940 <LoopFillZerobss+0x1e>)
 8002906:	2300      	movs	r3, #0
 8002908:	e002      	b.n	8002910 <LoopCopyDataInit>

0800290a <CopyDataInit>:
 800290a:	58d4      	ldr	r4, [r2, r3]
 800290c:	50c4      	str	r4, [r0, r3]
 800290e:	3304      	adds	r3, #4

08002910 <LoopCopyDataInit>:
 8002910:	18c4      	adds	r4, r0, r3
 8002912:	428c      	cmp	r4, r1
 8002914:	d3f9      	bcc.n	800290a <CopyDataInit>
 8002916:	4a0b      	ldr	r2, [pc, #44]	; (8002944 <LoopFillZerobss+0x22>)
 8002918:	4c0b      	ldr	r4, [pc, #44]	; (8002948 <LoopFillZerobss+0x26>)
 800291a:	2300      	movs	r3, #0
 800291c:	e001      	b.n	8002922 <LoopFillZerobss>

0800291e <FillZerobss>:
 800291e:	6013      	str	r3, [r2, #0]
 8002920:	3204      	adds	r2, #4

08002922 <LoopFillZerobss>:
 8002922:	42a2      	cmp	r2, r4
 8002924:	d3fb      	bcc.n	800291e <FillZerobss>
 8002926:	f7ff ffdf 	bl	80028e8 <SystemInit>
 800292a:	f000 f811 	bl	8002950 <__libc_init_array>
 800292e:	f7fd fe75 	bl	800061c <main>
 8002932:	4770      	bx	lr
 8002934:	20020000 	.word	0x20020000
 8002938:	20000000 	.word	0x20000000
 800293c:	20000070 	.word	0x20000070
 8002940:	08003c18 	.word	0x08003c18
 8002944:	20000070 	.word	0x20000070
 8002948:	20000100 	.word	0x20000100

0800294c <ADC_IRQHandler>:
 800294c:	e7fe      	b.n	800294c <ADC_IRQHandler>
	...

08002950 <__libc_init_array>:
 8002950:	b570      	push	{r4, r5, r6, lr}
 8002952:	4d0d      	ldr	r5, [pc, #52]	; (8002988 <__libc_init_array+0x38>)
 8002954:	4c0d      	ldr	r4, [pc, #52]	; (800298c <__libc_init_array+0x3c>)
 8002956:	1b64      	subs	r4, r4, r5
 8002958:	10a4      	asrs	r4, r4, #2
 800295a:	2600      	movs	r6, #0
 800295c:	42a6      	cmp	r6, r4
 800295e:	d109      	bne.n	8002974 <__libc_init_array+0x24>
 8002960:	4d0b      	ldr	r5, [pc, #44]	; (8002990 <__libc_init_array+0x40>)
 8002962:	4c0c      	ldr	r4, [pc, #48]	; (8002994 <__libc_init_array+0x44>)
 8002964:	f001 f872 	bl	8003a4c <_init>
 8002968:	1b64      	subs	r4, r4, r5
 800296a:	10a4      	asrs	r4, r4, #2
 800296c:	2600      	movs	r6, #0
 800296e:	42a6      	cmp	r6, r4
 8002970:	d105      	bne.n	800297e <__libc_init_array+0x2e>
 8002972:	bd70      	pop	{r4, r5, r6, pc}
 8002974:	f855 3b04 	ldr.w	r3, [r5], #4
 8002978:	4798      	blx	r3
 800297a:	3601      	adds	r6, #1
 800297c:	e7ee      	b.n	800295c <__libc_init_array+0xc>
 800297e:	f855 3b04 	ldr.w	r3, [r5], #4
 8002982:	4798      	blx	r3
 8002984:	3601      	adds	r6, #1
 8002986:	e7f2      	b.n	800296e <__libc_init_array+0x1e>
 8002988:	08003c10 	.word	0x08003c10
 800298c:	08003c10 	.word	0x08003c10
 8002990:	08003c10 	.word	0x08003c10
 8002994:	08003c14 	.word	0x08003c14

08002998 <memset>:
 8002998:	4402      	add	r2, r0
 800299a:	4603      	mov	r3, r0
 800299c:	4293      	cmp	r3, r2
 800299e:	d100      	bne.n	80029a2 <memset+0xa>
 80029a0:	4770      	bx	lr
 80029a2:	f803 1b01 	strb.w	r1, [r3], #1
 80029a6:	e7f9      	b.n	800299c <memset+0x4>

080029a8 <rand>:
 80029a8:	4b17      	ldr	r3, [pc, #92]	; (8002a08 <rand+0x60>)
 80029aa:	b510      	push	{r4, lr}
 80029ac:	681c      	ldr	r4, [r3, #0]
 80029ae:	6ba3      	ldr	r3, [r4, #56]	; 0x38
 80029b0:	b9b3      	cbnz	r3, 80029e0 <rand+0x38>
 80029b2:	2018      	movs	r0, #24
 80029b4:	f000 f868 	bl	8002a88 <malloc>
 80029b8:	63a0      	str	r0, [r4, #56]	; 0x38
 80029ba:	b928      	cbnz	r0, 80029c8 <rand+0x20>
 80029bc:	4602      	mov	r2, r0
 80029be:	4b13      	ldr	r3, [pc, #76]	; (8002a0c <rand+0x64>)
 80029c0:	4813      	ldr	r0, [pc, #76]	; (8002a10 <rand+0x68>)
 80029c2:	214e      	movs	r1, #78	; 0x4e
 80029c4:	f000 f830 	bl	8002a28 <__assert_func>
 80029c8:	4a12      	ldr	r2, [pc, #72]	; (8002a14 <rand+0x6c>)
 80029ca:	4b13      	ldr	r3, [pc, #76]	; (8002a18 <rand+0x70>)
 80029cc:	e9c0 2300 	strd	r2, r3, [r0]
 80029d0:	4b12      	ldr	r3, [pc, #72]	; (8002a1c <rand+0x74>)
 80029d2:	6083      	str	r3, [r0, #8]
 80029d4:	230b      	movs	r3, #11
 80029d6:	8183      	strh	r3, [r0, #12]
 80029d8:	2201      	movs	r2, #1
 80029da:	2300      	movs	r3, #0
 80029dc:	e9c0 2304 	strd	r2, r3, [r0, #16]
 80029e0:	6ba1      	ldr	r1, [r4, #56]	; 0x38
 80029e2:	480f      	ldr	r0, [pc, #60]	; (8002a20 <rand+0x78>)
 80029e4:	690a      	ldr	r2, [r1, #16]
 80029e6:	694b      	ldr	r3, [r1, #20]
 80029e8:	4c0e      	ldr	r4, [pc, #56]	; (8002a24 <rand+0x7c>)
 80029ea:	4350      	muls	r0, r2
 80029ec:	fb04 0003 	mla	r0, r4, r3, r0
 80029f0:	fba2 3404 	umull	r3, r4, r2, r4
 80029f4:	1c5a      	adds	r2, r3, #1
 80029f6:	4404      	add	r4, r0
 80029f8:	f144 0000 	adc.w	r0, r4, #0
 80029fc:	e9c1 2004 	strd	r2, r0, [r1, #16]
 8002a00:	f020 4000 	bic.w	r0, r0, #2147483648	; 0x80000000
 8002a04:	bd10      	pop	{r4, pc}
 8002a06:	bf00      	nop
 8002a08:	2000000c 	.word	0x2000000c
 8002a0c:	08003aa4 	.word	0x08003aa4
 8002a10:	08003abb 	.word	0x08003abb
 8002a14:	abcd330e 	.word	0xabcd330e
 8002a18:	e66d1234 	.word	0xe66d1234
 8002a1c:	0005deec 	.word	0x0005deec
 8002a20:	5851f42d 	.word	0x5851f42d
 8002a24:	4c957f2d 	.word	0x4c957f2d

08002a28 <__assert_func>:
 8002a28:	b51f      	push	{r0, r1, r2, r3, r4, lr}
 8002a2a:	4614      	mov	r4, r2
 8002a2c:	461a      	mov	r2, r3
 8002a2e:	4b09      	ldr	r3, [pc, #36]	; (8002a54 <__assert_func+0x2c>)
 8002a30:	681b      	ldr	r3, [r3, #0]
 8002a32:	4605      	mov	r5, r0
 8002a34:	68d8      	ldr	r0, [r3, #12]
 8002a36:	b14c      	cbz	r4, 8002a4c <__assert_func+0x24>
 8002a38:	4b07      	ldr	r3, [pc, #28]	; (8002a58 <__assert_func+0x30>)
 8002a3a:	9100      	str	r1, [sp, #0]
 8002a3c:	e9cd 3401 	strd	r3, r4, [sp, #4]
 8002a40:	4906      	ldr	r1, [pc, #24]	; (8002a5c <__assert_func+0x34>)
 8002a42:	462b      	mov	r3, r5
 8002a44:	f000 f80e 	bl	8002a64 <fiprintf>
 8002a48:	f000 fc8e 	bl	8003368 <abort>
 8002a4c:	4b04      	ldr	r3, [pc, #16]	; (8002a60 <__assert_func+0x38>)
 8002a4e:	461c      	mov	r4, r3
 8002a50:	e7f3      	b.n	8002a3a <__assert_func+0x12>
 8002a52:	bf00      	nop
 8002a54:	2000000c 	.word	0x2000000c
 8002a58:	08003b37 	.word	0x08003b37
 8002a5c:	08003b44 	.word	0x08003b44
 8002a60:	08003b72 	.word	0x08003b72

08002a64 <fiprintf>:
 8002a64:	b40e      	push	{r1, r2, r3}
 8002a66:	b503      	push	{r0, r1, lr}
 8002a68:	4601      	mov	r1, r0
 8002a6a:	ab03      	add	r3, sp, #12
 8002a6c:	4805      	ldr	r0, [pc, #20]	; (8002a84 <fiprintf+0x20>)
 8002a6e:	f853 2b04 	ldr.w	r2, [r3], #4
 8002a72:	6800      	ldr	r0, [r0, #0]
 8002a74:	9301      	str	r3, [sp, #4]
 8002a76:	f000 f8e3 	bl	8002c40 <_vfiprintf_r>
 8002a7a:	b002      	add	sp, #8
 8002a7c:	f85d eb04 	ldr.w	lr, [sp], #4
 8002a80:	b003      	add	sp, #12
 8002a82:	4770      	bx	lr
 8002a84:	2000000c 	.word	0x2000000c

08002a88 <malloc>:
 8002a88:	4b02      	ldr	r3, [pc, #8]	; (8002a94 <malloc+0xc>)
 8002a8a:	4601      	mov	r1, r0
 8002a8c:	6818      	ldr	r0, [r3, #0]
 8002a8e:	f000 b853 	b.w	8002b38 <_malloc_r>
 8002a92:	bf00      	nop
 8002a94:	2000000c 	.word	0x2000000c

08002a98 <_free_r>:
 8002a98:	b537      	push	{r0, r1, r2, r4, r5, lr}
 8002a9a:	2900      	cmp	r1, #0
 8002a9c:	d048      	beq.n	8002b30 <_free_r+0x98>
 8002a9e:	f851 3c04 	ldr.w	r3, [r1, #-4]
 8002aa2:	9001      	str	r0, [sp, #4]
 8002aa4:	2b00      	cmp	r3, #0
 8002aa6:	f1a1 0404 	sub.w	r4, r1, #4
 8002aaa:	bfb8      	it	lt
 8002aac:	18e4      	addlt	r4, r4, r3
 8002aae:	f000 fe81 	bl	80037b4 <__malloc_lock>
 8002ab2:	4a20      	ldr	r2, [pc, #128]	; (8002b34 <_free_r+0x9c>)
 8002ab4:	9801      	ldr	r0, [sp, #4]
 8002ab6:	6813      	ldr	r3, [r2, #0]
 8002ab8:	4615      	mov	r5, r2
 8002aba:	b933      	cbnz	r3, 8002aca <_free_r+0x32>
 8002abc:	6063      	str	r3, [r4, #4]
 8002abe:	6014      	str	r4, [r2, #0]
 8002ac0:	b003      	add	sp, #12
 8002ac2:	e8bd 4030 	ldmia.w	sp!, {r4, r5, lr}
 8002ac6:	f000 be7b 	b.w	80037c0 <__malloc_unlock>
 8002aca:	42a3      	cmp	r3, r4
 8002acc:	d90b      	bls.n	8002ae6 <_free_r+0x4e>
 8002ace:	6821      	ldr	r1, [r4, #0]
 8002ad0:	1862      	adds	r2, r4, r1
 8002ad2:	4293      	cmp	r3, r2
 8002ad4:	bf04      	itt	eq
 8002ad6:	681a      	ldreq	r2, [r3, #0]
 8002ad8:	685b      	ldreq	r3, [r3, #4]
 8002ada:	6063      	str	r3, [r4, #4]
 8002adc:	bf04      	itt	eq
 8002ade:	1852      	addeq	r2, r2, r1
 8002ae0:	6022      	streq	r2, [r4, #0]
 8002ae2:	602c      	str	r4, [r5, #0]
 8002ae4:	e7ec      	b.n	8002ac0 <_free_r+0x28>
 8002ae6:	461a      	mov	r2, r3
 8002ae8:	685b      	ldr	r3, [r3, #4]
 8002aea:	b10b      	cbz	r3, 8002af0 <_free_r+0x58>
 8002aec:	42a3      	cmp	r3, r4
 8002aee:	d9fa      	bls.n	8002ae6 <_free_r+0x4e>
 8002af0:	6811      	ldr	r1, [r2, #0]
 8002af2:	1855      	adds	r5, r2, r1
 8002af4:	42a5      	cmp	r5, r4
 8002af6:	d10b      	bne.n	8002b10 <_free_r+0x78>
 8002af8:	6824      	ldr	r4, [r4, #0]
 8002afa:	4421      	add	r1, r4
 8002afc:	1854      	adds	r4, r2, r1
 8002afe:	42a3      	cmp	r3, r4
 8002b00:	6011      	str	r1, [r2, #0]
 8002b02:	d1dd      	bne.n	8002ac0 <_free_r+0x28>
 8002b04:	681c      	ldr	r4, [r3, #0]
 8002b06:	685b      	ldr	r3, [r3, #4]
 8002b08:	6053      	str	r3, [r2, #4]
 8002b0a:	4421      	add	r1, r4
 8002b0c:	6011      	str	r1, [r2, #0]
 8002b0e:	e7d7      	b.n	8002ac0 <_free_r+0x28>
 8002b10:	d902      	bls.n	8002b18 <_free_r+0x80>
 8002b12:	230c      	movs	r3, #12
 8002b14:	6003      	str	r3, [r0, #0]
 8002b16:	e7d3      	b.n	8002ac0 <_free_r+0x28>
 8002b18:	6825      	ldr	r5, [r4, #0]
 8002b1a:	1961      	adds	r1, r4, r5
 8002b1c:	428b      	cmp	r3, r1
 8002b1e:	bf04      	itt	eq
 8002b20:	6819      	ldreq	r1, [r3, #0]
 8002b22:	685b      	ldreq	r3, [r3, #4]
 8002b24:	6063      	str	r3, [r4, #4]
 8002b26:	bf04      	itt	eq
 8002b28:	1949      	addeq	r1, r1, r5
 8002b2a:	6021      	streq	r1, [r4, #0]
 8002b2c:	6054      	str	r4, [r2, #4]
 8002b2e:	e7c7      	b.n	8002ac0 <_free_r+0x28>
 8002b30:	b003      	add	sp, #12
 8002b32:	bd30      	pop	{r4, r5, pc}
 8002b34:	2000008c 	.word	0x2000008c

08002b38 <_malloc_r>:
 8002b38:	b5f8      	push	{r3, r4, r5, r6, r7, lr}
 8002b3a:	1ccd      	adds	r5, r1, #3
 8002b3c:	f025 0503 	bic.w	r5, r5, #3
 8002b40:	3508      	adds	r5, #8
 8002b42:	2d0c      	cmp	r5, #12
 8002b44:	bf38      	it	cc
 8002b46:	250c      	movcc	r5, #12
 8002b48:	2d00      	cmp	r5, #0
 8002b4a:	4606      	mov	r6, r0
 8002b4c:	db01      	blt.n	8002b52 <_malloc_r+0x1a>
 8002b4e:	42a9      	cmp	r1, r5
 8002b50:	d903      	bls.n	8002b5a <_malloc_r+0x22>
 8002b52:	230c      	movs	r3, #12
 8002b54:	6033      	str	r3, [r6, #0]
 8002b56:	2000      	movs	r0, #0
 8002b58:	bdf8      	pop	{r3, r4, r5, r6, r7, pc}
 8002b5a:	f000 fe2b 	bl	80037b4 <__malloc_lock>
 8002b5e:	4921      	ldr	r1, [pc, #132]	; (8002be4 <_malloc_r+0xac>)
 8002b60:	680a      	ldr	r2, [r1, #0]
 8002b62:	4614      	mov	r4, r2
 8002b64:	b99c      	cbnz	r4, 8002b8e <_malloc_r+0x56>
 8002b66:	4f20      	ldr	r7, [pc, #128]	; (8002be8 <_malloc_r+0xb0>)
 8002b68:	683b      	ldr	r3, [r7, #0]
 8002b6a:	b923      	cbnz	r3, 8002b76 <_malloc_r+0x3e>
 8002b6c:	4621      	mov	r1, r4
 8002b6e:	4630      	mov	r0, r6
 8002b70:	f000 fb2a 	bl	80031c8 <_sbrk_r>
 8002b74:	6038      	str	r0, [r7, #0]
 8002b76:	4629      	mov	r1, r5
 8002b78:	4630      	mov	r0, r6
 8002b7a:	f000 fb25 	bl	80031c8 <_sbrk_r>
 8002b7e:	1c43      	adds	r3, r0, #1
 8002b80:	d123      	bne.n	8002bca <_malloc_r+0x92>
 8002b82:	230c      	movs	r3, #12
 8002b84:	6033      	str	r3, [r6, #0]
 8002b86:	4630      	mov	r0, r6
 8002b88:	f000 fe1a 	bl	80037c0 <__malloc_unlock>
 8002b8c:	e7e3      	b.n	8002b56 <_malloc_r+0x1e>
 8002b8e:	6823      	ldr	r3, [r4, #0]
 8002b90:	1b5b      	subs	r3, r3, r5
 8002b92:	d417      	bmi.n	8002bc4 <_malloc_r+0x8c>
 8002b94:	2b0b      	cmp	r3, #11
 8002b96:	d903      	bls.n	8002ba0 <_malloc_r+0x68>
 8002b98:	6023      	str	r3, [r4, #0]
 8002b9a:	441c      	add	r4, r3
 8002b9c:	6025      	str	r5, [r4, #0]
 8002b9e:	e004      	b.n	8002baa <_malloc_r+0x72>
 8002ba0:	6863      	ldr	r3, [r4, #4]
 8002ba2:	42a2      	cmp	r2, r4
 8002ba4:	bf0c      	ite	eq
 8002ba6:	600b      	streq	r3, [r1, #0]
 8002ba8:	6053      	strne	r3, [r2, #4]
 8002baa:	4630      	mov	r0, r6
 8002bac:	f000 fe08 	bl	80037c0 <__malloc_unlock>
 8002bb0:	f104 000b 	add.w	r0, r4, #11
 8002bb4:	1d23      	adds	r3, r4, #4
 8002bb6:	f020 0007 	bic.w	r0, r0, #7
 8002bba:	1ac2      	subs	r2, r0, r3
 8002bbc:	d0cc      	beq.n	8002b58 <_malloc_r+0x20>
 8002bbe:	1a1b      	subs	r3, r3, r0
 8002bc0:	50a3      	str	r3, [r4, r2]
 8002bc2:	e7c9      	b.n	8002b58 <_malloc_r+0x20>
 8002bc4:	4622      	mov	r2, r4
 8002bc6:	6864      	ldr	r4, [r4, #4]
 8002bc8:	e7cc      	b.n	8002b64 <_malloc_r+0x2c>
 8002bca:	1cc4      	adds	r4, r0, #3
 8002bcc:	f024 0403 	bic.w	r4, r4, #3
 8002bd0:	42a0      	cmp	r0, r4
 8002bd2:	d0e3      	beq.n	8002b9c <_malloc_r+0x64>
 8002bd4:	1a21      	subs	r1, r4, r0
 8002bd6:	4630      	mov	r0, r6
 8002bd8:	f000 faf6 	bl	80031c8 <_sbrk_r>
 8002bdc:	3001      	adds	r0, #1
 8002bde:	d1dd      	bne.n	8002b9c <_malloc_r+0x64>
 8002be0:	e7cf      	b.n	8002b82 <_malloc_r+0x4a>
 8002be2:	bf00      	nop
 8002be4:	2000008c 	.word	0x2000008c
 8002be8:	20000090 	.word	0x20000090

08002bec <__sfputc_r>:
 8002bec:	6893      	ldr	r3, [r2, #8]
 8002bee:	3b01      	subs	r3, #1
 8002bf0:	2b00      	cmp	r3, #0
 8002bf2:	b410      	push	{r4}
 8002bf4:	6093      	str	r3, [r2, #8]
 8002bf6:	da08      	bge.n	8002c0a <__sfputc_r+0x1e>
 8002bf8:	6994      	ldr	r4, [r2, #24]
 8002bfa:	42a3      	cmp	r3, r4
 8002bfc:	db01      	blt.n	8002c02 <__sfputc_r+0x16>
 8002bfe:	290a      	cmp	r1, #10
 8002c00:	d103      	bne.n	8002c0a <__sfputc_r+0x1e>
 8002c02:	f85d 4b04 	ldr.w	r4, [sp], #4
 8002c06:	f000 baef 	b.w	80031e8 <__swbuf_r>
 8002c0a:	6813      	ldr	r3, [r2, #0]
 8002c0c:	1c58      	adds	r0, r3, #1
 8002c0e:	6010      	str	r0, [r2, #0]
 8002c10:	7019      	strb	r1, [r3, #0]
 8002c12:	4608      	mov	r0, r1
 8002c14:	f85d 4b04 	ldr.w	r4, [sp], #4
 8002c18:	4770      	bx	lr

08002c1a <__sfputs_r>:
 8002c1a:	b5f8      	push	{r3, r4, r5, r6, r7, lr}
 8002c1c:	4606      	mov	r6, r0
 8002c1e:	460f      	mov	r7, r1
 8002c20:	4614      	mov	r4, r2
 8002c22:	18d5      	adds	r5, r2, r3
 8002c24:	42ac      	cmp	r4, r5
 8002c26:	d101      	bne.n	8002c2c <__sfputs_r+0x12>
 8002c28:	2000      	movs	r0, #0
 8002c2a:	e007      	b.n	8002c3c <__sfputs_r+0x22>
 8002c2c:	f814 1b01 	ldrb.w	r1, [r4], #1
 8002c30:	463a      	mov	r2, r7
 8002c32:	4630      	mov	r0, r6
 8002c34:	f7ff ffda 	bl	8002bec <__sfputc_r>
 8002c38:	1c43      	adds	r3, r0, #1
 8002c3a:	d1f3      	bne.n	8002c24 <__sfputs_r+0xa>
 8002c3c:	bdf8      	pop	{r3, r4, r5, r6, r7, pc}
	...

08002c40 <_vfiprintf_r>:
 8002c40:	e92d 4ff0 	stmdb	sp!, {r4, r5, r6, r7, r8, r9, sl, fp, lr}
 8002c44:	460d      	mov	r5, r1
 8002c46:	b09d      	sub	sp, #116	; 0x74
 8002c48:	4614      	mov	r4, r2
 8002c4a:	4698      	mov	r8, r3
 8002c4c:	4606      	mov	r6, r0
 8002c4e:	b118      	cbz	r0, 8002c58 <_vfiprintf_r+0x18>
 8002c50:	6983      	ldr	r3, [r0, #24]
 8002c52:	b90b      	cbnz	r3, 8002c58 <_vfiprintf_r+0x18>
 8002c54:	f000 fcaa 	bl	80035ac <__sinit>
 8002c58:	4b89      	ldr	r3, [pc, #548]	; (8002e80 <_vfiprintf_r+0x240>)
 8002c5a:	429d      	cmp	r5, r3
 8002c5c:	d11b      	bne.n	8002c96 <_vfiprintf_r+0x56>
 8002c5e:	6875      	ldr	r5, [r6, #4]
 8002c60:	6e6b      	ldr	r3, [r5, #100]	; 0x64
 8002c62:	07d9      	lsls	r1, r3, #31
 8002c64:	d405      	bmi.n	8002c72 <_vfiprintf_r+0x32>
 8002c66:	89ab      	ldrh	r3, [r5, #12]
 8002c68:	059a      	lsls	r2, r3, #22
 8002c6a:	d402      	bmi.n	8002c72 <_vfiprintf_r+0x32>
 8002c6c:	6da8      	ldr	r0, [r5, #88]	; 0x58
 8002c6e:	f000 fd3b 	bl	80036e8 <__retarget_lock_acquire_recursive>
 8002c72:	89ab      	ldrh	r3, [r5, #12]
 8002c74:	071b      	lsls	r3, r3, #28
 8002c76:	d501      	bpl.n	8002c7c <_vfiprintf_r+0x3c>
 8002c78:	692b      	ldr	r3, [r5, #16]
 8002c7a:	b9eb      	cbnz	r3, 8002cb8 <_vfiprintf_r+0x78>
 8002c7c:	4629      	mov	r1, r5
 8002c7e:	4630      	mov	r0, r6
 8002c80:	f000 fb04 	bl	800328c <__swsetup_r>
 8002c84:	b1c0      	cbz	r0, 8002cb8 <_vfiprintf_r+0x78>
 8002c86:	6e6b      	ldr	r3, [r5, #100]	; 0x64
 8002c88:	07dc      	lsls	r4, r3, #31
 8002c8a:	d50e      	bpl.n	8002caa <_vfiprintf_r+0x6a>
 8002c8c:	f04f 30ff 	mov.w	r0, #4294967295	; 0xffffffff
 8002c90:	b01d      	add	sp, #116	; 0x74
 8002c92:	e8bd 8ff0 	ldmia.w	sp!, {r4, r5, r6, r7, r8, r9, sl, fp, pc}
 8002c96:	4b7b      	ldr	r3, [pc, #492]	; (8002e84 <_vfiprintf_r+0x244>)
 8002c98:	429d      	cmp	r5, r3
 8002c9a:	d101      	bne.n	8002ca0 <_vfiprintf_r+0x60>
 8002c9c:	68b5      	ldr	r5, [r6, #8]
 8002c9e:	e7df      	b.n	8002c60 <_vfiprintf_r+0x20>
 8002ca0:	4b79      	ldr	r3, [pc, #484]	; (8002e88 <_vfiprintf_r+0x248>)
 8002ca2:	429d      	cmp	r5, r3
 8002ca4:	bf08      	it	eq
 8002ca6:	68f5      	ldreq	r5, [r6, #12]
 8002ca8:	e7da      	b.n	8002c60 <_vfiprintf_r+0x20>
 8002caa:	89ab      	ldrh	r3, [r5, #12]
 8002cac:	0598      	lsls	r0, r3, #22
 8002cae:	d4ed      	bmi.n	8002c8c <_vfiprintf_r+0x4c>
 8002cb0:	6da8      	ldr	r0, [r5, #88]	; 0x58
 8002cb2:	f000 fd1a 	bl	80036ea <__retarget_lock_release_recursive>
 8002cb6:	e7e9      	b.n	8002c8c <_vfiprintf_r+0x4c>
 8002cb8:	2300      	movs	r3, #0
 8002cba:	9309      	str	r3, [sp, #36]	; 0x24
 8002cbc:	2320      	movs	r3, #32
 8002cbe:	f88d 3029 	strb.w	r3, [sp, #41]	; 0x29
 8002cc2:	f8cd 800c 	str.w	r8, [sp, #12]
 8002cc6:	2330      	movs	r3, #48	; 0x30
 8002cc8:	f8df 81c0 	ldr.w	r8, [pc, #448]	; 8002e8c <_vfiprintf_r+0x24c>
 8002ccc:	f88d 302a 	strb.w	r3, [sp, #42]	; 0x2a
 8002cd0:	f04f 0901 	mov.w	r9, #1
 8002cd4:	4623      	mov	r3, r4
 8002cd6:	469a      	mov	sl, r3
 8002cd8:	f813 2b01 	ldrb.w	r2, [r3], #1
 8002cdc:	b10a      	cbz	r2, 8002ce2 <_vfiprintf_r+0xa2>
 8002cde:	2a25      	cmp	r2, #37	; 0x25
 8002ce0:	d1f9      	bne.n	8002cd6 <_vfiprintf_r+0x96>
 8002ce2:	ebba 0b04 	subs.w	fp, sl, r4
 8002ce6:	d00b      	beq.n	8002d00 <_vfiprintf_r+0xc0>
 8002ce8:	465b      	mov	r3, fp
 8002cea:	4622      	mov	r2, r4
 8002cec:	4629      	mov	r1, r5
 8002cee:	4630      	mov	r0, r6
 8002cf0:	f7ff ff93 	bl	8002c1a <__sfputs_r>
 8002cf4:	3001      	adds	r0, #1
 8002cf6:	f000 80aa 	beq.w	8002e4e <_vfiprintf_r+0x20e>
 8002cfa:	9a09      	ldr	r2, [sp, #36]	; 0x24
 8002cfc:	445a      	add	r2, fp
 8002cfe:	9209      	str	r2, [sp, #36]	; 0x24
 8002d00:	f89a 3000 	ldrb.w	r3, [sl]
 8002d04:	2b00      	cmp	r3, #0
 8002d06:	f000 80a2 	beq.w	8002e4e <_vfiprintf_r+0x20e>
 8002d0a:	2300      	movs	r3, #0
 8002d0c:	f04f 32ff 	mov.w	r2, #4294967295	; 0xffffffff
 8002d10:	e9cd 2305 	strd	r2, r3, [sp, #20]
 8002d14:	f10a 0a01 	add.w	sl, sl, #1
 8002d18:	9304      	str	r3, [sp, #16]
 8002d1a:	9307      	str	r3, [sp, #28]
 8002d1c:	f88d 3053 	strb.w	r3, [sp, #83]	; 0x53
 8002d20:	931a      	str	r3, [sp, #104]	; 0x68
 8002d22:	4654      	mov	r4, sl
 8002d24:	2205      	movs	r2, #5
 8002d26:	f814 1b01 	ldrb.w	r1, [r4], #1
 8002d2a:	4858      	ldr	r0, [pc, #352]	; (8002e8c <_vfiprintf_r+0x24c>)
 8002d2c:	f7fd fa58 	bl	80001e0 <memchr>
 8002d30:	9a04      	ldr	r2, [sp, #16]
 8002d32:	b9d8      	cbnz	r0, 8002d6c <_vfiprintf_r+0x12c>
 8002d34:	06d1      	lsls	r1, r2, #27
 8002d36:	bf44      	itt	mi
 8002d38:	2320      	movmi	r3, #32
 8002d3a:	f88d 3053 	strbmi.w	r3, [sp, #83]	; 0x53
 8002d3e:	0713      	lsls	r3, r2, #28
 8002d40:	bf44      	itt	mi
 8002d42:	232b      	movmi	r3, #43	; 0x2b
 8002d44:	f88d 3053 	strbmi.w	r3, [sp, #83]	; 0x53
 8002d48:	f89a 3000 	ldrb.w	r3, [sl]
 8002d4c:	2b2a      	cmp	r3, #42	; 0x2a
 8002d4e:	d015      	beq.n	8002d7c <_vfiprintf_r+0x13c>
 8002d50:	9a07      	ldr	r2, [sp, #28]
 8002d52:	4654      	mov	r4, sl
 8002d54:	2000      	movs	r0, #0
 8002d56:	f04f 0c0a 	mov.w	ip, #10
 8002d5a:	4621      	mov	r1, r4
 8002d5c:	f811 3b01 	ldrb.w	r3, [r1], #1
 8002d60:	3b30      	subs	r3, #48	; 0x30
 8002d62:	2b09      	cmp	r3, #9
 8002d64:	d94e      	bls.n	8002e04 <_vfiprintf_r+0x1c4>
 8002d66:	b1b0      	cbz	r0, 8002d96 <_vfiprintf_r+0x156>
 8002d68:	9207      	str	r2, [sp, #28]
 8002d6a:	e014      	b.n	8002d96 <_vfiprintf_r+0x156>
 8002d6c:	eba0 0308 	sub.w	r3, r0, r8
 8002d70:	fa09 f303 	lsl.w	r3, r9, r3
 8002d74:	4313      	orrs	r3, r2
 8002d76:	9304      	str	r3, [sp, #16]
 8002d78:	46a2      	mov	sl, r4
 8002d7a:	e7d2      	b.n	8002d22 <_vfiprintf_r+0xe2>
 8002d7c:	9b03      	ldr	r3, [sp, #12]
 8002d7e:	1d19      	adds	r1, r3, #4
 8002d80:	681b      	ldr	r3, [r3, #0]
 8002d82:	9103      	str	r1, [sp, #12]
 8002d84:	2b00      	cmp	r3, #0
 8002d86:	bfbb      	ittet	lt
 8002d88:	425b      	neglt	r3, r3
 8002d8a:	f042 0202 	orrlt.w	r2, r2, #2
 8002d8e:	9307      	strge	r3, [sp, #28]
 8002d90:	9307      	strlt	r3, [sp, #28]
 8002d92:	bfb8      	it	lt
 8002d94:	9204      	strlt	r2, [sp, #16]
 8002d96:	7823      	ldrb	r3, [r4, #0]
 8002d98:	2b2e      	cmp	r3, #46	; 0x2e
 8002d9a:	d10c      	bne.n	8002db6 <_vfiprintf_r+0x176>
 8002d9c:	7863      	ldrb	r3, [r4, #1]
 8002d9e:	2b2a      	cmp	r3, #42	; 0x2a
 8002da0:	d135      	bne.n	8002e0e <_vfiprintf_r+0x1ce>
 8002da2:	9b03      	ldr	r3, [sp, #12]
 8002da4:	1d1a      	adds	r2, r3, #4
 8002da6:	681b      	ldr	r3, [r3, #0]
 8002da8:	9203      	str	r2, [sp, #12]
 8002daa:	2b00      	cmp	r3, #0
 8002dac:	bfb8      	it	lt
 8002dae:	f04f 33ff 	movlt.w	r3, #4294967295	; 0xffffffff
 8002db2:	3402      	adds	r4, #2
 8002db4:	9305      	str	r3, [sp, #20]
 8002db6:	f8df a0e4 	ldr.w	sl, [pc, #228]	; 8002e9c <_vfiprintf_r+0x25c>
 8002dba:	7821      	ldrb	r1, [r4, #0]
 8002dbc:	2203      	movs	r2, #3
 8002dbe:	4650      	mov	r0, sl
 8002dc0:	f7fd fa0e 	bl	80001e0 <memchr>
 8002dc4:	b140      	cbz	r0, 8002dd8 <_vfiprintf_r+0x198>
 8002dc6:	2340      	movs	r3, #64	; 0x40
 8002dc8:	eba0 000a 	sub.w	r0, r0, sl
 8002dcc:	fa03 f000 	lsl.w	r0, r3, r0
 8002dd0:	9b04      	ldr	r3, [sp, #16]
 8002dd2:	4303      	orrs	r3, r0
 8002dd4:	3401      	adds	r4, #1
 8002dd6:	9304      	str	r3, [sp, #16]
 8002dd8:	f814 1b01 	ldrb.w	r1, [r4], #1
 8002ddc:	482c      	ldr	r0, [pc, #176]	; (8002e90 <_vfiprintf_r+0x250>)
 8002dde:	f88d 1028 	strb.w	r1, [sp, #40]	; 0x28
 8002de2:	2206      	movs	r2, #6
 8002de4:	f7fd f9fc 	bl	80001e0 <memchr>
 8002de8:	2800      	cmp	r0, #0
 8002dea:	d03f      	beq.n	8002e6c <_vfiprintf_r+0x22c>
 8002dec:	4b29      	ldr	r3, [pc, #164]	; (8002e94 <_vfiprintf_r+0x254>)
 8002dee:	bb1b      	cbnz	r3, 8002e38 <_vfiprintf_r+0x1f8>
 8002df0:	9b03      	ldr	r3, [sp, #12]
 8002df2:	3307      	adds	r3, #7
 8002df4:	f023 0307 	bic.w	r3, r3, #7
 8002df8:	3308      	adds	r3, #8
 8002dfa:	9303      	str	r3, [sp, #12]
 8002dfc:	9b09      	ldr	r3, [sp, #36]	; 0x24
 8002dfe:	443b      	add	r3, r7
 8002e00:	9309      	str	r3, [sp, #36]	; 0x24
 8002e02:	e767      	b.n	8002cd4 <_vfiprintf_r+0x94>
 8002e04:	fb0c 3202 	mla	r2, ip, r2, r3
 8002e08:	460c      	mov	r4, r1
 8002e0a:	2001      	movs	r0, #1
 8002e0c:	e7a5      	b.n	8002d5a <_vfiprintf_r+0x11a>
 8002e0e:	2300      	movs	r3, #0
 8002e10:	3401      	adds	r4, #1
 8002e12:	9305      	str	r3, [sp, #20]
 8002e14:	4619      	mov	r1, r3
 8002e16:	f04f 0c0a 	mov.w	ip, #10
 8002e1a:	4620      	mov	r0, r4
 8002e1c:	f810 2b01 	ldrb.w	r2, [r0], #1
 8002e20:	3a30      	subs	r2, #48	; 0x30
 8002e22:	2a09      	cmp	r2, #9
 8002e24:	d903      	bls.n	8002e2e <_vfiprintf_r+0x1ee>
 8002e26:	2b00      	cmp	r3, #0
 8002e28:	d0c5      	beq.n	8002db6 <_vfiprintf_r+0x176>
 8002e2a:	9105      	str	r1, [sp, #20]
 8002e2c:	e7c3      	b.n	8002db6 <_vfiprintf_r+0x176>
 8002e2e:	fb0c 2101 	mla	r1, ip, r1, r2
 8002e32:	4604      	mov	r4, r0
 8002e34:	2301      	movs	r3, #1
 8002e36:	e7f0      	b.n	8002e1a <_vfiprintf_r+0x1da>
 8002e38:	ab03      	add	r3, sp, #12
 8002e3a:	9300      	str	r3, [sp, #0]
 8002e3c:	462a      	mov	r2, r5
 8002e3e:	4b16      	ldr	r3, [pc, #88]	; (8002e98 <_vfiprintf_r+0x258>)
 8002e40:	a904      	add	r1, sp, #16
 8002e42:	4630      	mov	r0, r6
 8002e44:	f3af 8000 	nop.w
 8002e48:	4607      	mov	r7, r0
 8002e4a:	1c78      	adds	r0, r7, #1
 8002e4c:	d1d6      	bne.n	8002dfc <_vfiprintf_r+0x1bc>
 8002e4e:	6e6b      	ldr	r3, [r5, #100]	; 0x64
 8002e50:	07d9      	lsls	r1, r3, #31
 8002e52:	d405      	bmi.n	8002e60 <_vfiprintf_r+0x220>
 8002e54:	89ab      	ldrh	r3, [r5, #12]
 8002e56:	059a      	lsls	r2, r3, #22
 8002e58:	d402      	bmi.n	8002e60 <_vfiprintf_r+0x220>
 8002e5a:	6da8      	ldr	r0, [r5, #88]	; 0x58
 8002e5c:	f000 fc45 	bl	80036ea <__retarget_lock_release_recursive>
 8002e60:	89ab      	ldrh	r3, [r5, #12]
 8002e62:	065b      	lsls	r3, r3, #25
 8002e64:	f53f af12 	bmi.w	8002c8c <_vfiprintf_r+0x4c>
 8002e68:	9809      	ldr	r0, [sp, #36]	; 0x24
 8002e6a:	e711      	b.n	8002c90 <_vfiprintf_r+0x50>
 8002e6c:	ab03      	add	r3, sp, #12
 8002e6e:	9300      	str	r3, [sp, #0]
 8002e70:	462a      	mov	r2, r5
 8002e72:	4b09      	ldr	r3, [pc, #36]	; (8002e98 <_vfiprintf_r+0x258>)
 8002e74:	a904      	add	r1, sp, #16
 8002e76:	4630      	mov	r0, r6
 8002e78:	f000 f880 	bl	8002f7c <_printf_i>
 8002e7c:	e7e4      	b.n	8002e48 <_vfiprintf_r+0x208>
 8002e7e:	bf00      	nop
 8002e80:	08003bc8 	.word	0x08003bc8
 8002e84:	08003be8 	.word	0x08003be8
 8002e88:	08003ba8 	.word	0x08003ba8
 8002e8c:	08003b73 	.word	0x08003b73
 8002e90:	08003b7d 	.word	0x08003b7d
 8002e94:	00000000 	.word	0x00000000
 8002e98:	08002c1b 	.word	0x08002c1b
 8002e9c:	08003b79 	.word	0x08003b79

08002ea0 <_printf_common>:
 8002ea0:	e92d 47f0 	stmdb	sp!, {r4, r5, r6, r7, r8, r9, sl, lr}
 8002ea4:	4616      	mov	r6, r2
 8002ea6:	4699      	mov	r9, r3
 8002ea8:	688a      	ldr	r2, [r1, #8]
 8002eaa:	690b      	ldr	r3, [r1, #16]
 8002eac:	f8dd 8020 	ldr.w	r8, [sp, #32]
 8002eb0:	4293      	cmp	r3, r2
 8002eb2:	bfb8      	it	lt
 8002eb4:	4613      	movlt	r3, r2
 8002eb6:	6033      	str	r3, [r6, #0]
 8002eb8:	f891 2043 	ldrb.w	r2, [r1, #67]	; 0x43
 8002ebc:	4607      	mov	r7, r0
 8002ebe:	460c      	mov	r4, r1
 8002ec0:	b10a      	cbz	r2, 8002ec6 <_printf_common+0x26>
 8002ec2:	3301      	adds	r3, #1
 8002ec4:	6033      	str	r3, [r6, #0]
 8002ec6:	6823      	ldr	r3, [r4, #0]
 8002ec8:	0699      	lsls	r1, r3, #26
 8002eca:	bf42      	ittt	mi
 8002ecc:	6833      	ldrmi	r3, [r6, #0]
 8002ece:	3302      	addmi	r3, #2
 8002ed0:	6033      	strmi	r3, [r6, #0]
 8002ed2:	6825      	ldr	r5, [r4, #0]
 8002ed4:	f015 0506 	ands.w	r5, r5, #6
 8002ed8:	d106      	bne.n	8002ee8 <_printf_common+0x48>
 8002eda:	f104 0a19 	add.w	sl, r4, #25
 8002ede:	68e3      	ldr	r3, [r4, #12]
 8002ee0:	6832      	ldr	r2, [r6, #0]
 8002ee2:	1a9b      	subs	r3, r3, r2
 8002ee4:	42ab      	cmp	r3, r5
 8002ee6:	dc26      	bgt.n	8002f36 <_printf_common+0x96>
 8002ee8:	f894 2043 	ldrb.w	r2, [r4, #67]	; 0x43
 8002eec:	1e13      	subs	r3, r2, #0
 8002eee:	6822      	ldr	r2, [r4, #0]
 8002ef0:	bf18      	it	ne
 8002ef2:	2301      	movne	r3, #1
 8002ef4:	0692      	lsls	r2, r2, #26
 8002ef6:	d42b      	bmi.n	8002f50 <_printf_common+0xb0>
 8002ef8:	f104 0243 	add.w	r2, r4, #67	; 0x43
 8002efc:	4649      	mov	r1, r9
 8002efe:	4638      	mov	r0, r7
 8002f00:	47c0      	blx	r8
 8002f02:	3001      	adds	r0, #1
 8002f04:	d01e      	beq.n	8002f44 <_printf_common+0xa4>
 8002f06:	6823      	ldr	r3, [r4, #0]
 8002f08:	68e5      	ldr	r5, [r4, #12]
 8002f0a:	6832      	ldr	r2, [r6, #0]
 8002f0c:	f003 0306 	and.w	r3, r3, #6
 8002f10:	2b04      	cmp	r3, #4
 8002f12:	bf08      	it	eq
 8002f14:	1aad      	subeq	r5, r5, r2
 8002f16:	68a3      	ldr	r3, [r4, #8]
 8002f18:	6922      	ldr	r2, [r4, #16]
 8002f1a:	bf0c      	ite	eq
 8002f1c:	ea25 75e5 	biceq.w	r5, r5, r5, asr #31
 8002f20:	2500      	movne	r5, #0
 8002f22:	4293      	cmp	r3, r2
 8002f24:	bfc4      	itt	gt
 8002f26:	1a9b      	subgt	r3, r3, r2
 8002f28:	18ed      	addgt	r5, r5, r3
 8002f2a:	2600      	movs	r6, #0
 8002f2c:	341a      	adds	r4, #26
 8002f2e:	42b5      	cmp	r5, r6
 8002f30:	d11a      	bne.n	8002f68 <_printf_common+0xc8>
 8002f32:	2000      	movs	r0, #0
 8002f34:	e008      	b.n	8002f48 <_printf_common+0xa8>
 8002f36:	2301      	movs	r3, #1
 8002f38:	4652      	mov	r2, sl
 8002f3a:	4649      	mov	r1, r9
 8002f3c:	4638      	mov	r0, r7
 8002f3e:	47c0      	blx	r8
 8002f40:	3001      	adds	r0, #1
 8002f42:	d103      	bne.n	8002f4c <_printf_common+0xac>
 8002f44:	f04f 30ff 	mov.w	r0, #4294967295	; 0xffffffff
 8002f48:	e8bd 87f0 	ldmia.w	sp!, {r4, r5, r6, r7, r8, r9, sl, pc}
 8002f4c:	3501      	adds	r5, #1
 8002f4e:	e7c6      	b.n	8002ede <_printf_common+0x3e>
 8002f50:	18e1      	adds	r1, r4, r3
 8002f52:	1c5a      	adds	r2, r3, #1
 8002f54:	2030      	movs	r0, #48	; 0x30
 8002f56:	f881 0043 	strb.w	r0, [r1, #67]	; 0x43
 8002f5a:	4422      	add	r2, r4
 8002f5c:	f894 1045 	ldrb.w	r1, [r4, #69]	; 0x45
 8002f60:	f882 1043 	strb.w	r1, [r2, #67]	; 0x43
 8002f64:	3302      	adds	r3, #2
 8002f66:	e7c7      	b.n	8002ef8 <_printf_common+0x58>
 8002f68:	2301      	movs	r3, #1
 8002f6a:	4622      	mov	r2, r4
 8002f6c:	4649      	mov	r1, r9
 8002f6e:	4638      	mov	r0, r7
 8002f70:	47c0      	blx	r8
 8002f72:	3001      	adds	r0, #1
 8002f74:	d0e6      	beq.n	8002f44 <_printf_common+0xa4>
 8002f76:	3601      	adds	r6, #1
 8002f78:	e7d9      	b.n	8002f2e <_printf_common+0x8e>
	...

08002f7c <_printf_i>:
 8002f7c:	e92d 47ff 	stmdb	sp!, {r0, r1, r2, r3, r4, r5, r6, r7, r8, r9, sl, lr}
 8002f80:	460c      	mov	r4, r1
 8002f82:	4691      	mov	r9, r2
 8002f84:	7e27      	ldrb	r7, [r4, #24]
 8002f86:	990c      	ldr	r1, [sp, #48]	; 0x30
 8002f88:	2f78      	cmp	r7, #120	; 0x78
 8002f8a:	4680      	mov	r8, r0
 8002f8c:	469a      	mov	sl, r3
 8002f8e:	f104 0243 	add.w	r2, r4, #67	; 0x43
 8002f92:	d807      	bhi.n	8002fa4 <_printf_i+0x28>
 8002f94:	2f62      	cmp	r7, #98	; 0x62
 8002f96:	d80a      	bhi.n	8002fae <_printf_i+0x32>
 8002f98:	2f00      	cmp	r7, #0
 8002f9a:	f000 80d8 	beq.w	800314e <_printf_i+0x1d2>
 8002f9e:	2f58      	cmp	r7, #88	; 0x58
 8002fa0:	f000 80a3 	beq.w	80030ea <_printf_i+0x16e>
 8002fa4:	f104 0642 	add.w	r6, r4, #66	; 0x42
 8002fa8:	f884 7042 	strb.w	r7, [r4, #66]	; 0x42
 8002fac:	e03a      	b.n	8003024 <_printf_i+0xa8>
 8002fae:	f1a7 0363 	sub.w	r3, r7, #99	; 0x63
 8002fb2:	2b15      	cmp	r3, #21
 8002fb4:	d8f6      	bhi.n	8002fa4 <_printf_i+0x28>
 8002fb6:	a001      	add	r0, pc, #4	; (adr r0, 8002fbc <_printf_i+0x40>)
 8002fb8:	f850 f023 	ldr.w	pc, [r0, r3, lsl #2]
 8002fbc:	08003015 	.word	0x08003015
 8002fc0:	08003029 	.word	0x08003029
 8002fc4:	08002fa5 	.word	0x08002fa5
 8002fc8:	08002fa5 	.word	0x08002fa5
 8002fcc:	08002fa5 	.word	0x08002fa5
 8002fd0:	08002fa5 	.word	0x08002fa5
 8002fd4:	08003029 	.word	0x08003029
 8002fd8:	08002fa5 	.word	0x08002fa5
 8002fdc:	08002fa5 	.word	0x08002fa5
 8002fe0:	08002fa5 	.word	0x08002fa5
 8002fe4:	08002fa5 	.word	0x08002fa5
 8002fe8:	08003135 	.word	0x08003135
 8002fec:	08003059 	.word	0x08003059
 8002ff0:	08003117 	.word	0x08003117
 8002ff4:	08002fa5 	.word	0x08002fa5
 8002ff8:	08002fa5 	.word	0x08002fa5
 8002ffc:	08003157 	.word	0x08003157
 8003000:	08002fa5 	.word	0x08002fa5
 8003004:	08003059 	.word	0x08003059
 8003008:	08002fa5 	.word	0x08002fa5
 800300c:	08002fa5 	.word	0x08002fa5
 8003010:	0800311f 	.word	0x0800311f
 8003014:	680b      	ldr	r3, [r1, #0]
 8003016:	1d1a      	adds	r2, r3, #4
 8003018:	681b      	ldr	r3, [r3, #0]
 800301a:	600a      	str	r2, [r1, #0]
 800301c:	f104 0642 	add.w	r6, r4, #66	; 0x42
 8003020:	f884 3042 	strb.w	r3, [r4, #66]	; 0x42
 8003024:	2301      	movs	r3, #1
 8003026:	e0a3      	b.n	8003170 <_printf_i+0x1f4>
 8003028:	6825      	ldr	r5, [r4, #0]
 800302a:	6808      	ldr	r0, [r1, #0]
 800302c:	062e      	lsls	r6, r5, #24
 800302e:	f100 0304 	add.w	r3, r0, #4
 8003032:	d50a      	bpl.n	800304a <_printf_i+0xce>
 8003034:	6805      	ldr	r5, [r0, #0]
 8003036:	600b      	str	r3, [r1, #0]
 8003038:	2d00      	cmp	r5, #0
 800303a:	da03      	bge.n	8003044 <_printf_i+0xc8>
 800303c:	232d      	movs	r3, #45	; 0x2d
 800303e:	426d      	negs	r5, r5
 8003040:	f884 3043 	strb.w	r3, [r4, #67]	; 0x43
 8003044:	485e      	ldr	r0, [pc, #376]	; (80031c0 <_printf_i+0x244>)
 8003046:	230a      	movs	r3, #10
 8003048:	e019      	b.n	800307e <_printf_i+0x102>
 800304a:	f015 0f40 	tst.w	r5, #64	; 0x40
 800304e:	6805      	ldr	r5, [r0, #0]
 8003050:	600b      	str	r3, [r1, #0]
 8003052:	bf18      	it	ne
 8003054:	b22d      	sxthne	r5, r5
 8003056:	e7ef      	b.n	8003038 <_printf_i+0xbc>
 8003058:	680b      	ldr	r3, [r1, #0]
 800305a:	6825      	ldr	r5, [r4, #0]
 800305c:	1d18      	adds	r0, r3, #4
 800305e:	6008      	str	r0, [r1, #0]
 8003060:	0628      	lsls	r0, r5, #24
 8003062:	d501      	bpl.n	8003068 <_printf_i+0xec>
 8003064:	681d      	ldr	r5, [r3, #0]
 8003066:	e002      	b.n	800306e <_printf_i+0xf2>
 8003068:	0669      	lsls	r1, r5, #25
 800306a:	d5fb      	bpl.n	8003064 <_printf_i+0xe8>
 800306c:	881d      	ldrh	r5, [r3, #0]
 800306e:	4854      	ldr	r0, [pc, #336]	; (80031c0 <_printf_i+0x244>)
 8003070:	2f6f      	cmp	r7, #111	; 0x6f
 8003072:	bf0c      	ite	eq
 8003074:	2308      	moveq	r3, #8
 8003076:	230a      	movne	r3, #10
 8003078:	2100      	movs	r1, #0
 800307a:	f884 1043 	strb.w	r1, [r4, #67]	; 0x43
 800307e:	6866      	ldr	r6, [r4, #4]
 8003080:	60a6      	str	r6, [r4, #8]
 8003082:	2e00      	cmp	r6, #0
 8003084:	bfa2      	ittt	ge
 8003086:	6821      	ldrge	r1, [r4, #0]
 8003088:	f021 0104 	bicge.w	r1, r1, #4
 800308c:	6021      	strge	r1, [r4, #0]
 800308e:	b90d      	cbnz	r5, 8003094 <_printf_i+0x118>
 8003090:	2e00      	cmp	r6, #0
 8003092:	d04d      	beq.n	8003130 <_printf_i+0x1b4>
 8003094:	4616      	mov	r6, r2
 8003096:	fbb5 f1f3 	udiv	r1, r5, r3
 800309a:	fb03 5711 	mls	r7, r3, r1, r5
 800309e:	5dc7      	ldrb	r7, [r0, r7]
 80030a0:	f806 7d01 	strb.w	r7, [r6, #-1]!
 80030a4:	462f      	mov	r7, r5
 80030a6:	42bb      	cmp	r3, r7
 80030a8:	460d      	mov	r5, r1
 80030aa:	d9f4      	bls.n	8003096 <_printf_i+0x11a>
 80030ac:	2b08      	cmp	r3, #8
 80030ae:	d10b      	bne.n	80030c8 <_printf_i+0x14c>
 80030b0:	6823      	ldr	r3, [r4, #0]
 80030b2:	07df      	lsls	r7, r3, #31
 80030b4:	d508      	bpl.n	80030c8 <_printf_i+0x14c>
 80030b6:	6923      	ldr	r3, [r4, #16]
 80030b8:	6861      	ldr	r1, [r4, #4]
 80030ba:	4299      	cmp	r1, r3
 80030bc:	bfde      	ittt	le
 80030be:	2330      	movle	r3, #48	; 0x30
 80030c0:	f806 3c01 	strble.w	r3, [r6, #-1]
 80030c4:	f106 36ff 	addle.w	r6, r6, #4294967295	; 0xffffffff
 80030c8:	1b92      	subs	r2, r2, r6
 80030ca:	6122      	str	r2, [r4, #16]
 80030cc:	f8cd a000 	str.w	sl, [sp]
 80030d0:	464b      	mov	r3, r9
 80030d2:	aa03      	add	r2, sp, #12
 80030d4:	4621      	mov	r1, r4
 80030d6:	4640      	mov	r0, r8
 80030d8:	f7ff fee2 	bl	8002ea0 <_printf_common>
 80030dc:	3001      	adds	r0, #1
 80030de:	d14c      	bne.n	800317a <_printf_i+0x1fe>
 80030e0:	f04f 30ff 	mov.w	r0, #4294967295	; 0xffffffff
 80030e4:	b004      	add	sp, #16
 80030e6:	e8bd 87f0 	ldmia.w	sp!, {r4, r5, r6, r7, r8, r9, sl, pc}
 80030ea:	4835      	ldr	r0, [pc, #212]	; (80031c0 <_printf_i+0x244>)
 80030ec:	f884 7045 	strb.w	r7, [r4, #69]	; 0x45
 80030f0:	6823      	ldr	r3, [r4, #0]
 80030f2:	680e      	ldr	r6, [r1, #0]
 80030f4:	061f      	lsls	r7, r3, #24
 80030f6:	f856 5b04 	ldr.w	r5, [r6], #4
 80030fa:	600e      	str	r6, [r1, #0]
 80030fc:	d514      	bpl.n	8003128 <_printf_i+0x1ac>
 80030fe:	07d9      	lsls	r1, r3, #31
 8003100:	bf44      	itt	mi
 8003102:	f043 0320 	orrmi.w	r3, r3, #32
 8003106:	6023      	strmi	r3, [r4, #0]
 8003108:	b91d      	cbnz	r5, 8003112 <_printf_i+0x196>
 800310a:	6823      	ldr	r3, [r4, #0]
 800310c:	f023 0320 	bic.w	r3, r3, #32
 8003110:	6023      	str	r3, [r4, #0]
 8003112:	2310      	movs	r3, #16
 8003114:	e7b0      	b.n	8003078 <_printf_i+0xfc>
 8003116:	6823      	ldr	r3, [r4, #0]
 8003118:	f043 0320 	orr.w	r3, r3, #32
 800311c:	6023      	str	r3, [r4, #0]
 800311e:	2378      	movs	r3, #120	; 0x78
 8003120:	4828      	ldr	r0, [pc, #160]	; (80031c4 <_printf_i+0x248>)
 8003122:	f884 3045 	strb.w	r3, [r4, #69]	; 0x45
 8003126:	e7e3      	b.n	80030f0 <_printf_i+0x174>
 8003128:	065e      	lsls	r6, r3, #25
 800312a:	bf48      	it	mi
 800312c:	b2ad      	uxthmi	r5, r5
 800312e:	e7e6      	b.n	80030fe <_printf_i+0x182>
 8003130:	4616      	mov	r6, r2
 8003132:	e7bb      	b.n	80030ac <_printf_i+0x130>
 8003134:	680b      	ldr	r3, [r1, #0]
 8003136:	6826      	ldr	r6, [r4, #0]
 8003138:	6960      	ldr	r0, [r4, #20]
 800313a:	1d1d      	adds	r5, r3, #4
 800313c:	600d      	str	r5, [r1, #0]
 800313e:	0635      	lsls	r5, r6, #24
 8003140:	681b      	ldr	r3, [r3, #0]
 8003142:	d501      	bpl.n	8003148 <_printf_i+0x1cc>
 8003144:	6018      	str	r0, [r3, #0]
 8003146:	e002      	b.n	800314e <_printf_i+0x1d2>
 8003148:	0671      	lsls	r1, r6, #25
 800314a:	d5fb      	bpl.n	8003144 <_printf_i+0x1c8>
 800314c:	8018      	strh	r0, [r3, #0]
 800314e:	2300      	movs	r3, #0
 8003150:	6123      	str	r3, [r4, #16]
 8003152:	4616      	mov	r6, r2
 8003154:	e7ba      	b.n	80030cc <_printf_i+0x150>
 8003156:	680b      	ldr	r3, [r1, #0]
 8003158:	1d1a      	adds	r2, r3, #4
 800315a:	600a      	str	r2, [r1, #0]
 800315c:	681e      	ldr	r6, [r3, #0]
 800315e:	6862      	ldr	r2, [r4, #4]
 8003160:	2100      	movs	r1, #0
 8003162:	4630      	mov	r0, r6
 8003164:	f7fd f83c 	bl	80001e0 <memchr>
 8003168:	b108      	cbz	r0, 800316e <_printf_i+0x1f2>
 800316a:	1b80      	subs	r0, r0, r6
 800316c:	6060      	str	r0, [r4, #4]
 800316e:	6863      	ldr	r3, [r4, #4]
 8003170:	6123      	str	r3, [r4, #16]
 8003172:	2300      	movs	r3, #0
 8003174:	f884 3043 	strb.w	r3, [r4, #67]	; 0x43
 8003178:	e7a8      	b.n	80030cc <_printf_i+0x150>
 800317a:	6923      	ldr	r3, [r4, #16]
 800317c:	4632      	mov	r2, r6
 800317e:	4649      	mov	r1, r9
 8003180:	4640      	mov	r0, r8
 8003182:	47d0      	blx	sl
 8003184:	3001      	adds	r0, #1
 8003186:	d0ab      	beq.n	80030e0 <_printf_i+0x164>
 8003188:	6823      	ldr	r3, [r4, #0]
 800318a:	079b      	lsls	r3, r3, #30
 800318c:	d413      	bmi.n	80031b6 <_printf_i+0x23a>
 800318e:	68e0      	ldr	r0, [r4, #12]
 8003190:	9b03      	ldr	r3, [sp, #12]
 8003192:	4298      	cmp	r0, r3
 8003194:	bfb8      	it	lt
 8003196:	4618      	movlt	r0, r3
 8003198:	e7a4      	b.n	80030e4 <_printf_i+0x168>
 800319a:	2301      	movs	r3, #1
 800319c:	4632      	mov	r2, r6
 800319e:	4649      	mov	r1, r9
 80031a0:	4640      	mov	r0, r8
 80031a2:	47d0      	blx	sl
 80031a4:	3001      	adds	r0, #1
 80031a6:	d09b      	beq.n	80030e0 <_printf_i+0x164>
 80031a8:	3501      	adds	r5, #1
 80031aa:	68e3      	ldr	r3, [r4, #12]
 80031ac:	9903      	ldr	r1, [sp, #12]
 80031ae:	1a5b      	subs	r3, r3, r1
 80031b0:	42ab      	cmp	r3, r5
 80031b2:	dcf2      	bgt.n	800319a <_printf_i+0x21e>
 80031b4:	e7eb      	b.n	800318e <_printf_i+0x212>
 80031b6:	2500      	movs	r5, #0
 80031b8:	f104 0619 	add.w	r6, r4, #25
 80031bc:	e7f5      	b.n	80031aa <_printf_i+0x22e>
 80031be:	bf00      	nop
 80031c0:	08003b84 	.word	0x08003b84
 80031c4:	08003b95 	.word	0x08003b95

080031c8 <_sbrk_r>:
 80031c8:	b538      	push	{r3, r4, r5, lr}
 80031ca:	4d06      	ldr	r5, [pc, #24]	; (80031e4 <_sbrk_r+0x1c>)
 80031cc:	2300      	movs	r3, #0
 80031ce:	4604      	mov	r4, r0
 80031d0:	4608      	mov	r0, r1
 80031d2:	602b      	str	r3, [r5, #0]
 80031d4:	f000 fc22 	bl	8003a1c <_sbrk>
 80031d8:	1c43      	adds	r3, r0, #1
 80031da:	d102      	bne.n	80031e2 <_sbrk_r+0x1a>
 80031dc:	682b      	ldr	r3, [r5, #0]
 80031de:	b103      	cbz	r3, 80031e2 <_sbrk_r+0x1a>
 80031e0:	6023      	str	r3, [r4, #0]
 80031e2:	bd38      	pop	{r3, r4, r5, pc}
 80031e4:	200000fc 	.word	0x200000fc

080031e8 <__swbuf_r>:
 80031e8:	b5f8      	push	{r3, r4, r5, r6, r7, lr}
 80031ea:	460e      	mov	r6, r1
 80031ec:	4614      	mov	r4, r2
 80031ee:	4605      	mov	r5, r0
 80031f0:	b118      	cbz	r0, 80031fa <__swbuf_r+0x12>
 80031f2:	6983      	ldr	r3, [r0, #24]
 80031f4:	b90b      	cbnz	r3, 80031fa <__swbuf_r+0x12>
 80031f6:	f000 f9d9 	bl	80035ac <__sinit>
 80031fa:	4b21      	ldr	r3, [pc, #132]	; (8003280 <__swbuf_r+0x98>)
 80031fc:	429c      	cmp	r4, r3
 80031fe:	d12b      	bne.n	8003258 <__swbuf_r+0x70>
 8003200:	686c      	ldr	r4, [r5, #4]
 8003202:	69a3      	ldr	r3, [r4, #24]
 8003204:	60a3      	str	r3, [r4, #8]
 8003206:	89a3      	ldrh	r3, [r4, #12]
 8003208:	071a      	lsls	r2, r3, #28
 800320a:	d52f      	bpl.n	800326c <__swbuf_r+0x84>
 800320c:	6923      	ldr	r3, [r4, #16]
 800320e:	b36b      	cbz	r3, 800326c <__swbuf_r+0x84>
 8003210:	6923      	ldr	r3, [r4, #16]
 8003212:	6820      	ldr	r0, [r4, #0]
 8003214:	1ac0      	subs	r0, r0, r3
 8003216:	6963      	ldr	r3, [r4, #20]
 8003218:	b2f6      	uxtb	r6, r6
 800321a:	4283      	cmp	r3, r0
 800321c:	4637      	mov	r7, r6
 800321e:	dc04      	bgt.n	800322a <__swbuf_r+0x42>
 8003220:	4621      	mov	r1, r4
 8003222:	4628      	mov	r0, r5
 8003224:	f000 f92e 	bl	8003484 <_fflush_r>
 8003228:	bb30      	cbnz	r0, 8003278 <__swbuf_r+0x90>
 800322a:	68a3      	ldr	r3, [r4, #8]
 800322c:	3b01      	subs	r3, #1
 800322e:	60a3      	str	r3, [r4, #8]
 8003230:	6823      	ldr	r3, [r4, #0]
 8003232:	1c5a      	adds	r2, r3, #1
 8003234:	6022      	str	r2, [r4, #0]
 8003236:	701e      	strb	r6, [r3, #0]
 8003238:	6963      	ldr	r3, [r4, #20]
 800323a:	3001      	adds	r0, #1
 800323c:	4283      	cmp	r3, r0
 800323e:	d004      	beq.n	800324a <__swbuf_r+0x62>
 8003240:	89a3      	ldrh	r3, [r4, #12]
 8003242:	07db      	lsls	r3, r3, #31
 8003244:	d506      	bpl.n	8003254 <__swbuf_r+0x6c>
 8003246:	2e0a      	cmp	r6, #10
 8003248:	d104      	bne.n	8003254 <__swbuf_r+0x6c>
 800324a:	4621      	mov	r1, r4
 800324c:	4628      	mov	r0, r5
 800324e:	f000 f919 	bl	8003484 <_fflush_r>
 8003252:	b988      	cbnz	r0, 8003278 <__swbuf_r+0x90>
 8003254:	4638      	mov	r0, r7
 8003256:	bdf8      	pop	{r3, r4, r5, r6, r7, pc}
 8003258:	4b0a      	ldr	r3, [pc, #40]	; (8003284 <__swbuf_r+0x9c>)
 800325a:	429c      	cmp	r4, r3
 800325c:	d101      	bne.n	8003262 <__swbuf_r+0x7a>
 800325e:	68ac      	ldr	r4, [r5, #8]
 8003260:	e7cf      	b.n	8003202 <__swbuf_r+0x1a>
 8003262:	4b09      	ldr	r3, [pc, #36]	; (8003288 <__swbuf_r+0xa0>)
 8003264:	429c      	cmp	r4, r3
 8003266:	bf08      	it	eq
 8003268:	68ec      	ldreq	r4, [r5, #12]
 800326a:	e7ca      	b.n	8003202 <__swbuf_r+0x1a>
 800326c:	4621      	mov	r1, r4
 800326e:	4628      	mov	r0, r5
 8003270:	f000 f80c 	bl	800328c <__swsetup_r>
 8003274:	2800      	cmp	r0, #0
 8003276:	d0cb      	beq.n	8003210 <__swbuf_r+0x28>
 8003278:	f04f 37ff 	mov.w	r7, #4294967295	; 0xffffffff
 800327c:	e7ea      	b.n	8003254 <__swbuf_r+0x6c>
 800327e:	bf00      	nop
 8003280:	08003bc8 	.word	0x08003bc8
 8003284:	08003be8 	.word	0x08003be8
 8003288:	08003ba8 	.word	0x08003ba8

0800328c <__swsetup_r>:
 800328c:	4b32      	ldr	r3, [pc, #200]	; (8003358 <__swsetup_r+0xcc>)
 800328e:	b570      	push	{r4, r5, r6, lr}
 8003290:	681d      	ldr	r5, [r3, #0]
 8003292:	4606      	mov	r6, r0
 8003294:	460c      	mov	r4, r1
 8003296:	b125      	cbz	r5, 80032a2 <__swsetup_r+0x16>
 8003298:	69ab      	ldr	r3, [r5, #24]
 800329a:	b913      	cbnz	r3, 80032a2 <__swsetup_r+0x16>
 800329c:	4628      	mov	r0, r5
 800329e:	f000 f985 	bl	80035ac <__sinit>
 80032a2:	4b2e      	ldr	r3, [pc, #184]	; (800335c <__swsetup_r+0xd0>)
 80032a4:	429c      	cmp	r4, r3
 80032a6:	d10f      	bne.n	80032c8 <__swsetup_r+0x3c>
 80032a8:	686c      	ldr	r4, [r5, #4]
 80032aa:	89a3      	ldrh	r3, [r4, #12]
 80032ac:	f9b4 200c 	ldrsh.w	r2, [r4, #12]
 80032b0:	0719      	lsls	r1, r3, #28
 80032b2:	d42c      	bmi.n	800330e <__swsetup_r+0x82>
 80032b4:	06dd      	lsls	r5, r3, #27
 80032b6:	d411      	bmi.n	80032dc <__swsetup_r+0x50>
 80032b8:	2309      	movs	r3, #9
 80032ba:	6033      	str	r3, [r6, #0]
 80032bc:	f042 0340 	orr.w	r3, r2, #64	; 0x40
 80032c0:	81a3      	strh	r3, [r4, #12]
 80032c2:	f04f 30ff 	mov.w	r0, #4294967295	; 0xffffffff
 80032c6:	e03e      	b.n	8003346 <__swsetup_r+0xba>
 80032c8:	4b25      	ldr	r3, [pc, #148]	; (8003360 <__swsetup_r+0xd4>)
 80032ca:	429c      	cmp	r4, r3
 80032cc:	d101      	bne.n	80032d2 <__swsetup_r+0x46>
 80032ce:	68ac      	ldr	r4, [r5, #8]
 80032d0:	e7eb      	b.n	80032aa <__swsetup_r+0x1e>
 80032d2:	4b24      	ldr	r3, [pc, #144]	; (8003364 <__swsetup_r+0xd8>)
 80032d4:	429c      	cmp	r4, r3
 80032d6:	bf08      	it	eq
 80032d8:	68ec      	ldreq	r4, [r5, #12]
 80032da:	e7e6      	b.n	80032aa <__swsetup_r+0x1e>
 80032dc:	0758      	lsls	r0, r3, #29
 80032de:	d512      	bpl.n	8003306 <__swsetup_r+0x7a>
 80032e0:	6b61      	ldr	r1, [r4, #52]	; 0x34
 80032e2:	b141      	cbz	r1, 80032f6 <__swsetup_r+0x6a>
 80032e4:	f104 0344 	add.w	r3, r4, #68	; 0x44
 80032e8:	4299      	cmp	r1, r3
 80032ea:	d002      	beq.n	80032f2 <__swsetup_r+0x66>
 80032ec:	4630      	mov	r0, r6
 80032ee:	f7ff fbd3 	bl	8002a98 <_free_r>
 80032f2:	2300      	movs	r3, #0
 80032f4:	6363      	str	r3, [r4, #52]	; 0x34
 80032f6:	89a3      	ldrh	r3, [r4, #12]
 80032f8:	f023 0324 	bic.w	r3, r3, #36	; 0x24
 80032fc:	81a3      	strh	r3, [r4, #12]
 80032fe:	2300      	movs	r3, #0
 8003300:	6063      	str	r3, [r4, #4]
 8003302:	6923      	ldr	r3, [r4, #16]
 8003304:	6023      	str	r3, [r4, #0]
 8003306:	89a3      	ldrh	r3, [r4, #12]
 8003308:	f043 0308 	orr.w	r3, r3, #8
 800330c:	81a3      	strh	r3, [r4, #12]
 800330e:	6923      	ldr	r3, [r4, #16]
 8003310:	b94b      	cbnz	r3, 8003326 <__swsetup_r+0x9a>
 8003312:	89a3      	ldrh	r3, [r4, #12]
 8003314:	f403 7320 	and.w	r3, r3, #640	; 0x280
 8003318:	f5b3 7f00 	cmp.w	r3, #512	; 0x200
 800331c:	d003      	beq.n	8003326 <__swsetup_r+0x9a>
 800331e:	4621      	mov	r1, r4
 8003320:	4630      	mov	r0, r6
 8003322:	f000 fa07 	bl	8003734 <__smakebuf_r>
 8003326:	89a0      	ldrh	r0, [r4, #12]
 8003328:	f9b4 200c 	ldrsh.w	r2, [r4, #12]
 800332c:	f010 0301 	ands.w	r3, r0, #1
 8003330:	d00a      	beq.n	8003348 <__swsetup_r+0xbc>
 8003332:	2300      	movs	r3, #0
 8003334:	60a3      	str	r3, [r4, #8]
 8003336:	6963      	ldr	r3, [r4, #20]
 8003338:	425b      	negs	r3, r3
 800333a:	61a3      	str	r3, [r4, #24]
 800333c:	6923      	ldr	r3, [r4, #16]
 800333e:	b943      	cbnz	r3, 8003352 <__swsetup_r+0xc6>
 8003340:	f010 0080 	ands.w	r0, r0, #128	; 0x80
 8003344:	d1ba      	bne.n	80032bc <__swsetup_r+0x30>
 8003346:	bd70      	pop	{r4, r5, r6, pc}
 8003348:	0781      	lsls	r1, r0, #30
 800334a:	bf58      	it	pl
 800334c:	6963      	ldrpl	r3, [r4, #20]
 800334e:	60a3      	str	r3, [r4, #8]
 8003350:	e7f4      	b.n	800333c <__swsetup_r+0xb0>
 8003352:	2000      	movs	r0, #0
 8003354:	e7f7      	b.n	8003346 <__swsetup_r+0xba>
 8003356:	bf00      	nop
 8003358:	2000000c 	.word	0x2000000c
 800335c:	08003bc8 	.word	0x08003bc8
 8003360:	08003be8 	.word	0x08003be8
 8003364:	08003ba8 	.word	0x08003ba8

08003368 <abort>:
 8003368:	b508      	push	{r3, lr}
 800336a:	2006      	movs	r0, #6
 800336c:	f000 fa56 	bl	800381c <raise>
 8003370:	2001      	movs	r0, #1
 8003372:	f000 fb69 	bl	8003a48 <_exit>
	...

08003378 <__sflush_r>:
 8003378:	898a      	ldrh	r2, [r1, #12]
 800337a:	e92d 41f0 	stmdb	sp!, {r4, r5, r6, r7, r8, lr}
 800337e:	4605      	mov	r5, r0
 8003380:	0710      	lsls	r0, r2, #28
 8003382:	460c      	mov	r4, r1
 8003384:	d458      	bmi.n	8003438 <__sflush_r+0xc0>
 8003386:	684b      	ldr	r3, [r1, #4]
 8003388:	2b00      	cmp	r3, #0
 800338a:	dc05      	bgt.n	8003398 <__sflush_r+0x20>
 800338c:	6c0b      	ldr	r3, [r1, #64]	; 0x40
 800338e:	2b00      	cmp	r3, #0
 8003390:	dc02      	bgt.n	8003398 <__sflush_r+0x20>
 8003392:	2000      	movs	r0, #0
 8003394:	e8bd 81f0 	ldmia.w	sp!, {r4, r5, r6, r7, r8, pc}
 8003398:	6ae6      	ldr	r6, [r4, #44]	; 0x2c
 800339a:	2e00      	cmp	r6, #0
 800339c:	d0f9      	beq.n	8003392 <__sflush_r+0x1a>
 800339e:	2300      	movs	r3, #0
 80033a0:	f412 5280 	ands.w	r2, r2, #4096	; 0x1000
 80033a4:	682f      	ldr	r7, [r5, #0]
 80033a6:	602b      	str	r3, [r5, #0]
 80033a8:	d032      	beq.n	8003410 <__sflush_r+0x98>
 80033aa:	6d60      	ldr	r0, [r4, #84]	; 0x54
 80033ac:	89a3      	ldrh	r3, [r4, #12]
 80033ae:	075a      	lsls	r2, r3, #29
 80033b0:	d505      	bpl.n	80033be <__sflush_r+0x46>
 80033b2:	6863      	ldr	r3, [r4, #4]
 80033b4:	1ac0      	subs	r0, r0, r3
 80033b6:	6b63      	ldr	r3, [r4, #52]	; 0x34
 80033b8:	b10b      	cbz	r3, 80033be <__sflush_r+0x46>
 80033ba:	6c23      	ldr	r3, [r4, #64]	; 0x40
 80033bc:	1ac0      	subs	r0, r0, r3
 80033be:	2300      	movs	r3, #0
 80033c0:	4602      	mov	r2, r0
 80033c2:	6ae6      	ldr	r6, [r4, #44]	; 0x2c
 80033c4:	6a21      	ldr	r1, [r4, #32]
 80033c6:	4628      	mov	r0, r5
 80033c8:	47b0      	blx	r6
 80033ca:	1c43      	adds	r3, r0, #1
 80033cc:	89a3      	ldrh	r3, [r4, #12]
 80033ce:	d106      	bne.n	80033de <__sflush_r+0x66>
 80033d0:	6829      	ldr	r1, [r5, #0]
 80033d2:	291d      	cmp	r1, #29
 80033d4:	d82c      	bhi.n	8003430 <__sflush_r+0xb8>
 80033d6:	4a2a      	ldr	r2, [pc, #168]	; (8003480 <__sflush_r+0x108>)
 80033d8:	40ca      	lsrs	r2, r1
 80033da:	07d6      	lsls	r6, r2, #31
 80033dc:	d528      	bpl.n	8003430 <__sflush_r+0xb8>
 80033de:	2200      	movs	r2, #0
 80033e0:	6062      	str	r2, [r4, #4]
 80033e2:	04d9      	lsls	r1, r3, #19
 80033e4:	6922      	ldr	r2, [r4, #16]
 80033e6:	6022      	str	r2, [r4, #0]
 80033e8:	d504      	bpl.n	80033f4 <__sflush_r+0x7c>
 80033ea:	1c42      	adds	r2, r0, #1
 80033ec:	d101      	bne.n	80033f2 <__sflush_r+0x7a>
 80033ee:	682b      	ldr	r3, [r5, #0]
 80033f0:	b903      	cbnz	r3, 80033f4 <__sflush_r+0x7c>
 80033f2:	6560      	str	r0, [r4, #84]	; 0x54
 80033f4:	6b61      	ldr	r1, [r4, #52]	; 0x34
 80033f6:	602f      	str	r7, [r5, #0]
 80033f8:	2900      	cmp	r1, #0
 80033fa:	d0ca      	beq.n	8003392 <__sflush_r+0x1a>
 80033fc:	f104 0344 	add.w	r3, r4, #68	; 0x44
 8003400:	4299      	cmp	r1, r3
 8003402:	d002      	beq.n	800340a <__sflush_r+0x92>
 8003404:	4628      	mov	r0, r5
 8003406:	f7ff fb47 	bl	8002a98 <_free_r>
 800340a:	2000      	movs	r0, #0
 800340c:	6360      	str	r0, [r4, #52]	; 0x34
 800340e:	e7c1      	b.n	8003394 <__sflush_r+0x1c>
 8003410:	6a21      	ldr	r1, [r4, #32]
 8003412:	2301      	movs	r3, #1
 8003414:	4628      	mov	r0, r5
 8003416:	47b0      	blx	r6
 8003418:	1c41      	adds	r1, r0, #1
 800341a:	d1c7      	bne.n	80033ac <__sflush_r+0x34>
 800341c:	682b      	ldr	r3, [r5, #0]
 800341e:	2b00      	cmp	r3, #0
 8003420:	d0c4      	beq.n	80033ac <__sflush_r+0x34>
 8003422:	2b1d      	cmp	r3, #29
 8003424:	d001      	beq.n	800342a <__sflush_r+0xb2>
 8003426:	2b16      	cmp	r3, #22
 8003428:	d101      	bne.n	800342e <__sflush_r+0xb6>
 800342a:	602f      	str	r7, [r5, #0]
 800342c:	e7b1      	b.n	8003392 <__sflush_r+0x1a>
 800342e:	89a3      	ldrh	r3, [r4, #12]
 8003430:	f043 0340 	orr.w	r3, r3, #64	; 0x40
 8003434:	81a3      	strh	r3, [r4, #12]
 8003436:	e7ad      	b.n	8003394 <__sflush_r+0x1c>
 8003438:	690f      	ldr	r7, [r1, #16]
 800343a:	2f00      	cmp	r7, #0
 800343c:	d0a9      	beq.n	8003392 <__sflush_r+0x1a>
 800343e:	0793      	lsls	r3, r2, #30
 8003440:	680e      	ldr	r6, [r1, #0]
 8003442:	bf08      	it	eq
 8003444:	694b      	ldreq	r3, [r1, #20]
 8003446:	600f      	str	r7, [r1, #0]
 8003448:	bf18      	it	ne
 800344a:	2300      	movne	r3, #0
 800344c:	eba6 0807 	sub.w	r8, r6, r7
 8003450:	608b      	str	r3, [r1, #8]
 8003452:	f1b8 0f00 	cmp.w	r8, #0
 8003456:	dd9c      	ble.n	8003392 <__sflush_r+0x1a>
 8003458:	6a21      	ldr	r1, [r4, #32]
 800345a:	6aa6      	ldr	r6, [r4, #40]	; 0x28
 800345c:	4643      	mov	r3, r8
 800345e:	463a      	mov	r2, r7
 8003460:	4628      	mov	r0, r5
 8003462:	47b0      	blx	r6
 8003464:	2800      	cmp	r0, #0
 8003466:	dc06      	bgt.n	8003476 <__sflush_r+0xfe>
 8003468:	89a3      	ldrh	r3, [r4, #12]
 800346a:	f043 0340 	orr.w	r3, r3, #64	; 0x40
 800346e:	81a3      	strh	r3, [r4, #12]
 8003470:	f04f 30ff 	mov.w	r0, #4294967295	; 0xffffffff
 8003474:	e78e      	b.n	8003394 <__sflush_r+0x1c>
 8003476:	4407      	add	r7, r0
 8003478:	eba8 0800 	sub.w	r8, r8, r0
 800347c:	e7e9      	b.n	8003452 <__sflush_r+0xda>
 800347e:	bf00      	nop
 8003480:	20400001 	.word	0x20400001

08003484 <_fflush_r>:
 8003484:	b538      	push	{r3, r4, r5, lr}
 8003486:	690b      	ldr	r3, [r1, #16]
 8003488:	4605      	mov	r5, r0
 800348a:	460c      	mov	r4, r1
 800348c:	b913      	cbnz	r3, 8003494 <_fflush_r+0x10>
 800348e:	2500      	movs	r5, #0
 8003490:	4628      	mov	r0, r5
 8003492:	bd38      	pop	{r3, r4, r5, pc}
 8003494:	b118      	cbz	r0, 800349e <_fflush_r+0x1a>
 8003496:	6983      	ldr	r3, [r0, #24]
 8003498:	b90b      	cbnz	r3, 800349e <_fflush_r+0x1a>
 800349a:	f000 f887 	bl	80035ac <__sinit>
 800349e:	4b14      	ldr	r3, [pc, #80]	; (80034f0 <_fflush_r+0x6c>)
 80034a0:	429c      	cmp	r4, r3
 80034a2:	d11b      	bne.n	80034dc <_fflush_r+0x58>
 80034a4:	686c      	ldr	r4, [r5, #4]
 80034a6:	f9b4 300c 	ldrsh.w	r3, [r4, #12]
 80034aa:	2b00      	cmp	r3, #0
 80034ac:	d0ef      	beq.n	800348e <_fflush_r+0xa>
 80034ae:	6e62      	ldr	r2, [r4, #100]	; 0x64
 80034b0:	07d0      	lsls	r0, r2, #31
 80034b2:	d404      	bmi.n	80034be <_fflush_r+0x3a>
 80034b4:	0599      	lsls	r1, r3, #22
 80034b6:	d402      	bmi.n	80034be <_fflush_r+0x3a>
 80034b8:	6da0      	ldr	r0, [r4, #88]	; 0x58
 80034ba:	f000 f915 	bl	80036e8 <__retarget_lock_acquire_recursive>
 80034be:	4628      	mov	r0, r5
 80034c0:	4621      	mov	r1, r4
 80034c2:	f7ff ff59 	bl	8003378 <__sflush_r>
 80034c6:	6e63      	ldr	r3, [r4, #100]	; 0x64
 80034c8:	07da      	lsls	r2, r3, #31
 80034ca:	4605      	mov	r5, r0
 80034cc:	d4e0      	bmi.n	8003490 <_fflush_r+0xc>
 80034ce:	89a3      	ldrh	r3, [r4, #12]
 80034d0:	059b      	lsls	r3, r3, #22
 80034d2:	d4dd      	bmi.n	8003490 <_fflush_r+0xc>
 80034d4:	6da0      	ldr	r0, [r4, #88]	; 0x58
 80034d6:	f000 f908 	bl	80036ea <__retarget_lock_release_recursive>
 80034da:	e7d9      	b.n	8003490 <_fflush_r+0xc>
 80034dc:	4b05      	ldr	r3, [pc, #20]	; (80034f4 <_fflush_r+0x70>)
 80034de:	429c      	cmp	r4, r3
 80034e0:	d101      	bne.n	80034e6 <_fflush_r+0x62>
 80034e2:	68ac      	ldr	r4, [r5, #8]
 80034e4:	e7df      	b.n	80034a6 <_fflush_r+0x22>
 80034e6:	4b04      	ldr	r3, [pc, #16]	; (80034f8 <_fflush_r+0x74>)
 80034e8:	429c      	cmp	r4, r3
 80034ea:	bf08      	it	eq
 80034ec:	68ec      	ldreq	r4, [r5, #12]
 80034ee:	e7da      	b.n	80034a6 <_fflush_r+0x22>
 80034f0:	08003bc8 	.word	0x08003bc8
 80034f4:	08003be8 	.word	0x08003be8
 80034f8:	08003ba8 	.word	0x08003ba8

080034fc <std>:
 80034fc:	2300      	movs	r3, #0
 80034fe:	b510      	push	{r4, lr}
 8003500:	4604      	mov	r4, r0
 8003502:	e9c0 3300 	strd	r3, r3, [r0]
 8003506:	e9c0 3304 	strd	r3, r3, [r0, #16]
 800350a:	6083      	str	r3, [r0, #8]
 800350c:	8181      	strh	r1, [r0, #12]
 800350e:	6643      	str	r3, [r0, #100]	; 0x64
 8003510:	81c2      	strh	r2, [r0, #14]
 8003512:	6183      	str	r3, [r0, #24]
 8003514:	4619      	mov	r1, r3
 8003516:	2208      	movs	r2, #8
 8003518:	305c      	adds	r0, #92	; 0x5c
 800351a:	f7ff fa3d 	bl	8002998 <memset>
 800351e:	4b05      	ldr	r3, [pc, #20]	; (8003534 <std+0x38>)
 8003520:	6263      	str	r3, [r4, #36]	; 0x24
 8003522:	4b05      	ldr	r3, [pc, #20]	; (8003538 <std+0x3c>)
 8003524:	62a3      	str	r3, [r4, #40]	; 0x28
 8003526:	4b05      	ldr	r3, [pc, #20]	; (800353c <std+0x40>)
 8003528:	62e3      	str	r3, [r4, #44]	; 0x2c
 800352a:	4b05      	ldr	r3, [pc, #20]	; (8003540 <std+0x44>)
 800352c:	6224      	str	r4, [r4, #32]
 800352e:	6323      	str	r3, [r4, #48]	; 0x30
 8003530:	bd10      	pop	{r4, pc}
 8003532:	bf00      	nop
 8003534:	08003855 	.word	0x08003855
 8003538:	08003877 	.word	0x08003877
 800353c:	080038af 	.word	0x080038af
 8003540:	080038d3 	.word	0x080038d3

08003544 <_cleanup_r>:
 8003544:	4901      	ldr	r1, [pc, #4]	; (800354c <_cleanup_r+0x8>)
 8003546:	f000 b8af 	b.w	80036a8 <_fwalk_reent>
 800354a:	bf00      	nop
 800354c:	08003485 	.word	0x08003485

08003550 <__sfmoreglue>:
 8003550:	b570      	push	{r4, r5, r6, lr}
 8003552:	1e4a      	subs	r2, r1, #1
 8003554:	2568      	movs	r5, #104	; 0x68
 8003556:	4355      	muls	r5, r2
 8003558:	460e      	mov	r6, r1
 800355a:	f105 0174 	add.w	r1, r5, #116	; 0x74
 800355e:	f7ff faeb 	bl	8002b38 <_malloc_r>
 8003562:	4604      	mov	r4, r0
 8003564:	b140      	cbz	r0, 8003578 <__sfmoreglue+0x28>
 8003566:	2100      	movs	r1, #0
 8003568:	e9c0 1600 	strd	r1, r6, [r0]
 800356c:	300c      	adds	r0, #12
 800356e:	60a0      	str	r0, [r4, #8]
 8003570:	f105 0268 	add.w	r2, r5, #104	; 0x68
 8003574:	f7ff fa10 	bl	8002998 <memset>
 8003578:	4620      	mov	r0, r4
 800357a:	bd70      	pop	{r4, r5, r6, pc}

0800357c <__sfp_lock_acquire>:
 800357c:	4801      	ldr	r0, [pc, #4]	; (8003584 <__sfp_lock_acquire+0x8>)
 800357e:	f000 b8b3 	b.w	80036e8 <__retarget_lock_acquire_recursive>
 8003582:	bf00      	nop
 8003584:	200000f8 	.word	0x200000f8

08003588 <__sfp_lock_release>:
 8003588:	4801      	ldr	r0, [pc, #4]	; (8003590 <__sfp_lock_release+0x8>)
 800358a:	f000 b8ae 	b.w	80036ea <__retarget_lock_release_recursive>
 800358e:	bf00      	nop
 8003590:	200000f8 	.word	0x200000f8

08003594 <__sinit_lock_acquire>:
 8003594:	4801      	ldr	r0, [pc, #4]	; (800359c <__sinit_lock_acquire+0x8>)
 8003596:	f000 b8a7 	b.w	80036e8 <__retarget_lock_acquire_recursive>
 800359a:	bf00      	nop
 800359c:	200000f3 	.word	0x200000f3

080035a0 <__sinit_lock_release>:
 80035a0:	4801      	ldr	r0, [pc, #4]	; (80035a8 <__sinit_lock_release+0x8>)
 80035a2:	f000 b8a2 	b.w	80036ea <__retarget_lock_release_recursive>
 80035a6:	bf00      	nop
 80035a8:	200000f3 	.word	0x200000f3

080035ac <__sinit>:
 80035ac:	b510      	push	{r4, lr}
 80035ae:	4604      	mov	r4, r0
 80035b0:	f7ff fff0 	bl	8003594 <__sinit_lock_acquire>
 80035b4:	69a3      	ldr	r3, [r4, #24]
 80035b6:	b11b      	cbz	r3, 80035c0 <__sinit+0x14>
 80035b8:	e8bd 4010 	ldmia.w	sp!, {r4, lr}
 80035bc:	f7ff bff0 	b.w	80035a0 <__sinit_lock_release>
 80035c0:	e9c4 3312 	strd	r3, r3, [r4, #72]	; 0x48
 80035c4:	6523      	str	r3, [r4, #80]	; 0x50
 80035c6:	4b13      	ldr	r3, [pc, #76]	; (8003614 <__sinit+0x68>)
 80035c8:	4a13      	ldr	r2, [pc, #76]	; (8003618 <__sinit+0x6c>)
 80035ca:	681b      	ldr	r3, [r3, #0]
 80035cc:	62a2      	str	r2, [r4, #40]	; 0x28
 80035ce:	42a3      	cmp	r3, r4
 80035d0:	bf04      	itt	eq
 80035d2:	2301      	moveq	r3, #1
 80035d4:	61a3      	streq	r3, [r4, #24]
 80035d6:	4620      	mov	r0, r4
 80035d8:	f000 f820 	bl	800361c <__sfp>
 80035dc:	6060      	str	r0, [r4, #4]
 80035de:	4620      	mov	r0, r4
 80035e0:	f000 f81c 	bl	800361c <__sfp>
 80035e4:	60a0      	str	r0, [r4, #8]
 80035e6:	4620      	mov	r0, r4
 80035e8:	f000 f818 	bl	800361c <__sfp>
 80035ec:	2200      	movs	r2, #0
 80035ee:	60e0      	str	r0, [r4, #12]
 80035f0:	2104      	movs	r1, #4
 80035f2:	6860      	ldr	r0, [r4, #4]
 80035f4:	f7ff ff82 	bl	80034fc <std>
 80035f8:	68a0      	ldr	r0, [r4, #8]
 80035fa:	2201      	movs	r2, #1
 80035fc:	2109      	movs	r1, #9
 80035fe:	f7ff ff7d 	bl	80034fc <std>
 8003602:	68e0      	ldr	r0, [r4, #12]
 8003604:	2202      	movs	r2, #2
 8003606:	2112      	movs	r1, #18
 8003608:	f7ff ff78 	bl	80034fc <std>
 800360c:	2301      	movs	r3, #1
 800360e:	61a3      	str	r3, [r4, #24]
 8003610:	e7d2      	b.n	80035b8 <__sinit+0xc>
 8003612:	bf00      	nop
 8003614:	08003aa0 	.word	0x08003aa0
 8003618:	08003545 	.word	0x08003545

0800361c <__sfp>:
 800361c:	b5f8      	push	{r3, r4, r5, r6, r7, lr}
 800361e:	4607      	mov	r7, r0
 8003620:	f7ff ffac 	bl	800357c <__sfp_lock_acquire>
 8003624:	4b1e      	ldr	r3, [pc, #120]	; (80036a0 <__sfp+0x84>)
 8003626:	681e      	ldr	r6, [r3, #0]
 8003628:	69b3      	ldr	r3, [r6, #24]
 800362a:	b913      	cbnz	r3, 8003632 <__sfp+0x16>
 800362c:	4630      	mov	r0, r6
 800362e:	f7ff ffbd 	bl	80035ac <__sinit>
 8003632:	3648      	adds	r6, #72	; 0x48
 8003634:	e9d6 3401 	ldrd	r3, r4, [r6, #4]
 8003638:	3b01      	subs	r3, #1
 800363a:	d503      	bpl.n	8003644 <__sfp+0x28>
 800363c:	6833      	ldr	r3, [r6, #0]
 800363e:	b30b      	cbz	r3, 8003684 <__sfp+0x68>
 8003640:	6836      	ldr	r6, [r6, #0]
 8003642:	e7f7      	b.n	8003634 <__sfp+0x18>
 8003644:	f9b4 500c 	ldrsh.w	r5, [r4, #12]
 8003648:	b9d5      	cbnz	r5, 8003680 <__sfp+0x64>
 800364a:	4b16      	ldr	r3, [pc, #88]	; (80036a4 <__sfp+0x88>)
 800364c:	60e3      	str	r3, [r4, #12]
 800364e:	f104 0058 	add.w	r0, r4, #88	; 0x58
 8003652:	6665      	str	r5, [r4, #100]	; 0x64
 8003654:	f000 f847 	bl	80036e6 <__retarget_lock_init_recursive>
 8003658:	f7ff ff96 	bl	8003588 <__sfp_lock_release>
 800365c:	e9c4 5501 	strd	r5, r5, [r4, #4]
 8003660:	e9c4 5504 	strd	r5, r5, [r4, #16]
 8003664:	6025      	str	r5, [r4, #0]
 8003666:	61a5      	str	r5, [r4, #24]
 8003668:	2208      	movs	r2, #8
 800366a:	4629      	mov	r1, r5
 800366c:	f104 005c 	add.w	r0, r4, #92	; 0x5c
 8003670:	f7ff f992 	bl	8002998 <memset>
 8003674:	e9c4 550d 	strd	r5, r5, [r4, #52]	; 0x34
 8003678:	e9c4 5512 	strd	r5, r5, [r4, #72]	; 0x48
 800367c:	4620      	mov	r0, r4
 800367e:	bdf8      	pop	{r3, r4, r5, r6, r7, pc}
 8003680:	3468      	adds	r4, #104	; 0x68
 8003682:	e7d9      	b.n	8003638 <__sfp+0x1c>
 8003684:	2104      	movs	r1, #4
 8003686:	4638      	mov	r0, r7
 8003688:	f7ff ff62 	bl	8003550 <__sfmoreglue>
 800368c:	4604      	mov	r4, r0
 800368e:	6030      	str	r0, [r6, #0]
 8003690:	2800      	cmp	r0, #0
 8003692:	d1d5      	bne.n	8003640 <__sfp+0x24>
 8003694:	f7ff ff78 	bl	8003588 <__sfp_lock_release>
 8003698:	230c      	movs	r3, #12
 800369a:	603b      	str	r3, [r7, #0]
 800369c:	e7ee      	b.n	800367c <__sfp+0x60>
 800369e:	bf00      	nop
 80036a0:	08003aa0 	.word	0x08003aa0
 80036a4:	ffff0001 	.word	0xffff0001

080036a8 <_fwalk_reent>:
 80036a8:	e92d 43f8 	stmdb	sp!, {r3, r4, r5, r6, r7, r8, r9, lr}
 80036ac:	4606      	mov	r6, r0
 80036ae:	4688      	mov	r8, r1
 80036b0:	f100 0448 	add.w	r4, r0, #72	; 0x48
 80036b4:	2700      	movs	r7, #0
 80036b6:	e9d4 9501 	ldrd	r9, r5, [r4, #4]
 80036ba:	f1b9 0901 	subs.w	r9, r9, #1
 80036be:	d505      	bpl.n	80036cc <_fwalk_reent+0x24>
 80036c0:	6824      	ldr	r4, [r4, #0]
 80036c2:	2c00      	cmp	r4, #0
 80036c4:	d1f7      	bne.n	80036b6 <_fwalk_reent+0xe>
 80036c6:	4638      	mov	r0, r7
 80036c8:	e8bd 83f8 	ldmia.w	sp!, {r3, r4, r5, r6, r7, r8, r9, pc}
 80036cc:	89ab      	ldrh	r3, [r5, #12]
 80036ce:	2b01      	cmp	r3, #1
 80036d0:	d907      	bls.n	80036e2 <_fwalk_reent+0x3a>
 80036d2:	f9b5 300e 	ldrsh.w	r3, [r5, #14]
 80036d6:	3301      	adds	r3, #1
 80036d8:	d003      	beq.n	80036e2 <_fwalk_reent+0x3a>
 80036da:	4629      	mov	r1, r5
 80036dc:	4630      	mov	r0, r6
 80036de:	47c0      	blx	r8
 80036e0:	4307      	orrs	r7, r0
 80036e2:	3568      	adds	r5, #104	; 0x68
 80036e4:	e7e9      	b.n	80036ba <_fwalk_reent+0x12>

080036e6 <__retarget_lock_init_recursive>:
 80036e6:	4770      	bx	lr

080036e8 <__retarget_lock_acquire_recursive>:
 80036e8:	4770      	bx	lr

080036ea <__retarget_lock_release_recursive>:
 80036ea:	4770      	bx	lr

080036ec <__swhatbuf_r>:
 80036ec:	b570      	push	{r4, r5, r6, lr}
 80036ee:	460e      	mov	r6, r1
 80036f0:	f9b1 100e 	ldrsh.w	r1, [r1, #14]
 80036f4:	2900      	cmp	r1, #0
 80036f6:	b096      	sub	sp, #88	; 0x58
 80036f8:	4614      	mov	r4, r2
 80036fa:	461d      	mov	r5, r3
 80036fc:	da07      	bge.n	800370e <__swhatbuf_r+0x22>
 80036fe:	2300      	movs	r3, #0
 8003700:	602b      	str	r3, [r5, #0]
 8003702:	89b3      	ldrh	r3, [r6, #12]
 8003704:	061a      	lsls	r2, r3, #24
 8003706:	d410      	bmi.n	800372a <__swhatbuf_r+0x3e>
 8003708:	f44f 6380 	mov.w	r3, #1024	; 0x400
 800370c:	e00e      	b.n	800372c <__swhatbuf_r+0x40>
 800370e:	466a      	mov	r2, sp
 8003710:	f000 f906 	bl	8003920 <_fstat_r>
 8003714:	2800      	cmp	r0, #0
 8003716:	dbf2      	blt.n	80036fe <__swhatbuf_r+0x12>
 8003718:	9a01      	ldr	r2, [sp, #4]
 800371a:	f402 4270 	and.w	r2, r2, #61440	; 0xf000
 800371e:	f5a2 5300 	sub.w	r3, r2, #8192	; 0x2000
 8003722:	425a      	negs	r2, r3
 8003724:	415a      	adcs	r2, r3
 8003726:	602a      	str	r2, [r5, #0]
 8003728:	e7ee      	b.n	8003708 <__swhatbuf_r+0x1c>
 800372a:	2340      	movs	r3, #64	; 0x40
 800372c:	2000      	movs	r0, #0
 800372e:	6023      	str	r3, [r4, #0]
 8003730:	b016      	add	sp, #88	; 0x58
 8003732:	bd70      	pop	{r4, r5, r6, pc}

08003734 <__smakebuf_r>:
 8003734:	898b      	ldrh	r3, [r1, #12]
 8003736:	b573      	push	{r0, r1, r4, r5, r6, lr}
 8003738:	079d      	lsls	r5, r3, #30
 800373a:	4606      	mov	r6, r0
 800373c:	460c      	mov	r4, r1
 800373e:	d507      	bpl.n	8003750 <__smakebuf_r+0x1c>
 8003740:	f104 0347 	add.w	r3, r4, #71	; 0x47
 8003744:	6023      	str	r3, [r4, #0]
 8003746:	6123      	str	r3, [r4, #16]
 8003748:	2301      	movs	r3, #1
 800374a:	6163      	str	r3, [r4, #20]
 800374c:	b002      	add	sp, #8
 800374e:	bd70      	pop	{r4, r5, r6, pc}
 8003750:	ab01      	add	r3, sp, #4
 8003752:	466a      	mov	r2, sp
 8003754:	f7ff ffca 	bl	80036ec <__swhatbuf_r>
 8003758:	9900      	ldr	r1, [sp, #0]
 800375a:	4605      	mov	r5, r0
 800375c:	4630      	mov	r0, r6
 800375e:	f7ff f9eb 	bl	8002b38 <_malloc_r>
 8003762:	b948      	cbnz	r0, 8003778 <__smakebuf_r+0x44>
 8003764:	f9b4 300c 	ldrsh.w	r3, [r4, #12]
 8003768:	059a      	lsls	r2, r3, #22
 800376a:	d4ef      	bmi.n	800374c <__smakebuf_r+0x18>
 800376c:	f023 0303 	bic.w	r3, r3, #3
 8003770:	f043 0302 	orr.w	r3, r3, #2
 8003774:	81a3      	strh	r3, [r4, #12]
 8003776:	e7e3      	b.n	8003740 <__smakebuf_r+0xc>
 8003778:	4b0d      	ldr	r3, [pc, #52]	; (80037b0 <__smakebuf_r+0x7c>)
 800377a:	62b3      	str	r3, [r6, #40]	; 0x28
 800377c:	89a3      	ldrh	r3, [r4, #12]
 800377e:	6020      	str	r0, [r4, #0]
 8003780:	f043 0380 	orr.w	r3, r3, #128	; 0x80
 8003784:	81a3      	strh	r3, [r4, #12]
 8003786:	9b00      	ldr	r3, [sp, #0]
 8003788:	6163      	str	r3, [r4, #20]
 800378a:	9b01      	ldr	r3, [sp, #4]
 800378c:	6120      	str	r0, [r4, #16]
 800378e:	b15b      	cbz	r3, 80037a8 <__smakebuf_r+0x74>
 8003790:	f9b4 100e 	ldrsh.w	r1, [r4, #14]
 8003794:	4630      	mov	r0, r6
 8003796:	f000 f8d5 	bl	8003944 <_isatty_r>
 800379a:	b128      	cbz	r0, 80037a8 <__smakebuf_r+0x74>
 800379c:	89a3      	ldrh	r3, [r4, #12]
 800379e:	f023 0303 	bic.w	r3, r3, #3
 80037a2:	f043 0301 	orr.w	r3, r3, #1
 80037a6:	81a3      	strh	r3, [r4, #12]
 80037a8:	89a0      	ldrh	r0, [r4, #12]
 80037aa:	4305      	orrs	r5, r0
 80037ac:	81a5      	strh	r5, [r4, #12]
 80037ae:	e7cd      	b.n	800374c <__smakebuf_r+0x18>
 80037b0:	08003545 	.word	0x08003545

080037b4 <__malloc_lock>:
 80037b4:	4801      	ldr	r0, [pc, #4]	; (80037bc <__malloc_lock+0x8>)
 80037b6:	f7ff bf97 	b.w	80036e8 <__retarget_lock_acquire_recursive>
 80037ba:	bf00      	nop
 80037bc:	200000f4 	.word	0x200000f4

080037c0 <__malloc_unlock>:
 80037c0:	4801      	ldr	r0, [pc, #4]	; (80037c8 <__malloc_unlock+0x8>)
 80037c2:	f7ff bf92 	b.w	80036ea <__retarget_lock_release_recursive>
 80037c6:	bf00      	nop
 80037c8:	200000f4 	.word	0x200000f4

080037cc <_raise_r>:
 80037cc:	291f      	cmp	r1, #31
 80037ce:	b538      	push	{r3, r4, r5, lr}
 80037d0:	4604      	mov	r4, r0
 80037d2:	460d      	mov	r5, r1
 80037d4:	d904      	bls.n	80037e0 <_raise_r+0x14>
 80037d6:	2316      	movs	r3, #22
 80037d8:	6003      	str	r3, [r0, #0]
 80037da:	f04f 30ff 	mov.w	r0, #4294967295	; 0xffffffff
 80037de:	bd38      	pop	{r3, r4, r5, pc}
 80037e0:	6c42      	ldr	r2, [r0, #68]	; 0x44
 80037e2:	b112      	cbz	r2, 80037ea <_raise_r+0x1e>
 80037e4:	f852 3021 	ldr.w	r3, [r2, r1, lsl #2]
 80037e8:	b94b      	cbnz	r3, 80037fe <_raise_r+0x32>
 80037ea:	4620      	mov	r0, r4
 80037ec:	f000 f830 	bl	8003850 <_getpid_r>
 80037f0:	462a      	mov	r2, r5
 80037f2:	4601      	mov	r1, r0
 80037f4:	4620      	mov	r0, r4
 80037f6:	e8bd 4038 	ldmia.w	sp!, {r3, r4, r5, lr}
 80037fa:	f000 b817 	b.w	800382c <_kill_r>
 80037fe:	2b01      	cmp	r3, #1
 8003800:	d00a      	beq.n	8003818 <_raise_r+0x4c>
 8003802:	1c59      	adds	r1, r3, #1
 8003804:	d103      	bne.n	800380e <_raise_r+0x42>
 8003806:	2316      	movs	r3, #22
 8003808:	6003      	str	r3, [r0, #0]
 800380a:	2001      	movs	r0, #1
 800380c:	e7e7      	b.n	80037de <_raise_r+0x12>
 800380e:	2400      	movs	r4, #0
 8003810:	f842 4025 	str.w	r4, [r2, r5, lsl #2]
 8003814:	4628      	mov	r0, r5
 8003816:	4798      	blx	r3
 8003818:	2000      	movs	r0, #0
 800381a:	e7e0      	b.n	80037de <_raise_r+0x12>

0800381c <raise>:
 800381c:	4b02      	ldr	r3, [pc, #8]	; (8003828 <raise+0xc>)
 800381e:	4601      	mov	r1, r0
 8003820:	6818      	ldr	r0, [r3, #0]
 8003822:	f7ff bfd3 	b.w	80037cc <_raise_r>
 8003826:	bf00      	nop
 8003828:	2000000c 	.word	0x2000000c

0800382c <_kill_r>:
 800382c:	b538      	push	{r3, r4, r5, lr}
 800382e:	4d07      	ldr	r5, [pc, #28]	; (800384c <_kill_r+0x20>)
 8003830:	2300      	movs	r3, #0
 8003832:	4604      	mov	r4, r0
 8003834:	4608      	mov	r0, r1
 8003836:	4611      	mov	r1, r2
 8003838:	602b      	str	r3, [r5, #0]
 800383a:	f000 f8d7 	bl	80039ec <_kill>
 800383e:	1c43      	adds	r3, r0, #1
