
build/filesystem.elf:     file format elf32-littlearm


Disassembly of section .text:

08000188 <__do_global_dtors_aux>:
 8000188:	b510      	push	{r4, lr}
 800018a:	4c05      	ldr	r4, [pc, #20]	; (80001a0 <__do_global_dtors_aux+0x18>)
 800018c:	7823      	ldrb	r3, [r4, #0]
 800018e:	b933      	cbnz	r3, 800019e <__do_global_dtors_aux+0x16>
 8000190:	4b04      	ldr	r3, [pc, #16]	; (80001a4 <__do_global_dtors_aux+0x1c>)
 8000192:	b113      	cbz	r3, 800019a <__do_global_dtors_aux+0x12>
 8000194:	4804      	ldr	r0, [pc, #16]	; (80001a8 <__do_global_dtors_aux+0x20>)
 8000196:	f3af 8000 	nop.w
 800019a:	2301      	movs	r3, #1
 800019c:	7023      	strb	r3, [r4, #0]
 800019e:	bd10      	pop	{r4, pc}
 80001a0:	200000a8 	.word	0x200000a8
 80001a4:	00000000 	.word	0x00000000
 80001a8:	08007b18 	.word	0x08007b18

080001ac <frame_dummy>:
 80001ac:	4b08      	ldr	r3, [pc, #32]	; (80001d0 <frame_dummy+0x24>)
 80001ae:	b510      	push	{r4, lr}
 80001b0:	b11b      	cbz	r3, 80001ba <frame_dummy+0xe>
 80001b2:	4808      	ldr	r0, [pc, #32]	; (80001d4 <frame_dummy+0x28>)
 80001b4:	4908      	ldr	r1, [pc, #32]	; (80001d8 <frame_dummy+0x2c>)
 80001b6:	f3af 8000 	nop.w
 80001ba:	4808      	ldr	r0, [pc, #32]	; (80001dc <frame_dummy+0x30>)
 80001bc:	6803      	ldr	r3, [r0, #0]
 80001be:	b903      	cbnz	r3, 80001c2 <frame_dummy+0x16>
 80001c0:	bd10      	pop	{r4, pc}
 80001c2:	4b07      	ldr	r3, [pc, #28]	; (80001e0 <frame_dummy+0x34>)
 80001c4:	2b00      	cmp	r3, #0
 80001c6:	d0fb      	beq.n	80001c0 <frame_dummy+0x14>
 80001c8:	e8bd 4010 	ldmia.w	sp!, {r4, lr}
 80001cc:	4718      	bx	r3
 80001ce:	bf00      	nop
 80001d0:	00000000 	.word	0x00000000
 80001d4:	08007b18 	.word	0x08007b18
 80001d8:	200000ac 	.word	0x200000ac
 80001dc:	200000a8 	.word	0x200000a8
 80001e0:	00000000 	.word	0x00000000

080001e4 <__aeabi_drsub>:
 80001e4:	f081 4100 	eor.w	r1, r1, #2147483648	; 0x80000000
 80001e8:	e002      	b.n	80001f0 <__adddf3>
 80001ea:	bf00      	nop

080001ec <__aeabi_dsub>:
 80001ec:	f083 4300 	eor.w	r3, r3, #2147483648	; 0x80000000

080001f0 <__adddf3>:
 80001f0:	b530      	push	{r4, r5, lr}
 80001f2:	ea4f 0441 	mov.w	r4, r1, lsl #1
 80001f6:	ea4f 0543 	mov.w	r5, r3, lsl #1
 80001fa:	ea94 0f05 	teq	r4, r5
 80001fe:	bf08      	it	eq
 8000200:	ea90 0f02 	teqeq	r0, r2
 8000204:	bf1f      	itttt	ne
 8000206:	ea54 0c00 	orrsne.w	ip, r4, r0
 800020a:	ea55 0c02 	orrsne.w	ip, r5, r2
 800020e:	ea7f 5c64 	mvnsne.w	ip, r4, asr #21
 8000212:	ea7f 5c65 	mvnsne.w	ip, r5, asr #21
 8000216:	f000 80e2 	beq.w	80003de <__adddf3+0x1ee>
 800021a:	ea4f 5454 	mov.w	r4, r4, lsr #21
 800021e:	ebd4 5555 	rsbs	r5, r4, r5, lsr #21
 8000222:	bfb8      	it	lt
 8000224:	426d      	neglt	r5, r5
 8000226:	dd0c      	ble.n	8000242 <__adddf3+0x52>
 8000228:	442c      	add	r4, r5
 800022a:	ea80 0202 	eor.w	r2, r0, r2
 800022e:	ea81 0303 	eor.w	r3, r1, r3
 8000232:	ea82 0000 	eor.w	r0, r2, r0
 8000236:	ea83 0101 	eor.w	r1, r3, r1
 800023a:	ea80 0202 	eor.w	r2, r0, r2
 800023e:	ea81 0303 	eor.w	r3, r1, r3
 8000242:	2d36      	cmp	r5, #54	; 0x36
 8000244:	bf88      	it	hi
 8000246:	bd30      	pophi	{r4, r5, pc}
 8000248:	f011 4f00 	tst.w	r1, #2147483648	; 0x80000000
 800024c:	ea4f 3101 	mov.w	r1, r1, lsl #12
 8000250:	f44f 1c80 	mov.w	ip, #1048576	; 0x100000
 8000254:	ea4c 3111 	orr.w	r1, ip, r1, lsr #12
 8000258:	d002      	beq.n	8000260 <__adddf3+0x70>
 800025a:	4240      	negs	r0, r0
 800025c:	eb61 0141 	sbc.w	r1, r1, r1, lsl #1
 8000260:	f013 4f00 	tst.w	r3, #2147483648	; 0x80000000
 8000264:	ea4f 3303 	mov.w	r3, r3, lsl #12
 8000268:	ea4c 3313 	orr.w	r3, ip, r3, lsr #12
 800026c:	d002      	beq.n	8000274 <__adddf3+0x84>
 800026e:	4252      	negs	r2, r2
 8000270:	eb63 0343 	sbc.w	r3, r3, r3, lsl #1
 8000274:	ea94 0f05 	teq	r4, r5
 8000278:	f000 80a7 	beq.w	80003ca <__adddf3+0x1da>
 800027c:	f1a4 0401 	sub.w	r4, r4, #1
 8000280:	f1d5 0e20 	rsbs	lr, r5, #32
 8000284:	db0d      	blt.n	80002a2 <__adddf3+0xb2>
 8000286:	fa02 fc0e 	lsl.w	ip, r2, lr
 800028a:	fa22 f205 	lsr.w	r2, r2, r5
 800028e:	1880      	adds	r0, r0, r2
 8000290:	f141 0100 	adc.w	r1, r1, #0
 8000294:	fa03 f20e 	lsl.w	r2, r3, lr
 8000298:	1880      	adds	r0, r0, r2
 800029a:	fa43 f305 	asr.w	r3, r3, r5
 800029e:	4159      	adcs	r1, r3
 80002a0:	e00e      	b.n	80002c0 <__adddf3+0xd0>
 80002a2:	f1a5 0520 	sub.w	r5, r5, #32
 80002a6:	f10e 0e20 	add.w	lr, lr, #32
 80002aa:	2a01      	cmp	r2, #1
 80002ac:	fa03 fc0e 	lsl.w	ip, r3, lr
 80002b0:	bf28      	it	cs
 80002b2:	f04c 0c02 	orrcs.w	ip, ip, #2
 80002b6:	fa43 f305 	asr.w	r3, r3, r5
 80002ba:	18c0      	adds	r0, r0, r3
 80002bc:	eb51 71e3 	adcs.w	r1, r1, r3, asr #31
 80002c0:	f001 4500 	and.w	r5, r1, #2147483648	; 0x80000000
 80002c4:	d507      	bpl.n	80002d6 <__adddf3+0xe6>
 80002c6:	f04f 0e00 	mov.w	lr, #0
 80002ca:	f1dc 0c00 	rsbs	ip, ip, #0
 80002ce:	eb7e 0000 	sbcs.w	r0, lr, r0
 80002d2:	eb6e 0101 	sbc.w	r1, lr, r1
 80002d6:	f5b1 1f80 	cmp.w	r1, #1048576	; 0x100000
 80002da:	d31b      	bcc.n	8000314 <__adddf3+0x124>
 80002dc:	f5b1 1f00 	cmp.w	r1, #2097152	; 0x200000
 80002e0:	d30c      	bcc.n	80002fc <__adddf3+0x10c>
 80002e2:	0849      	lsrs	r1, r1, #1
 80002e4:	ea5f 0030 	movs.w	r0, r0, rrx
 80002e8:	ea4f 0c3c 	mov.w	ip, ip, rrx
 80002ec:	f104 0401 	add.w	r4, r4, #1
 80002f0:	ea4f 5244 	mov.w	r2, r4, lsl #21
 80002f4:	f512 0f80 	cmn.w	r2, #4194304	; 0x400000
 80002f8:	f080 809a 	bcs.w	8000430 <__adddf3+0x240>
 80002fc:	f1bc 4f00 	cmp.w	ip, #2147483648	; 0x80000000
 8000300:	bf08      	it	eq
 8000302:	ea5f 0c50 	movseq.w	ip, r0, lsr #1
 8000306:	f150 0000 	adcs.w	r0, r0, #0
 800030a:	eb41 5104 	adc.w	r1, r1, r4, lsl #20
 800030e:	ea41 0105 	orr.w	r1, r1, r5
 8000312:	bd30      	pop	{r4, r5, pc}
 8000314:	ea5f 0c4c 	movs.w	ip, ip, lsl #1
 8000318:	4140      	adcs	r0, r0
 800031a:	eb41 0101 	adc.w	r1, r1, r1
 800031e:	f411 1f80 	tst.w	r1, #1048576	; 0x100000
 8000322:	f1a4 0401 	sub.w	r4, r4, #1
 8000326:	d1e9      	bne.n	80002fc <__adddf3+0x10c>
 8000328:	f091 0f00 	teq	r1, #0
 800032c:	bf04      	itt	eq
 800032e:	4601      	moveq	r1, r0
 8000330:	2000      	moveq	r0, #0
 8000332:	fab1 f381 	clz	r3, r1
 8000336:	bf08      	it	eq
 8000338:	3320      	addeq	r3, #32
 800033a:	f1a3 030b 	sub.w	r3, r3, #11
 800033e:	f1b3 0220 	subs.w	r2, r3, #32
 8000342:	da0c      	bge.n	800035e <__adddf3+0x16e>
 8000344:	320c      	adds	r2, #12
 8000346:	dd08      	ble.n	800035a <__adddf3+0x16a>
 8000348:	f102 0c14 	add.w	ip, r2, #20
 800034c:	f1c2 020c 	rsb	r2, r2, #12
 8000350:	fa01 f00c 	lsl.w	r0, r1, ip
 8000354:	fa21 f102 	lsr.w	r1, r1, r2
 8000358:	e00c      	b.n	8000374 <__adddf3+0x184>
 800035a:	f102 0214 	add.w	r2, r2, #20
 800035e:	bfd8      	it	le
 8000360:	f1c2 0c20 	rsble	ip, r2, #32
 8000364:	fa01 f102 	lsl.w	r1, r1, r2
 8000368:	fa20 fc0c 	lsr.w	ip, r0, ip
 800036c:	bfdc      	itt	le
 800036e:	ea41 010c 	orrle.w	r1, r1, ip
 8000372:	4090      	lslle	r0, r2
 8000374:	1ae4      	subs	r4, r4, r3
 8000376:	bfa2      	ittt	ge
 8000378:	eb01 5104 	addge.w	r1, r1, r4, lsl #20
 800037c:	4329      	orrge	r1, r5
 800037e:	bd30      	popge	{r4, r5, pc}
 8000380:	ea6f 0404 	mvn.w	r4, r4
 8000384:	3c1f      	subs	r4, #31
 8000386:	da1c      	bge.n	80003c2 <__adddf3+0x1d2>
 8000388:	340c      	adds	r4, #12
 800038a:	dc0e      	bgt.n	80003aa <__adddf3+0x1ba>
 800038c:	f104 0414 	add.w	r4, r4, #20
 8000390:	f1c4 0220 	rsb	r2, r4, #32
 8000394:	fa20 f004 	lsr.w	r0, r0, r4
 8000398:	fa01 f302 	lsl.w	r3, r1, r2
 800039c:	ea40 0003 	orr.w	r0, r0, r3
 80003a0:	fa21 f304 	lsr.w	r3, r1, r4
 80003a4:	ea45 0103 	orr.w	r1, r5, r3
 80003a8:	bd30      	pop	{r4, r5, pc}
 80003aa:	f1c4 040c 	rsb	r4, r4, #12
 80003ae:	f1c4 0220 	rsb	r2, r4, #32
 80003b2:	fa20 f002 	lsr.w	r0, r0, r2
 80003b6:	fa01 f304 	lsl.w	r3, r1, r4
 80003ba:	ea40 0003 	orr.w	r0, r0, r3
 80003be:	4629      	mov	r1, r5
 80003c0:	bd30      	pop	{r4, r5, pc}
 80003c2:	fa21 f004 	lsr.w	r0, r1, r4
 80003c6:	4629      	mov	r1, r5
 80003c8:	bd30      	pop	{r4, r5, pc}
 80003ca:	f094 0f00 	teq	r4, #0
 80003ce:	f483 1380 	eor.w	r3, r3, #1048576	; 0x100000
 80003d2:	bf06      	itte	eq
 80003d4:	f481 1180 	eoreq.w	r1, r1, #1048576	; 0x100000
 80003d8:	3401      	addeq	r4, #1
 80003da:	3d01      	subne	r5, #1
 80003dc:	e74e      	b.n	800027c <__adddf3+0x8c>
 80003de:	ea7f 5c64 	mvns.w	ip, r4, asr #21
 80003e2:	bf18      	it	ne
 80003e4:	ea7f 5c65 	mvnsne.w	ip, r5, asr #21
 80003e8:	d029      	beq.n	800043e <__adddf3+0x24e>
 80003ea:	ea94 0f05 	teq	r4, r5
 80003ee:	bf08      	it	eq
 80003f0:	ea90 0f02 	teqeq	r0, r2
 80003f4:	d005      	beq.n	8000402 <__adddf3+0x212>
 80003f6:	ea54 0c00 	orrs.w	ip, r4, r0
 80003fa:	bf04      	itt	eq
 80003fc:	4619      	moveq	r1, r3
 80003fe:	4610      	moveq	r0, r2
 8000400:	bd30      	pop	{r4, r5, pc}
 8000402:	ea91 0f03 	teq	r1, r3
 8000406:	bf1e      	ittt	ne
 8000408:	2100      	movne	r1, #0
 800040a:	2000      	movne	r0, #0
 800040c:	bd30      	popne	{r4, r5, pc}
 800040e:	ea5f 5c54 	movs.w	ip, r4, lsr #21
 8000412:	d105      	bne.n	8000420 <__adddf3+0x230>
 8000414:	0040      	lsls	r0, r0, #1
 8000416:	4149      	adcs	r1, r1
 8000418:	bf28      	it	cs
 800041a:	f041 4100 	orrcs.w	r1, r1, #2147483648	; 0x80000000
 800041e:	bd30      	pop	{r4, r5, pc}
 8000420:	f514 0480 	adds.w	r4, r4, #4194304	; 0x400000
 8000424:	bf3c      	itt	cc
 8000426:	f501 1180 	addcc.w	r1, r1, #1048576	; 0x100000
 800042a:	bd30      	popcc	{r4, r5, pc}
 800042c:	f001 4500 	and.w	r5, r1, #2147483648	; 0x80000000
 8000430:	f045 41fe 	orr.w	r1, r5, #2130706432	; 0x7f000000
 8000434:	f441 0170 	orr.w	r1, r1, #15728640	; 0xf00000
 8000438:	f04f 0000 	mov.w	r0, #0
 800043c:	bd30      	pop	{r4, r5, pc}
 800043e:	ea7f 5c64 	mvns.w	ip, r4, asr #21
 8000442:	bf1a      	itte	ne
 8000444:	4619      	movne	r1, r3
 8000446:	4610      	movne	r0, r2
 8000448:	ea7f 5c65 	mvnseq.w	ip, r5, asr #21
 800044c:	bf1c      	itt	ne
 800044e:	460b      	movne	r3, r1
 8000450:	4602      	movne	r2, r0
 8000452:	ea50 3401 	orrs.w	r4, r0, r1, lsl #12
 8000456:	bf06      	itte	eq
 8000458:	ea52 3503 	orrseq.w	r5, r2, r3, lsl #12
 800045c:	ea91 0f03 	teqeq	r1, r3
 8000460:	f441 2100 	orrne.w	r1, r1, #524288	; 0x80000
 8000464:	bd30      	pop	{r4, r5, pc}
 8000466:	bf00      	nop

08000468 <__aeabi_ui2d>:
 8000468:	f090 0f00 	teq	r0, #0
 800046c:	bf04      	itt	eq
 800046e:	2100      	moveq	r1, #0
 8000470:	4770      	bxeq	lr
 8000472:	b530      	push	{r4, r5, lr}
 8000474:	f44f 6480 	mov.w	r4, #1024	; 0x400
 8000478:	f104 0432 	add.w	r4, r4, #50	; 0x32
 800047c:	f04f 0500 	mov.w	r5, #0
 8000480:	f04f 0100 	mov.w	r1, #0
 8000484:	e750      	b.n	8000328 <__adddf3+0x138>
 8000486:	bf00      	nop

08000488 <__aeabi_i2d>:
 8000488:	f090 0f00 	teq	r0, #0
 800048c:	bf04      	itt	eq
 800048e:	2100      	moveq	r1, #0
 8000490:	4770      	bxeq	lr
 8000492:	b530      	push	{r4, r5, lr}
 8000494:	f44f 6480 	mov.w	r4, #1024	; 0x400
 8000498:	f104 0432 	add.w	r4, r4, #50	; 0x32
 800049c:	f010 4500 	ands.w	r5, r0, #2147483648	; 0x80000000
 80004a0:	bf48      	it	mi
 80004a2:	4240      	negmi	r0, r0
 80004a4:	f04f 0100 	mov.w	r1, #0
 80004a8:	e73e      	b.n	8000328 <__adddf3+0x138>
 80004aa:	bf00      	nop

080004ac <__aeabi_f2d>:
 80004ac:	0042      	lsls	r2, r0, #1
 80004ae:	ea4f 01e2 	mov.w	r1, r2, asr #3
 80004b2:	ea4f 0131 	mov.w	r1, r1, rrx
 80004b6:	ea4f 7002 	mov.w	r0, r2, lsl #28
 80004ba:	bf1f      	itttt	ne
 80004bc:	f012 437f 	andsne.w	r3, r2, #4278190080	; 0xff000000
 80004c0:	f093 4f7f 	teqne	r3, #4278190080	; 0xff000000
 80004c4:	f081 5160 	eorne.w	r1, r1, #939524096	; 0x38000000
 80004c8:	4770      	bxne	lr
 80004ca:	f092 0f00 	teq	r2, #0
 80004ce:	bf14      	ite	ne
 80004d0:	f093 4f7f 	teqne	r3, #4278190080	; 0xff000000
 80004d4:	4770      	bxeq	lr
 80004d6:	b530      	push	{r4, r5, lr}
 80004d8:	f44f 7460 	mov.w	r4, #896	; 0x380
 80004dc:	f001 4500 	and.w	r5, r1, #2147483648	; 0x80000000
 80004e0:	f021 4100 	bic.w	r1, r1, #2147483648	; 0x80000000
 80004e4:	e720      	b.n	8000328 <__adddf3+0x138>
 80004e6:	bf00      	nop

080004e8 <__aeabi_ul2d>:
 80004e8:	ea50 0201 	orrs.w	r2, r0, r1
 80004ec:	bf08      	it	eq
 80004ee:	4770      	bxeq	lr
 80004f0:	b530      	push	{r4, r5, lr}
 80004f2:	f04f 0500 	mov.w	r5, #0
 80004f6:	e00a      	b.n	800050e <__aeabi_l2d+0x16>

080004f8 <__aeabi_l2d>:
 80004f8:	ea50 0201 	orrs.w	r2, r0, r1
 80004fc:	bf08      	it	eq
 80004fe:	4770      	bxeq	lr
 8000500:	b530      	push	{r4, r5, lr}
 8000502:	f011 4500 	ands.w	r5, r1, #2147483648	; 0x80000000
 8000506:	d502      	bpl.n	800050e <__aeabi_l2d+0x16>
 8000508:	4240      	negs	r0, r0
 800050a:	eb61 0141 	sbc.w	r1, r1, r1, lsl #1
 800050e:	f44f 6480 	mov.w	r4, #1024	; 0x400
 8000512:	f104 0432 	add.w	r4, r4, #50	; 0x32
 8000516:	ea5f 5c91 	movs.w	ip, r1, lsr #22
 800051a:	f43f aedc 	beq.w	80002d6 <__adddf3+0xe6>
 800051e:	f04f 0203 	mov.w	r2, #3
 8000522:	ea5f 0cdc 	movs.w	ip, ip, lsr #3
 8000526:	bf18      	it	ne
 8000528:	3203      	addne	r2, #3
 800052a:	ea5f 0cdc 	movs.w	ip, ip, lsr #3
 800052e:	bf18      	it	ne
 8000530:	3203      	addne	r2, #3
 8000532:	eb02 02dc 	add.w	r2, r2, ip, lsr #3
 8000536:	f1c2 0320 	rsb	r3, r2, #32
 800053a:	fa00 fc03 	lsl.w	ip, r0, r3
 800053e:	fa20 f002 	lsr.w	r0, r0, r2
 8000542:	fa01 fe03 	lsl.w	lr, r1, r3
 8000546:	ea40 000e 	orr.w	r0, r0, lr
 800054a:	fa21 f102 	lsr.w	r1, r1, r2
 800054e:	4414      	add	r4, r2
 8000550:	e6c1      	b.n	80002d6 <__adddf3+0xe6>
 8000552:	bf00      	nop

08000554 <__aeabi_dmul>:
 8000554:	b570      	push	{r4, r5, r6, lr}
 8000556:	f04f 0cff 	mov.w	ip, #255	; 0xff
 800055a:	f44c 6ce0 	orr.w	ip, ip, #1792	; 0x700
 800055e:	ea1c 5411 	ands.w	r4, ip, r1, lsr #20
 8000562:	bf1d      	ittte	ne
 8000564:	ea1c 5513 	andsne.w	r5, ip, r3, lsr #20
 8000568:	ea94 0f0c 	teqne	r4, ip
 800056c:	ea95 0f0c 	teqne	r5, ip
 8000570:	f000 f8de 	bleq	8000730 <__aeabi_dmul+0x1dc>
 8000574:	442c      	add	r4, r5
 8000576:	ea81 0603 	eor.w	r6, r1, r3
 800057a:	ea21 514c 	bic.w	r1, r1, ip, lsl #21
 800057e:	ea23 534c 	bic.w	r3, r3, ip, lsl #21
 8000582:	ea50 3501 	orrs.w	r5, r0, r1, lsl #12
 8000586:	bf18      	it	ne
 8000588:	ea52 3503 	orrsne.w	r5, r2, r3, lsl #12
 800058c:	f441 1180 	orr.w	r1, r1, #1048576	; 0x100000
 8000590:	f443 1380 	orr.w	r3, r3, #1048576	; 0x100000
 8000594:	d038      	beq.n	8000608 <__aeabi_dmul+0xb4>
 8000596:	fba0 ce02 	umull	ip, lr, r0, r2
 800059a:	f04f 0500 	mov.w	r5, #0
 800059e:	fbe1 e502 	umlal	lr, r5, r1, r2
 80005a2:	f006 4200 	and.w	r2, r6, #2147483648	; 0x80000000
 80005a6:	fbe0 e503 	umlal	lr, r5, r0, r3
 80005aa:	f04f 0600 	mov.w	r6, #0
 80005ae:	fbe1 5603 	umlal	r5, r6, r1, r3
 80005b2:	f09c 0f00 	teq	ip, #0
 80005b6:	bf18      	it	ne
 80005b8:	f04e 0e01 	orrne.w	lr, lr, #1
 80005bc:	f1a4 04ff 	sub.w	r4, r4, #255	; 0xff
 80005c0:	f5b6 7f00 	cmp.w	r6, #512	; 0x200
 80005c4:	f564 7440 	sbc.w	r4, r4, #768	; 0x300
 80005c8:	d204      	bcs.n	80005d4 <__aeabi_dmul+0x80>
 80005ca:	ea5f 0e4e 	movs.w	lr, lr, lsl #1
 80005ce:	416d      	adcs	r5, r5
 80005d0:	eb46 0606 	adc.w	r6, r6, r6
 80005d4:	ea42 21c6 	orr.w	r1, r2, r6, lsl #11
 80005d8:	ea41 5155 	orr.w	r1, r1, r5, lsr #21
 80005dc:	ea4f 20c5 	mov.w	r0, r5, lsl #11
 80005e0:	ea40 505e 	orr.w	r0, r0, lr, lsr #21
 80005e4:	ea4f 2ece 	mov.w	lr, lr, lsl #11
 80005e8:	f1b4 0cfd 	subs.w	ip, r4, #253	; 0xfd
 80005ec:	bf88      	it	hi
 80005ee:	f5bc 6fe0 	cmphi.w	ip, #1792	; 0x700
 80005f2:	d81e      	bhi.n	8000632 <__aeabi_dmul+0xde>
 80005f4:	f1be 4f00 	cmp.w	lr, #2147483648	; 0x80000000
 80005f8:	bf08      	it	eq
 80005fa:	ea5f 0e50 	movseq.w	lr, r0, lsr #1
 80005fe:	f150 0000 	adcs.w	r0, r0, #0
 8000602:	eb41 5104 	adc.w	r1, r1, r4, lsl #20
 8000606:	bd70      	pop	{r4, r5, r6, pc}
 8000608:	f006 4600 	and.w	r6, r6, #2147483648	; 0x80000000
 800060c:	ea46 0101 	orr.w	r1, r6, r1
 8000610:	ea40 0002 	orr.w	r0, r0, r2
 8000614:	ea81 0103 	eor.w	r1, r1, r3
 8000618:	ebb4 045c 	subs.w	r4, r4, ip, lsr #1
 800061c:	bfc2      	ittt	gt
 800061e:	ebd4 050c 	rsbsgt	r5, r4, ip
 8000622:	ea41 5104 	orrgt.w	r1, r1, r4, lsl #20
 8000626:	bd70      	popgt	{r4, r5, r6, pc}
 8000628:	f441 1180 	orr.w	r1, r1, #1048576	; 0x100000
 800062c:	f04f 0e00 	mov.w	lr, #0
 8000630:	3c01      	subs	r4, #1
 8000632:	f300 80ab 	bgt.w	800078c <__aeabi_dmul+0x238>
 8000636:	f114 0f36 	cmn.w	r4, #54	; 0x36
 800063a:	bfde      	ittt	le
 800063c:	2000      	movle	r0, #0
 800063e:	f001 4100 	andle.w	r1, r1, #2147483648	; 0x80000000
 8000642:	bd70      	pople	{r4, r5, r6, pc}
 8000644:	f1c4 0400 	rsb	r4, r4, #0
 8000648:	3c20      	subs	r4, #32
 800064a:	da35      	bge.n	80006b8 <__aeabi_dmul+0x164>
 800064c:	340c      	adds	r4, #12
 800064e:	dc1b      	bgt.n	8000688 <__aeabi_dmul+0x134>
 8000650:	f104 0414 	add.w	r4, r4, #20
 8000654:	f1c4 0520 	rsb	r5, r4, #32
 8000658:	fa00 f305 	lsl.w	r3, r0, r5
 800065c:	fa20 f004 	lsr.w	r0, r0, r4
 8000660:	fa01 f205 	lsl.w	r2, r1, r5
 8000664:	ea40 0002 	orr.w	r0, r0, r2
 8000668:	f001 4200 	and.w	r2, r1, #2147483648	; 0x80000000
 800066c:	f021 4100 	bic.w	r1, r1, #2147483648	; 0x80000000
 8000670:	eb10 70d3 	adds.w	r0, r0, r3, lsr #31
 8000674:	fa21 f604 	lsr.w	r6, r1, r4
 8000678:	eb42 0106 	adc.w	r1, r2, r6
 800067c:	ea5e 0e43 	orrs.w	lr, lr, r3, lsl #1
 8000680:	bf08      	it	eq
 8000682:	ea20 70d3 	biceq.w	r0, r0, r3, lsr #31
 8000686:	bd70      	pop	{r4, r5, r6, pc}
 8000688:	f1c4 040c 	rsb	r4, r4, #12
 800068c:	f1c4 0520 	rsb	r5, r4, #32
 8000690:	fa00 f304 	lsl.w	r3, r0, r4
 8000694:	fa20 f005 	lsr.w	r0, r0, r5
 8000698:	fa01 f204 	lsl.w	r2, r1, r4
 800069c:	ea40 0002 	orr.w	r0, r0, r2
 80006a0:	f001 4100 	and.w	r1, r1, #2147483648	; 0x80000000
 80006a4:	eb10 70d3 	adds.w	r0, r0, r3, lsr #31
 80006a8:	f141 0100 	adc.w	r1, r1, #0
 80006ac:	ea5e 0e43 	orrs.w	lr, lr, r3, lsl #1
 80006b0:	bf08      	it	eq
 80006b2:	ea20 70d3 	biceq.w	r0, r0, r3, lsr #31
 80006b6:	bd70      	pop	{r4, r5, r6, pc}
 80006b8:	f1c4 0520 	rsb	r5, r4, #32
 80006bc:	fa00 f205 	lsl.w	r2, r0, r5
 80006c0:	ea4e 0e02 	orr.w	lr, lr, r2
 80006c4:	fa20 f304 	lsr.w	r3, r0, r4
 80006c8:	fa01 f205 	lsl.w	r2, r1, r5
 80006cc:	ea43 0302 	orr.w	r3, r3, r2
 80006d0:	fa21 f004 	lsr.w	r0, r1, r4
 80006d4:	f001 4100 	and.w	r1, r1, #2147483648	; 0x80000000
 80006d8:	fa21 f204 	lsr.w	r2, r1, r4
 80006dc:	ea20 0002 	bic.w	r0, r0, r2
 80006e0:	eb00 70d3 	add.w	r0, r0, r3, lsr #31
 80006e4:	ea5e 0e43 	orrs.w	lr, lr, r3, lsl #1
 80006e8:	bf08      	it	eq
 80006ea:	ea20 70d3 	biceq.w	r0, r0, r3, lsr #31
 80006ee:	bd70      	pop	{r4, r5, r6, pc}
 80006f0:	f094 0f00 	teq	r4, #0
 80006f4:	d10f      	bne.n	8000716 <__aeabi_dmul+0x1c2>
 80006f6:	f001 4600 	and.w	r6, r1, #2147483648	; 0x80000000
 80006fa:	0040      	lsls	r0, r0, #1
 80006fc:	eb41 0101 	adc.w	r1, r1, r1
 8000700:	f411 1f80 	tst.w	r1, #1048576	; 0x100000
 8000704:	bf08      	it	eq
 8000706:	3c01      	subeq	r4, #1
 8000708:	d0f7      	beq.n	80006fa <__aeabi_dmul+0x1a6>
 800070a:	ea41 0106 	orr.w	r1, r1, r6
 800070e:	f095 0f00 	teq	r5, #0
 8000712:	bf18      	it	ne
 8000714:	4770      	bxne	lr
 8000716:	f003 4600 	and.w	r6, r3, #2147483648	; 0x80000000
 800071a:	0052      	lsls	r2, r2, #1
 800071c:	eb43 0303 	adc.w	r3, r3, r3
 8000720:	f413 1f80 	tst.w	r3, #1048576	; 0x100000
 8000724:	bf08      	it	eq
 8000726:	3d01      	subeq	r5, #1
 8000728:	d0f7      	beq.n	800071a <__aeabi_dmul+0x1c6>
 800072a:	ea43 0306 	orr.w	r3, r3, r6
 800072e:	4770      	bx	lr
 8000730:	ea94 0f0c 	teq	r4, ip
 8000734:	ea0c 5513 	and.w	r5, ip, r3, lsr #20
 8000738:	bf18      	it	ne
 800073a:	ea95 0f0c 	teqne	r5, ip
 800073e:	d00c      	beq.n	800075a <__aeabi_dmul+0x206>
 8000740:	ea50 0641 	orrs.w	r6, r0, r1, lsl #1
 8000744:	bf18      	it	ne
 8000746:	ea52 0643 	orrsne.w	r6, r2, r3, lsl #1
 800074a:	d1d1      	bne.n	80006f0 <__aeabi_dmul+0x19c>
 800074c:	ea81 0103 	eor.w	r1, r1, r3
 8000750:	f001 4100 	and.w	r1, r1, #2147483648	; 0x80000000
 8000754:	f04f 0000 	mov.w	r0, #0
 8000758:	bd70      	pop	{r4, r5, r6, pc}
 800075a:	ea50 0641 	orrs.w	r6, r0, r1, lsl #1
 800075e:	bf06      	itte	eq
 8000760:	4610      	moveq	r0, r2
 8000762:	4619      	moveq	r1, r3
 8000764:	ea52 0643 	orrsne.w	r6, r2, r3, lsl #1
 8000768:	d019      	beq.n	800079e <__aeabi_dmul+0x24a>
 800076a:	ea94 0f0c 	teq	r4, ip
 800076e:	d102      	bne.n	8000776 <__aeabi_dmul+0x222>
 8000770:	ea50 3601 	orrs.w	r6, r0, r1, lsl #12
 8000774:	d113      	bne.n	800079e <__aeabi_dmul+0x24a>
 8000776:	ea95 0f0c 	teq	r5, ip
 800077a:	d105      	bne.n	8000788 <__aeabi_dmul+0x234>
 800077c:	ea52 3603 	orrs.w	r6, r2, r3, lsl #12
 8000780:	bf1c      	itt	ne
 8000782:	4610      	movne	r0, r2
 8000784:	4619      	movne	r1, r3
 8000786:	d10a      	bne.n	800079e <__aeabi_dmul+0x24a>
 8000788:	ea81 0103 	eor.w	r1, r1, r3
 800078c:	f001 4100 	and.w	r1, r1, #2147483648	; 0x80000000
 8000790:	f041 41fe 	orr.w	r1, r1, #2130706432	; 0x7f000000
 8000794:	f441 0170 	orr.w	r1, r1, #15728640	; 0xf00000
 8000798:	f04f 0000 	mov.w	r0, #0
 800079c:	bd70      	pop	{r4, r5, r6, pc}
 800079e:	f041 41fe 	orr.w	r1, r1, #2130706432	; 0x7f000000
 80007a2:	f441 0178 	orr.w	r1, r1, #16252928	; 0xf80000
 80007a6:	bd70      	pop	{r4, r5, r6, pc}

080007a8 <__aeabi_ddiv>:
 80007a8:	b570      	push	{r4, r5, r6, lr}
 80007aa:	f04f 0cff 	mov.w	ip, #255	; 0xff
 80007ae:	f44c 6ce0 	orr.w	ip, ip, #1792	; 0x700
 80007b2:	ea1c 5411 	ands.w	r4, ip, r1, lsr #20
 80007b6:	bf1d      	ittte	ne
 80007b8:	ea1c 5513 	andsne.w	r5, ip, r3, lsr #20
 80007bc:	ea94 0f0c 	teqne	r4, ip
 80007c0:	ea95 0f0c 	teqne	r5, ip
 80007c4:	f000 f8a7 	bleq	8000916 <__aeabi_ddiv+0x16e>
 80007c8:	eba4 0405 	sub.w	r4, r4, r5
 80007cc:	ea81 0e03 	eor.w	lr, r1, r3
 80007d0:	ea52 3503 	orrs.w	r5, r2, r3, lsl #12
 80007d4:	ea4f 3101 	mov.w	r1, r1, lsl #12
 80007d8:	f000 8088 	beq.w	80008ec <__aeabi_ddiv+0x144>
 80007dc:	ea4f 3303 	mov.w	r3, r3, lsl #12
 80007e0:	f04f 5580 	mov.w	r5, #268435456	; 0x10000000
 80007e4:	ea45 1313 	orr.w	r3, r5, r3, lsr #4
 80007e8:	ea43 6312 	orr.w	r3, r3, r2, lsr #24
 80007ec:	ea4f 2202 	mov.w	r2, r2, lsl #8
 80007f0:	ea45 1511 	orr.w	r5, r5, r1, lsr #4
 80007f4:	ea45 6510 	orr.w	r5, r5, r0, lsr #24
 80007f8:	ea4f 2600 	mov.w	r6, r0, lsl #8
 80007fc:	f00e 4100 	and.w	r1, lr, #2147483648	; 0x80000000
 8000800:	429d      	cmp	r5, r3
 8000802:	bf08      	it	eq
 8000804:	4296      	cmpeq	r6, r2
 8000806:	f144 04fd 	adc.w	r4, r4, #253	; 0xfd
 800080a:	f504 7440 	add.w	r4, r4, #768	; 0x300
 800080e:	d202      	bcs.n	8000816 <__aeabi_ddiv+0x6e>
 8000810:	085b      	lsrs	r3, r3, #1
 8000812:	ea4f 0232 	mov.w	r2, r2, rrx
 8000816:	1ab6      	subs	r6, r6, r2
 8000818:	eb65 0503 	sbc.w	r5, r5, r3
 800081c:	085b      	lsrs	r3, r3, #1
 800081e:	ea4f 0232 	mov.w	r2, r2, rrx
 8000822:	f44f 1080 	mov.w	r0, #1048576	; 0x100000
 8000826:	f44f 2c00 	mov.w	ip, #524288	; 0x80000
 800082a:	ebb6 0e02 	subs.w	lr, r6, r2
 800082e:	eb75 0e03 	sbcs.w	lr, r5, r3
 8000832:	bf22      	ittt	cs
 8000834:	1ab6      	subcs	r6, r6, r2
 8000836:	4675      	movcs	r5, lr
 8000838:	ea40 000c 	orrcs.w	r0, r0, ip
 800083c:	085b      	lsrs	r3, r3, #1
 800083e:	ea4f 0232 	mov.w	r2, r2, rrx
 8000842:	ebb6 0e02 	subs.w	lr, r6, r2
 8000846:	eb75 0e03 	sbcs.w	lr, r5, r3
 800084a:	bf22      	ittt	cs
 800084c:	1ab6      	subcs	r6, r6, r2
 800084e:	4675      	movcs	r5, lr
 8000850:	ea40 005c 	orrcs.w	r0, r0, ip, lsr #1
 8000854:	085b      	lsrs	r3, r3, #1
 8000856:	ea4f 0232 	mov.w	r2, r2, rrx
 800085a:	ebb6 0e02 	subs.w	lr, r6, r2
 800085e:	eb75 0e03 	sbcs.w	lr, r5, r3
 8000862:	bf22      	ittt	cs
 8000864:	1ab6      	subcs	r6, r6, r2
 8000866:	4675      	movcs	r5, lr
 8000868:	ea40 009c 	orrcs.w	r0, r0, ip, lsr #2
 800086c:	085b      	lsrs	r3, r3, #1
 800086e:	ea4f 0232 	mov.w	r2, r2, rrx
 8000872:	ebb6 0e02 	subs.w	lr, r6, r2
 8000876:	eb75 0e03 	sbcs.w	lr, r5, r3
 800087a:	bf22      	ittt	cs
 800087c:	1ab6      	subcs	r6, r6, r2
 800087e:	4675      	movcs	r5, lr
 8000880:	ea40 00dc 	orrcs.w	r0, r0, ip, lsr #3
 8000884:	ea55 0e06 	orrs.w	lr, r5, r6
 8000888:	d018      	beq.n	80008bc <__aeabi_ddiv+0x114>
 800088a:	ea4f 1505 	mov.w	r5, r5, lsl #4
 800088e:	ea45 7516 	orr.w	r5, r5, r6, lsr #28
 8000892:	ea4f 1606 	mov.w	r6, r6, lsl #4
 8000896:	ea4f 03c3 	mov.w	r3, r3, lsl #3
 800089a:	ea43 7352 	orr.w	r3, r3, r2, lsr #29
 800089e:	ea4f 02c2 	mov.w	r2, r2, lsl #3
 80008a2:	ea5f 1c1c 	movs.w	ip, ip, lsr #4
 80008a6:	d1c0      	bne.n	800082a <__aeabi_ddiv+0x82>
 80008a8:	f411 1f80 	tst.w	r1, #1048576	; 0x100000
 80008ac:	d10b      	bne.n	80008c6 <__aeabi_ddiv+0x11e>
 80008ae:	ea41 0100 	orr.w	r1, r1, r0
 80008b2:	f04f 0000 	mov.w	r0, #0
 80008b6:	f04f 4c00 	mov.w	ip, #2147483648	; 0x80000000
 80008ba:	e7b6      	b.n	800082a <__aeabi_ddiv+0x82>
 80008bc:	f411 1f80 	tst.w	r1, #1048576	; 0x100000
 80008c0:	bf04      	itt	eq
 80008c2:	4301      	orreq	r1, r0
 80008c4:	2000      	moveq	r0, #0
 80008c6:	f1b4 0cfd 	subs.w	ip, r4, #253	; 0xfd
 80008ca:	bf88      	it	hi
 80008cc:	f5bc 6fe0 	cmphi.w	ip, #1792	; 0x700
 80008d0:	f63f aeaf 	bhi.w	8000632 <__aeabi_dmul+0xde>
 80008d4:	ebb5 0c03 	subs.w	ip, r5, r3
 80008d8:	bf04      	itt	eq
 80008da:	ebb6 0c02 	subseq.w	ip, r6, r2
 80008de:	ea5f 0c50 	movseq.w	ip, r0, lsr #1
 80008e2:	f150 0000 	adcs.w	r0, r0, #0
 80008e6:	eb41 5104 	adc.w	r1, r1, r4, lsl #20
 80008ea:	bd70      	pop	{r4, r5, r6, pc}
 80008ec:	f00e 4e00 	and.w	lr, lr, #2147483648	; 0x80000000
 80008f0:	ea4e 3111 	orr.w	r1, lr, r1, lsr #12
 80008f4:	eb14 045c 	adds.w	r4, r4, ip, lsr #1
 80008f8:	bfc2      	ittt	gt
 80008fa:	ebd4 050c 	rsbsgt	r5, r4, ip
 80008fe:	ea41 5104 	orrgt.w	r1, r1, r4, lsl #20
 8000902:	bd70      	popgt	{r4, r5, r6, pc}
 8000904:	f441 1180 	orr.w	r1, r1, #1048576	; 0x100000
 8000908:	f04f 0e00 	mov.w	lr, #0
 800090c:	3c01      	subs	r4, #1
 800090e:	e690      	b.n	8000632 <__aeabi_dmul+0xde>
 8000910:	ea45 0e06 	orr.w	lr, r5, r6
 8000914:	e68d      	b.n	8000632 <__aeabi_dmul+0xde>
 8000916:	ea0c 5513 	and.w	r5, ip, r3, lsr #20
 800091a:	ea94 0f0c 	teq	r4, ip
 800091e:	bf08      	it	eq
 8000920:	ea95 0f0c 	teqeq	r5, ip
 8000924:	f43f af3b 	beq.w	800079e <__aeabi_dmul+0x24a>
 8000928:	ea94 0f0c 	teq	r4, ip
 800092c:	d10a      	bne.n	8000944 <__aeabi_ddiv+0x19c>
 800092e:	ea50 3401 	orrs.w	r4, r0, r1, lsl #12
 8000932:	f47f af34 	bne.w	800079e <__aeabi_dmul+0x24a>
 8000936:	ea95 0f0c 	teq	r5, ip
 800093a:	f47f af25 	bne.w	8000788 <__aeabi_dmul+0x234>
 800093e:	4610      	mov	r0, r2
 8000940:	4619      	mov	r1, r3
 8000942:	e72c      	b.n	800079e <__aeabi_dmul+0x24a>
 8000944:	ea95 0f0c 	teq	r5, ip
 8000948:	d106      	bne.n	8000958 <__aeabi_ddiv+0x1b0>
 800094a:	ea52 3503 	orrs.w	r5, r2, r3, lsl #12
 800094e:	f43f aefd 	beq.w	800074c <__aeabi_dmul+0x1f8>
 8000952:	4610      	mov	r0, r2
 8000954:	4619      	mov	r1, r3
 8000956:	e722      	b.n	800079e <__aeabi_dmul+0x24a>
 8000958:	ea50 0641 	orrs.w	r6, r0, r1, lsl #1
 800095c:	bf18      	it	ne
 800095e:	ea52 0643 	orrsne.w	r6, r2, r3, lsl #1
 8000962:	f47f aec5 	bne.w	80006f0 <__aeabi_dmul+0x19c>
 8000966:	ea50 0441 	orrs.w	r4, r0, r1, lsl #1
 800096a:	f47f af0d 	bne.w	8000788 <__aeabi_dmul+0x234>
 800096e:	ea52 0543 	orrs.w	r5, r2, r3, lsl #1
 8000972:	f47f aeeb 	bne.w	800074c <__aeabi_dmul+0x1f8>
 8000976:	e712      	b.n	800079e <__aeabi_dmul+0x24a>

08000978 <__gedf2>:
 8000978:	f04f 3cff 	mov.w	ip, #4294967295	; 0xffffffff
 800097c:	e006      	b.n	800098c <__cmpdf2+0x4>
 800097e:	bf00      	nop

08000980 <__ledf2>:
 8000980:	f04f 0c01 	mov.w	ip, #1
 8000984:	e002      	b.n	800098c <__cmpdf2+0x4>
 8000986:	bf00      	nop

08000988 <__cmpdf2>:
 8000988:	f04f 0c01 	mov.w	ip, #1
 800098c:	f84d cd04 	str.w	ip, [sp, #-4]!
 8000990:	ea4f 0c41 	mov.w	ip, r1, lsl #1
 8000994:	ea7f 5c6c 	mvns.w	ip, ip, asr #21
 8000998:	ea4f 0c43 	mov.w	ip, r3, lsl #1
 800099c:	bf18      	it	ne
 800099e:	ea7f 5c6c 	mvnsne.w	ip, ip, asr #21
 80009a2:	d01b      	beq.n	80009dc <__cmpdf2+0x54>
 80009a4:	b001      	add	sp, #4
 80009a6:	ea50 0c41 	orrs.w	ip, r0, r1, lsl #1
 80009aa:	bf0c      	ite	eq
 80009ac:	ea52 0c43 	orrseq.w	ip, r2, r3, lsl #1
 80009b0:	ea91 0f03 	teqne	r1, r3
 80009b4:	bf02      	ittt	eq
 80009b6:	ea90 0f02 	teqeq	r0, r2
 80009ba:	2000      	moveq	r0, #0
 80009bc:	4770      	bxeq	lr
 80009be:	f110 0f00 	cmn.w	r0, #0
 80009c2:	ea91 0f03 	teq	r1, r3
 80009c6:	bf58      	it	pl
 80009c8:	4299      	cmppl	r1, r3
 80009ca:	bf08      	it	eq
 80009cc:	4290      	cmpeq	r0, r2
 80009ce:	bf2c      	ite	cs
 80009d0:	17d8      	asrcs	r0, r3, #31
 80009d2:	ea6f 70e3 	mvncc.w	r0, r3, asr #31
 80009d6:	f040 0001 	orr.w	r0, r0, #1
 80009da:	4770      	bx	lr
 80009dc:	ea4f 0c41 	mov.w	ip, r1, lsl #1
 80009e0:	ea7f 5c6c 	mvns.w	ip, ip, asr #21
 80009e4:	d102      	bne.n	80009ec <__cmpdf2+0x64>
 80009e6:	ea50 3c01 	orrs.w	ip, r0, r1, lsl #12
 80009ea:	d107      	bne.n	80009fc <__cmpdf2+0x74>
 80009ec:	ea4f 0c43 	mov.w	ip, r3, lsl #1
 80009f0:	ea7f 5c6c 	mvns.w	ip, ip, asr #21
 80009f4:	d1d6      	bne.n	80009a4 <__cmpdf2+0x1c>
 80009f6:	ea52 3c03 	orrs.w	ip, r2, r3, lsl #12
 80009fa:	d0d3      	beq.n	80009a4 <__cmpdf2+0x1c>
 80009fc:	f85d 0b04 	ldr.w	r0, [sp], #4
 8000a00:	4770      	bx	lr
 8000a02:	bf00      	nop

08000a04 <__aeabi_cdrcmple>:
 8000a04:	4684      	mov	ip, r0
 8000a06:	4610      	mov	r0, r2
 8000a08:	4662      	mov	r2, ip
 8000a0a:	468c      	mov	ip, r1
 8000a0c:	4619      	mov	r1, r3
 8000a0e:	4663      	mov	r3, ip
 8000a10:	e000      	b.n	8000a14 <__aeabi_cdcmpeq>
 8000a12:	bf00      	nop

08000a14 <__aeabi_cdcmpeq>:
 8000a14:	b501      	push	{r0, lr}
 8000a16:	f7ff ffb7 	bl	8000988 <__cmpdf2>
 8000a1a:	2800      	cmp	r0, #0
 8000a1c:	bf48      	it	mi
 8000a1e:	f110 0f00 	cmnmi.w	r0, #0
 8000a22:	bd01      	pop	{r0, pc}

08000a24 <__aeabi_dcmpeq>:
 8000a24:	f84d ed08 	str.w	lr, [sp, #-8]!
 8000a28:	f7ff fff4 	bl	8000a14 <__aeabi_cdcmpeq>
 8000a2c:	bf0c      	ite	eq
 8000a2e:	2001      	moveq	r0, #1
 8000a30:	2000      	movne	r0, #0
 8000a32:	f85d fb08 	ldr.w	pc, [sp], #8
 8000a36:	bf00      	nop

08000a38 <__aeabi_dcmplt>:
 8000a38:	f84d ed08 	str.w	lr, [sp, #-8]!
 8000a3c:	f7ff ffea 	bl	8000a14 <__aeabi_cdcmpeq>
 8000a40:	bf34      	ite	cc
 8000a42:	2001      	movcc	r0, #1
 8000a44:	2000      	movcs	r0, #0
 8000a46:	f85d fb08 	ldr.w	pc, [sp], #8
 8000a4a:	bf00      	nop

08000a4c <__aeabi_dcmple>:
 8000a4c:	f84d ed08 	str.w	lr, [sp, #-8]!
 8000a50:	f7ff ffe0 	bl	8000a14 <__aeabi_cdcmpeq>
 8000a54:	bf94      	ite	ls
 8000a56:	2001      	movls	r0, #1
 8000a58:	2000      	movhi	r0, #0
 8000a5a:	f85d fb08 	ldr.w	pc, [sp], #8
 8000a5e:	bf00      	nop

08000a60 <__aeabi_dcmpge>:
 8000a60:	f84d ed08 	str.w	lr, [sp, #-8]!
 8000a64:	f7ff ffce 	bl	8000a04 <__aeabi_cdrcmple>
 8000a68:	bf94      	ite	ls
 8000a6a:	2001      	movls	r0, #1
 8000a6c:	2000      	movhi	r0, #0
 8000a6e:	f85d fb08 	ldr.w	pc, [sp], #8
 8000a72:	bf00      	nop

08000a74 <__aeabi_dcmpgt>:
 8000a74:	f84d ed08 	str.w	lr, [sp, #-8]!
 8000a78:	f7ff ffc4 	bl	8000a04 <__aeabi_cdrcmple>
 8000a7c:	bf34      	ite	cc
 8000a7e:	2001      	movcc	r0, #1
 8000a80:	2000      	movcs	r0, #0
 8000a82:	f85d fb08 	ldr.w	pc, [sp], #8
 8000a86:	bf00      	nop

08000a88 <__aeabi_d2iz>:
 8000a88:	ea4f 0241 	mov.w	r2, r1, lsl #1
 8000a8c:	f512 1200 	adds.w	r2, r2, #2097152	; 0x200000
 8000a90:	d215      	bcs.n	8000abe <__aeabi_d2iz+0x36>
 8000a92:	d511      	bpl.n	8000ab8 <__aeabi_d2iz+0x30>
 8000a94:	f46f 7378 	mvn.w	r3, #992	; 0x3e0
 8000a98:	ebb3 5262 	subs.w	r2, r3, r2, asr #21
 8000a9c:	d912      	bls.n	8000ac4 <__aeabi_d2iz+0x3c>
 8000a9e:	ea4f 23c1 	mov.w	r3, r1, lsl #11
 8000aa2:	f043 4300 	orr.w	r3, r3, #2147483648	; 0x80000000
 8000aa6:	ea43 5350 	orr.w	r3, r3, r0, lsr #21
 8000aaa:	f011 4f00 	tst.w	r1, #2147483648	; 0x80000000
 8000aae:	fa23 f002 	lsr.w	r0, r3, r2
 8000ab2:	bf18      	it	ne
 8000ab4:	4240      	negne	r0, r0
 8000ab6:	4770      	bx	lr
 8000ab8:	f04f 0000 	mov.w	r0, #0
 8000abc:	4770      	bx	lr
 8000abe:	ea50 3001 	orrs.w	r0, r0, r1, lsl #12
 8000ac2:	d105      	bne.n	8000ad0 <__aeabi_d2iz+0x48>
 8000ac4:	f011 4000 	ands.w	r0, r1, #2147483648	; 0x80000000
 8000ac8:	bf08      	it	eq
 8000aca:	f06f 4000 	mvneq.w	r0, #2147483648	; 0x80000000
 8000ace:	4770      	bx	lr
 8000ad0:	f04f 0000 	mov.w	r0, #0
 8000ad4:	4770      	bx	lr
 8000ad6:	bf00      	nop

08000ad8 <__aeabi_uldivmod>:
 8000ad8:	b953      	cbnz	r3, 8000af0 <__aeabi_uldivmod+0x18>
 8000ada:	b94a      	cbnz	r2, 8000af0 <__aeabi_uldivmod+0x18>
 8000adc:	2900      	cmp	r1, #0
 8000ade:	bf08      	it	eq
 8000ae0:	2800      	cmpeq	r0, #0
 8000ae2:	bf1c      	itt	ne
 8000ae4:	f04f 31ff 	movne.w	r1, #4294967295	; 0xffffffff
 8000ae8:	f04f 30ff 	movne.w	r0, #4294967295	; 0xffffffff
 8000aec:	f000 b83c 	b.w	8000b68 <__aeabi_idiv0>
 8000af0:	b082      	sub	sp, #8
 8000af2:	46ec      	mov	ip, sp
 8000af4:	e92d 5000 	stmdb	sp!, {ip, lr}
 8000af8:	f000 f81e 	bl	8000b38 <__gnu_uldivmod_helper>
 8000afc:	f8dd e004 	ldr.w	lr, [sp, #4]
 8000b00:	b002      	add	sp, #8
 8000b02:	bc0c      	pop	{r2, r3}
 8000b04:	4770      	bx	lr
 8000b06:	bf00      	nop

08000b08 <__gnu_ldivmod_helper>:
 8000b08:	e92d 41f0 	stmdb	sp!, {r4, r5, r6, r7, r8, lr}
 8000b0c:	9c06      	ldr	r4, [sp, #24]
 8000b0e:	4615      	mov	r5, r2
 8000b10:	4606      	mov	r6, r0
 8000b12:	460f      	mov	r7, r1
 8000b14:	4698      	mov	r8, r3
 8000b16:	f000 f829 	bl	8000b6c <__divdi3>
 8000b1a:	fb05 f301 	mul.w	r3, r5, r1
 8000b1e:	fb00 3808 	mla	r8, r0, r8, r3
 8000b22:	fba5 2300 	umull	r2, r3, r5, r0
 8000b26:	1ab2      	subs	r2, r6, r2
 8000b28:	4443      	add	r3, r8
 8000b2a:	eb67 0303 	sbc.w	r3, r7, r3
 8000b2e:	e9c4 2300 	strd	r2, r3, [r4]
 8000b32:	e8bd 81f0 	ldmia.w	sp!, {r4, r5, r6, r7, r8, pc}
 8000b36:	bf00      	nop

08000b38 <__gnu_uldivmod_helper>:
 8000b38:	e92d 41f0 	stmdb	sp!, {r4, r5, r6, r7, r8, lr}
 8000b3c:	9c06      	ldr	r4, [sp, #24]
 8000b3e:	4690      	mov	r8, r2
 8000b40:	4606      	mov	r6, r0
 8000b42:	460f      	mov	r7, r1
 8000b44:	461d      	mov	r5, r3
 8000b46:	f000 f95f 	bl	8000e08 <__udivdi3>
 8000b4a:	fb00 f505 	mul.w	r5, r0, r5
 8000b4e:	fba0 2308 	umull	r2, r3, r0, r8
 8000b52:	fb08 5501 	mla	r5, r8, r1, r5
 8000b56:	1ab2      	subs	r2, r6, r2
 8000b58:	442b      	add	r3, r5
 8000b5a:	eb67 0303 	sbc.w	r3, r7, r3
 8000b5e:	e9c4 2300 	strd	r2, r3, [r4]
 8000b62:	e8bd 81f0 	ldmia.w	sp!, {r4, r5, r6, r7, r8, pc}
 8000b66:	bf00      	nop

08000b68 <__aeabi_idiv0>:
 8000b68:	4770      	bx	lr
 8000b6a:	bf00      	nop

08000b6c <__divdi3>:
 8000b6c:	2900      	cmp	r1, #0
 8000b6e:	e92d 43f0 	stmdb	sp!, {r4, r5, r6, r7, r8, r9, lr}
 8000b72:	f2c0 80a6 	blt.w	8000cc2 <__divdi3+0x156>
 8000b76:	2600      	movs	r6, #0
 8000b78:	2b00      	cmp	r3, #0
 8000b7a:	f2c0 809c 	blt.w	8000cb6 <__divdi3+0x14a>
 8000b7e:	4688      	mov	r8, r1
 8000b80:	4694      	mov	ip, r2
 8000b82:	469e      	mov	lr, r3
 8000b84:	4615      	mov	r5, r2
 8000b86:	4604      	mov	r4, r0
 8000b88:	460f      	mov	r7, r1
 8000b8a:	2b00      	cmp	r3, #0
 8000b8c:	d13d      	bne.n	8000c0a <__divdi3+0x9e>
 8000b8e:	428a      	cmp	r2, r1
 8000b90:	d959      	bls.n	8000c46 <__divdi3+0xda>
 8000b92:	fab2 f382 	clz	r3, r2
 8000b96:	b13b      	cbz	r3, 8000ba8 <__divdi3+0x3c>
 8000b98:	f1c3 0220 	rsb	r2, r3, #32
 8000b9c:	409f      	lsls	r7, r3
 8000b9e:	fa20 f202 	lsr.w	r2, r0, r2
 8000ba2:	409d      	lsls	r5, r3
 8000ba4:	4317      	orrs	r7, r2
 8000ba6:	409c      	lsls	r4, r3
 8000ba8:	0c29      	lsrs	r1, r5, #16
 8000baa:	0c22      	lsrs	r2, r4, #16
 8000bac:	fbb7 fef1 	udiv	lr, r7, r1
 8000bb0:	b2a8      	uxth	r0, r5
 8000bb2:	fb01 771e 	mls	r7, r1, lr, r7
 8000bb6:	ea42 4707 	orr.w	r7, r2, r7, lsl #16
 8000bba:	fb00 f30e 	mul.w	r3, r0, lr
 8000bbe:	42bb      	cmp	r3, r7
 8000bc0:	d90a      	bls.n	8000bd8 <__divdi3+0x6c>
 8000bc2:	197f      	adds	r7, r7, r5
 8000bc4:	f10e 32ff 	add.w	r2, lr, #4294967295	; 0xffffffff
 8000bc8:	f080 8105 	bcs.w	8000dd6 <__divdi3+0x26a>
 8000bcc:	42bb      	cmp	r3, r7
 8000bce:	f240 8102 	bls.w	8000dd6 <__divdi3+0x26a>
 8000bd2:	f1ae 0e02 	sub.w	lr, lr, #2
 8000bd6:	442f      	add	r7, r5
 8000bd8:	1aff      	subs	r7, r7, r3
 8000bda:	b2a4      	uxth	r4, r4
 8000bdc:	fbb7 f3f1 	udiv	r3, r7, r1
 8000be0:	fb01 7713 	mls	r7, r1, r3, r7
 8000be4:	ea44 4707 	orr.w	r7, r4, r7, lsl #16
 8000be8:	fb00 f003 	mul.w	r0, r0, r3
 8000bec:	42b8      	cmp	r0, r7
 8000bee:	d908      	bls.n	8000c02 <__divdi3+0x96>
 8000bf0:	197f      	adds	r7, r7, r5
 8000bf2:	f103 32ff 	add.w	r2, r3, #4294967295	; 0xffffffff
 8000bf6:	f080 80f0 	bcs.w	8000dda <__divdi3+0x26e>
 8000bfa:	42b8      	cmp	r0, r7
 8000bfc:	f240 80ed 	bls.w	8000dda <__divdi3+0x26e>
 8000c00:	3b02      	subs	r3, #2
 8000c02:	ea43 430e 	orr.w	r3, r3, lr, lsl #16
 8000c06:	2200      	movs	r2, #0
 8000c08:	e003      	b.n	8000c12 <__divdi3+0xa6>
 8000c0a:	428b      	cmp	r3, r1
 8000c0c:	d90f      	bls.n	8000c2e <__divdi3+0xc2>
 8000c0e:	2200      	movs	r2, #0
 8000c10:	4613      	mov	r3, r2
 8000c12:	1c34      	adds	r4, r6, #0
 8000c14:	bf18      	it	ne
 8000c16:	2401      	movne	r4, #1
 8000c18:	4260      	negs	r0, r4
 8000c1a:	f04f 0500 	mov.w	r5, #0
 8000c1e:	eb65 0145 	sbc.w	r1, r5, r5, lsl #1
 8000c22:	4058      	eors	r0, r3
 8000c24:	4051      	eors	r1, r2
 8000c26:	1900      	adds	r0, r0, r4
 8000c28:	4169      	adcs	r1, r5
 8000c2a:	e8bd 83f0 	ldmia.w	sp!, {r4, r5, r6, r7, r8, r9, pc}
 8000c2e:	fab3 f283 	clz	r2, r3
 8000c32:	2a00      	cmp	r2, #0
 8000c34:	f040 8086 	bne.w	8000d44 <__divdi3+0x1d8>
 8000c38:	428b      	cmp	r3, r1
 8000c3a:	d302      	bcc.n	8000c42 <__divdi3+0xd6>
 8000c3c:	4584      	cmp	ip, r0
 8000c3e:	f200 80db 	bhi.w	8000df8 <__divdi3+0x28c>
 8000c42:	2301      	movs	r3, #1
 8000c44:	e7e5      	b.n	8000c12 <__divdi3+0xa6>
 8000c46:	b912      	cbnz	r2, 8000c4e <__divdi3+0xe2>
 8000c48:	2301      	movs	r3, #1
 8000c4a:	fbb3 f5f2 	udiv	r5, r3, r2
 8000c4e:	fab5 f085 	clz	r0, r5
 8000c52:	2800      	cmp	r0, #0
 8000c54:	d13b      	bne.n	8000cce <__divdi3+0x162>
 8000c56:	1b78      	subs	r0, r7, r5
 8000c58:	ea4f 4e15 	mov.w	lr, r5, lsr #16
 8000c5c:	fa1f fc85 	uxth.w	ip, r5
 8000c60:	2201      	movs	r2, #1
 8000c62:	fbb0 f8fe 	udiv	r8, r0, lr
 8000c66:	0c21      	lsrs	r1, r4, #16
 8000c68:	fb0e 0718 	mls	r7, lr, r8, r0
 8000c6c:	ea41 4707 	orr.w	r7, r1, r7, lsl #16
 8000c70:	fb0c f308 	mul.w	r3, ip, r8
 8000c74:	42bb      	cmp	r3, r7
 8000c76:	d907      	bls.n	8000c88 <__divdi3+0x11c>
 8000c78:	197f      	adds	r7, r7, r5
 8000c7a:	f108 31ff 	add.w	r1, r8, #4294967295	; 0xffffffff
 8000c7e:	d202      	bcs.n	8000c86 <__divdi3+0x11a>
 8000c80:	42bb      	cmp	r3, r7
 8000c82:	f200 80bd 	bhi.w	8000e00 <__divdi3+0x294>
 8000c86:	4688      	mov	r8, r1
 8000c88:	1aff      	subs	r7, r7, r3
 8000c8a:	b2a4      	uxth	r4, r4
 8000c8c:	fbb7 f3fe 	udiv	r3, r7, lr
 8000c90:	fb0e 7713 	mls	r7, lr, r3, r7
 8000c94:	ea44 4707 	orr.w	r7, r4, r7, lsl #16
 8000c98:	fb0c fc03 	mul.w	ip, ip, r3
 8000c9c:	45bc      	cmp	ip, r7
 8000c9e:	d907      	bls.n	8000cb0 <__divdi3+0x144>
 8000ca0:	197f      	adds	r7, r7, r5
 8000ca2:	f103 31ff 	add.w	r1, r3, #4294967295	; 0xffffffff
 8000ca6:	d202      	bcs.n	8000cae <__divdi3+0x142>
 8000ca8:	45bc      	cmp	ip, r7
 8000caa:	f200 80a7 	bhi.w	8000dfc <__divdi3+0x290>
 8000cae:	460b      	mov	r3, r1
 8000cb0:	ea43 4308 	orr.w	r3, r3, r8, lsl #16
 8000cb4:	e7ad      	b.n	8000c12 <__divdi3+0xa6>
 8000cb6:	4252      	negs	r2, r2
 8000cb8:	ea6f 0606 	mvn.w	r6, r6
 8000cbc:	eb63 0343 	sbc.w	r3, r3, r3, lsl #1
 8000cc0:	e75d      	b.n	8000b7e <__divdi3+0x12>
 8000cc2:	4240      	negs	r0, r0
 8000cc4:	eb61 0141 	sbc.w	r1, r1, r1, lsl #1
 8000cc8:	f04f 36ff 	mov.w	r6, #4294967295	; 0xffffffff
 8000ccc:	e754      	b.n	8000b78 <__divdi3+0xc>
 8000cce:	f1c0 0220 	rsb	r2, r0, #32
 8000cd2:	fa24 f102 	lsr.w	r1, r4, r2
 8000cd6:	fa07 f300 	lsl.w	r3, r7, r0
 8000cda:	4085      	lsls	r5, r0
 8000cdc:	ea4f 4e15 	mov.w	lr, r5, lsr #16
 8000ce0:	40d7      	lsrs	r7, r2
 8000ce2:	4319      	orrs	r1, r3
 8000ce4:	fbb7 f2fe 	udiv	r2, r7, lr
 8000ce8:	0c0b      	lsrs	r3, r1, #16
 8000cea:	fb0e 7712 	mls	r7, lr, r2, r7
 8000cee:	fa1f fc85 	uxth.w	ip, r5
 8000cf2:	ea43 4307 	orr.w	r3, r3, r7, lsl #16
 8000cf6:	fb0c f702 	mul.w	r7, ip, r2
 8000cfa:	429f      	cmp	r7, r3
 8000cfc:	fa04 f400 	lsl.w	r4, r4, r0
 8000d00:	d907      	bls.n	8000d12 <__divdi3+0x1a6>
 8000d02:	195b      	adds	r3, r3, r5
 8000d04:	f102 30ff 	add.w	r0, r2, #4294967295	; 0xffffffff
 8000d08:	d274      	bcs.n	8000df4 <__divdi3+0x288>
 8000d0a:	429f      	cmp	r7, r3
 8000d0c:	d972      	bls.n	8000df4 <__divdi3+0x288>
 8000d0e:	3a02      	subs	r2, #2
 8000d10:	442b      	add	r3, r5
 8000d12:	1bdf      	subs	r7, r3, r7
 8000d14:	b289      	uxth	r1, r1
 8000d16:	fbb7 f8fe 	udiv	r8, r7, lr
 8000d1a:	fb0e 7318 	mls	r3, lr, r8, r7
 8000d1e:	ea41 4303 	orr.w	r3, r1, r3, lsl #16
 8000d22:	fb0c f708 	mul.w	r7, ip, r8
 8000d26:	429f      	cmp	r7, r3
 8000d28:	d908      	bls.n	8000d3c <__divdi3+0x1d0>
 8000d2a:	195b      	adds	r3, r3, r5
 8000d2c:	f108 31ff 	add.w	r1, r8, #4294967295	; 0xffffffff
 8000d30:	d25c      	bcs.n	8000dec <__divdi3+0x280>
 8000d32:	429f      	cmp	r7, r3
 8000d34:	d95a      	bls.n	8000dec <__divdi3+0x280>
 8000d36:	f1a8 0802 	sub.w	r8, r8, #2
 8000d3a:	442b      	add	r3, r5
 8000d3c:	1bd8      	subs	r0, r3, r7
 8000d3e:	ea48 4202 	orr.w	r2, r8, r2, lsl #16
 8000d42:	e78e      	b.n	8000c62 <__divdi3+0xf6>
 8000d44:	f1c2 0320 	rsb	r3, r2, #32
 8000d48:	fa2c f103 	lsr.w	r1, ip, r3
 8000d4c:	fa0e fe02 	lsl.w	lr, lr, r2
 8000d50:	fa20 f703 	lsr.w	r7, r0, r3
 8000d54:	ea41 0e0e 	orr.w	lr, r1, lr
 8000d58:	fa08 f002 	lsl.w	r0, r8, r2
 8000d5c:	fa28 f103 	lsr.w	r1, r8, r3
 8000d60:	ea4f 451e 	mov.w	r5, lr, lsr #16
 8000d64:	4338      	orrs	r0, r7
 8000d66:	fbb1 f8f5 	udiv	r8, r1, r5
 8000d6a:	0c03      	lsrs	r3, r0, #16
 8000d6c:	fb05 1118 	mls	r1, r5, r8, r1
 8000d70:	fa1f f78e 	uxth.w	r7, lr
 8000d74:	ea43 4101 	orr.w	r1, r3, r1, lsl #16
 8000d78:	fb07 f308 	mul.w	r3, r7, r8
 8000d7c:	428b      	cmp	r3, r1
 8000d7e:	fa0c fc02 	lsl.w	ip, ip, r2
 8000d82:	d909      	bls.n	8000d98 <__divdi3+0x22c>
 8000d84:	eb11 010e 	adds.w	r1, r1, lr
 8000d88:	f108 39ff 	add.w	r9, r8, #4294967295	; 0xffffffff
 8000d8c:	d230      	bcs.n	8000df0 <__divdi3+0x284>
 8000d8e:	428b      	cmp	r3, r1
 8000d90:	d92e      	bls.n	8000df0 <__divdi3+0x284>
 8000d92:	f1a8 0802 	sub.w	r8, r8, #2
 8000d96:	4471      	add	r1, lr
 8000d98:	1ac9      	subs	r1, r1, r3
 8000d9a:	b280      	uxth	r0, r0
 8000d9c:	fbb1 f3f5 	udiv	r3, r1, r5
 8000da0:	fb05 1113 	mls	r1, r5, r3, r1
 8000da4:	ea40 4101 	orr.w	r1, r0, r1, lsl #16
 8000da8:	fb07 f703 	mul.w	r7, r7, r3
 8000dac:	428f      	cmp	r7, r1
 8000dae:	d908      	bls.n	8000dc2 <__divdi3+0x256>
 8000db0:	eb11 010e 	adds.w	r1, r1, lr
 8000db4:	f103 30ff 	add.w	r0, r3, #4294967295	; 0xffffffff
 8000db8:	d216      	bcs.n	8000de8 <__divdi3+0x27c>
 8000dba:	428f      	cmp	r7, r1
 8000dbc:	d914      	bls.n	8000de8 <__divdi3+0x27c>
 8000dbe:	3b02      	subs	r3, #2
 8000dc0:	4471      	add	r1, lr
 8000dc2:	ea43 4308 	orr.w	r3, r3, r8, lsl #16
 8000dc6:	1bc9      	subs	r1, r1, r7
 8000dc8:	fba3 890c 	umull	r8, r9, r3, ip
 8000dcc:	4549      	cmp	r1, r9
 8000dce:	d309      	bcc.n	8000de4 <__divdi3+0x278>
 8000dd0:	d005      	beq.n	8000dde <__divdi3+0x272>
 8000dd2:	2200      	movs	r2, #0
 8000dd4:	e71d      	b.n	8000c12 <__divdi3+0xa6>
 8000dd6:	4696      	mov	lr, r2
 8000dd8:	e6fe      	b.n	8000bd8 <__divdi3+0x6c>
 8000dda:	4613      	mov	r3, r2
 8000ddc:	e711      	b.n	8000c02 <__divdi3+0x96>
 8000dde:	4094      	lsls	r4, r2
 8000de0:	4544      	cmp	r4, r8
 8000de2:	d2f6      	bcs.n	8000dd2 <__divdi3+0x266>
 8000de4:	3b01      	subs	r3, #1
 8000de6:	e7f4      	b.n	8000dd2 <__divdi3+0x266>
 8000de8:	4603      	mov	r3, r0
 8000dea:	e7ea      	b.n	8000dc2 <__divdi3+0x256>
 8000dec:	4688      	mov	r8, r1
 8000dee:	e7a5      	b.n	8000d3c <__divdi3+0x1d0>
 8000df0:	46c8      	mov	r8, r9
 8000df2:	e7d1      	b.n	8000d98 <__divdi3+0x22c>
 8000df4:	4602      	mov	r2, r0
 8000df6:	e78c      	b.n	8000d12 <__divdi3+0x1a6>
 8000df8:	4613      	mov	r3, r2
 8000dfa:	e70a      	b.n	8000c12 <__divdi3+0xa6>
 8000dfc:	3b02      	subs	r3, #2
 8000dfe:	e757      	b.n	8000cb0 <__divdi3+0x144>
 8000e00:	f1a8 0802 	sub.w	r8, r8, #2
 8000e04:	442f      	add	r7, r5
 8000e06:	e73f      	b.n	8000c88 <__divdi3+0x11c>

08000e08 <__udivdi3>:
 8000e08:	e92d 41f0 	stmdb	sp!, {r4, r5, r6, r7, r8, lr}
 8000e0c:	2b00      	cmp	r3, #0
 8000e0e:	d144      	bne.n	8000e9a <__udivdi3+0x92>
 8000e10:	428a      	cmp	r2, r1
 8000e12:	4615      	mov	r5, r2
 8000e14:	4604      	mov	r4, r0
 8000e16:	d94f      	bls.n	8000eb8 <__udivdi3+0xb0>
 8000e18:	fab2 f782 	clz	r7, r2
 8000e1c:	460e      	mov	r6, r1
 8000e1e:	b14f      	cbz	r7, 8000e34 <__udivdi3+0x2c>
 8000e20:	f1c7 0320 	rsb	r3, r7, #32
 8000e24:	40b9      	lsls	r1, r7
 8000e26:	fa20 f603 	lsr.w	r6, r0, r3
 8000e2a:	fa02 f507 	lsl.w	r5, r2, r7
 8000e2e:	430e      	orrs	r6, r1
 8000e30:	fa00 f407 	lsl.w	r4, r0, r7
 8000e34:	ea4f 4e15 	mov.w	lr, r5, lsr #16
 8000e38:	0c23      	lsrs	r3, r4, #16
 8000e3a:	fbb6 f0fe 	udiv	r0, r6, lr
 8000e3e:	b2af      	uxth	r7, r5
 8000e40:	fb0e 6110 	mls	r1, lr, r0, r6
 8000e44:	ea43 4301 	orr.w	r3, r3, r1, lsl #16
 8000e48:	fb07 f100 	mul.w	r1, r7, r0
 8000e4c:	4299      	cmp	r1, r3
 8000e4e:	d909      	bls.n	8000e64 <__udivdi3+0x5c>
 8000e50:	195b      	adds	r3, r3, r5
 8000e52:	f100 32ff 	add.w	r2, r0, #4294967295	; 0xffffffff
 8000e56:	f080 80ec 	bcs.w	8001032 <__udivdi3+0x22a>
 8000e5a:	4299      	cmp	r1, r3
 8000e5c:	f240 80e9 	bls.w	8001032 <__udivdi3+0x22a>
 8000e60:	3802      	subs	r0, #2
 8000e62:	442b      	add	r3, r5
 8000e64:	1a5a      	subs	r2, r3, r1
 8000e66:	b2a4      	uxth	r4, r4
 8000e68:	fbb2 f3fe 	udiv	r3, r2, lr
 8000e6c:	fb0e 2213 	mls	r2, lr, r3, r2
 8000e70:	ea44 4202 	orr.w	r2, r4, r2, lsl #16
 8000e74:	fb07 f703 	mul.w	r7, r7, r3
 8000e78:	4297      	cmp	r7, r2
 8000e7a:	d908      	bls.n	8000e8e <__udivdi3+0x86>
 8000e7c:	1952      	adds	r2, r2, r5
 8000e7e:	f103 31ff 	add.w	r1, r3, #4294967295	; 0xffffffff
 8000e82:	f080 80d8 	bcs.w	8001036 <__udivdi3+0x22e>
 8000e86:	4297      	cmp	r7, r2
 8000e88:	f240 80d5 	bls.w	8001036 <__udivdi3+0x22e>
 8000e8c:	3b02      	subs	r3, #2
 8000e8e:	ea43 4000 	orr.w	r0, r3, r0, lsl #16
 8000e92:	2600      	movs	r6, #0
 8000e94:	4631      	mov	r1, r6
 8000e96:	e8bd 81f0 	ldmia.w	sp!, {r4, r5, r6, r7, r8, pc}
 8000e9a:	428b      	cmp	r3, r1
 8000e9c:	d847      	bhi.n	8000f2e <__udivdi3+0x126>
 8000e9e:	fab3 f683 	clz	r6, r3
 8000ea2:	2e00      	cmp	r6, #0
 8000ea4:	d148      	bne.n	8000f38 <__udivdi3+0x130>
 8000ea6:	428b      	cmp	r3, r1
 8000ea8:	d302      	bcc.n	8000eb0 <__udivdi3+0xa8>
 8000eaa:	4282      	cmp	r2, r0
 8000eac:	f200 80cd 	bhi.w	800104a <__udivdi3+0x242>
 8000eb0:	2001      	movs	r0, #1
 8000eb2:	4631      	mov	r1, r6
 8000eb4:	e8bd 81f0 	ldmia.w	sp!, {r4, r5, r6, r7, r8, pc}
 8000eb8:	b912      	cbnz	r2, 8000ec0 <__udivdi3+0xb8>
 8000eba:	2501      	movs	r5, #1
 8000ebc:	fbb5 f5f2 	udiv	r5, r5, r2
 8000ec0:	fab5 f885 	clz	r8, r5
 8000ec4:	f1b8 0f00 	cmp.w	r8, #0
 8000ec8:	d177      	bne.n	8000fba <__udivdi3+0x1b2>
 8000eca:	1b4a      	subs	r2, r1, r5
 8000ecc:	ea4f 4e15 	mov.w	lr, r5, lsr #16
 8000ed0:	b2af      	uxth	r7, r5
 8000ed2:	2601      	movs	r6, #1
 8000ed4:	fbb2 f0fe 	udiv	r0, r2, lr
 8000ed8:	0c23      	lsrs	r3, r4, #16
 8000eda:	fb0e 2110 	mls	r1, lr, r0, r2
 8000ede:	ea43 4101 	orr.w	r1, r3, r1, lsl #16
 8000ee2:	fb07 f300 	mul.w	r3, r7, r0
 8000ee6:	428b      	cmp	r3, r1
 8000ee8:	d907      	bls.n	8000efa <__udivdi3+0xf2>
 8000eea:	1949      	adds	r1, r1, r5
 8000eec:	f100 32ff 	add.w	r2, r0, #4294967295	; 0xffffffff
 8000ef0:	d202      	bcs.n	8000ef8 <__udivdi3+0xf0>
 8000ef2:	428b      	cmp	r3, r1
 8000ef4:	f200 80ba 	bhi.w	800106c <__udivdi3+0x264>
 8000ef8:	4610      	mov	r0, r2
 8000efa:	1ac9      	subs	r1, r1, r3
 8000efc:	b2a4      	uxth	r4, r4
 8000efe:	fbb1 f3fe 	udiv	r3, r1, lr
 8000f02:	fb0e 1113 	mls	r1, lr, r3, r1
 8000f06:	ea44 4401 	orr.w	r4, r4, r1, lsl #16
 8000f0a:	fb07 f703 	mul.w	r7, r7, r3
 8000f0e:	42a7      	cmp	r7, r4
 8000f10:	d908      	bls.n	8000f24 <__udivdi3+0x11c>
 8000f12:	1964      	adds	r4, r4, r5
 8000f14:	f103 32ff 	add.w	r2, r3, #4294967295	; 0xffffffff
 8000f18:	f080 808f 	bcs.w	800103a <__udivdi3+0x232>
 8000f1c:	42a7      	cmp	r7, r4
 8000f1e:	f240 808c 	bls.w	800103a <__udivdi3+0x232>
 8000f22:	3b02      	subs	r3, #2
 8000f24:	ea43 4000 	orr.w	r0, r3, r0, lsl #16
 8000f28:	4631      	mov	r1, r6
 8000f2a:	e8bd 81f0 	ldmia.w	sp!, {r4, r5, r6, r7, r8, pc}
 8000f2e:	2600      	movs	r6, #0
 8000f30:	4630      	mov	r0, r6
 8000f32:	4631      	mov	r1, r6
 8000f34:	e8bd 81f0 	ldmia.w	sp!, {r4, r5, r6, r7, r8, pc}
 8000f38:	f1c6 0420 	rsb	r4, r6, #32
 8000f3c:	fa22 f504 	lsr.w	r5, r2, r4
 8000f40:	40b3      	lsls	r3, r6
 8000f42:	432b      	orrs	r3, r5
 8000f44:	fa20 fc04 	lsr.w	ip, r0, r4
 8000f48:	fa01 f706 	lsl.w	r7, r1, r6
 8000f4c:	fa21 f504 	lsr.w	r5, r1, r4
 8000f50:	ea4f 4e13 	mov.w	lr, r3, lsr #16
 8000f54:	ea4c 0707 	orr.w	r7, ip, r7
 8000f58:	fbb5 f8fe 	udiv	r8, r5, lr
 8000f5c:	0c39      	lsrs	r1, r7, #16
 8000f5e:	fb0e 5518 	mls	r5, lr, r8, r5
 8000f62:	fa1f fc83 	uxth.w	ip, r3
 8000f66:	ea41 4505 	orr.w	r5, r1, r5, lsl #16
 8000f6a:	fb0c f108 	mul.w	r1, ip, r8
 8000f6e:	42a9      	cmp	r1, r5
 8000f70:	fa02 f206 	lsl.w	r2, r2, r6
 8000f74:	d904      	bls.n	8000f80 <__udivdi3+0x178>
 8000f76:	18ed      	adds	r5, r5, r3
 8000f78:	f108 34ff 	add.w	r4, r8, #4294967295	; 0xffffffff
 8000f7c:	d367      	bcc.n	800104e <__udivdi3+0x246>
 8000f7e:	46a0      	mov	r8, r4
 8000f80:	1a6d      	subs	r5, r5, r1
 8000f82:	b2bf      	uxth	r7, r7
 8000f84:	fbb5 f4fe 	udiv	r4, r5, lr
 8000f88:	fb0e 5514 	mls	r5, lr, r4, r5
 8000f8c:	ea47 4105 	orr.w	r1, r7, r5, lsl #16
 8000f90:	fb0c fc04 	mul.w	ip, ip, r4
 8000f94:	458c      	cmp	ip, r1
 8000f96:	d904      	bls.n	8000fa2 <__udivdi3+0x19a>
 8000f98:	18c9      	adds	r1, r1, r3
 8000f9a:	f104 35ff 	add.w	r5, r4, #4294967295	; 0xffffffff
 8000f9e:	d35c      	bcc.n	800105a <__udivdi3+0x252>
 8000fa0:	462c      	mov	r4, r5
 8000fa2:	ea44 4408 	orr.w	r4, r4, r8, lsl #16
 8000fa6:	ebcc 0101 	rsb	r1, ip, r1
 8000faa:	fba4 2302 	umull	r2, r3, r4, r2
 8000fae:	4299      	cmp	r1, r3
 8000fb0:	d348      	bcc.n	8001044 <__udivdi3+0x23c>
 8000fb2:	d044      	beq.n	800103e <__udivdi3+0x236>
 8000fb4:	4620      	mov	r0, r4
 8000fb6:	2600      	movs	r6, #0
 8000fb8:	e76c      	b.n	8000e94 <__udivdi3+0x8c>
 8000fba:	f1c8 0420 	rsb	r4, r8, #32
 8000fbe:	fa01 f308 	lsl.w	r3, r1, r8
 8000fc2:	fa05 f508 	lsl.w	r5, r5, r8
 8000fc6:	fa20 f704 	lsr.w	r7, r0, r4
 8000fca:	40e1      	lsrs	r1, r4
 8000fcc:	ea4f 4e15 	mov.w	lr, r5, lsr #16
 8000fd0:	431f      	orrs	r7, r3
 8000fd2:	fbb1 f6fe 	udiv	r6, r1, lr
 8000fd6:	0c3a      	lsrs	r2, r7, #16
 8000fd8:	fb0e 1116 	mls	r1, lr, r6, r1
 8000fdc:	fa1f fc85 	uxth.w	ip, r5
 8000fe0:	ea42 4301 	orr.w	r3, r2, r1, lsl #16
 8000fe4:	fb0c f206 	mul.w	r2, ip, r6
 8000fe8:	429a      	cmp	r2, r3
 8000fea:	fa00 f408 	lsl.w	r4, r0, r8
 8000fee:	d907      	bls.n	8001000 <__udivdi3+0x1f8>
 8000ff0:	195b      	adds	r3, r3, r5
 8000ff2:	f106 31ff 	add.w	r1, r6, #4294967295	; 0xffffffff
 8000ff6:	d237      	bcs.n	8001068 <__udivdi3+0x260>
 8000ff8:	429a      	cmp	r2, r3
 8000ffa:	d935      	bls.n	8001068 <__udivdi3+0x260>
 8000ffc:	3e02      	subs	r6, #2
 8000ffe:	442b      	add	r3, r5
 8001000:	1a9b      	subs	r3, r3, r2
 8001002:	b2bf      	uxth	r7, r7
 8001004:	fbb3 f0fe 	udiv	r0, r3, lr
 8001008:	fb0e 3310 	mls	r3, lr, r0, r3
 800100c:	ea47 4303 	orr.w	r3, r7, r3, lsl #16
 8001010:	fb0c f100 	mul.w	r1, ip, r0
 8001014:	4299      	cmp	r1, r3
 8001016:	d907      	bls.n	8001028 <__udivdi3+0x220>
 8001018:	195b      	adds	r3, r3, r5
 800101a:	f100 32ff 	add.w	r2, r0, #4294967295	; 0xffffffff
 800101e:	d221      	bcs.n	8001064 <__udivdi3+0x25c>
 8001020:	4299      	cmp	r1, r3
 8001022:	d91f      	bls.n	8001064 <__udivdi3+0x25c>
 8001024:	3802      	subs	r0, #2
 8001026:	442b      	add	r3, r5
 8001028:	1a5a      	subs	r2, r3, r1
 800102a:	ea40 4606 	orr.w	r6, r0, r6, lsl #16
 800102e:	4667      	mov	r7, ip
 8001030:	e750      	b.n	8000ed4 <__udivdi3+0xcc>
 8001032:	4610      	mov	r0, r2
 8001034:	e716      	b.n	8000e64 <__udivdi3+0x5c>
 8001036:	460b      	mov	r3, r1
 8001038:	e729      	b.n	8000e8e <__udivdi3+0x86>
 800103a:	4613      	mov	r3, r2
 800103c:	e772      	b.n	8000f24 <__udivdi3+0x11c>
 800103e:	40b0      	lsls	r0, r6
 8001040:	4290      	cmp	r0, r2
 8001042:	d2b7      	bcs.n	8000fb4 <__udivdi3+0x1ac>
 8001044:	1e60      	subs	r0, r4, #1
 8001046:	2600      	movs	r6, #0
 8001048:	e724      	b.n	8000e94 <__udivdi3+0x8c>
 800104a:	4630      	mov	r0, r6
 800104c:	e722      	b.n	8000e94 <__udivdi3+0x8c>
 800104e:	42a9      	cmp	r1, r5
 8001050:	d995      	bls.n	8000f7e <__udivdi3+0x176>
 8001052:	f1a8 0802 	sub.w	r8, r8, #2
 8001056:	441d      	add	r5, r3
 8001058:	e792      	b.n	8000f80 <__udivdi3+0x178>
 800105a:	458c      	cmp	ip, r1
 800105c:	d9a0      	bls.n	8000fa0 <__udivdi3+0x198>
 800105e:	3c02      	subs	r4, #2
 8001060:	4419      	add	r1, r3
 8001062:	e79e      	b.n	8000fa2 <__udivdi3+0x19a>
 8001064:	4610      	mov	r0, r2
 8001066:	e7df      	b.n	8001028 <__udivdi3+0x220>
 8001068:	460e      	mov	r6, r1
 800106a:	e7c9      	b.n	8001000 <__udivdi3+0x1f8>
 800106c:	3802      	subs	r0, #2
 800106e:	4429      	add	r1, r5
 8001070:	e743      	b.n	8000efa <__udivdi3+0xf2>
 8001072:	bf00      	nop

08001074 <Error_Handler>:
 8001074:	b672      	cpsid	i
 8001076:	e7fe      	b.n	8001076 <Error_Handler+0x2>

08001078 <SystemClock_Config>:
 8001078:	b500      	push	{lr}
 800107a:	b095      	sub	sp, #84	; 0x54
 800107c:	2300      	movs	r3, #0
 800107e:	9308      	str	r3, [sp, #32]
 8001080:	9309      	str	r3, [sp, #36]	; 0x24
 8001082:	930a      	str	r3, [sp, #40]	; 0x28
 8001084:	930b      	str	r3, [sp, #44]	; 0x2c
 8001086:	930c      	str	r3, [sp, #48]	; 0x30
 8001088:	930d      	str	r3, [sp, #52]	; 0x34
 800108a:	930e      	str	r3, [sp, #56]	; 0x38
 800108c:	930f      	str	r3, [sp, #60]	; 0x3c
 800108e:	9310      	str	r3, [sp, #64]	; 0x40
 8001090:	9311      	str	r3, [sp, #68]	; 0x44
 8001092:	9312      	str	r3, [sp, #72]	; 0x48
 8001094:	9313      	str	r3, [sp, #76]	; 0x4c
 8001096:	9303      	str	r3, [sp, #12]
 8001098:	9304      	str	r3, [sp, #16]
 800109a:	9305      	str	r3, [sp, #20]
 800109c:	9306      	str	r3, [sp, #24]
 800109e:	9307      	str	r3, [sp, #28]
 80010a0:	9301      	str	r3, [sp, #4]
 80010a2:	4a1f      	ldr	r2, [pc, #124]	; (8001120 <SystemClock_Config+0xa8>)
 80010a4:	6c11      	ldr	r1, [r2, #64]	; 0x40
 80010a6:	f041 5180 	orr.w	r1, r1, #268435456	; 0x10000000
 80010aa:	6411      	str	r1, [r2, #64]	; 0x40
 80010ac:	6c12      	ldr	r2, [r2, #64]	; 0x40
 80010ae:	f002 5280 	and.w	r2, r2, #268435456	; 0x10000000
 80010b2:	9201      	str	r2, [sp, #4]
 80010b4:	9a01      	ldr	r2, [sp, #4]
 80010b6:	9302      	str	r3, [sp, #8]
 80010b8:	4a1a      	ldr	r2, [pc, #104]	; (8001124 <SystemClock_Config+0xac>)
 80010ba:	6811      	ldr	r1, [r2, #0]
 80010bc:	f441 4180 	orr.w	r1, r1, #16384	; 0x4000
 80010c0:	6011      	str	r1, [r2, #0]
 80010c2:	6812      	ldr	r2, [r2, #0]
 80010c4:	f402 4280 	and.w	r2, r2, #16384	; 0x4000
 80010c8:	9202      	str	r2, [sp, #8]
 80010ca:	9a02      	ldr	r2, [sp, #8]
 80010cc:	2202      	movs	r2, #2
 80010ce:	9208      	str	r2, [sp, #32]
 80010d0:	2101      	movs	r1, #1
 80010d2:	910b      	str	r1, [sp, #44]	; 0x2c
 80010d4:	2110      	movs	r1, #16
 80010d6:	910c      	str	r1, [sp, #48]	; 0x30
 80010d8:	920e      	str	r2, [sp, #56]	; 0x38
 80010da:	930f      	str	r3, [sp, #60]	; 0x3c
 80010dc:	2308      	movs	r3, #8
 80010de:	9310      	str	r3, [sp, #64]	; 0x40
 80010e0:	2332      	movs	r3, #50	; 0x32
 80010e2:	9311      	str	r3, [sp, #68]	; 0x44
 80010e4:	9212      	str	r2, [sp, #72]	; 0x48
 80010e6:	2303      	movs	r3, #3
 80010e8:	9313      	str	r3, [sp, #76]	; 0x4c
 80010ea:	a808      	add	r0, sp, #32
 80010ec:	f000 fccc 	bl	8001a88 <HAL_RCC_OscConfig>
 80010f0:	b108      	cbz	r0, 80010f6 <SystemClock_Config+0x7e>
 80010f2:	f7ff ffbf 	bl	8001074 <Error_Handler>
 80010f6:	230f      	movs	r3, #15
 80010f8:	9303      	str	r3, [sp, #12]
 80010fa:	2302      	movs	r3, #2
 80010fc:	9304      	str	r3, [sp, #16]
 80010fe:	2300      	movs	r3, #0
 8001100:	9305      	str	r3, [sp, #20]
 8001102:	f44f 5280 	mov.w	r2, #4096	; 0x1000
 8001106:	9206      	str	r2, [sp, #24]
 8001108:	9307      	str	r3, [sp, #28]
 800110a:	a803      	add	r0, sp, #12
 800110c:	2101      	movs	r1, #1
 800110e:	f000 ff07 	bl	8001f20 <HAL_RCC_ClockConfig>
 8001112:	b108      	cbz	r0, 8001118 <SystemClock_Config+0xa0>
 8001114:	f7ff ffae 	bl	8001074 <Error_Handler>
 8001118:	b015      	add	sp, #84	; 0x54
 800111a:	f85d fb04 	ldr.w	pc, [sp], #4
 800111e:	bf00      	nop
 8001120:	40023800 	.word	0x40023800
 8001124:	40007000 	.word	0x40007000

08001128 <main>:
 8001128:	b570      	push	{r4, r5, r6, lr}
 800112a:	b09e      	sub	sp, #120	; 0x78
 800112c:	f001 f9ac 	bl	8002488 <HAL_Init>
 8001130:	f7ff ffa2 	bl	8001078 <SystemClock_Config>
 8001134:	f000 f8f8 	bl	8001328 <MX_GPIO_Init>
 8001138:	f000 f948 	bl	80013cc <MX_SDIO_SD_Init>
 800113c:	f000 f9a6 	bl	800148c <MX_SPI1_Init>
 8001140:	f000 fa12 	bl	8001568 <MX_USART1_UART_Init>
 8001144:	f000 fbc2 	bl	80018cc <MX_FATFS_Init>
 8001148:	4868      	ldr	r0, [pc, #416]	; (80012ec <main+0x1c4>)
 800114a:	4969      	ldr	r1, [pc, #420]	; (80012f0 <main+0x1c8>)
 800114c:	2201      	movs	r2, #1
 800114e:	f004 f8c7 	bl	80052e0 <f_mount>
 8001152:	4c68      	ldr	r4, [pc, #416]	; (80012f4 <main+0x1cc>)
 8001154:	4620      	mov	r0, r4
 8001156:	a918      	add	r1, sp, #96	; 0x60
 8001158:	f002 f95e 	bl	8003418 <HAL_SD_GetCardCID>
 800115c:	4620      	mov	r0, r4
 800115e:	a90d      	add	r1, sp, #52	; 0x34
 8001160:	f002 f986 	bl	8003470 <HAL_SD_GetCardCSD>
 8001164:	4620      	mov	r0, r4
 8001166:	a909      	add	r1, sp, #36	; 0x24
 8001168:	f002 fb4a 	bl	8003800 <HAL_SD_GetCardStatus>
 800116c:	4620      	mov	r0, r4
 800116e:	a901      	add	r1, sp, #4
 8001170:	f002 fb9c 	bl	80038ac <HAL_SD_GetCardInfo>
 8001174:	9b06      	ldr	r3, [sp, #24]
 8001176:	9c05      	ldr	r4, [sp, #20]
 8001178:	fb03 f304 	mul.w	r3, r3, r4
 800117c:	0d1c      	lsrs	r4, r3, #20
 800117e:	f000 faed 	bl	800175c <oled_init>
 8001182:	485d      	ldr	r0, [pc, #372]	; (80012f8 <main+0x1d0>)
 8001184:	495d      	ldr	r1, [pc, #372]	; (80012fc <main+0x1d4>)
 8001186:	2212      	movs	r2, #18
 8001188:	f004 f8d8 	bl	800533c <f_open>
 800118c:	4b5c      	ldr	r3, [pc, #368]	; (8001300 <main+0x1d8>)
 800118e:	7018      	strb	r0, [r3, #0]
 8001190:	b9a8      	cbnz	r0, 80011be <main+0x96>
 8001192:	4d59      	ldr	r5, [pc, #356]	; (80012f8 <main+0x1d0>)
 8001194:	4628      	mov	r0, r5
 8001196:	495b      	ldr	r1, [pc, #364]	; (8001304 <main+0x1dc>)
 8001198:	4622      	mov	r2, r4
 800119a:	f004 fddf 	bl	8005d5c <f_printf>
 800119e:	4628      	mov	r0, r5
 80011a0:	f004 fc6d 	bl	8005a7e <f_close>
 80011a4:	4d58      	ldr	r5, [pc, #352]	; (8001308 <main+0x1e0>)
 80011a6:	4c59      	ldr	r4, [pc, #356]	; (800130c <main+0x1e4>)
 80011a8:	cc0f      	ldmia	r4!, {r0, r1, r2, r3}
 80011aa:	6028      	str	r0, [r5, #0]
 80011ac:	6069      	str	r1, [r5, #4]
 80011ae:	60aa      	str	r2, [r5, #8]
 80011b0:	60eb      	str	r3, [r5, #12]
 80011b2:	2000      	movs	r0, #0
 80011b4:	4601      	mov	r1, r0
 80011b6:	462a      	mov	r2, r5
 80011b8:	f000 fab0 	bl	800171c <oled_print>
 80011bc:	e00d      	b.n	80011da <main+0xb2>
 80011be:	4d52      	ldr	r5, [pc, #328]	; (8001308 <main+0x1e0>)
 80011c0:	4c53      	ldr	r4, [pc, #332]	; (8001310 <main+0x1e8>)
 80011c2:	cc0f      	ldmia	r4!, {r0, r1, r2, r3}
 80011c4:	6028      	str	r0, [r5, #0]
 80011c6:	6069      	str	r1, [r5, #4]
 80011c8:	60aa      	str	r2, [r5, #8]
 80011ca:	60eb      	str	r3, [r5, #12]
 80011cc:	8823      	ldrh	r3, [r4, #0]
 80011ce:	822b      	strh	r3, [r5, #16]
 80011d0:	2000      	movs	r0, #0
 80011d2:	4601      	mov	r1, r0
 80011d4:	462a      	mov	r2, r5
 80011d6:	f000 faa1 	bl	800171c <oled_print>
 80011da:	4847      	ldr	r0, [pc, #284]	; (80012f8 <main+0x1d0>)
 80011dc:	494d      	ldr	r1, [pc, #308]	; (8001314 <main+0x1ec>)
 80011de:	2201      	movs	r2, #1
 80011e0:	f004 f8ac 	bl	800533c <f_open>
 80011e4:	4b46      	ldr	r3, [pc, #280]	; (8001300 <main+0x1d8>)
 80011e6:	7018      	strb	r0, [r3, #0]
 80011e8:	b968      	cbnz	r0, 8001206 <main+0xde>
 80011ea:	4c47      	ldr	r4, [pc, #284]	; (8001308 <main+0x1e0>)
 80011ec:	4b4a      	ldr	r3, [pc, #296]	; (8001318 <main+0x1f0>)
 80011ee:	cb07      	ldmia	r3!, {r0, r1, r2}
 80011f0:	6020      	str	r0, [r4, #0]
 80011f2:	6061      	str	r1, [r4, #4]
 80011f4:	60a2      	str	r2, [r4, #8]
 80011f6:	881b      	ldrh	r3, [r3, #0]
 80011f8:	81a3      	strh	r3, [r4, #12]
 80011fa:	2000      	movs	r0, #0
 80011fc:	2102      	movs	r1, #2
 80011fe:	4622      	mov	r2, r4
 8001200:	f000 fa8c 	bl	800171c <oled_print>
 8001204:	e00b      	b.n	800121e <main+0xf6>
 8001206:	4d40      	ldr	r5, [pc, #256]	; (8001308 <main+0x1e0>)
 8001208:	4c44      	ldr	r4, [pc, #272]	; (800131c <main+0x1f4>)
 800120a:	cc0f      	ldmia	r4!, {r0, r1, r2, r3}
 800120c:	6028      	str	r0, [r5, #0]
 800120e:	6069      	str	r1, [r5, #4]
 8001210:	60aa      	str	r2, [r5, #8]
 8001212:	60eb      	str	r3, [r5, #12]
 8001214:	2000      	movs	r0, #0
 8001216:	2102      	movs	r1, #2
 8001218:	462a      	mov	r2, r5
 800121a:	f000 fa7f 	bl	800171c <oled_print>
 800121e:	4c3a      	ldr	r4, [pc, #232]	; (8001308 <main+0x1e0>)
 8001220:	4b3f      	ldr	r3, [pc, #252]	; (8001320 <main+0x1f8>)
 8001222:	cb07      	ldmia	r3!, {r0, r1, r2}
 8001224:	6020      	str	r0, [r4, #0]
 8001226:	6061      	str	r1, [r4, #4]
 8001228:	60a2      	str	r2, [r4, #8]
 800122a:	781b      	ldrb	r3, [r3, #0]
 800122c:	7323      	strb	r3, [r4, #12]
 800122e:	2000      	movs	r0, #0
 8001230:	2104      	movs	r1, #4
 8001232:	4622      	mov	r2, r4
 8001234:	f000 fa72 	bl	800171c <oled_print>
 8001238:	f44f 70fa 	mov.w	r0, #500	; 0x1f4
 800123c:	f001 f950 	bl	80024e0 <HAL_Delay>
 8001240:	4d38      	ldr	r5, [pc, #224]	; (8001324 <main+0x1fc>)
 8001242:	cd0f      	ldmia	r5!, {r0, r1, r2, r3}
 8001244:	6020      	str	r0, [r4, #0]
 8001246:	6061      	str	r1, [r4, #4]
 8001248:	60a2      	str	r2, [r4, #8]
 800124a:	60e3      	str	r3, [r4, #12]
 800124c:	2000      	movs	r0, #0
 800124e:	2106      	movs	r1, #6
 8001250:	4622      	mov	r2, r4
 8001252:	f000 fa63 	bl	800171c <oled_print>
 8001256:	f44f 70fa 	mov.w	r0, #500	; 0x1f4
 800125a:	f001 f941 	bl	80024e0 <HAL_Delay>
 800125e:	f000 fa20 	bl	80016a2 <oled_clear>
 8001262:	f000 fa1e 	bl	80016a2 <oled_clear>
 8001266:	4824      	ldr	r0, [pc, #144]	; (80012f8 <main+0x1d0>)
 8001268:	2100      	movs	r1, #0
 800126a:	f004 fc1d 	bl	8005aa8 <f_lseek>
 800126e:	24ff      	movs	r4, #255	; 0xff
 8001270:	4626      	mov	r6, r4
 8001272:	e034      	b.n	80012de <main+0x1b6>
 8001274:	4820      	ldr	r0, [pc, #128]	; (80012f8 <main+0x1d0>)
 8001276:	f10d 0101 	add.w	r1, sp, #1
 800127a:	2201      	movs	r2, #1
 800127c:	2300      	movs	r3, #0
 800127e:	f004 f977 	bl	8005570 <f_read>
 8001282:	f89d 3001 	ldrb.w	r3, [sp, #1]
 8001286:	2bff      	cmp	r3, #255	; 0xff
 8001288:	d103      	bne.n	8001292 <main+0x16a>
 800128a:	201e      	movs	r0, #30
 800128c:	f001 f928 	bl	80024e0 <HAL_Delay>
 8001290:	e025      	b.n	80012de <main+0x1b6>
 8001292:	4d19      	ldr	r5, [pc, #100]	; (80012f8 <main+0x1d0>)
 8001294:	4628      	mov	r0, r5
 8001296:	f10d 0102 	add.w	r1, sp, #2
 800129a:	2201      	movs	r2, #1
 800129c:	2300      	movs	r3, #0
 800129e:	f004 f967 	bl	8005570 <f_read>
 80012a2:	4628      	mov	r0, r5
 80012a4:	f10d 0103 	add.w	r1, sp, #3
 80012a8:	2201      	movs	r2, #1
 80012aa:	2300      	movs	r3, #0
 80012ac:	f004 f960 	bl	8005570 <f_read>
 80012b0:	f89d 0002 	ldrb.w	r0, [sp, #2]
 80012b4:	3401      	adds	r4, #1
 80012b6:	42a0      	cmp	r0, r4
 80012b8:	d103      	bne.n	80012c2 <main+0x19a>
 80012ba:	f89d 3001 	ldrb.w	r3, [sp, #1]
 80012be:	42b3      	cmp	r3, r6
 80012c0:	d004      	beq.n	80012cc <main+0x1a4>
 80012c2:	3015      	adds	r0, #21
 80012c4:	f89d 1001 	ldrb.w	r1, [sp, #1]
 80012c8:	f000 f9d6 	bl	8001678 <oled_set_position>
 80012cc:	f89d 0003 	ldrb.w	r0, [sp, #3]
 80012d0:	2101      	movs	r1, #1
 80012d2:	f000 f9a3 	bl	800161c <oled_write_byte>
 80012d6:	f89d 6001 	ldrb.w	r6, [sp, #1]
 80012da:	f89d 4002 	ldrb.w	r4, [sp, #2]
 80012de:	4b06      	ldr	r3, [pc, #24]	; (80012f8 <main+0x1d0>)
 80012e0:	699a      	ldr	r2, [r3, #24]
 80012e2:	68db      	ldr	r3, [r3, #12]
 80012e4:	429a      	cmp	r2, r3
 80012e6:	d1c5      	bne.n	8001274 <main+0x14c>
 80012e8:	e7bb      	b.n	8001262 <main+0x13a>
 80012ea:	bf00      	nop
 80012ec:	2000129c 	.word	0x2000129c
 80012f0:	20000268 	.word	0x20000268
 80012f4:	20000144 	.word	0x20000144
 80012f8:	2000026c 	.word	0x2000026c
 80012fc:	08007b30 	.word	0x08007b30
 8001300:	20000264 	.word	0x20000264
 8001304:	08007b3c 	.word	0x08007b3c
 8001308:	20000104 	.word	0x20000104
 800130c:	08007b4c 	.word	0x08007b4c
 8001310:	08007b5c 	.word	0x08007b5c
 8001314:	08007b70 	.word	0x08007b70
 8001318:	08007b80 	.word	0x08007b80
 800131c:	08007b90 	.word	0x08007b90
 8001320:	08007ba0 	.word	0x08007ba0
 8001324:	08007bb0 	.word	0x08007bb0

08001328 <MX_GPIO_Init>:
 8001328:	b530      	push	{r4, r5, lr}
 800132a:	b08b      	sub	sp, #44	; 0x2c
 800132c:	2400      	movs	r4, #0
 800132e:	9405      	str	r4, [sp, #20]
 8001330:	9406      	str	r4, [sp, #24]
 8001332:	9407      	str	r4, [sp, #28]
 8001334:	9408      	str	r4, [sp, #32]
 8001336:	9409      	str	r4, [sp, #36]	; 0x24
 8001338:	9400      	str	r4, [sp, #0]
 800133a:	4b22      	ldr	r3, [pc, #136]	; (80013c4 <MX_GPIO_Init+0x9c>)
 800133c:	6b1a      	ldr	r2, [r3, #48]	; 0x30
 800133e:	f042 0280 	orr.w	r2, r2, #128	; 0x80
 8001342:	631a      	str	r2, [r3, #48]	; 0x30
 8001344:	6b1a      	ldr	r2, [r3, #48]	; 0x30
 8001346:	f002 0280 	and.w	r2, r2, #128	; 0x80
 800134a:	9200      	str	r2, [sp, #0]
 800134c:	9a00      	ldr	r2, [sp, #0]
 800134e:	9401      	str	r4, [sp, #4]
 8001350:	6b1a      	ldr	r2, [r3, #48]	; 0x30
 8001352:	f042 0201 	orr.w	r2, r2, #1
 8001356:	631a      	str	r2, [r3, #48]	; 0x30
 8001358:	6b1a      	ldr	r2, [r3, #48]	; 0x30
 800135a:	f002 0201 	and.w	r2, r2, #1
 800135e:	9201      	str	r2, [sp, #4]
 8001360:	9a01      	ldr	r2, [sp, #4]
 8001362:	9402      	str	r4, [sp, #8]
 8001364:	6b1a      	ldr	r2, [r3, #48]	; 0x30
 8001366:	f042 0204 	orr.w	r2, r2, #4
 800136a:	631a      	str	r2, [r3, #48]	; 0x30
 800136c:	6b1a      	ldr	r2, [r3, #48]	; 0x30
 800136e:	f002 0204 	and.w	r2, r2, #4
 8001372:	9202      	str	r2, [sp, #8]
 8001374:	9a02      	ldr	r2, [sp, #8]
 8001376:	9403      	str	r4, [sp, #12]
 8001378:	6b1a      	ldr	r2, [r3, #48]	; 0x30
 800137a:	f042 0208 	orr.w	r2, r2, #8
 800137e:	631a      	str	r2, [r3, #48]	; 0x30
 8001380:	6b1a      	ldr	r2, [r3, #48]	; 0x30
 8001382:	f002 0208 	and.w	r2, r2, #8
 8001386:	9203      	str	r2, [sp, #12]
 8001388:	9a03      	ldr	r2, [sp, #12]
 800138a:	9404      	str	r4, [sp, #16]
 800138c:	6b1a      	ldr	r2, [r3, #48]	; 0x30
 800138e:	f042 0202 	orr.w	r2, r2, #2
 8001392:	631a      	str	r2, [r3, #48]	; 0x30
 8001394:	6b1b      	ldr	r3, [r3, #48]	; 0x30
 8001396:	f003 0302 	and.w	r3, r3, #2
 800139a:	9304      	str	r3, [sp, #16]
 800139c:	9b04      	ldr	r3, [sp, #16]
 800139e:	4d0a      	ldr	r5, [pc, #40]	; (80013c8 <MX_GPIO_Init+0xa0>)
 80013a0:	4622      	mov	r2, r4
 80013a2:	21a8      	movs	r1, #168	; 0xa8
 80013a4:	4628      	mov	r0, r5
 80013a6:	f000 ff7b 	bl	80022a0 <HAL_GPIO_WritePin>
 80013aa:	23a8      	movs	r3, #168	; 0xa8
 80013ac:	9305      	str	r3, [sp, #20]
 80013ae:	2301      	movs	r3, #1
 80013b0:	9306      	str	r3, [sp, #24]
 80013b2:	9407      	str	r4, [sp, #28]
 80013b4:	9408      	str	r4, [sp, #32]
 80013b6:	a905      	add	r1, sp, #20
 80013b8:	4628      	mov	r0, r5
 80013ba:	f000 fe87 	bl	80020cc <HAL_GPIO_Init>
 80013be:	b00b      	add	sp, #44	; 0x2c
 80013c0:	bd30      	pop	{r4, r5, pc}
 80013c2:	bf00      	nop
 80013c4:	40023800 	.word	0x40023800
 80013c8:	40020c00 	.word	0x40020c00

080013cc <MX_SDIO_SD_Init>:
 80013cc:	4b05      	ldr	r3, [pc, #20]	; (80013e4 <MX_SDIO_SD_Init+0x18>)
 80013ce:	4a06      	ldr	r2, [pc, #24]	; (80013e8 <MX_SDIO_SD_Init+0x1c>)
 80013d0:	601a      	str	r2, [r3, #0]
 80013d2:	2200      	movs	r2, #0
 80013d4:	605a      	str	r2, [r3, #4]
 80013d6:	609a      	str	r2, [r3, #8]
 80013d8:	60da      	str	r2, [r3, #12]
 80013da:	611a      	str	r2, [r3, #16]
 80013dc:	615a      	str	r2, [r3, #20]
 80013de:	619a      	str	r2, [r3, #24]
 80013e0:	4770      	bx	lr
 80013e2:	bf00      	nop
 80013e4:	20000144 	.word	0x20000144
 80013e8:	40012c00 	.word	0x40012c00

080013ec <HAL_SD_MspInit>:
 80013ec:	b5f0      	push	{r4, r5, r6, r7, lr}
 80013ee:	b089      	sub	sp, #36	; 0x24
 80013f0:	2300      	movs	r3, #0
 80013f2:	9303      	str	r3, [sp, #12]
 80013f4:	9304      	str	r3, [sp, #16]
 80013f6:	9305      	str	r3, [sp, #20]
 80013f8:	9306      	str	r3, [sp, #24]
 80013fa:	9307      	str	r3, [sp, #28]
 80013fc:	6802      	ldr	r2, [r0, #0]
 80013fe:	4b20      	ldr	r3, [pc, #128]	; (8001480 <HAL_SD_MspInit+0x94>)
 8001400:	429a      	cmp	r2, r3
 8001402:	d001      	beq.n	8001408 <HAL_SD_MspInit+0x1c>
 8001404:	b009      	add	sp, #36	; 0x24
 8001406:	bdf0      	pop	{r4, r5, r6, r7, pc}
 8001408:	2400      	movs	r4, #0
 800140a:	9400      	str	r4, [sp, #0]
 800140c:	f503 3386 	add.w	r3, r3, #68608	; 0x10c00
 8001410:	6c5a      	ldr	r2, [r3, #68]	; 0x44
 8001412:	f442 6200 	orr.w	r2, r2, #2048	; 0x800
 8001416:	645a      	str	r2, [r3, #68]	; 0x44
 8001418:	6c5a      	ldr	r2, [r3, #68]	; 0x44
 800141a:	f402 6200 	and.w	r2, r2, #2048	; 0x800
 800141e:	9200      	str	r2, [sp, #0]
 8001420:	9a00      	ldr	r2, [sp, #0]
 8001422:	9401      	str	r4, [sp, #4]
 8001424:	6b1a      	ldr	r2, [r3, #48]	; 0x30
 8001426:	f042 0204 	orr.w	r2, r2, #4
 800142a:	631a      	str	r2, [r3, #48]	; 0x30
 800142c:	6b1a      	ldr	r2, [r3, #48]	; 0x30
 800142e:	f002 0204 	and.w	r2, r2, #4
 8001432:	9201      	str	r2, [sp, #4]
 8001434:	9a01      	ldr	r2, [sp, #4]
 8001436:	9402      	str	r4, [sp, #8]
 8001438:	6b1a      	ldr	r2, [r3, #48]	; 0x30
 800143a:	f042 0208 	orr.w	r2, r2, #8
 800143e:	631a      	str	r2, [r3, #48]	; 0x30
 8001440:	6b1b      	ldr	r3, [r3, #48]	; 0x30
 8001442:	f003 0308 	and.w	r3, r3, #8
 8001446:	9302      	str	r3, [sp, #8]
 8001448:	9b02      	ldr	r3, [sp, #8]
 800144a:	f44f 53f8 	mov.w	r3, #7936	; 0x1f00
 800144e:	9303      	str	r3, [sp, #12]
 8001450:	2702      	movs	r7, #2
 8001452:	9704      	str	r7, [sp, #16]
 8001454:	9405      	str	r4, [sp, #20]
 8001456:	2603      	movs	r6, #3
 8001458:	9606      	str	r6, [sp, #24]
 800145a:	250c      	movs	r5, #12
 800145c:	9507      	str	r5, [sp, #28]
 800145e:	eb0d 0105 	add.w	r1, sp, r5
 8001462:	4808      	ldr	r0, [pc, #32]	; (8001484 <HAL_SD_MspInit+0x98>)
 8001464:	f000 fe32 	bl	80020cc <HAL_GPIO_Init>
 8001468:	2304      	movs	r3, #4
 800146a:	9303      	str	r3, [sp, #12]
 800146c:	9704      	str	r7, [sp, #16]
 800146e:	9405      	str	r4, [sp, #20]
 8001470:	9606      	str	r6, [sp, #24]
 8001472:	9507      	str	r5, [sp, #28]
 8001474:	eb0d 0105 	add.w	r1, sp, r5
 8001478:	4803      	ldr	r0, [pc, #12]	; (8001488 <HAL_SD_MspInit+0x9c>)
 800147a:	f000 fe27 	bl	80020cc <HAL_GPIO_Init>
 800147e:	e7c1      	b.n	8001404 <HAL_SD_MspInit+0x18>
 8001480:	40012c00 	.word	0x40012c00
 8001484:	40020800 	.word	0x40020800
 8001488:	40020c00 	.word	0x40020c00

0800148c <MX_SPI1_Init>:
 800148c:	b508      	push	{r3, lr}
 800148e:	480d      	ldr	r0, [pc, #52]	; (80014c4 <MX_SPI1_Init+0x38>)
 8001490:	4b0d      	ldr	r3, [pc, #52]	; (80014c8 <MX_SPI1_Init+0x3c>)
 8001492:	6003      	str	r3, [r0, #0]
 8001494:	f44f 7382 	mov.w	r3, #260	; 0x104
 8001498:	6043      	str	r3, [r0, #4]
 800149a:	2300      	movs	r3, #0
 800149c:	6083      	str	r3, [r0, #8]
 800149e:	60c3      	str	r3, [r0, #12]
 80014a0:	6103      	str	r3, [r0, #16]
 80014a2:	6143      	str	r3, [r0, #20]
 80014a4:	f44f 7200 	mov.w	r2, #512	; 0x200
 80014a8:	6182      	str	r2, [r0, #24]
 80014aa:	61c3      	str	r3, [r0, #28]
 80014ac:	6203      	str	r3, [r0, #32]
 80014ae:	6243      	str	r3, [r0, #36]	; 0x24
 80014b0:	6283      	str	r3, [r0, #40]	; 0x28
 80014b2:	230a      	movs	r3, #10
 80014b4:	62c3      	str	r3, [r0, #44]	; 0x2c
 80014b6:	f002 fb19 	bl	8003aec <HAL_SPI_Init>
 80014ba:	b900      	cbnz	r0, 80014be <MX_SPI1_Init+0x32>
 80014bc:	bd08      	pop	{r3, pc}
 80014be:	f7ff fdd9 	bl	8001074 <Error_Handler>
 80014c2:	e7fb      	b.n	80014bc <MX_SPI1_Init+0x30>
 80014c4:	200001c8 	.word	0x200001c8
 80014c8:	40013000 	.word	0x40013000

080014cc <HAL_SPI_MspInit>:
 80014cc:	b5f0      	push	{r4, r5, r6, r7, lr}
 80014ce:	b089      	sub	sp, #36	; 0x24
 80014d0:	2300      	movs	r3, #0
 80014d2:	9303      	str	r3, [sp, #12]
 80014d4:	9304      	str	r3, [sp, #16]
 80014d6:	9305      	str	r3, [sp, #20]
 80014d8:	9306      	str	r3, [sp, #24]
 80014da:	9307      	str	r3, [sp, #28]
 80014dc:	6802      	ldr	r2, [r0, #0]
 80014de:	4b1f      	ldr	r3, [pc, #124]	; (800155c <HAL_SPI_MspInit+0x90>)
 80014e0:	429a      	cmp	r2, r3
 80014e2:	d001      	beq.n	80014e8 <HAL_SPI_MspInit+0x1c>
 80014e4:	b009      	add	sp, #36	; 0x24
 80014e6:	bdf0      	pop	{r4, r5, r6, r7, pc}
 80014e8:	2400      	movs	r4, #0
 80014ea:	9400      	str	r4, [sp, #0]
 80014ec:	f503 3384 	add.w	r3, r3, #67584	; 0x10800
 80014f0:	6c5a      	ldr	r2, [r3, #68]	; 0x44
 80014f2:	f442 5280 	orr.w	r2, r2, #4096	; 0x1000
 80014f6:	645a      	str	r2, [r3, #68]	; 0x44
 80014f8:	6c5a      	ldr	r2, [r3, #68]	; 0x44
 80014fa:	f402 5280 	and.w	r2, r2, #4096	; 0x1000
 80014fe:	9200      	str	r2, [sp, #0]
 8001500:	9a00      	ldr	r2, [sp, #0]
 8001502:	9401      	str	r4, [sp, #4]
 8001504:	6b1a      	ldr	r2, [r3, #48]	; 0x30
 8001506:	f042 0201 	orr.w	r2, r2, #1
 800150a:	631a      	str	r2, [r3, #48]	; 0x30
 800150c:	6b1a      	ldr	r2, [r3, #48]	; 0x30
 800150e:	f002 0201 	and.w	r2, r2, #1
 8001512:	9201      	str	r2, [sp, #4]
 8001514:	9a01      	ldr	r2, [sp, #4]
 8001516:	9402      	str	r4, [sp, #8]
 8001518:	6b1a      	ldr	r2, [r3, #48]	; 0x30
 800151a:	f042 0202 	orr.w	r2, r2, #2
 800151e:	631a      	str	r2, [r3, #48]	; 0x30
 8001520:	6b1b      	ldr	r3, [r3, #48]	; 0x30
 8001522:	f003 0302 	and.w	r3, r3, #2
 8001526:	9302      	str	r3, [sp, #8]
 8001528:	9b02      	ldr	r3, [sp, #8]
 800152a:	2340      	movs	r3, #64	; 0x40
 800152c:	9303      	str	r3, [sp, #12]
 800152e:	2702      	movs	r7, #2
 8001530:	9704      	str	r7, [sp, #16]
 8001532:	9405      	str	r4, [sp, #20]
 8001534:	2603      	movs	r6, #3
 8001536:	9606      	str	r6, [sp, #24]
 8001538:	2505      	movs	r5, #5
 800153a:	9507      	str	r5, [sp, #28]
 800153c:	a903      	add	r1, sp, #12
 800153e:	4808      	ldr	r0, [pc, #32]	; (8001560 <HAL_SPI_MspInit+0x94>)
 8001540:	f000 fdc4 	bl	80020cc <HAL_GPIO_Init>
 8001544:	2328      	movs	r3, #40	; 0x28
 8001546:	9303      	str	r3, [sp, #12]
 8001548:	9704      	str	r7, [sp, #16]
 800154a:	9405      	str	r4, [sp, #20]
 800154c:	9606      	str	r6, [sp, #24]
 800154e:	9507      	str	r5, [sp, #28]
 8001550:	a903      	add	r1, sp, #12
 8001552:	4804      	ldr	r0, [pc, #16]	; (8001564 <HAL_SPI_MspInit+0x98>)
 8001554:	f000 fdba 	bl	80020cc <HAL_GPIO_Init>
 8001558:	e7c4      	b.n	80014e4 <HAL_SPI_MspInit+0x18>
 800155a:	bf00      	nop
 800155c:	40013000 	.word	0x40013000
 8001560:	40020000 	.word	0x40020000
 8001564:	40020400 	.word	0x40020400

08001568 <MX_USART1_UART_Init>:
 8001568:	b508      	push	{r3, lr}
 800156a:	480a      	ldr	r0, [pc, #40]	; (8001594 <MX_USART1_UART_Init+0x2c>)
 800156c:	4b0a      	ldr	r3, [pc, #40]	; (8001598 <MX_USART1_UART_Init+0x30>)
 800156e:	6003      	str	r3, [r0, #0]
 8001570:	f44f 33e1 	mov.w	r3, #115200	; 0x1c200
 8001574:	6043      	str	r3, [r0, #4]
 8001576:	2300      	movs	r3, #0
 8001578:	6083      	str	r3, [r0, #8]
 800157a:	60c3      	str	r3, [r0, #12]
 800157c:	6103      	str	r3, [r0, #16]
 800157e:	220c      	movs	r2, #12
 8001580:	6142      	str	r2, [r0, #20]
 8001582:	6183      	str	r3, [r0, #24]
 8001584:	61c3      	str	r3, [r0, #28]
 8001586:	f002 fcbf 	bl	8003f08 <HAL_UART_Init>
 800158a:	b900      	cbnz	r0, 800158e <MX_USART1_UART_Init+0x26>
 800158c:	bd08      	pop	{r3, pc}
 800158e:	f7ff fd71 	bl	8001074 <Error_Handler>
 8001592:	e7fb      	b.n	800158c <MX_USART1_UART_Init+0x24>
 8001594:	20000220 	.word	0x20000220
 8001598:	40011000 	.word	0x40011000

0800159c <HAL_UART_MspInit>:
 800159c:	b510      	push	{r4, lr}
 800159e:	b088      	sub	sp, #32
 80015a0:	2300      	movs	r3, #0
 80015a2:	9303      	str	r3, [sp, #12]
 80015a4:	9304      	str	r3, [sp, #16]
 80015a6:	9305      	str	r3, [sp, #20]
 80015a8:	9306      	str	r3, [sp, #24]
 80015aa:	9307      	str	r3, [sp, #28]
 80015ac:	6802      	ldr	r2, [r0, #0]
 80015ae:	f103 4380 	add.w	r3, r3, #1073741824	; 0x40000000
 80015b2:	f503 3388 	add.w	r3, r3, #69632	; 0x11000
 80015b6:	429a      	cmp	r2, r3
 80015b8:	d001      	beq.n	80015be <HAL_UART_MspInit+0x22>
 80015ba:	b008      	add	sp, #32
 80015bc:	bd10      	pop	{r4, pc}
 80015be:	2400      	movs	r4, #0
 80015c0:	9401      	str	r4, [sp, #4]
 80015c2:	f503 3394 	add.w	r3, r3, #75776	; 0x12800
 80015c6:	6c5a      	ldr	r2, [r3, #68]	; 0x44
 80015c8:	f042 0210 	orr.w	r2, r2, #16
 80015cc:	645a      	str	r2, [r3, #68]	; 0x44
 80015ce:	6c5a      	ldr	r2, [r3, #68]	; 0x44
 80015d0:	f002 0210 	and.w	r2, r2, #16
 80015d4:	9201      	str	r2, [sp, #4]
 80015d6:	9a01      	ldr	r2, [sp, #4]
 80015d8:	9402      	str	r4, [sp, #8]
 80015da:	6b1a      	ldr	r2, [r3, #48]	; 0x30
 80015dc:	f042 0202 	orr.w	r2, r2, #2
 80015e0:	631a      	str	r2, [r3, #48]	; 0x30
 80015e2:	6b1b      	ldr	r3, [r3, #48]	; 0x30
 80015e4:	f003 0302 	and.w	r3, r3, #2
 80015e8:	9302      	str	r3, [sp, #8]
 80015ea:	9b02      	ldr	r3, [sp, #8]
 80015ec:	23c0      	movs	r3, #192	; 0xc0
 80015ee:	9303      	str	r3, [sp, #12]
 80015f0:	2302      	movs	r3, #2
 80015f2:	9304      	str	r3, [sp, #16]
 80015f4:	9405      	str	r4, [sp, #20]
 80015f6:	2303      	movs	r3, #3
 80015f8:	9306      	str	r3, [sp, #24]
 80015fa:	2307      	movs	r3, #7
 80015fc:	9307      	str	r3, [sp, #28]
 80015fe:	a903      	add	r1, sp, #12
 8001600:	4805      	ldr	r0, [pc, #20]	; (8001618 <HAL_UART_MspInit+0x7c>)
 8001602:	f000 fd63 	bl	80020cc <HAL_GPIO_Init>
 8001606:	4622      	mov	r2, r4
 8001608:	4621      	mov	r1, r4
 800160a:	2025      	movs	r0, #37	; 0x25
 800160c:	f000 febe 	bl	800238c <HAL_NVIC_SetPriority>
 8001610:	2025      	movs	r0, #37	; 0x25
 8001612:	f000 feef 	bl	80023f4 <HAL_NVIC_EnableIRQ>
 8001616:	e7d0      	b.n	80015ba <HAL_UART_MspInit+0x1e>
 8001618:	40020400 	.word	0x40020400

0800161c <oled_write_byte>:
 800161c:	b510      	push	{r4, lr}
 800161e:	b082      	sub	sp, #8
 8001620:	f88d 0007 	strb.w	r0, [sp, #7]
 8001624:	b1f1      	cbz	r1, 8001664 <oled_write_byte+0x48>
 8001626:	2201      	movs	r2, #1
 8001628:	2120      	movs	r1, #32
 800162a:	4811      	ldr	r0, [pc, #68]	; (8001670 <oled_write_byte+0x54>)
 800162c:	f000 fe38 	bl	80022a0 <HAL_GPIO_WritePin>
 8001630:	4c0f      	ldr	r4, [pc, #60]	; (8001670 <oled_write_byte+0x54>)
 8001632:	2200      	movs	r2, #0
 8001634:	2108      	movs	r1, #8
 8001636:	4620      	mov	r0, r4
 8001638:	f000 fe32 	bl	80022a0 <HAL_GPIO_WritePin>
 800163c:	f04f 33ff 	mov.w	r3, #4294967295	; 0xffffffff
 8001640:	2201      	movs	r2, #1
 8001642:	f10d 0107 	add.w	r1, sp, #7
 8001646:	480b      	ldr	r0, [pc, #44]	; (8001674 <oled_write_byte+0x58>)
 8001648:	f002 faaf 	bl	8003baa <HAL_SPI_Transmit>
 800164c:	2201      	movs	r2, #1
 800164e:	2108      	movs	r1, #8
 8001650:	4620      	mov	r0, r4
 8001652:	f000 fe25 	bl	80022a0 <HAL_GPIO_WritePin>
 8001656:	2201      	movs	r2, #1
 8001658:	2120      	movs	r1, #32
 800165a:	4620      	mov	r0, r4
 800165c:	f000 fe20 	bl	80022a0 <HAL_GPIO_WritePin>
 8001660:	b002      	add	sp, #8
 8001662:	bd10      	pop	{r4, pc}
 8001664:	2200      	movs	r2, #0
 8001666:	2120      	movs	r1, #32
 8001668:	4801      	ldr	r0, [pc, #4]	; (8001670 <oled_write_byte+0x54>)
 800166a:	f000 fe19 	bl	80022a0 <HAL_GPIO_WritePin>
 800166e:	e7df      	b.n	8001630 <oled_write_byte+0x14>
 8001670:	40020c00 	.word	0x40020c00
 8001674:	200001c8 	.word	0x200001c8

08001678 <oled_set_position>:
 8001678:	b510      	push	{r4, lr}
 800167a:	4604      	mov	r4, r0
 800167c:	f061 004f 	orn	r0, r1, #79	; 0x4f
 8001680:	2100      	movs	r1, #0
 8001682:	b2c0      	uxtb	r0, r0
 8001684:	f7ff ffca 	bl	800161c <oled_write_byte>
 8001688:	f3c4 1003 	ubfx	r0, r4, #4, #4
 800168c:	2100      	movs	r1, #0
 800168e:	f040 0010 	orr.w	r0, r0, #16
 8001692:	f7ff ffc3 	bl	800161c <oled_write_byte>
 8001696:	2100      	movs	r1, #0
 8001698:	f004 000f 	and.w	r0, r4, #15
 800169c:	f7ff ffbe 	bl	800161c <oled_write_byte>
 80016a0:	bd10      	pop	{r4, pc}

080016a2 <oled_clear>:
 80016a2:	b538      	push	{r3, r4, r5, lr}
 80016a4:	2500      	movs	r5, #0
 80016a6:	e000      	b.n	80016aa <oled_clear+0x8>
 80016a8:	3501      	adds	r5, #1
 80016aa:	2d07      	cmp	r5, #7
 80016ac:	dc0c      	bgt.n	80016c8 <oled_clear+0x26>
 80016ae:	4629      	mov	r1, r5
 80016b0:	2000      	movs	r0, #0
 80016b2:	f7ff ffe1 	bl	8001678 <oled_set_position>
 80016b6:	2400      	movs	r4, #0
 80016b8:	2c7f      	cmp	r4, #127	; 0x7f
 80016ba:	dcf5      	bgt.n	80016a8 <oled_clear+0x6>
 80016bc:	2101      	movs	r1, #1
 80016be:	2000      	movs	r0, #0
 80016c0:	f7ff ffac 	bl	800161c <oled_write_byte>
 80016c4:	3401      	adds	r4, #1
 80016c6:	e7f7      	b.n	80016b8 <oled_clear+0x16>
 80016c8:	bd38      	pop	{r3, r4, r5, pc}
	...

080016cc <oled_putchar>:
 80016cc:	b5f8      	push	{r3, r4, r5, r6, r7, lr}
 80016ce:	4606      	mov	r6, r0
 80016d0:	460f      	mov	r7, r1
 80016d2:	f1a2 0520 	sub.w	r5, r2, #32
 80016d6:	b2ed      	uxtb	r5, r5
 80016d8:	f7ff ffce 	bl	8001678 <oled_set_position>
 80016dc:	2400      	movs	r4, #0
 80016de:	e007      	b.n	80016f0 <oled_putchar+0x24>
 80016e0:	eb04 1305 	add.w	r3, r4, r5, lsl #4
 80016e4:	2101      	movs	r1, #1
 80016e6:	4a0c      	ldr	r2, [pc, #48]	; (8001718 <oled_putchar+0x4c>)
 80016e8:	5cd0      	ldrb	r0, [r2, r3]
 80016ea:	f7ff ff97 	bl	800161c <oled_write_byte>
 80016ee:	3401      	adds	r4, #1
 80016f0:	2c07      	cmp	r4, #7
 80016f2:	ddf5      	ble.n	80016e0 <oled_putchar+0x14>
 80016f4:	1c79      	adds	r1, r7, #1
 80016f6:	4630      	mov	r0, r6
 80016f8:	f7ff ffbe 	bl	8001678 <oled_set_position>
 80016fc:	2400      	movs	r4, #0
 80016fe:	e008      	b.n	8001712 <oled_putchar+0x46>
 8001700:	eb04 1305 	add.w	r3, r4, r5, lsl #4
 8001704:	3308      	adds	r3, #8
 8001706:	2101      	movs	r1, #1
 8001708:	4a03      	ldr	r2, [pc, #12]	; (8001718 <oled_putchar+0x4c>)
 800170a:	5cd0      	ldrb	r0, [r2, r3]
 800170c:	f7ff ff86 	bl	800161c <oled_write_byte>
 8001710:	3401      	adds	r4, #1
 8001712:	2c07      	cmp	r4, #7
 8001714:	ddf4      	ble.n	8001700 <oled_putchar+0x34>
 8001716:	bdf8      	pop	{r3, r4, r5, r6, r7, pc}
 8001718:	08007bc0 	.word	0x08007bc0

0800171c <oled_print>:
 800171c:	b570      	push	{r4, r5, r6, lr}
 800171e:	4604      	mov	r4, r0
 8001720:	460e      	mov	r6, r1
 8001722:	4615      	mov	r5, r2
 8001724:	e005      	b.n	8001732 <oled_print+0x16>
 8001726:	4631      	mov	r1, r6
 8001728:	4620      	mov	r0, r4
 800172a:	f7ff ffcf 	bl	80016cc <oled_putchar>
 800172e:	3408      	adds	r4, #8
 8001730:	3501      	adds	r5, #1
 8001732:	782a      	ldrb	r2, [r5, #0]
 8001734:	b162      	cbz	r2, 8001750 <oled_print+0x34>
 8001736:	f104 0308 	add.w	r3, r4, #8
 800173a:	2b80      	cmp	r3, #128	; 0x80
 800173c:	d9f3      	bls.n	8001726 <oled_print+0xa>
 800173e:	3602      	adds	r6, #2
 8001740:	2400      	movs	r4, #0
 8001742:	e7f0      	b.n	8001726 <oled_print+0xa>
 8001744:	2220      	movs	r2, #32
 8001746:	4631      	mov	r1, r6
 8001748:	4620      	mov	r0, r4
 800174a:	f7ff ffbf 	bl	80016cc <oled_putchar>
 800174e:	462c      	mov	r4, r5
 8001750:	f104 0508 	add.w	r5, r4, #8
 8001754:	2d80      	cmp	r5, #128	; 0x80
 8001756:	d9f5      	bls.n	8001744 <oled_print+0x28>
 8001758:	bd70      	pop	{r4, r5, r6, pc}
	...

0800175c <oled_init>:
 800175c:	b510      	push	{r4, lr}
 800175e:	4c42      	ldr	r4, [pc, #264]	; (8001868 <oled_init+0x10c>)
 8001760:	2200      	movs	r2, #0
 8001762:	2180      	movs	r1, #128	; 0x80
 8001764:	4620      	mov	r0, r4
 8001766:	f000 fd9b 	bl	80022a0 <HAL_GPIO_WritePin>
 800176a:	20c8      	movs	r0, #200	; 0xc8
 800176c:	f000 feb8 	bl	80024e0 <HAL_Delay>
 8001770:	2201      	movs	r2, #1
 8001772:	2180      	movs	r1, #128	; 0x80
 8001774:	4620      	mov	r0, r4
 8001776:	f000 fd93 	bl	80022a0 <HAL_GPIO_WritePin>
 800177a:	2100      	movs	r1, #0
 800177c:	20ae      	movs	r0, #174	; 0xae
 800177e:	f7ff ff4d 	bl	800161c <oled_write_byte>
 8001782:	2100      	movs	r1, #0
 8001784:	20d5      	movs	r0, #213	; 0xd5
 8001786:	f7ff ff49 	bl	800161c <oled_write_byte>
 800178a:	2100      	movs	r1, #0
 800178c:	2080      	movs	r0, #128	; 0x80
 800178e:	f7ff ff45 	bl	800161c <oled_write_byte>
 8001792:	2100      	movs	r1, #0
 8001794:	2040      	movs	r0, #64	; 0x40
 8001796:	f7ff ff41 	bl	800161c <oled_write_byte>
 800179a:	2100      	movs	r1, #0
 800179c:	2081      	movs	r0, #129	; 0x81
 800179e:	f7ff ff3d 	bl	800161c <oled_write_byte>
 80017a2:	2100      	movs	r1, #0
 80017a4:	20cf      	movs	r0, #207	; 0xcf
 80017a6:	f7ff ff39 	bl	800161c <oled_write_byte>
 80017aa:	2100      	movs	r1, #0
 80017ac:	20a1      	movs	r0, #161	; 0xa1
 80017ae:	f7ff ff35 	bl	800161c <oled_write_byte>
 80017b2:	2100      	movs	r1, #0
 80017b4:	20c8      	movs	r0, #200	; 0xc8
 80017b6:	f7ff ff31 	bl	800161c <oled_write_byte>
 80017ba:	2100      	movs	r1, #0
 80017bc:	20a6      	movs	r0, #166	; 0xa6
 80017be:	f7ff ff2d 	bl	800161c <oled_write_byte>
 80017c2:	2100      	movs	r1, #0
 80017c4:	20a8      	movs	r0, #168	; 0xa8
 80017c6:	f7ff ff29 	bl	800161c <oled_write_byte>
 80017ca:	2100      	movs	r1, #0
 80017cc:	203f      	movs	r0, #63	; 0x3f
 80017ce:	f7ff ff25 	bl	800161c <oled_write_byte>
 80017d2:	2100      	movs	r1, #0
 80017d4:	20d3      	movs	r0, #211	; 0xd3
 80017d6:	f7ff ff21 	bl	800161c <oled_write_byte>
 80017da:	2100      	movs	r1, #0
 80017dc:	4608      	mov	r0, r1
 80017de:	f7ff ff1d 	bl	800161c <oled_write_byte>
 80017e2:	2100      	movs	r1, #0
 80017e4:	20d5      	movs	r0, #213	; 0xd5
 80017e6:	f7ff ff19 	bl	800161c <oled_write_byte>
 80017ea:	2100      	movs	r1, #0
 80017ec:	2080      	movs	r0, #128	; 0x80
 80017ee:	f7ff ff15 	bl	800161c <oled_write_byte>
 80017f2:	2100      	movs	r1, #0
 80017f4:	20d9      	movs	r0, #217	; 0xd9
 80017f6:	f7ff ff11 	bl	800161c <oled_write_byte>
 80017fa:	2100      	movs	r1, #0
 80017fc:	20f1      	movs	r0, #241	; 0xf1
 80017fe:	f7ff ff0d 	bl	800161c <oled_write_byte>
 8001802:	2100      	movs	r1, #0
 8001804:	20da      	movs	r0, #218	; 0xda
 8001806:	f7ff ff09 	bl	800161c <oled_write_byte>
 800180a:	2100      	movs	r1, #0
 800180c:	2012      	movs	r0, #18
 800180e:	f7ff ff05 	bl	800161c <oled_write_byte>
 8001812:	2100      	movs	r1, #0
 8001814:	20db      	movs	r0, #219	; 0xdb
 8001816:	f7ff ff01 	bl	800161c <oled_write_byte>
 800181a:	2100      	movs	r1, #0
 800181c:	2040      	movs	r0, #64	; 0x40
 800181e:	f7ff fefd 	bl	800161c <oled_write_byte>
 8001822:	2100      	movs	r1, #0
 8001824:	2020      	movs	r0, #32
 8001826:	f7ff fef9 	bl	800161c <oled_write_byte>
 800182a:	2100      	movs	r1, #0
 800182c:	2002      	movs	r0, #2
 800182e:	f7ff fef5 	bl	800161c <oled_write_byte>
 8001832:	2100      	movs	r1, #0
 8001834:	208d      	movs	r0, #141	; 0x8d
 8001836:	f7ff fef1 	bl	800161c <oled_write_byte>
 800183a:	2100      	movs	r1, #0
 800183c:	2014      	movs	r0, #20
 800183e:	f7ff feed 	bl	800161c <oled_write_byte>
 8001842:	2100      	movs	r1, #0
 8001844:	20a4      	movs	r0, #164	; 0xa4
 8001846:	f7ff fee9 	bl	800161c <oled_write_byte>
 800184a:	2100      	movs	r1, #0
 800184c:	20a6      	movs	r0, #166	; 0xa6
 800184e:	f7ff fee5 	bl	800161c <oled_write_byte>
 8001852:	2100      	movs	r1, #0
 8001854:	20af      	movs	r0, #175	; 0xaf
 8001856:	f7ff fee1 	bl	800161c <oled_write_byte>
 800185a:	2100      	movs	r1, #0
 800185c:	20af      	movs	r0, #175	; 0xaf
 800185e:	f7ff fedd 	bl	800161c <oled_write_byte>
 8001862:	f7ff ff1e 	bl	80016a2 <oled_clear>
 8001866:	bd10      	pop	{r4, pc}
 8001868:	40020c00 	.word	0x40020c00

0800186c <NMI_Handler>:
 800186c:	e7fe      	b.n	800186c <NMI_Handler>

0800186e <HardFault_Handler>:
 800186e:	e7fe      	b.n	800186e <HardFault_Handler>

08001870 <MemManage_Handler>:
 8001870:	e7fe      	b.n	8001870 <MemManage_Handler>

08001872 <BusFault_Handler>:
 8001872:	e7fe      	b.n	8001872 <BusFault_Handler>

08001874 <UsageFault_Handler>:
 8001874:	e7fe      	b.n	8001874 <UsageFault_Handler>

08001876 <SVC_Handler>:
 8001876:	4770      	bx	lr

08001878 <DebugMon_Handler>:
 8001878:	4770      	bx	lr

0800187a <PendSV_Handler>:
 800187a:	4770      	bx	lr

0800187c <SysTick_Handler>:
 800187c:	b508      	push	{r3, lr}
 800187e:	f000 fe1d 	bl	80024bc <HAL_IncTick>
 8001882:	bd08      	pop	{r3, pc}

08001884 <USART1_IRQHandler>:
 8001884:	b508      	push	{r3, lr}
 8001886:	4802      	ldr	r0, [pc, #8]	; (8001890 <USART1_IRQHandler+0xc>)
 8001888:	f002 fbe4 	bl	8004054 <HAL_UART_IRQHandler>
 800188c:	bd08      	pop	{r3, pc}
 800188e:	bf00      	nop
 8001890:	20000220 	.word	0x20000220

08001894 <HAL_MspInit>:
 8001894:	b082      	sub	sp, #8
 8001896:	2100      	movs	r1, #0
 8001898:	9100      	str	r1, [sp, #0]
 800189a:	4b0b      	ldr	r3, [pc, #44]	; (80018c8 <HAL_MspInit+0x34>)
 800189c:	6c5a      	ldr	r2, [r3, #68]	; 0x44
 800189e:	f442 4280 	orr.w	r2, r2, #16384	; 0x4000
 80018a2:	645a      	str	r2, [r3, #68]	; 0x44
 80018a4:	6c5a      	ldr	r2, [r3, #68]	; 0x44
 80018a6:	f402 4280 	and.w	r2, r2, #16384	; 0x4000
 80018aa:	9200      	str	r2, [sp, #0]
 80018ac:	9a00      	ldr	r2, [sp, #0]
 80018ae:	9101      	str	r1, [sp, #4]
 80018b0:	6c1a      	ldr	r2, [r3, #64]	; 0x40
 80018b2:	f042 5280 	orr.w	r2, r2, #268435456	; 0x10000000
 80018b6:	641a      	str	r2, [r3, #64]	; 0x40
 80018b8:	6c1b      	ldr	r3, [r3, #64]	; 0x40
 80018ba:	f003 5380 	and.w	r3, r3, #268435456	; 0x10000000
 80018be:	9301      	str	r3, [sp, #4]
 80018c0:	9b01      	ldr	r3, [sp, #4]
 80018c2:	b002      	add	sp, #8
 80018c4:	4770      	bx	lr
 80018c6:	bf00      	nop
 80018c8:	40023800 	.word	0x40023800

080018cc <MX_FATFS_Init>:
 80018cc:	b508      	push	{r3, lr}
 80018ce:	4903      	ldr	r1, [pc, #12]	; (80018dc <MX_FATFS_Init+0x10>)
 80018d0:	4803      	ldr	r0, [pc, #12]	; (80018e0 <MX_FATFS_Init+0x14>)
 80018d2:	f004 fb81 	bl	8005fd8 <FATFS_LinkDriver>
 80018d6:	4b03      	ldr	r3, [pc, #12]	; (80018e4 <MX_FATFS_Init+0x18>)
 80018d8:	7018      	strb	r0, [r3, #0]
 80018da:	bd08      	pop	{r3, pc}
 80018dc:	20000268 	.word	0x20000268
 80018e0:	080081b0 	.word	0x080081b0
 80018e4:	20000264 	.word	0x20000264

080018e8 <get_fattime>:
 80018e8:	2000      	movs	r0, #0
 80018ea:	4770      	bx	lr

080018ec <BSP_SD_ReadBlocks>:
 80018ec:	b500      	push	{lr}
 80018ee:	b083      	sub	sp, #12
 80018f0:	9300      	str	r3, [sp, #0]
 80018f2:	4613      	mov	r3, r2
 80018f4:	460a      	mov	r2, r1
 80018f6:	4601      	mov	r1, r0
 80018f8:	4803      	ldr	r0, [pc, #12]	; (8001908 <BSP_SD_ReadBlocks+0x1c>)
 80018fa:	f001 fb6b 	bl	8002fd4 <HAL_SD_ReadBlocks>
 80018fe:	b100      	cbz	r0, 8001902 <BSP_SD_ReadBlocks+0x16>
 8001900:	2001      	movs	r0, #1
 8001902:	b003      	add	sp, #12
 8001904:	f85d fb04 	ldr.w	pc, [sp], #4
 8001908:	20000144 	.word	0x20000144

0800190c <BSP_SD_WriteBlocks>:
 800190c:	b500      	push	{lr}
 800190e:	b083      	sub	sp, #12
 8001910:	9300      	str	r3, [sp, #0]
 8001912:	4613      	mov	r3, r2
 8001914:	460a      	mov	r2, r1
 8001916:	4601      	mov	r1, r0
 8001918:	4803      	ldr	r0, [pc, #12]	; (8001928 <BSP_SD_WriteBlocks+0x1c>)
 800191a:	f001 fc7f 	bl	800321c <HAL_SD_WriteBlocks>
 800191e:	b100      	cbz	r0, 8001922 <BSP_SD_WriteBlocks+0x16>
 8001920:	2001      	movs	r0, #1
 8001922:	b003      	add	sp, #12
 8001924:	f85d fb04 	ldr.w	pc, [sp], #4
 8001928:	20000144 	.word	0x20000144

0800192c <BSP_SD_GetCardState>:
 800192c:	b508      	push	{r3, lr}
 800192e:	4803      	ldr	r0, [pc, #12]	; (800193c <BSP_SD_GetCardState+0x10>)
 8001930:	f002 f82e 	bl	8003990 <HAL_SD_GetCardState>
 8001934:	3804      	subs	r0, #4
 8001936:	bf18      	it	ne
 8001938:	2001      	movne	r0, #1
 800193a:	bd08      	pop	{r3, pc}
 800193c:	20000144 	.word	0x20000144

08001940 <BSP_SD_GetCardInfo>:
 8001940:	b508      	push	{r3, lr}
 8001942:	4601      	mov	r1, r0
 8001944:	4801      	ldr	r0, [pc, #4]	; (800194c <BSP_SD_GetCardInfo+0xc>)
 8001946:	f001 ffb1 	bl	80038ac <HAL_SD_GetCardInfo>
 800194a:	bd08      	pop	{r3, pc}
 800194c:	20000144 	.word	0x20000144

08001950 <BSP_SD_IsDetected>:
 8001950:	b082      	sub	sp, #8
 8001952:	2301      	movs	r3, #1
 8001954:	f88d 3007 	strb.w	r3, [sp, #7]
 8001958:	f89d 0007 	ldrb.w	r0, [sp, #7]
 800195c:	b002      	add	sp, #8
 800195e:	4770      	bx	lr

08001960 <BSP_SD_Init>:
 8001960:	b538      	push	{r3, r4, r5, lr}
 8001962:	f7ff fff5 	bl	8001950 <BSP_SD_IsDetected>
 8001966:	2801      	cmp	r0, #1
 8001968:	d002      	beq.n	8001970 <BSP_SD_Init+0x10>
 800196a:	2501      	movs	r5, #1
 800196c:	4628      	mov	r0, r5
 800196e:	bd38      	pop	{r3, r4, r5, pc}
 8001970:	4604      	mov	r4, r0
 8001972:	4807      	ldr	r0, [pc, #28]	; (8001990 <BSP_SD_Init+0x30>)
 8001974:	f001 ff28 	bl	80037c8 <HAL_SD_Init>
 8001978:	4605      	mov	r5, r0
 800197a:	2800      	cmp	r0, #0
 800197c:	d1f6      	bne.n	800196c <BSP_SD_Init+0xc>
 800197e:	f44f 6100 	mov.w	r1, #2048	; 0x800
 8001982:	4803      	ldr	r0, [pc, #12]	; (8001990 <BSP_SD_Init+0x30>)
 8001984:	f001 ffa4 	bl	80038d0 <HAL_SD_ConfigWideBusOperation>
 8001988:	2800      	cmp	r0, #0
 800198a:	d0ef      	beq.n	800196c <BSP_SD_Init+0xc>
 800198c:	4625      	mov	r5, r4
 800198e:	e7ed      	b.n	800196c <BSP_SD_Init+0xc>
 8001990:	20000144 	.word	0x20000144

08001994 <SD_CheckStatus>:
 8001994:	b508      	push	{r3, lr}
 8001996:	4b07      	ldr	r3, [pc, #28]	; (80019b4 <SD_CheckStatus+0x20>)
 8001998:	2201      	movs	r2, #1
 800199a:	701a      	strb	r2, [r3, #0]
 800199c:	f7ff ffc6 	bl	800192c <BSP_SD_GetCardState>
 80019a0:	b920      	cbnz	r0, 80019ac <SD_CheckStatus+0x18>
 80019a2:	4a04      	ldr	r2, [pc, #16]	; (80019b4 <SD_CheckStatus+0x20>)
 80019a4:	7813      	ldrb	r3, [r2, #0]
 80019a6:	f003 03fe 	and.w	r3, r3, #254	; 0xfe
 80019aa:	7013      	strb	r3, [r2, #0]
 80019ac:	4b01      	ldr	r3, [pc, #4]	; (80019b4 <SD_CheckStatus+0x20>)
 80019ae:	7818      	ldrb	r0, [r3, #0]
 80019b0:	bd08      	pop	{r3, pc}
 80019b2:	bf00      	nop
 80019b4:	20000000 	.word	0x20000000

080019b8 <SD_initialize>:
 80019b8:	b510      	push	{r4, lr}
 80019ba:	4604      	mov	r4, r0
 80019bc:	4b07      	ldr	r3, [pc, #28]	; (80019dc <SD_initialize+0x24>)
 80019be:	2201      	movs	r2, #1
 80019c0:	701a      	strb	r2, [r3, #0]
 80019c2:	f7ff ffcd 	bl	8001960 <BSP_SD_Init>
 80019c6:	b110      	cbz	r0, 80019ce <SD_initialize+0x16>
 80019c8:	4b04      	ldr	r3, [pc, #16]	; (80019dc <SD_initialize+0x24>)
 80019ca:	7818      	ldrb	r0, [r3, #0]
 80019cc:	bd10      	pop	{r4, pc}
 80019ce:	4620      	mov	r0, r4
 80019d0:	f7ff ffe0 	bl	8001994 <SD_CheckStatus>
 80019d4:	4b01      	ldr	r3, [pc, #4]	; (80019dc <SD_initialize+0x24>)
 80019d6:	7018      	strb	r0, [r3, #0]
 80019d8:	e7f6      	b.n	80019c8 <SD_initialize+0x10>
 80019da:	bf00      	nop
 80019dc:	20000000 	.word	0x20000000

080019e0 <SD_status>:
 80019e0:	b508      	push	{r3, lr}
 80019e2:	f7ff ffd7 	bl	8001994 <SD_CheckStatus>
 80019e6:	bd08      	pop	{r3, pc}

080019e8 <SD_read>:
 80019e8:	b508      	push	{r3, lr}
 80019ea:	4608      	mov	r0, r1
 80019ec:	4611      	mov	r1, r2
 80019ee:	461a      	mov	r2, r3
 80019f0:	f04f 33ff 	mov.w	r3, #4294967295	; 0xffffffff
 80019f4:	f7ff ff7a 	bl	80018ec <BSP_SD_ReadBlocks>
 80019f8:	b930      	cbnz	r0, 8001a08 <SD_read+0x20>
 80019fa:	f7ff ff97 	bl	800192c <BSP_SD_GetCardState>
 80019fe:	4603      	mov	r3, r0
 8001a00:	2800      	cmp	r0, #0
 8001a02:	d1fa      	bne.n	80019fa <SD_read+0x12>
 8001a04:	4618      	mov	r0, r3
 8001a06:	bd08      	pop	{r3, pc}
 8001a08:	2301      	movs	r3, #1
 8001a0a:	e7fb      	b.n	8001a04 <SD_read+0x1c>

08001a0c <SD_write>:
 8001a0c:	b508      	push	{r3, lr}
 8001a0e:	4608      	mov	r0, r1
 8001a10:	4611      	mov	r1, r2
 8001a12:	461a      	mov	r2, r3
 8001a14:	f04f 33ff 	mov.w	r3, #4294967295	; 0xffffffff
 8001a18:	f7ff ff78 	bl	800190c <BSP_SD_WriteBlocks>
 8001a1c:	b930      	cbnz	r0, 8001a2c <SD_write+0x20>
 8001a1e:	f7ff ff85 	bl	800192c <BSP_SD_GetCardState>
 8001a22:	4603      	mov	r3, r0
 8001a24:	2800      	cmp	r0, #0
 8001a26:	d1fa      	bne.n	8001a1e <SD_write+0x12>
 8001a28:	4618      	mov	r0, r3
 8001a2a:	bd08      	pop	{r3, pc}
 8001a2c:	2301      	movs	r3, #1
 8001a2e:	e7fb      	b.n	8001a28 <SD_write+0x1c>

08001a30 <SD_ioctl>:
 8001a30:	b530      	push	{r4, r5, lr}
 8001a32:	b089      	sub	sp, #36	; 0x24
 8001a34:	4b13      	ldr	r3, [pc, #76]	; (8001a84 <SD_ioctl+0x54>)
 8001a36:	781b      	ldrb	r3, [r3, #0]
 8001a38:	f013 0401 	ands.w	r4, r3, #1
 8001a3c:	d11d      	bne.n	8001a7a <SD_ioctl+0x4a>
 8001a3e:	4608      	mov	r0, r1
 8001a40:	4615      	mov	r5, r2
 8001a42:	2903      	cmp	r1, #3
 8001a44:	d81c      	bhi.n	8001a80 <SD_ioctl+0x50>
 8001a46:	e8df f001 	tbb	[pc, r1]
 8001a4a:	0219      	.short	0x0219
 8001a4c:	1009      	.short	0x1009
 8001a4e:	4668      	mov	r0, sp
 8001a50:	f7ff ff76 	bl	8001940 <BSP_SD_GetCardInfo>
 8001a54:	9b06      	ldr	r3, [sp, #24]
 8001a56:	602b      	str	r3, [r5, #0]
 8001a58:	4620      	mov	r0, r4
 8001a5a:	e00f      	b.n	8001a7c <SD_ioctl+0x4c>
 8001a5c:	4668      	mov	r0, sp
 8001a5e:	f7ff ff6f 	bl	8001940 <BSP_SD_GetCardInfo>
 8001a62:	9b07      	ldr	r3, [sp, #28]
 8001a64:	802b      	strh	r3, [r5, #0]
 8001a66:	4620      	mov	r0, r4
 8001a68:	e008      	b.n	8001a7c <SD_ioctl+0x4c>
 8001a6a:	4668      	mov	r0, sp
 8001a6c:	f7ff ff68 	bl	8001940 <BSP_SD_GetCardInfo>
 8001a70:	9b07      	ldr	r3, [sp, #28]
 8001a72:	0a5b      	lsrs	r3, r3, #9
 8001a74:	602b      	str	r3, [r5, #0]
 8001a76:	4620      	mov	r0, r4
 8001a78:	e000      	b.n	8001a7c <SD_ioctl+0x4c>
 8001a7a:	2003      	movs	r0, #3
 8001a7c:	b009      	add	sp, #36	; 0x24
 8001a7e:	bd30      	pop	{r4, r5, pc}
 8001a80:	2004      	movs	r0, #4
 8001a82:	e7fb      	b.n	8001a7c <SD_ioctl+0x4c>
 8001a84:	20000000 	.word	0x20000000

08001a88 <HAL_RCC_OscConfig>:
 8001a88:	2800      	cmp	r0, #0
 8001a8a:	f000 81df 	beq.w	8001e4c <HAL_RCC_OscConfig+0x3c4>
 8001a8e:	b570      	push	{r4, r5, r6, lr}
 8001a90:	b082      	sub	sp, #8
 8001a92:	4604      	mov	r4, r0
 8001a94:	6803      	ldr	r3, [r0, #0]
 8001a96:	f013 0f01 	tst.w	r3, #1
 8001a9a:	d03b      	beq.n	8001b14 <HAL_RCC_OscConfig+0x8c>
 8001a9c:	4ba6      	ldr	r3, [pc, #664]	; (8001d38 <HAL_RCC_OscConfig+0x2b0>)
 8001a9e:	689b      	ldr	r3, [r3, #8]
 8001aa0:	f003 030c 	and.w	r3, r3, #12
 8001aa4:	2b04      	cmp	r3, #4
 8001aa6:	d02c      	beq.n	8001b02 <HAL_RCC_OscConfig+0x7a>
 8001aa8:	4ba3      	ldr	r3, [pc, #652]	; (8001d38 <HAL_RCC_OscConfig+0x2b0>)
 8001aaa:	689b      	ldr	r3, [r3, #8]
 8001aac:	f003 030c 	and.w	r3, r3, #12
 8001ab0:	2b08      	cmp	r3, #8
 8001ab2:	d021      	beq.n	8001af8 <HAL_RCC_OscConfig+0x70>
 8001ab4:	6863      	ldr	r3, [r4, #4]
 8001ab6:	f5b3 3f80 	cmp.w	r3, #65536	; 0x10000
 8001aba:	d04f      	beq.n	8001b5c <HAL_RCC_OscConfig+0xd4>
 8001abc:	f5b3 2fa0 	cmp.w	r3, #327680	; 0x50000
 8001ac0:	d052      	beq.n	8001b68 <HAL_RCC_OscConfig+0xe0>
 8001ac2:	4b9d      	ldr	r3, [pc, #628]	; (8001d38 <HAL_RCC_OscConfig+0x2b0>)
 8001ac4:	681a      	ldr	r2, [r3, #0]
 8001ac6:	f422 3280 	bic.w	r2, r2, #65536	; 0x10000
 8001aca:	601a      	str	r2, [r3, #0]
 8001acc:	681a      	ldr	r2, [r3, #0]
 8001ace:	f422 2280 	bic.w	r2, r2, #262144	; 0x40000
 8001ad2:	601a      	str	r2, [r3, #0]
 8001ad4:	6863      	ldr	r3, [r4, #4]
 8001ad6:	2b00      	cmp	r3, #0
 8001ad8:	d050      	beq.n	8001b7c <HAL_RCC_OscConfig+0xf4>
 8001ada:	f000 fcfb 	bl	80024d4 <HAL_GetTick>
 8001ade:	4605      	mov	r5, r0
 8001ae0:	4b95      	ldr	r3, [pc, #596]	; (8001d38 <HAL_RCC_OscConfig+0x2b0>)
 8001ae2:	681b      	ldr	r3, [r3, #0]
 8001ae4:	f413 3f00 	tst.w	r3, #131072	; 0x20000
 8001ae8:	d114      	bne.n	8001b14 <HAL_RCC_OscConfig+0x8c>
 8001aea:	f000 fcf3 	bl	80024d4 <HAL_GetTick>
 8001aee:	1b40      	subs	r0, r0, r5
 8001af0:	2864      	cmp	r0, #100	; 0x64
 8001af2:	d9f5      	bls.n	8001ae0 <HAL_RCC_OscConfig+0x58>
 8001af4:	2003      	movs	r0, #3
 8001af6:	e1b0      	b.n	8001e5a <HAL_RCC_OscConfig+0x3d2>
 8001af8:	4b8f      	ldr	r3, [pc, #572]	; (8001d38 <HAL_RCC_OscConfig+0x2b0>)
 8001afa:	685b      	ldr	r3, [r3, #4]
 8001afc:	f413 0f80 	tst.w	r3, #4194304	; 0x400000
 8001b00:	d0d8      	beq.n	8001ab4 <HAL_RCC_OscConfig+0x2c>
 8001b02:	4b8d      	ldr	r3, [pc, #564]	; (8001d38 <HAL_RCC_OscConfig+0x2b0>)
 8001b04:	681b      	ldr	r3, [r3, #0]
 8001b06:	f413 3f00 	tst.w	r3, #131072	; 0x20000
 8001b0a:	d003      	beq.n	8001b14 <HAL_RCC_OscConfig+0x8c>
 8001b0c:	6863      	ldr	r3, [r4, #4]
 8001b0e:	2b00      	cmp	r3, #0
 8001b10:	f000 819e 	beq.w	8001e50 <HAL_RCC_OscConfig+0x3c8>
 8001b14:	6823      	ldr	r3, [r4, #0]
 8001b16:	f013 0f02 	tst.w	r3, #2
 8001b1a:	d054      	beq.n	8001bc6 <HAL_RCC_OscConfig+0x13e>
 8001b1c:	4b86      	ldr	r3, [pc, #536]	; (8001d38 <HAL_RCC_OscConfig+0x2b0>)
 8001b1e:	689b      	ldr	r3, [r3, #8]
 8001b20:	f013 0f0c 	tst.w	r3, #12
 8001b24:	d03e      	beq.n	8001ba4 <HAL_RCC_OscConfig+0x11c>
 8001b26:	4b84      	ldr	r3, [pc, #528]	; (8001d38 <HAL_RCC_OscConfig+0x2b0>)
 8001b28:	689b      	ldr	r3, [r3, #8]
 8001b2a:	f003 030c 	and.w	r3, r3, #12
 8001b2e:	2b08      	cmp	r3, #8
 8001b30:	d033      	beq.n	8001b9a <HAL_RCC_OscConfig+0x112>
 8001b32:	68e3      	ldr	r3, [r4, #12]
 8001b34:	2b00      	cmp	r3, #0
 8001b36:	d067      	beq.n	8001c08 <HAL_RCC_OscConfig+0x180>
 8001b38:	4b80      	ldr	r3, [pc, #512]	; (8001d3c <HAL_RCC_OscConfig+0x2b4>)
 8001b3a:	2201      	movs	r2, #1
 8001b3c:	601a      	str	r2, [r3, #0]
 8001b3e:	f000 fcc9 	bl	80024d4 <HAL_GetTick>
 8001b42:	4605      	mov	r5, r0
 8001b44:	4b7c      	ldr	r3, [pc, #496]	; (8001d38 <HAL_RCC_OscConfig+0x2b0>)
 8001b46:	681b      	ldr	r3, [r3, #0]
 8001b48:	f013 0f02 	tst.w	r3, #2
 8001b4c:	d153      	bne.n	8001bf6 <HAL_RCC_OscConfig+0x16e>
 8001b4e:	f000 fcc1 	bl	80024d4 <HAL_GetTick>
 8001b52:	1b40      	subs	r0, r0, r5
 8001b54:	2802      	cmp	r0, #2
 8001b56:	d9f5      	bls.n	8001b44 <HAL_RCC_OscConfig+0xbc>
 8001b58:	2003      	movs	r0, #3
 8001b5a:	e17e      	b.n	8001e5a <HAL_RCC_OscConfig+0x3d2>
 8001b5c:	4a76      	ldr	r2, [pc, #472]	; (8001d38 <HAL_RCC_OscConfig+0x2b0>)
 8001b5e:	6813      	ldr	r3, [r2, #0]
 8001b60:	f443 3380 	orr.w	r3, r3, #65536	; 0x10000
 8001b64:	6013      	str	r3, [r2, #0]
 8001b66:	e7b5      	b.n	8001ad4 <HAL_RCC_OscConfig+0x4c>
 8001b68:	4b73      	ldr	r3, [pc, #460]	; (8001d38 <HAL_RCC_OscConfig+0x2b0>)
 8001b6a:	681a      	ldr	r2, [r3, #0]
 8001b6c:	f442 2280 	orr.w	r2, r2, #262144	; 0x40000
 8001b70:	601a      	str	r2, [r3, #0]
 8001b72:	681a      	ldr	r2, [r3, #0]
 8001b74:	f442 3280 	orr.w	r2, r2, #65536	; 0x10000
 8001b78:	601a      	str	r2, [r3, #0]
 8001b7a:	e7ab      	b.n	8001ad4 <HAL_RCC_OscConfig+0x4c>
 8001b7c:	f000 fcaa 	bl	80024d4 <HAL_GetTick>
 8001b80:	4605      	mov	r5, r0
 8001b82:	4b6d      	ldr	r3, [pc, #436]	; (8001d38 <HAL_RCC_OscConfig+0x2b0>)
 8001b84:	681b      	ldr	r3, [r3, #0]
 8001b86:	f413 3f00 	tst.w	r3, #131072	; 0x20000
 8001b8a:	d0c3      	beq.n	8001b14 <HAL_RCC_OscConfig+0x8c>
 8001b8c:	f000 fca2 	bl	80024d4 <HAL_GetTick>
 8001b90:	1b40      	subs	r0, r0, r5
 8001b92:	2864      	cmp	r0, #100	; 0x64
 8001b94:	d9f5      	bls.n	8001b82 <HAL_RCC_OscConfig+0xfa>
 8001b96:	2003      	movs	r0, #3
 8001b98:	e15f      	b.n	8001e5a <HAL_RCC_OscConfig+0x3d2>
 8001b9a:	4b67      	ldr	r3, [pc, #412]	; (8001d38 <HAL_RCC_OscConfig+0x2b0>)
 8001b9c:	685b      	ldr	r3, [r3, #4]
 8001b9e:	f413 0f80 	tst.w	r3, #4194304	; 0x400000
 8001ba2:	d1c6      	bne.n	8001b32 <HAL_RCC_OscConfig+0xaa>
 8001ba4:	4b64      	ldr	r3, [pc, #400]	; (8001d38 <HAL_RCC_OscConfig+0x2b0>)
 8001ba6:	681b      	ldr	r3, [r3, #0]
 8001ba8:	f013 0f02 	tst.w	r3, #2
 8001bac:	d003      	beq.n	8001bb6 <HAL_RCC_OscConfig+0x12e>
 8001bae:	68e3      	ldr	r3, [r4, #12]
 8001bb0:	2b01      	cmp	r3, #1
 8001bb2:	f040 814f 	bne.w	8001e54 <HAL_RCC_OscConfig+0x3cc>
 8001bb6:	4a60      	ldr	r2, [pc, #384]	; (8001d38 <HAL_RCC_OscConfig+0x2b0>)
 8001bb8:	6813      	ldr	r3, [r2, #0]
 8001bba:	f023 03f8 	bic.w	r3, r3, #248	; 0xf8
 8001bbe:	6921      	ldr	r1, [r4, #16]
 8001bc0:	ea43 03c1 	orr.w	r3, r3, r1, lsl #3
 8001bc4:	6013      	str	r3, [r2, #0]
 8001bc6:	6823      	ldr	r3, [r4, #0]
 8001bc8:	f013 0f08 	tst.w	r3, #8
 8001bcc:	d040      	beq.n	8001c50 <HAL_RCC_OscConfig+0x1c8>
 8001bce:	6963      	ldr	r3, [r4, #20]
 8001bd0:	b363      	cbz	r3, 8001c2c <HAL_RCC_OscConfig+0x1a4>
 8001bd2:	4b5b      	ldr	r3, [pc, #364]	; (8001d40 <HAL_RCC_OscConfig+0x2b8>)
 8001bd4:	2201      	movs	r2, #1
 8001bd6:	601a      	str	r2, [r3, #0]
 8001bd8:	f000 fc7c 	bl	80024d4 <HAL_GetTick>
 8001bdc:	4605      	mov	r5, r0
 8001bde:	4b56      	ldr	r3, [pc, #344]	; (8001d38 <HAL_RCC_OscConfig+0x2b0>)
 8001be0:	6f5b      	ldr	r3, [r3, #116]	; 0x74
 8001be2:	f013 0f02 	tst.w	r3, #2
 8001be6:	d133      	bne.n	8001c50 <HAL_RCC_OscConfig+0x1c8>
 8001be8:	f000 fc74 	bl	80024d4 <HAL_GetTick>
 8001bec:	1b40      	subs	r0, r0, r5
 8001bee:	2802      	cmp	r0, #2
 8001bf0:	d9f5      	bls.n	8001bde <HAL_RCC_OscConfig+0x156>
 8001bf2:	2003      	movs	r0, #3
 8001bf4:	e131      	b.n	8001e5a <HAL_RCC_OscConfig+0x3d2>
 8001bf6:	4a50      	ldr	r2, [pc, #320]	; (8001d38 <HAL_RCC_OscConfig+0x2b0>)
 8001bf8:	6813      	ldr	r3, [r2, #0]
 8001bfa:	f023 03f8 	bic.w	r3, r3, #248	; 0xf8
 8001bfe:	6921      	ldr	r1, [r4, #16]
 8001c00:	ea43 03c1 	orr.w	r3, r3, r1, lsl #3
 8001c04:	6013      	str	r3, [r2, #0]
 8001c06:	e7de      	b.n	8001bc6 <HAL_RCC_OscConfig+0x13e>
 8001c08:	4b4c      	ldr	r3, [pc, #304]	; (8001d3c <HAL_RCC_OscConfig+0x2b4>)
 8001c0a:	2200      	movs	r2, #0
 8001c0c:	601a      	str	r2, [r3, #0]
 8001c0e:	f000 fc61 	bl	80024d4 <HAL_GetTick>
 8001c12:	4605      	mov	r5, r0
 8001c14:	4b48      	ldr	r3, [pc, #288]	; (8001d38 <HAL_RCC_OscConfig+0x2b0>)
 8001c16:	681b      	ldr	r3, [r3, #0]
 8001c18:	f013 0f02 	tst.w	r3, #2
 8001c1c:	d0d3      	beq.n	8001bc6 <HAL_RCC_OscConfig+0x13e>
 8001c1e:	f000 fc59 	bl	80024d4 <HAL_GetTick>
 8001c22:	1b40      	subs	r0, r0, r5
 8001c24:	2802      	cmp	r0, #2
 8001c26:	d9f5      	bls.n	8001c14 <HAL_RCC_OscConfig+0x18c>
 8001c28:	2003      	movs	r0, #3
 8001c2a:	e116      	b.n	8001e5a <HAL_RCC_OscConfig+0x3d2>
 8001c2c:	4b44      	ldr	r3, [pc, #272]	; (8001d40 <HAL_RCC_OscConfig+0x2b8>)
 8001c2e:	2200      	movs	r2, #0
 8001c30:	601a      	str	r2, [r3, #0]
 8001c32:	f000 fc4f 	bl	80024d4 <HAL_GetTick>
 8001c36:	4605      	mov	r5, r0
 8001c38:	4b3f      	ldr	r3, [pc, #252]	; (8001d38 <HAL_RCC_OscConfig+0x2b0>)
 8001c3a:	6f5b      	ldr	r3, [r3, #116]	; 0x74
 8001c3c:	f013 0f02 	tst.w	r3, #2
 8001c40:	d006      	beq.n	8001c50 <HAL_RCC_OscConfig+0x1c8>
 8001c42:	f000 fc47 	bl	80024d4 <HAL_GetTick>
 8001c46:	1b40      	subs	r0, r0, r5
 8001c48:	2802      	cmp	r0, #2
 8001c4a:	d9f5      	bls.n	8001c38 <HAL_RCC_OscConfig+0x1b0>
 8001c4c:	2003      	movs	r0, #3
 8001c4e:	e104      	b.n	8001e5a <HAL_RCC_OscConfig+0x3d2>
 8001c50:	6823      	ldr	r3, [r4, #0]
 8001c52:	f013 0f04 	tst.w	r3, #4
 8001c56:	d078      	beq.n	8001d4a <HAL_RCC_OscConfig+0x2c2>
 8001c58:	4b37      	ldr	r3, [pc, #220]	; (8001d38 <HAL_RCC_OscConfig+0x2b0>)
 8001c5a:	6c1b      	ldr	r3, [r3, #64]	; 0x40
 8001c5c:	f013 5f80 	tst.w	r3, #268435456	; 0x10000000
 8001c60:	d10d      	bne.n	8001c7e <HAL_RCC_OscConfig+0x1f6>
 8001c62:	2300      	movs	r3, #0
 8001c64:	9301      	str	r3, [sp, #4]
 8001c66:	4b34      	ldr	r3, [pc, #208]	; (8001d38 <HAL_RCC_OscConfig+0x2b0>)
 8001c68:	6c1a      	ldr	r2, [r3, #64]	; 0x40
 8001c6a:	f042 5280 	orr.w	r2, r2, #268435456	; 0x10000000
 8001c6e:	641a      	str	r2, [r3, #64]	; 0x40
 8001c70:	6c1b      	ldr	r3, [r3, #64]	; 0x40
 8001c72:	f003 5380 	and.w	r3, r3, #268435456	; 0x10000000
 8001c76:	9301      	str	r3, [sp, #4]
 8001c78:	9b01      	ldr	r3, [sp, #4]
 8001c7a:	2501      	movs	r5, #1
 8001c7c:	e000      	b.n	8001c80 <HAL_RCC_OscConfig+0x1f8>
 8001c7e:	2500      	movs	r5, #0
 8001c80:	4b30      	ldr	r3, [pc, #192]	; (8001d44 <HAL_RCC_OscConfig+0x2bc>)
 8001c82:	681b      	ldr	r3, [r3, #0]
 8001c84:	f413 7f80 	tst.w	r3, #256	; 0x100
 8001c88:	d021      	beq.n	8001cce <HAL_RCC_OscConfig+0x246>
 8001c8a:	68a3      	ldr	r3, [r4, #8]
 8001c8c:	2b01      	cmp	r3, #1
 8001c8e:	d032      	beq.n	8001cf6 <HAL_RCC_OscConfig+0x26e>
 8001c90:	2b05      	cmp	r3, #5
 8001c92:	d036      	beq.n	8001d02 <HAL_RCC_OscConfig+0x27a>
 8001c94:	4b28      	ldr	r3, [pc, #160]	; (8001d38 <HAL_RCC_OscConfig+0x2b0>)
 8001c96:	6f1a      	ldr	r2, [r3, #112]	; 0x70
 8001c98:	f022 0201 	bic.w	r2, r2, #1
 8001c9c:	671a      	str	r2, [r3, #112]	; 0x70
 8001c9e:	6f1a      	ldr	r2, [r3, #112]	; 0x70
 8001ca0:	f022 0204 	bic.w	r2, r2, #4
 8001ca4:	671a      	str	r2, [r3, #112]	; 0x70
 8001ca6:	68a3      	ldr	r3, [r4, #8]
 8001ca8:	2b00      	cmp	r3, #0
 8001caa:	d034      	beq.n	8001d16 <HAL_RCC_OscConfig+0x28e>
 8001cac:	f000 fc12 	bl	80024d4 <HAL_GetTick>
 8001cb0:	4606      	mov	r6, r0
 8001cb2:	4b21      	ldr	r3, [pc, #132]	; (8001d38 <HAL_RCC_OscConfig+0x2b0>)
 8001cb4:	6f1b      	ldr	r3, [r3, #112]	; 0x70
 8001cb6:	f013 0f02 	tst.w	r3, #2
 8001cba:	d145      	bne.n	8001d48 <HAL_RCC_OscConfig+0x2c0>
 8001cbc:	f000 fc0a 	bl	80024d4 <HAL_GetTick>
 8001cc0:	1b80      	subs	r0, r0, r6
 8001cc2:	f241 3388 	movw	r3, #5000	; 0x1388
 8001cc6:	4298      	cmp	r0, r3
 8001cc8:	d9f3      	bls.n	8001cb2 <HAL_RCC_OscConfig+0x22a>
 8001cca:	2003      	movs	r0, #3
 8001ccc:	e0c5      	b.n	8001e5a <HAL_RCC_OscConfig+0x3d2>
 8001cce:	4a1d      	ldr	r2, [pc, #116]	; (8001d44 <HAL_RCC_OscConfig+0x2bc>)
 8001cd0:	6813      	ldr	r3, [r2, #0]
 8001cd2:	f443 7380 	orr.w	r3, r3, #256	; 0x100
 8001cd6:	6013      	str	r3, [r2, #0]
 8001cd8:	f000 fbfc 	bl	80024d4 <HAL_GetTick>
 8001cdc:	4606      	mov	r6, r0
 8001cde:	4b19      	ldr	r3, [pc, #100]	; (8001d44 <HAL_RCC_OscConfig+0x2bc>)
 8001ce0:	681b      	ldr	r3, [r3, #0]
 8001ce2:	f413 7f80 	tst.w	r3, #256	; 0x100
 8001ce6:	d1d0      	bne.n	8001c8a <HAL_RCC_OscConfig+0x202>
 8001ce8:	f000 fbf4 	bl	80024d4 <HAL_GetTick>
 8001cec:	1b80      	subs	r0, r0, r6
 8001cee:	2802      	cmp	r0, #2
 8001cf0:	d9f5      	bls.n	8001cde <HAL_RCC_OscConfig+0x256>
 8001cf2:	2003      	movs	r0, #3
 8001cf4:	e0b1      	b.n	8001e5a <HAL_RCC_OscConfig+0x3d2>
 8001cf6:	4a10      	ldr	r2, [pc, #64]	; (8001d38 <HAL_RCC_OscConfig+0x2b0>)
 8001cf8:	6f13      	ldr	r3, [r2, #112]	; 0x70
 8001cfa:	f043 0301 	orr.w	r3, r3, #1
 8001cfe:	6713      	str	r3, [r2, #112]	; 0x70
 8001d00:	e7d1      	b.n	8001ca6 <HAL_RCC_OscConfig+0x21e>
 8001d02:	4b0d      	ldr	r3, [pc, #52]	; (8001d38 <HAL_RCC_OscConfig+0x2b0>)
 8001d04:	6f1a      	ldr	r2, [r3, #112]	; 0x70
 8001d06:	f042 0204 	orr.w	r2, r2, #4
 8001d0a:	671a      	str	r2, [r3, #112]	; 0x70
 8001d0c:	6f1a      	ldr	r2, [r3, #112]	; 0x70
 8001d0e:	f042 0201 	orr.w	r2, r2, #1
 8001d12:	671a      	str	r2, [r3, #112]	; 0x70
 8001d14:	e7c7      	b.n	8001ca6 <HAL_RCC_OscConfig+0x21e>
 8001d16:	f000 fbdd 	bl	80024d4 <HAL_GetTick>
 8001d1a:	4606      	mov	r6, r0
 8001d1c:	4b06      	ldr	r3, [pc, #24]	; (8001d38 <HAL_RCC_OscConfig+0x2b0>)
 8001d1e:	6f1b      	ldr	r3, [r3, #112]	; 0x70
 8001d20:	f013 0f02 	tst.w	r3, #2
 8001d24:	d010      	beq.n	8001d48 <HAL_RCC_OscConfig+0x2c0>
 8001d26:	f000 fbd5 	bl	80024d4 <HAL_GetTick>
 8001d2a:	1b80      	subs	r0, r0, r6
 8001d2c:	f241 3388 	movw	r3, #5000	; 0x1388
 8001d30:	4298      	cmp	r0, r3
 8001d32:	d9f3      	bls.n	8001d1c <HAL_RCC_OscConfig+0x294>
 8001d34:	2003      	movs	r0, #3
 8001d36:	e090      	b.n	8001e5a <HAL_RCC_OscConfig+0x3d2>
 8001d38:	40023800 	.word	0x40023800
 8001d3c:	42470000 	.word	0x42470000
 8001d40:	42470e80 	.word	0x42470e80
 8001d44:	40007000 	.word	0x40007000
 8001d48:	b9ed      	cbnz	r5, 8001d86 <HAL_RCC_OscConfig+0x2fe>
 8001d4a:	69a3      	ldr	r3, [r4, #24]
 8001d4c:	2b00      	cmp	r3, #0
 8001d4e:	f000 8083 	beq.w	8001e58 <HAL_RCC_OscConfig+0x3d0>
 8001d52:	4a49      	ldr	r2, [pc, #292]	; (8001e78 <HAL_RCC_OscConfig+0x3f0>)
 8001d54:	6892      	ldr	r2, [r2, #8]
 8001d56:	f002 020c 	and.w	r2, r2, #12
 8001d5a:	2a08      	cmp	r2, #8
 8001d5c:	d051      	beq.n	8001e02 <HAL_RCC_OscConfig+0x37a>
 8001d5e:	2b02      	cmp	r3, #2
 8001d60:	d017      	beq.n	8001d92 <HAL_RCC_OscConfig+0x30a>
 8001d62:	4b46      	ldr	r3, [pc, #280]	; (8001e7c <HAL_RCC_OscConfig+0x3f4>)
 8001d64:	2200      	movs	r2, #0
 8001d66:	601a      	str	r2, [r3, #0]
 8001d68:	f000 fbb4 	bl	80024d4 <HAL_GetTick>
 8001d6c:	4604      	mov	r4, r0
 8001d6e:	4b42      	ldr	r3, [pc, #264]	; (8001e78 <HAL_RCC_OscConfig+0x3f0>)
 8001d70:	681b      	ldr	r3, [r3, #0]
 8001d72:	f013 7f00 	tst.w	r3, #33554432	; 0x2000000
 8001d76:	d042      	beq.n	8001dfe <HAL_RCC_OscConfig+0x376>
 8001d78:	f000 fbac 	bl	80024d4 <HAL_GetTick>
 8001d7c:	1b00      	subs	r0, r0, r4
 8001d7e:	2802      	cmp	r0, #2
 8001d80:	d9f5      	bls.n	8001d6e <HAL_RCC_OscConfig+0x2e6>
 8001d82:	2003      	movs	r0, #3
 8001d84:	e069      	b.n	8001e5a <HAL_RCC_OscConfig+0x3d2>
 8001d86:	4a3c      	ldr	r2, [pc, #240]	; (8001e78 <HAL_RCC_OscConfig+0x3f0>)
 8001d88:	6c13      	ldr	r3, [r2, #64]	; 0x40
 8001d8a:	f023 5380 	bic.w	r3, r3, #268435456	; 0x10000000
 8001d8e:	6413      	str	r3, [r2, #64]	; 0x40
 8001d90:	e7db      	b.n	8001d4a <HAL_RCC_OscConfig+0x2c2>
 8001d92:	4b3a      	ldr	r3, [pc, #232]	; (8001e7c <HAL_RCC_OscConfig+0x3f4>)
 8001d94:	2200      	movs	r2, #0
 8001d96:	601a      	str	r2, [r3, #0]
 8001d98:	f000 fb9c 	bl	80024d4 <HAL_GetTick>
 8001d9c:	4605      	mov	r5, r0
 8001d9e:	4b36      	ldr	r3, [pc, #216]	; (8001e78 <HAL_RCC_OscConfig+0x3f0>)
 8001da0:	681b      	ldr	r3, [r3, #0]
 8001da2:	f013 7f00 	tst.w	r3, #33554432	; 0x2000000
 8001da6:	d006      	beq.n	8001db6 <HAL_RCC_OscConfig+0x32e>
 8001da8:	f000 fb94 	bl	80024d4 <HAL_GetTick>
 8001dac:	1b40      	subs	r0, r0, r5
 8001dae:	2802      	cmp	r0, #2
 8001db0:	d9f5      	bls.n	8001d9e <HAL_RCC_OscConfig+0x316>
 8001db2:	2003      	movs	r0, #3
 8001db4:	e051      	b.n	8001e5a <HAL_RCC_OscConfig+0x3d2>
 8001db6:	69e3      	ldr	r3, [r4, #28]
 8001db8:	6a22      	ldr	r2, [r4, #32]
 8001dba:	4313      	orrs	r3, r2
 8001dbc:	6a62      	ldr	r2, [r4, #36]	; 0x24
 8001dbe:	ea43 1382 	orr.w	r3, r3, r2, lsl #6
 8001dc2:	6aa2      	ldr	r2, [r4, #40]	; 0x28
 8001dc4:	0852      	lsrs	r2, r2, #1
 8001dc6:	3a01      	subs	r2, #1
 8001dc8:	ea43 4302 	orr.w	r3, r3, r2, lsl #16
 8001dcc:	6ae2      	ldr	r2, [r4, #44]	; 0x2c
 8001dce:	ea43 6302 	orr.w	r3, r3, r2, lsl #24
 8001dd2:	4a29      	ldr	r2, [pc, #164]	; (8001e78 <HAL_RCC_OscConfig+0x3f0>)
 8001dd4:	6053      	str	r3, [r2, #4]
 8001dd6:	4b29      	ldr	r3, [pc, #164]	; (8001e7c <HAL_RCC_OscConfig+0x3f4>)
 8001dd8:	2201      	movs	r2, #1
 8001dda:	601a      	str	r2, [r3, #0]
 8001ddc:	f000 fb7a 	bl	80024d4 <HAL_GetTick>
 8001de0:	4604      	mov	r4, r0
 8001de2:	4b25      	ldr	r3, [pc, #148]	; (8001e78 <HAL_RCC_OscConfig+0x3f0>)
 8001de4:	681b      	ldr	r3, [r3, #0]
 8001de6:	f013 7f00 	tst.w	r3, #33554432	; 0x2000000
 8001dea:	d106      	bne.n	8001dfa <HAL_RCC_OscConfig+0x372>
 8001dec:	f000 fb72 	bl	80024d4 <HAL_GetTick>
 8001df0:	1b00      	subs	r0, r0, r4
 8001df2:	2802      	cmp	r0, #2
 8001df4:	d9f5      	bls.n	8001de2 <HAL_RCC_OscConfig+0x35a>
 8001df6:	2003      	movs	r0, #3
 8001df8:	e02f      	b.n	8001e5a <HAL_RCC_OscConfig+0x3d2>
 8001dfa:	2000      	movs	r0, #0
 8001dfc:	e02d      	b.n	8001e5a <HAL_RCC_OscConfig+0x3d2>
 8001dfe:	2000      	movs	r0, #0
 8001e00:	e02b      	b.n	8001e5a <HAL_RCC_OscConfig+0x3d2>
 8001e02:	2b01      	cmp	r3, #1
 8001e04:	d02b      	beq.n	8001e5e <HAL_RCC_OscConfig+0x3d6>
 8001e06:	4b1c      	ldr	r3, [pc, #112]	; (8001e78 <HAL_RCC_OscConfig+0x3f0>)
 8001e08:	685b      	ldr	r3, [r3, #4]
 8001e0a:	f403 0180 	and.w	r1, r3, #4194304	; 0x400000
 8001e0e:	69e2      	ldr	r2, [r4, #28]
 8001e10:	4291      	cmp	r1, r2
 8001e12:	d126      	bne.n	8001e62 <HAL_RCC_OscConfig+0x3da>
 8001e14:	f003 023f 	and.w	r2, r3, #63	; 0x3f
 8001e18:	6a21      	ldr	r1, [r4, #32]
 8001e1a:	428a      	cmp	r2, r1
 8001e1c:	d123      	bne.n	8001e66 <HAL_RCC_OscConfig+0x3de>
 8001e1e:	6a61      	ldr	r1, [r4, #36]	; 0x24
 8001e20:	f647 72c0 	movw	r2, #32704	; 0x7fc0
 8001e24:	401a      	ands	r2, r3
 8001e26:	ebb2 1f81 	cmp.w	r2, r1, lsl #6
 8001e2a:	d11e      	bne.n	8001e6a <HAL_RCC_OscConfig+0x3e2>
 8001e2c:	f403 3140 	and.w	r1, r3, #196608	; 0x30000
 8001e30:	6aa2      	ldr	r2, [r4, #40]	; 0x28
 8001e32:	0852      	lsrs	r2, r2, #1
 8001e34:	3a01      	subs	r2, #1
 8001e36:	ebb1 4f02 	cmp.w	r1, r2, lsl #16
 8001e3a:	d118      	bne.n	8001e6e <HAL_RCC_OscConfig+0x3e6>
 8001e3c:	f003 6370 	and.w	r3, r3, #251658240	; 0xf000000
 8001e40:	6ae2      	ldr	r2, [r4, #44]	; 0x2c
 8001e42:	ebb3 6f02 	cmp.w	r3, r2, lsl #24
 8001e46:	d114      	bne.n	8001e72 <HAL_RCC_OscConfig+0x3ea>
 8001e48:	2000      	movs	r0, #0
 8001e4a:	e006      	b.n	8001e5a <HAL_RCC_OscConfig+0x3d2>
 8001e4c:	2001      	movs	r0, #1
 8001e4e:	4770      	bx	lr
 8001e50:	2001      	movs	r0, #1
 8001e52:	e002      	b.n	8001e5a <HAL_RCC_OscConfig+0x3d2>
 8001e54:	2001      	movs	r0, #1
 8001e56:	e000      	b.n	8001e5a <HAL_RCC_OscConfig+0x3d2>
 8001e58:	2000      	movs	r0, #0
 8001e5a:	b002      	add	sp, #8
 8001e5c:	bd70      	pop	{r4, r5, r6, pc}
 8001e5e:	2001      	movs	r0, #1
 8001e60:	e7fb      	b.n	8001e5a <HAL_RCC_OscConfig+0x3d2>
 8001e62:	2001      	movs	r0, #1
 8001e64:	e7f9      	b.n	8001e5a <HAL_RCC_OscConfig+0x3d2>
 8001e66:	2001      	movs	r0, #1
 8001e68:	e7f7      	b.n	8001e5a <HAL_RCC_OscConfig+0x3d2>
 8001e6a:	2001      	movs	r0, #1
 8001e6c:	e7f5      	b.n	8001e5a <HAL_RCC_OscConfig+0x3d2>
 8001e6e:	2001      	movs	r0, #1
 8001e70:	e7f3      	b.n	8001e5a <HAL_RCC_OscConfig+0x3d2>
 8001e72:	2001      	movs	r0, #1
 8001e74:	e7f1      	b.n	8001e5a <HAL_RCC_OscConfig+0x3d2>
 8001e76:	bf00      	nop
 8001e78:	40023800 	.word	0x40023800
 8001e7c:	42470060 	.word	0x42470060

08001e80 <HAL_RCC_GetSysClockFreq>:
 8001e80:	b5f8      	push	{r3, r4, r5, r6, r7, lr}
 8001e82:	4b24      	ldr	r3, [pc, #144]	; (8001f14 <HAL_RCC_GetSysClockFreq+0x94>)
 8001e84:	689b      	ldr	r3, [r3, #8]
 8001e86:	f003 030c 	and.w	r3, r3, #12
 8001e8a:	2b04      	cmp	r3, #4
 8001e8c:	d03d      	beq.n	8001f0a <HAL_RCC_GetSysClockFreq+0x8a>
 8001e8e:	2b08      	cmp	r3, #8
 8001e90:	d13d      	bne.n	8001f0e <HAL_RCC_GetSysClockFreq+0x8e>
 8001e92:	4b20      	ldr	r3, [pc, #128]	; (8001f14 <HAL_RCC_GetSysClockFreq+0x94>)
 8001e94:	685a      	ldr	r2, [r3, #4]
 8001e96:	f002 023f 	and.w	r2, r2, #63	; 0x3f
 8001e9a:	685b      	ldr	r3, [r3, #4]
 8001e9c:	f413 0f80 	tst.w	r3, #4194304	; 0x400000
 8001ea0:	d012      	beq.n	8001ec8 <HAL_RCC_GetSysClockFreq+0x48>
 8001ea2:	4b1c      	ldr	r3, [pc, #112]	; (8001f14 <HAL_RCC_GetSysClockFreq+0x94>)
 8001ea4:	6859      	ldr	r1, [r3, #4]
 8001ea6:	f3c1 1188 	ubfx	r1, r1, #6, #9
 8001eaa:	2300      	movs	r3, #0
 8001eac:	481a      	ldr	r0, [pc, #104]	; (8001f18 <HAL_RCC_GetSysClockFreq+0x98>)
 8001eae:	fba1 0100 	umull	r0, r1, r1, r0
 8001eb2:	f7fe fe11 	bl	8000ad8 <__aeabi_uldivmod>
 8001eb6:	4b17      	ldr	r3, [pc, #92]	; (8001f14 <HAL_RCC_GetSysClockFreq+0x94>)
 8001eb8:	685b      	ldr	r3, [r3, #4]
 8001eba:	f3c3 4301 	ubfx	r3, r3, #16, #2
 8001ebe:	3301      	adds	r3, #1
 8001ec0:	005b      	lsls	r3, r3, #1
 8001ec2:	fbb0 f0f3 	udiv	r0, r0, r3
 8001ec6:	e023      	b.n	8001f10 <HAL_RCC_GetSysClockFreq+0x90>
 8001ec8:	4b12      	ldr	r3, [pc, #72]	; (8001f14 <HAL_RCC_GetSysClockFreq+0x94>)
 8001eca:	685b      	ldr	r3, [r3, #4]
 8001ecc:	f3c3 1388 	ubfx	r3, r3, #6, #9
 8001ed0:	015c      	lsls	r4, r3, #5
 8001ed2:	2500      	movs	r5, #0
 8001ed4:	1ae4      	subs	r4, r4, r3
 8001ed6:	f165 0500 	sbc.w	r5, r5, #0
 8001eda:	01ae      	lsls	r6, r5, #6
 8001edc:	ea46 6694 	orr.w	r6, r6, r4, lsr #26
 8001ee0:	01a7      	lsls	r7, r4, #6
 8001ee2:	1b38      	subs	r0, r7, r4
 8001ee4:	eb66 0105 	sbc.w	r1, r6, r5
 8001ee8:	00cc      	lsls	r4, r1, #3
 8001eea:	ea44 7450 	orr.w	r4, r4, r0, lsr #29
 8001eee:	00c5      	lsls	r5, r0, #3
 8001ef0:	18e8      	adds	r0, r5, r3
 8001ef2:	f144 0100 	adc.w	r1, r4, #0
 8001ef6:	028b      	lsls	r3, r1, #10
 8001ef8:	ea43 5390 	orr.w	r3, r3, r0, lsr #22
 8001efc:	0284      	lsls	r4, r0, #10
 8001efe:	4620      	mov	r0, r4
 8001f00:	4619      	mov	r1, r3
 8001f02:	2300      	movs	r3, #0
 8001f04:	f7fe fde8 	bl	8000ad8 <__aeabi_uldivmod>
 8001f08:	e7d5      	b.n	8001eb6 <HAL_RCC_GetSysClockFreq+0x36>
 8001f0a:	4803      	ldr	r0, [pc, #12]	; (8001f18 <HAL_RCC_GetSysClockFreq+0x98>)
 8001f0c:	e000      	b.n	8001f10 <HAL_RCC_GetSysClockFreq+0x90>
 8001f0e:	4803      	ldr	r0, [pc, #12]	; (8001f1c <HAL_RCC_GetSysClockFreq+0x9c>)
 8001f10:	bdf8      	pop	{r3, r4, r5, r6, r7, pc}
 8001f12:	bf00      	nop
 8001f14:	40023800 	.word	0x40023800
 8001f18:	017d7840 	.word	0x017d7840
 8001f1c:	00f42400 	.word	0x00f42400

08001f20 <HAL_RCC_ClockConfig>:
 8001f20:	2800      	cmp	r0, #0
 8001f22:	f000 809b 	beq.w	800205c <HAL_RCC_ClockConfig+0x13c>
 8001f26:	b570      	push	{r4, r5, r6, lr}
 8001f28:	460d      	mov	r5, r1
 8001f2a:	4604      	mov	r4, r0
 8001f2c:	4b4f      	ldr	r3, [pc, #316]	; (800206c <HAL_RCC_ClockConfig+0x14c>)
 8001f2e:	681b      	ldr	r3, [r3, #0]
 8001f30:	f003 0307 	and.w	r3, r3, #7
 8001f34:	428b      	cmp	r3, r1
 8001f36:	d208      	bcs.n	8001f4a <HAL_RCC_ClockConfig+0x2a>
 8001f38:	b2cb      	uxtb	r3, r1
 8001f3a:	4a4c      	ldr	r2, [pc, #304]	; (800206c <HAL_RCC_ClockConfig+0x14c>)
 8001f3c:	7013      	strb	r3, [r2, #0]
 8001f3e:	6813      	ldr	r3, [r2, #0]
 8001f40:	f003 0307 	and.w	r3, r3, #7
 8001f44:	428b      	cmp	r3, r1
 8001f46:	f040 808b 	bne.w	8002060 <HAL_RCC_ClockConfig+0x140>
 8001f4a:	6823      	ldr	r3, [r4, #0]
 8001f4c:	f013 0f02 	tst.w	r3, #2
 8001f50:	d017      	beq.n	8001f82 <HAL_RCC_ClockConfig+0x62>
 8001f52:	f013 0f04 	tst.w	r3, #4
 8001f56:	d004      	beq.n	8001f62 <HAL_RCC_ClockConfig+0x42>
 8001f58:	4a45      	ldr	r2, [pc, #276]	; (8002070 <HAL_RCC_ClockConfig+0x150>)
 8001f5a:	6893      	ldr	r3, [r2, #8]
 8001f5c:	f443 53e0 	orr.w	r3, r3, #7168	; 0x1c00
 8001f60:	6093      	str	r3, [r2, #8]
 8001f62:	6823      	ldr	r3, [r4, #0]
 8001f64:	f013 0f08 	tst.w	r3, #8
 8001f68:	d004      	beq.n	8001f74 <HAL_RCC_ClockConfig+0x54>
 8001f6a:	4a41      	ldr	r2, [pc, #260]	; (8002070 <HAL_RCC_ClockConfig+0x150>)
 8001f6c:	6893      	ldr	r3, [r2, #8]
 8001f6e:	f443 4360 	orr.w	r3, r3, #57344	; 0xe000
 8001f72:	6093      	str	r3, [r2, #8]
 8001f74:	4a3e      	ldr	r2, [pc, #248]	; (8002070 <HAL_RCC_ClockConfig+0x150>)
 8001f76:	6893      	ldr	r3, [r2, #8]
 8001f78:	f023 03f0 	bic.w	r3, r3, #240	; 0xf0
 8001f7c:	68a1      	ldr	r1, [r4, #8]
 8001f7e:	430b      	orrs	r3, r1
 8001f80:	6093      	str	r3, [r2, #8]
 8001f82:	6823      	ldr	r3, [r4, #0]
 8001f84:	f013 0f01 	tst.w	r3, #1
 8001f88:	d032      	beq.n	8001ff0 <HAL_RCC_ClockConfig+0xd0>
 8001f8a:	6863      	ldr	r3, [r4, #4]
 8001f8c:	2b01      	cmp	r3, #1
 8001f8e:	d021      	beq.n	8001fd4 <HAL_RCC_ClockConfig+0xb4>
 8001f90:	1e9a      	subs	r2, r3, #2
 8001f92:	2a01      	cmp	r2, #1
 8001f94:	d925      	bls.n	8001fe2 <HAL_RCC_ClockConfig+0xc2>
 8001f96:	4a36      	ldr	r2, [pc, #216]	; (8002070 <HAL_RCC_ClockConfig+0x150>)
 8001f98:	6812      	ldr	r2, [r2, #0]
 8001f9a:	f012 0f02 	tst.w	r2, #2
 8001f9e:	d061      	beq.n	8002064 <HAL_RCC_ClockConfig+0x144>
 8001fa0:	4933      	ldr	r1, [pc, #204]	; (8002070 <HAL_RCC_ClockConfig+0x150>)
 8001fa2:	688a      	ldr	r2, [r1, #8]
 8001fa4:	f022 0203 	bic.w	r2, r2, #3
 8001fa8:	4313      	orrs	r3, r2
 8001faa:	608b      	str	r3, [r1, #8]
 8001fac:	f000 fa92 	bl	80024d4 <HAL_GetTick>
 8001fb0:	4606      	mov	r6, r0
 8001fb2:	4b2f      	ldr	r3, [pc, #188]	; (8002070 <HAL_RCC_ClockConfig+0x150>)
 8001fb4:	689b      	ldr	r3, [r3, #8]
 8001fb6:	f003 030c 	and.w	r3, r3, #12
 8001fba:	6862      	ldr	r2, [r4, #4]
 8001fbc:	ebb3 0f82 	cmp.w	r3, r2, lsl #2
 8001fc0:	d016      	beq.n	8001ff0 <HAL_RCC_ClockConfig+0xd0>
 8001fc2:	f000 fa87 	bl	80024d4 <HAL_GetTick>
 8001fc6:	1b80      	subs	r0, r0, r6
 8001fc8:	f241 3388 	movw	r3, #5000	; 0x1388
 8001fcc:	4298      	cmp	r0, r3
 8001fce:	d9f0      	bls.n	8001fb2 <HAL_RCC_ClockConfig+0x92>
 8001fd0:	2003      	movs	r0, #3
 8001fd2:	e042      	b.n	800205a <HAL_RCC_ClockConfig+0x13a>
 8001fd4:	4a26      	ldr	r2, [pc, #152]	; (8002070 <HAL_RCC_ClockConfig+0x150>)
 8001fd6:	6812      	ldr	r2, [r2, #0]
 8001fd8:	f412 3f00 	tst.w	r2, #131072	; 0x20000
 8001fdc:	d1e0      	bne.n	8001fa0 <HAL_RCC_ClockConfig+0x80>
 8001fde:	2001      	movs	r0, #1
 8001fe0:	e03b      	b.n	800205a <HAL_RCC_ClockConfig+0x13a>
 8001fe2:	4a23      	ldr	r2, [pc, #140]	; (8002070 <HAL_RCC_ClockConfig+0x150>)
 8001fe4:	6812      	ldr	r2, [r2, #0]
 8001fe6:	f012 7f00 	tst.w	r2, #33554432	; 0x2000000
 8001fea:	d1d9      	bne.n	8001fa0 <HAL_RCC_ClockConfig+0x80>
 8001fec:	2001      	movs	r0, #1
 8001fee:	e034      	b.n	800205a <HAL_RCC_ClockConfig+0x13a>
 8001ff0:	4b1e      	ldr	r3, [pc, #120]	; (800206c <HAL_RCC_ClockConfig+0x14c>)
 8001ff2:	681b      	ldr	r3, [r3, #0]
 8001ff4:	f003 0307 	and.w	r3, r3, #7
 8001ff8:	42ab      	cmp	r3, r5
 8001ffa:	d907      	bls.n	800200c <HAL_RCC_ClockConfig+0xec>
 8001ffc:	b2ea      	uxtb	r2, r5
 8001ffe:	4b1b      	ldr	r3, [pc, #108]	; (800206c <HAL_RCC_ClockConfig+0x14c>)
 8002000:	701a      	strb	r2, [r3, #0]
 8002002:	681b      	ldr	r3, [r3, #0]
 8002004:	f003 0307 	and.w	r3, r3, #7
 8002008:	42ab      	cmp	r3, r5
 800200a:	d12d      	bne.n	8002068 <HAL_RCC_ClockConfig+0x148>
 800200c:	6823      	ldr	r3, [r4, #0]
 800200e:	f013 0f04 	tst.w	r3, #4
 8002012:	d006      	beq.n	8002022 <HAL_RCC_ClockConfig+0x102>
 8002014:	4a16      	ldr	r2, [pc, #88]	; (8002070 <HAL_RCC_ClockConfig+0x150>)
 8002016:	6893      	ldr	r3, [r2, #8]
 8002018:	f423 53e0 	bic.w	r3, r3, #7168	; 0x1c00
 800201c:	68e1      	ldr	r1, [r4, #12]
 800201e:	430b      	orrs	r3, r1
 8002020:	6093      	str	r3, [r2, #8]
 8002022:	6823      	ldr	r3, [r4, #0]
 8002024:	f013 0f08 	tst.w	r3, #8
 8002028:	d007      	beq.n	800203a <HAL_RCC_ClockConfig+0x11a>
 800202a:	4a11      	ldr	r2, [pc, #68]	; (8002070 <HAL_RCC_ClockConfig+0x150>)
 800202c:	6893      	ldr	r3, [r2, #8]
 800202e:	f423 4360 	bic.w	r3, r3, #57344	; 0xe000
 8002032:	6921      	ldr	r1, [r4, #16]
 8002034:	ea43 03c1 	orr.w	r3, r3, r1, lsl #3
 8002038:	6093      	str	r3, [r2, #8]
 800203a:	f7ff ff21 	bl	8001e80 <HAL_RCC_GetSysClockFreq>
 800203e:	4b0c      	ldr	r3, [pc, #48]	; (8002070 <HAL_RCC_ClockConfig+0x150>)
 8002040:	689b      	ldr	r3, [r3, #8]
 8002042:	f3c3 1303 	ubfx	r3, r3, #4, #4
 8002046:	4a0b      	ldr	r2, [pc, #44]	; (8002074 <HAL_RCC_ClockConfig+0x154>)
 8002048:	5cd3      	ldrb	r3, [r2, r3]
 800204a:	40d8      	lsrs	r0, r3
 800204c:	4b0a      	ldr	r3, [pc, #40]	; (8002078 <HAL_RCC_ClockConfig+0x158>)
 800204e:	6018      	str	r0, [r3, #0]
 8002050:	4b0a      	ldr	r3, [pc, #40]	; (800207c <HAL_RCC_ClockConfig+0x15c>)
 8002052:	6818      	ldr	r0, [r3, #0]
 8002054:	f000 f9f2 	bl	800243c <HAL_InitTick>
 8002058:	2000      	movs	r0, #0
 800205a:	bd70      	pop	{r4, r5, r6, pc}
 800205c:	2001      	movs	r0, #1
 800205e:	4770      	bx	lr
 8002060:	2001      	movs	r0, #1
 8002062:	e7fa      	b.n	800205a <HAL_RCC_ClockConfig+0x13a>
 8002064:	2001      	movs	r0, #1
 8002066:	e7f8      	b.n	800205a <HAL_RCC_ClockConfig+0x13a>
 8002068:	2001      	movs	r0, #1
 800206a:	e7f6      	b.n	800205a <HAL_RCC_ClockConfig+0x13a>
 800206c:	40023c00 	.word	0x40023c00
 8002070:	40023800 	.word	0x40023800
 8002074:	080081c4 	.word	0x080081c4
 8002078:	20000008 	.word	0x20000008
 800207c:	20000004 	.word	0x20000004

08002080 <HAL_RCC_GetHCLKFreq>:
 8002080:	4b01      	ldr	r3, [pc, #4]	; (8002088 <HAL_RCC_GetHCLKFreq+0x8>)
 8002082:	6818      	ldr	r0, [r3, #0]
 8002084:	4770      	bx	lr
 8002086:	bf00      	nop
 8002088:	20000008 	.word	0x20000008

0800208c <HAL_RCC_GetPCLK1Freq>:
 800208c:	b508      	push	{r3, lr}
 800208e:	f7ff fff7 	bl	8002080 <HAL_RCC_GetHCLKFreq>
 8002092:	4b04      	ldr	r3, [pc, #16]	; (80020a4 <HAL_RCC_GetPCLK1Freq+0x18>)
 8002094:	689b      	ldr	r3, [r3, #8]
 8002096:	f3c3 2382 	ubfx	r3, r3, #10, #3
 800209a:	4a03      	ldr	r2, [pc, #12]	; (80020a8 <HAL_RCC_GetPCLK1Freq+0x1c>)
 800209c:	5cd3      	ldrb	r3, [r2, r3]
 800209e:	40d8      	lsrs	r0, r3
 80020a0:	bd08      	pop	{r3, pc}
 80020a2:	bf00      	nop
 80020a4:	40023800 	.word	0x40023800
 80020a8:	080081d4 	.word	0x080081d4

080020ac <HAL_RCC_GetPCLK2Freq>:
 80020ac:	b508      	push	{r3, lr}
 80020ae:	f7ff ffe7 	bl	8002080 <HAL_RCC_GetHCLKFreq>
 80020b2:	4b04      	ldr	r3, [pc, #16]	; (80020c4 <HAL_RCC_GetPCLK2Freq+0x18>)
 80020b4:	689b      	ldr	r3, [r3, #8]
 80020b6:	f3c3 3342 	ubfx	r3, r3, #13, #3
 80020ba:	4a03      	ldr	r2, [pc, #12]	; (80020c8 <HAL_RCC_GetPCLK2Freq+0x1c>)
 80020bc:	5cd3      	ldrb	r3, [r2, r3]
 80020be:	40d8      	lsrs	r0, r3
 80020c0:	bd08      	pop	{r3, pc}
 80020c2:	bf00      	nop
 80020c4:	40023800 	.word	0x40023800
 80020c8:	080081d4 	.word	0x080081d4

080020cc <HAL_GPIO_Init>:
 80020cc:	2300      	movs	r3, #0
 80020ce:	2b0f      	cmp	r3, #15
 80020d0:	f200 80dd 	bhi.w	800228e <HAL_GPIO_Init+0x1c2>
 80020d4:	b4f0      	push	{r4, r5, r6, r7}
 80020d6:	b082      	sub	sp, #8
 80020d8:	e05d      	b.n	8002196 <HAL_GPIO_Init+0xca>
 80020da:	6886      	ldr	r6, [r0, #8]
 80020dc:	005f      	lsls	r7, r3, #1
 80020de:	2403      	movs	r4, #3
 80020e0:	40bc      	lsls	r4, r7
 80020e2:	ea26 0604 	bic.w	r6, r6, r4
 80020e6:	68cc      	ldr	r4, [r1, #12]
 80020e8:	40bc      	lsls	r4, r7
 80020ea:	4334      	orrs	r4, r6
 80020ec:	6084      	str	r4, [r0, #8]
 80020ee:	6846      	ldr	r6, [r0, #4]
 80020f0:	ea26 0602 	bic.w	r6, r6, r2
 80020f4:	684c      	ldr	r4, [r1, #4]
 80020f6:	f3c4 1200 	ubfx	r2, r4, #4, #1
 80020fa:	409a      	lsls	r2, r3
 80020fc:	4332      	orrs	r2, r6
 80020fe:	6042      	str	r2, [r0, #4]
 8002100:	e057      	b.n	80021b2 <HAL_GPIO_Init+0xe6>
 8002102:	08dc      	lsrs	r4, r3, #3
 8002104:	3408      	adds	r4, #8
 8002106:	f850 7024 	ldr.w	r7, [r0, r4, lsl #2]
 800210a:	f003 0207 	and.w	r2, r3, #7
 800210e:	0096      	lsls	r6, r2, #2
 8002110:	220f      	movs	r2, #15
 8002112:	40b2      	lsls	r2, r6
 8002114:	ea27 0702 	bic.w	r7, r7, r2
 8002118:	690a      	ldr	r2, [r1, #16]
 800211a:	40b2      	lsls	r2, r6
 800211c:	433a      	orrs	r2, r7
 800211e:	f840 2024 	str.w	r2, [r0, r4, lsl #2]
 8002122:	e05a      	b.n	80021da <HAL_GPIO_Init+0x10e>
 8002124:	2207      	movs	r2, #7
 8002126:	e000      	b.n	800212a <HAL_GPIO_Init+0x5e>
 8002128:	2200      	movs	r2, #0
 800212a:	40b2      	lsls	r2, r6
 800212c:	433a      	orrs	r2, r7
 800212e:	3402      	adds	r4, #2
 8002130:	4e57      	ldr	r6, [pc, #348]	; (8002290 <HAL_GPIO_Init+0x1c4>)
 8002132:	f846 2024 	str.w	r2, [r6, r4, lsl #2]
 8002136:	4a57      	ldr	r2, [pc, #348]	; (8002294 <HAL_GPIO_Init+0x1c8>)
 8002138:	6814      	ldr	r4, [r2, #0]
 800213a:	43ea      	mvns	r2, r5
 800213c:	ea24 0605 	bic.w	r6, r4, r5
 8002140:	684f      	ldr	r7, [r1, #4]
 8002142:	f417 3f80 	tst.w	r7, #65536	; 0x10000
 8002146:	d001      	beq.n	800214c <HAL_GPIO_Init+0x80>
 8002148:	ea45 0604 	orr.w	r6, r5, r4
 800214c:	4c51      	ldr	r4, [pc, #324]	; (8002294 <HAL_GPIO_Init+0x1c8>)
 800214e:	6026      	str	r6, [r4, #0]
 8002150:	6864      	ldr	r4, [r4, #4]
 8002152:	ea02 0604 	and.w	r6, r2, r4
 8002156:	684f      	ldr	r7, [r1, #4]
 8002158:	f417 3f00 	tst.w	r7, #131072	; 0x20000
 800215c:	d001      	beq.n	8002162 <HAL_GPIO_Init+0x96>
 800215e:	ea45 0604 	orr.w	r6, r5, r4
 8002162:	4c4c      	ldr	r4, [pc, #304]	; (8002294 <HAL_GPIO_Init+0x1c8>)
 8002164:	6066      	str	r6, [r4, #4]
 8002166:	68a4      	ldr	r4, [r4, #8]
 8002168:	ea02 0604 	and.w	r6, r2, r4
 800216c:	684f      	ldr	r7, [r1, #4]
 800216e:	f417 1f80 	tst.w	r7, #1048576	; 0x100000
 8002172:	d001      	beq.n	8002178 <HAL_GPIO_Init+0xac>
 8002174:	ea45 0604 	orr.w	r6, r5, r4
 8002178:	4c46      	ldr	r4, [pc, #280]	; (8002294 <HAL_GPIO_Init+0x1c8>)
 800217a:	60a6      	str	r6, [r4, #8]
 800217c:	68e4      	ldr	r4, [r4, #12]
 800217e:	4022      	ands	r2, r4
 8002180:	684e      	ldr	r6, [r1, #4]
 8002182:	f416 1f00 	tst.w	r6, #2097152	; 0x200000
 8002186:	d001      	beq.n	800218c <HAL_GPIO_Init+0xc0>
 8002188:	ea45 0204 	orr.w	r2, r5, r4
 800218c:	4c41      	ldr	r4, [pc, #260]	; (8002294 <HAL_GPIO_Init+0x1c8>)
 800218e:	60e2      	str	r2, [r4, #12]
 8002190:	3301      	adds	r3, #1
 8002192:	2b0f      	cmp	r3, #15
 8002194:	d878      	bhi.n	8002288 <HAL_GPIO_Init+0x1bc>
 8002196:	2201      	movs	r2, #1
 8002198:	409a      	lsls	r2, r3
 800219a:	680c      	ldr	r4, [r1, #0]
 800219c:	ea04 0502 	and.w	r5, r4, r2
 80021a0:	ea32 0404 	bics.w	r4, r2, r4
 80021a4:	d1f4      	bne.n	8002190 <HAL_GPIO_Init+0xc4>
 80021a6:	684c      	ldr	r4, [r1, #4]
 80021a8:	f004 0403 	and.w	r4, r4, #3
 80021ac:	3c01      	subs	r4, #1
 80021ae:	2c01      	cmp	r4, #1
 80021b0:	d993      	bls.n	80020da <HAL_GPIO_Init+0xe>
 80021b2:	684a      	ldr	r2, [r1, #4]
 80021b4:	f002 0203 	and.w	r2, r2, #3
 80021b8:	2a03      	cmp	r2, #3
 80021ba:	d009      	beq.n	80021d0 <HAL_GPIO_Init+0x104>
 80021bc:	68c4      	ldr	r4, [r0, #12]
 80021be:	005e      	lsls	r6, r3, #1
 80021c0:	2203      	movs	r2, #3
 80021c2:	40b2      	lsls	r2, r6
 80021c4:	ea24 0402 	bic.w	r4, r4, r2
 80021c8:	688a      	ldr	r2, [r1, #8]
 80021ca:	40b2      	lsls	r2, r6
 80021cc:	4322      	orrs	r2, r4
 80021ce:	60c2      	str	r2, [r0, #12]
 80021d0:	684a      	ldr	r2, [r1, #4]
 80021d2:	f002 0203 	and.w	r2, r2, #3
 80021d6:	2a02      	cmp	r2, #2
 80021d8:	d093      	beq.n	8002102 <HAL_GPIO_Init+0x36>
 80021da:	6804      	ldr	r4, [r0, #0]
 80021dc:	005e      	lsls	r6, r3, #1
 80021de:	2203      	movs	r2, #3
 80021e0:	40b2      	lsls	r2, r6
 80021e2:	ea24 0402 	bic.w	r4, r4, r2
 80021e6:	684a      	ldr	r2, [r1, #4]
 80021e8:	f002 0203 	and.w	r2, r2, #3
 80021ec:	40b2      	lsls	r2, r6
 80021ee:	4322      	orrs	r2, r4
 80021f0:	6002      	str	r2, [r0, #0]
 80021f2:	684a      	ldr	r2, [r1, #4]
 80021f4:	f012 5f80 	tst.w	r2, #268435456	; 0x10000000
 80021f8:	d0ca      	beq.n	8002190 <HAL_GPIO_Init+0xc4>
 80021fa:	2200      	movs	r2, #0
 80021fc:	9201      	str	r2, [sp, #4]
 80021fe:	4a26      	ldr	r2, [pc, #152]	; (8002298 <HAL_GPIO_Init+0x1cc>)
 8002200:	6c54      	ldr	r4, [r2, #68]	; 0x44
 8002202:	f444 4480 	orr.w	r4, r4, #16384	; 0x4000
 8002206:	6454      	str	r4, [r2, #68]	; 0x44
 8002208:	6c52      	ldr	r2, [r2, #68]	; 0x44
 800220a:	f402 4280 	and.w	r2, r2, #16384	; 0x4000
 800220e:	9201      	str	r2, [sp, #4]
 8002210:	9a01      	ldr	r2, [sp, #4]
 8002212:	089c      	lsrs	r4, r3, #2
 8002214:	1ca6      	adds	r6, r4, #2
 8002216:	4a1e      	ldr	r2, [pc, #120]	; (8002290 <HAL_GPIO_Init+0x1c4>)
 8002218:	f852 7026 	ldr.w	r7, [r2, r6, lsl #2]
 800221c:	f003 0203 	and.w	r2, r3, #3
 8002220:	0096      	lsls	r6, r2, #2
 8002222:	220f      	movs	r2, #15
 8002224:	40b2      	lsls	r2, r6
 8002226:	ea27 0702 	bic.w	r7, r7, r2
 800222a:	4a1c      	ldr	r2, [pc, #112]	; (800229c <HAL_GPIO_Init+0x1d0>)
 800222c:	4290      	cmp	r0, r2
 800222e:	f43f af7b 	beq.w	8002128 <HAL_GPIO_Init+0x5c>
 8002232:	f502 6280 	add.w	r2, r2, #1024	; 0x400
 8002236:	4290      	cmp	r0, r2
 8002238:	d01a      	beq.n	8002270 <HAL_GPIO_Init+0x1a4>
 800223a:	f502 6280 	add.w	r2, r2, #1024	; 0x400
 800223e:	4290      	cmp	r0, r2
 8002240:	d018      	beq.n	8002274 <HAL_GPIO_Init+0x1a8>
 8002242:	f502 6280 	add.w	r2, r2, #1024	; 0x400
 8002246:	4290      	cmp	r0, r2
 8002248:	d016      	beq.n	8002278 <HAL_GPIO_Init+0x1ac>
 800224a:	f502 6280 	add.w	r2, r2, #1024	; 0x400
 800224e:	4290      	cmp	r0, r2
 8002250:	d014      	beq.n	800227c <HAL_GPIO_Init+0x1b0>
 8002252:	f502 6280 	add.w	r2, r2, #1024	; 0x400
 8002256:	4290      	cmp	r0, r2
 8002258:	d012      	beq.n	8002280 <HAL_GPIO_Init+0x1b4>
 800225a:	f502 6280 	add.w	r2, r2, #1024	; 0x400
 800225e:	4290      	cmp	r0, r2
 8002260:	d010      	beq.n	8002284 <HAL_GPIO_Init+0x1b8>
 8002262:	f502 6280 	add.w	r2, r2, #1024	; 0x400
 8002266:	4290      	cmp	r0, r2
 8002268:	f43f af5c 	beq.w	8002124 <HAL_GPIO_Init+0x58>
 800226c:	2208      	movs	r2, #8
 800226e:	e75c      	b.n	800212a <HAL_GPIO_Init+0x5e>
 8002270:	2201      	movs	r2, #1
 8002272:	e75a      	b.n	800212a <HAL_GPIO_Init+0x5e>
 8002274:	2202      	movs	r2, #2
 8002276:	e758      	b.n	800212a <HAL_GPIO_Init+0x5e>
 8002278:	2203      	movs	r2, #3
 800227a:	e756      	b.n	800212a <HAL_GPIO_Init+0x5e>
 800227c:	2204      	movs	r2, #4
 800227e:	e754      	b.n	800212a <HAL_GPIO_Init+0x5e>
 8002280:	2205      	movs	r2, #5
 8002282:	e752      	b.n	800212a <HAL_GPIO_Init+0x5e>
 8002284:	2206      	movs	r2, #6
 8002286:	e750      	b.n	800212a <HAL_GPIO_Init+0x5e>
 8002288:	b002      	add	sp, #8
 800228a:	bcf0      	pop	{r4, r5, r6, r7}
 800228c:	4770      	bx	lr
 800228e:	4770      	bx	lr
 8002290:	40013800 	.word	0x40013800
 8002294:	40013c00 	.word	0x40013c00
 8002298:	40023800 	.word	0x40023800
 800229c:	40020000 	.word	0x40020000

080022a0 <HAL_GPIO_WritePin>:
 80022a0:	b10a      	cbz	r2, 80022a6 <HAL_GPIO_WritePin+0x6>
 80022a2:	6181      	str	r1, [r0, #24]
 80022a4:	4770      	bx	lr
 80022a6:	0409      	lsls	r1, r1, #16
 80022a8:	6181      	str	r1, [r0, #24]
 80022aa:	4770      	bx	lr

080022ac <HAL_DMA_Abort>:
 80022ac:	b570      	push	{r4, r5, r6, lr}
 80022ae:	4604      	mov	r4, r0
 80022b0:	6d86      	ldr	r6, [r0, #88]	; 0x58
 80022b2:	f000 f90f 	bl	80024d4 <HAL_GetTick>
 80022b6:	f894 3035 	ldrb.w	r3, [r4, #53]	; 0x35
 80022ba:	b2db      	uxtb	r3, r3
 80022bc:	2b02      	cmp	r3, #2
 80022be:	d006      	beq.n	80022ce <HAL_DMA_Abort+0x22>
 80022c0:	2380      	movs	r3, #128	; 0x80
 80022c2:	6563      	str	r3, [r4, #84]	; 0x54
 80022c4:	2300      	movs	r3, #0
 80022c6:	f884 3034 	strb.w	r3, [r4, #52]	; 0x34
 80022ca:	2001      	movs	r0, #1
 80022cc:	bd70      	pop	{r4, r5, r6, pc}
 80022ce:	4605      	mov	r5, r0
 80022d0:	6822      	ldr	r2, [r4, #0]
 80022d2:	6813      	ldr	r3, [r2, #0]
 80022d4:	f023 0316 	bic.w	r3, r3, #22
 80022d8:	6013      	str	r3, [r2, #0]
 80022da:	6822      	ldr	r2, [r4, #0]
 80022dc:	6953      	ldr	r3, [r2, #20]
 80022de:	f023 0380 	bic.w	r3, r3, #128	; 0x80
 80022e2:	6153      	str	r3, [r2, #20]
 80022e4:	6c23      	ldr	r3, [r4, #64]	; 0x40
 80022e6:	b1e3      	cbz	r3, 8002322 <HAL_DMA_Abort+0x76>
 80022e8:	6822      	ldr	r2, [r4, #0]
 80022ea:	6813      	ldr	r3, [r2, #0]
 80022ec:	f023 0308 	bic.w	r3, r3, #8
 80022f0:	6013      	str	r3, [r2, #0]
 80022f2:	6822      	ldr	r2, [r4, #0]
 80022f4:	6813      	ldr	r3, [r2, #0]
 80022f6:	f023 0301 	bic.w	r3, r3, #1
 80022fa:	6013      	str	r3, [r2, #0]
 80022fc:	6823      	ldr	r3, [r4, #0]
 80022fe:	681b      	ldr	r3, [r3, #0]
 8002300:	f013 0f01 	tst.w	r3, #1
 8002304:	d011      	beq.n	800232a <HAL_DMA_Abort+0x7e>
 8002306:	f000 f8e5 	bl	80024d4 <HAL_GetTick>
 800230a:	1b43      	subs	r3, r0, r5
 800230c:	2b05      	cmp	r3, #5
 800230e:	d9f5      	bls.n	80022fc <HAL_DMA_Abort+0x50>
 8002310:	2320      	movs	r3, #32
 8002312:	6563      	str	r3, [r4, #84]	; 0x54
 8002314:	2300      	movs	r3, #0
 8002316:	f884 3034 	strb.w	r3, [r4, #52]	; 0x34
 800231a:	2003      	movs	r0, #3
 800231c:	f884 0035 	strb.w	r0, [r4, #53]	; 0x35
 8002320:	e7d4      	b.n	80022cc <HAL_DMA_Abort+0x20>
 8002322:	6ca3      	ldr	r3, [r4, #72]	; 0x48
 8002324:	2b00      	cmp	r3, #0
 8002326:	d1df      	bne.n	80022e8 <HAL_DMA_Abort+0x3c>
 8002328:	e7e3      	b.n	80022f2 <HAL_DMA_Abort+0x46>
 800232a:	6de2      	ldr	r2, [r4, #92]	; 0x5c
 800232c:	233f      	movs	r3, #63	; 0x3f
 800232e:	4093      	lsls	r3, r2
 8002330:	60b3      	str	r3, [r6, #8]
 8002332:	2000      	movs	r0, #0
 8002334:	f884 0034 	strb.w	r0, [r4, #52]	; 0x34
 8002338:	2301      	movs	r3, #1
 800233a:	f884 3035 	strb.w	r3, [r4, #53]	; 0x35
 800233e:	e7c5      	b.n	80022cc <HAL_DMA_Abort+0x20>

08002340 <HAL_DMA_Abort_IT>:
 8002340:	f890 3035 	ldrb.w	r3, [r0, #53]	; 0x35
 8002344:	b2db      	uxtb	r3, r3
 8002346:	2b02      	cmp	r3, #2
 8002348:	d003      	beq.n	8002352 <HAL_DMA_Abort_IT+0x12>
 800234a:	2380      	movs	r3, #128	; 0x80
 800234c:	6543      	str	r3, [r0, #84]	; 0x54
 800234e:	2001      	movs	r0, #1
 8002350:	4770      	bx	lr
 8002352:	2305      	movs	r3, #5
 8002354:	f880 3035 	strb.w	r3, [r0, #53]	; 0x35
 8002358:	6802      	ldr	r2, [r0, #0]
 800235a:	6813      	ldr	r3, [r2, #0]
 800235c:	f023 0301 	bic.w	r3, r3, #1
 8002360:	6013      	str	r3, [r2, #0]
 8002362:	2000      	movs	r0, #0
 8002364:	4770      	bx	lr
	...

08002368 <HAL_NVIC_SetPriorityGrouping>:
 8002368:	4a07      	ldr	r2, [pc, #28]	; (8002388 <HAL_NVIC_SetPriorityGrouping+0x20>)
 800236a:	68d3      	ldr	r3, [r2, #12]
 800236c:	f423 63e0 	bic.w	r3, r3, #1792	; 0x700
 8002370:	041b      	lsls	r3, r3, #16
 8002372:	0c1b      	lsrs	r3, r3, #16
 8002374:	0200      	lsls	r0, r0, #8
 8002376:	f400 60e0 	and.w	r0, r0, #1792	; 0x700
 800237a:	4303      	orrs	r3, r0
 800237c:	f043 63bf 	orr.w	r3, r3, #100139008	; 0x5f80000
 8002380:	f443 3300 	orr.w	r3, r3, #131072	; 0x20000
 8002384:	60d3      	str	r3, [r2, #12]
 8002386:	4770      	bx	lr
 8002388:	e000ed00 	.word	0xe000ed00

0800238c <HAL_NVIC_SetPriority>:
 800238c:	b430      	push	{r4, r5}
 800238e:	4b17      	ldr	r3, [pc, #92]	; (80023ec <HAL_NVIC_SetPriority+0x60>)
 8002390:	68db      	ldr	r3, [r3, #12]
 8002392:	f3c3 2302 	ubfx	r3, r3, #8, #3
 8002396:	f1c3 0407 	rsb	r4, r3, #7
 800239a:	2c04      	cmp	r4, #4
 800239c:	bf28      	it	cs
 800239e:	2404      	movcs	r4, #4
 80023a0:	1d1d      	adds	r5, r3, #4
 80023a2:	2d06      	cmp	r5, #6
 80023a4:	d918      	bls.n	80023d8 <HAL_NVIC_SetPriority+0x4c>
 80023a6:	3b03      	subs	r3, #3
 80023a8:	f04f 35ff 	mov.w	r5, #4294967295	; 0xffffffff
 80023ac:	fa05 f404 	lsl.w	r4, r5, r4
 80023b0:	ea21 0104 	bic.w	r1, r1, r4
 80023b4:	4099      	lsls	r1, r3
 80023b6:	fa05 f303 	lsl.w	r3, r5, r3
 80023ba:	ea22 0303 	bic.w	r3, r2, r3
 80023be:	4319      	orrs	r1, r3
 80023c0:	2800      	cmp	r0, #0
 80023c2:	db0b      	blt.n	80023dc <HAL_NVIC_SetPriority+0x50>
 80023c4:	0109      	lsls	r1, r1, #4
 80023c6:	b2c9      	uxtb	r1, r1
 80023c8:	f100 4060 	add.w	r0, r0, #3758096384	; 0xe0000000
 80023cc:	f500 4061 	add.w	r0, r0, #57600	; 0xe100
 80023d0:	f880 1300 	strb.w	r1, [r0, #768]	; 0x300
 80023d4:	bc30      	pop	{r4, r5}
 80023d6:	4770      	bx	lr
 80023d8:	2300      	movs	r3, #0
 80023da:	e7e5      	b.n	80023a8 <HAL_NVIC_SetPriority+0x1c>
 80023dc:	f000 000f 	and.w	r0, r0, #15
 80023e0:	0109      	lsls	r1, r1, #4
 80023e2:	b2c9      	uxtb	r1, r1
 80023e4:	4b02      	ldr	r3, [pc, #8]	; (80023f0 <HAL_NVIC_SetPriority+0x64>)
 80023e6:	5419      	strb	r1, [r3, r0]
 80023e8:	e7f4      	b.n	80023d4 <HAL_NVIC_SetPriority+0x48>
 80023ea:	bf00      	nop
 80023ec:	e000ed00 	.word	0xe000ed00
 80023f0:	e000ed14 	.word	0xe000ed14

080023f4 <HAL_NVIC_EnableIRQ>:
 80023f4:	2800      	cmp	r0, #0
 80023f6:	db07      	blt.n	8002408 <HAL_NVIC_EnableIRQ+0x14>
 80023f8:	f000 021f 	and.w	r2, r0, #31
 80023fc:	0940      	lsrs	r0, r0, #5
 80023fe:	2301      	movs	r3, #1
 8002400:	4093      	lsls	r3, r2
 8002402:	4a02      	ldr	r2, [pc, #8]	; (800240c <HAL_NVIC_EnableIRQ+0x18>)
 8002404:	f842 3020 	str.w	r3, [r2, r0, lsl #2]
 8002408:	4770      	bx	lr
 800240a:	bf00      	nop
 800240c:	e000e100 	.word	0xe000e100

08002410 <HAL_SYSTICK_Config>:
 8002410:	3801      	subs	r0, #1
 8002412:	f1b0 7f80 	cmp.w	r0, #16777216	; 0x1000000
 8002416:	d20a      	bcs.n	800242e <HAL_SYSTICK_Config+0x1e>
 8002418:	4b06      	ldr	r3, [pc, #24]	; (8002434 <HAL_SYSTICK_Config+0x24>)
 800241a:	6058      	str	r0, [r3, #4]
 800241c:	4a06      	ldr	r2, [pc, #24]	; (8002438 <HAL_SYSTICK_Config+0x28>)
 800241e:	21f0      	movs	r1, #240	; 0xf0
 8002420:	f882 1023 	strb.w	r1, [r2, #35]	; 0x23
 8002424:	2000      	movs	r0, #0
 8002426:	6098      	str	r0, [r3, #8]
 8002428:	2207      	movs	r2, #7
 800242a:	601a      	str	r2, [r3, #0]
 800242c:	4770      	bx	lr
 800242e:	2001      	movs	r0, #1
 8002430:	4770      	bx	lr
 8002432:	bf00      	nop
 8002434:	e000e010 	.word	0xe000e010
 8002438:	e000ed00 	.word	0xe000ed00

0800243c <HAL_InitTick>:
 800243c:	b510      	push	{r4, lr}
 800243e:	4604      	mov	r4, r0
 8002440:	4b0e      	ldr	r3, [pc, #56]	; (800247c <HAL_InitTick+0x40>)
 8002442:	7818      	ldrb	r0, [r3, #0]
 8002444:	f44f 737a 	mov.w	r3, #1000	; 0x3e8
 8002448:	fbb3 f3f0 	udiv	r3, r3, r0
 800244c:	4a0c      	ldr	r2, [pc, #48]	; (8002480 <HAL_InitTick+0x44>)
 800244e:	6810      	ldr	r0, [r2, #0]
 8002450:	fbb0 f0f3 	udiv	r0, r0, r3
 8002454:	f7ff ffdc 	bl	8002410 <HAL_SYSTICK_Config>
 8002458:	b968      	cbnz	r0, 8002476 <HAL_InitTick+0x3a>
 800245a:	2c0f      	cmp	r4, #15
 800245c:	d901      	bls.n	8002462 <HAL_InitTick+0x26>
 800245e:	2001      	movs	r0, #1
 8002460:	e00a      	b.n	8002478 <HAL_InitTick+0x3c>
 8002462:	2200      	movs	r2, #0
 8002464:	4621      	mov	r1, r4
 8002466:	f04f 30ff 	mov.w	r0, #4294967295	; 0xffffffff
 800246a:	f7ff ff8f 	bl	800238c <HAL_NVIC_SetPriority>
 800246e:	4b05      	ldr	r3, [pc, #20]	; (8002484 <HAL_InitTick+0x48>)
 8002470:	601c      	str	r4, [r3, #0]
 8002472:	2000      	movs	r0, #0
 8002474:	e000      	b.n	8002478 <HAL_InitTick+0x3c>
 8002476:	2001      	movs	r0, #1
 8002478:	bd10      	pop	{r4, pc}
 800247a:	bf00      	nop
 800247c:	20000001 	.word	0x20000001
 8002480:	20000008 	.word	0x20000008
 8002484:	20000004 	.word	0x20000004

08002488 <HAL_Init>:
 8002488:	b508      	push	{r3, lr}
 800248a:	4b0b      	ldr	r3, [pc, #44]	; (80024b8 <HAL_Init+0x30>)
 800248c:	681a      	ldr	r2, [r3, #0]
 800248e:	f442 7200 	orr.w	r2, r2, #512	; 0x200
 8002492:	601a      	str	r2, [r3, #0]
 8002494:	681a      	ldr	r2, [r3, #0]
 8002496:	f442 6280 	orr.w	r2, r2, #1024	; 0x400
 800249a:	601a      	str	r2, [r3, #0]
 800249c:	681a      	ldr	r2, [r3, #0]
 800249e:	f442 7280 	orr.w	r2, r2, #256	; 0x100
 80024a2:	601a      	str	r2, [r3, #0]
 80024a4:	2003      	movs	r0, #3
 80024a6:	f7ff ff5f 	bl	8002368 <HAL_NVIC_SetPriorityGrouping>
 80024aa:	2000      	movs	r0, #0
 80024ac:	f7ff ffc6 	bl	800243c <HAL_InitTick>
 80024b0:	f7ff f9f0 	bl	8001894 <HAL_MspInit>
 80024b4:	2000      	movs	r0, #0
 80024b6:	bd08      	pop	{r3, pc}
 80024b8:	40023c00 	.word	0x40023c00

080024bc <HAL_IncTick>:
 80024bc:	4a03      	ldr	r2, [pc, #12]	; (80024cc <HAL_IncTick+0x10>)
 80024be:	6811      	ldr	r1, [r2, #0]
 80024c0:	4b03      	ldr	r3, [pc, #12]	; (80024d0 <HAL_IncTick+0x14>)
 80024c2:	781b      	ldrb	r3, [r3, #0]
 80024c4:	440b      	add	r3, r1
 80024c6:	6013      	str	r3, [r2, #0]
 80024c8:	4770      	bx	lr
 80024ca:	bf00      	nop
 80024cc:	200022d0 	.word	0x200022d0
 80024d0:	20000001 	.word	0x20000001

080024d4 <HAL_GetTick>:
 80024d4:	4b01      	ldr	r3, [pc, #4]	; (80024dc <HAL_GetTick+0x8>)
 80024d6:	6818      	ldr	r0, [r3, #0]
 80024d8:	4770      	bx	lr
 80024da:	bf00      	nop
 80024dc:	200022d0 	.word	0x200022d0

080024e0 <HAL_Delay>:
 80024e0:	b538      	push	{r3, r4, r5, lr}
 80024e2:	4604      	mov	r4, r0
 80024e4:	f7ff fff6 	bl	80024d4 <HAL_GetTick>
 80024e8:	4605      	mov	r5, r0
 80024ea:	f1b4 3fff 	cmp.w	r4, #4294967295	; 0xffffffff
 80024ee:	d002      	beq.n	80024f6 <HAL_Delay+0x16>
 80024f0:	4b04      	ldr	r3, [pc, #16]	; (8002504 <HAL_Delay+0x24>)
 80024f2:	781b      	ldrb	r3, [r3, #0]
 80024f4:	441c      	add	r4, r3
 80024f6:	f7ff ffed 	bl	80024d4 <HAL_GetTick>
 80024fa:	1b40      	subs	r0, r0, r5
 80024fc:	42a0      	cmp	r0, r4
 80024fe:	d3fa      	bcc.n	80024f6 <HAL_Delay+0x16>
 8002500:	bd38      	pop	{r3, r4, r5, pc}
 8002502:	bf00      	nop
 8002504:	20000001 	.word	0x20000001

08002508 <SDMMC_GetCmdError>:
 8002508:	4b0b      	ldr	r3, [pc, #44]	; (8002538 <SDMMC_GetCmdError+0x30>)
 800250a:	681b      	ldr	r3, [r3, #0]
 800250c:	4a0b      	ldr	r2, [pc, #44]	; (800253c <SDMMC_GetCmdError+0x34>)
 800250e:	fba2 2303 	umull	r2, r3, r2, r3
 8002512:	0a5a      	lsrs	r2, r3, #9
 8002514:	f241 3388 	movw	r3, #5000	; 0x1388
 8002518:	fb03 f302 	mul.w	r3, r3, r2
 800251c:	461a      	mov	r2, r3
 800251e:	3b01      	subs	r3, #1
 8002520:	b13a      	cbz	r2, 8002532 <SDMMC_GetCmdError+0x2a>
 8002522:	6b42      	ldr	r2, [r0, #52]	; 0x34
 8002524:	f012 0f80 	tst.w	r2, #128	; 0x80
 8002528:	d0f8      	beq.n	800251c <SDMMC_GetCmdError+0x14>
 800252a:	23c5      	movs	r3, #197	; 0xc5
 800252c:	6383      	str	r3, [r0, #56]	; 0x38
 800252e:	2000      	movs	r0, #0
 8002530:	4770      	bx	lr
 8002532:	f04f 4000 	mov.w	r0, #2147483648	; 0x80000000
 8002536:	4770      	bx	lr
 8002538:	20000008 	.word	0x20000008
 800253c:	10624dd3 	.word	0x10624dd3

08002540 <SDMMC_GetCmdResp2>:
 8002540:	4601      	mov	r1, r0
 8002542:	4b14      	ldr	r3, [pc, #80]	; (8002594 <SDMMC_GetCmdResp2+0x54>)
 8002544:	681b      	ldr	r3, [r3, #0]
 8002546:	4a14      	ldr	r2, [pc, #80]	; (8002598 <SDMMC_GetCmdResp2+0x58>)
 8002548:	fba2 2303 	umull	r2, r3, r2, r3
 800254c:	0a5a      	lsrs	r2, r3, #9
 800254e:	f241 3388 	movw	r3, #5000	; 0x1388
 8002552:	fb03 f302 	mul.w	r3, r3, r2
 8002556:	461a      	mov	r2, r3
 8002558:	3b01      	subs	r3, #1
 800255a:	b1ba      	cbz	r2, 800258c <SDMMC_GetCmdResp2+0x4c>
 800255c:	6b4a      	ldr	r2, [r1, #52]	; 0x34
 800255e:	f012 0f45 	tst.w	r2, #69	; 0x45
 8002562:	d0f8      	beq.n	8002556 <SDMMC_GetCmdResp2+0x16>
 8002564:	f412 6f00 	tst.w	r2, #2048	; 0x800
 8002568:	d1f5      	bne.n	8002556 <SDMMC_GetCmdResp2+0x16>
 800256a:	6b4b      	ldr	r3, [r1, #52]	; 0x34
 800256c:	f013 0f04 	tst.w	r3, #4
 8002570:	d106      	bne.n	8002580 <SDMMC_GetCmdResp2+0x40>
 8002572:	6b48      	ldr	r0, [r1, #52]	; 0x34
 8002574:	f010 0001 	ands.w	r0, r0, #1
 8002578:	d105      	bne.n	8002586 <SDMMC_GetCmdResp2+0x46>
 800257a:	23c5      	movs	r3, #197	; 0xc5
 800257c:	638b      	str	r3, [r1, #56]	; 0x38
 800257e:	4770      	bx	lr
 8002580:	2004      	movs	r0, #4
 8002582:	6388      	str	r0, [r1, #56]	; 0x38
 8002584:	4770      	bx	lr
 8002586:	2001      	movs	r0, #1
 8002588:	6388      	str	r0, [r1, #56]	; 0x38
 800258a:	4770      	bx	lr
 800258c:	f04f 4000 	mov.w	r0, #2147483648	; 0x80000000
 8002590:	4770      	bx	lr
 8002592:	bf00      	nop
 8002594:	20000008 	.word	0x20000008
 8002598:	10624dd3 	.word	0x10624dd3

0800259c <SDMMC_GetCmdResp3>:
 800259c:	4601      	mov	r1, r0
 800259e:	4b10      	ldr	r3, [pc, #64]	; (80025e0 <SDMMC_GetCmdResp3+0x44>)
 80025a0:	681b      	ldr	r3, [r3, #0]
 80025a2:	4a10      	ldr	r2, [pc, #64]	; (80025e4 <SDMMC_GetCmdResp3+0x48>)
 80025a4:	fba2 2303 	umull	r2, r3, r2, r3
 80025a8:	0a5a      	lsrs	r2, r3, #9
 80025aa:	f241 3388 	movw	r3, #5000	; 0x1388
 80025ae:	fb03 f302 	mul.w	r3, r3, r2
 80025b2:	461a      	mov	r2, r3
 80025b4:	3b01      	subs	r3, #1
 80025b6:	b182      	cbz	r2, 80025da <SDMMC_GetCmdResp3+0x3e>
 80025b8:	6b4a      	ldr	r2, [r1, #52]	; 0x34
 80025ba:	f012 0f45 	tst.w	r2, #69	; 0x45
 80025be:	d0f8      	beq.n	80025b2 <SDMMC_GetCmdResp3+0x16>
 80025c0:	f412 6f00 	tst.w	r2, #2048	; 0x800
 80025c4:	d1f5      	bne.n	80025b2 <SDMMC_GetCmdResp3+0x16>
 80025c6:	6b48      	ldr	r0, [r1, #52]	; 0x34
 80025c8:	f010 0004 	ands.w	r0, r0, #4
 80025cc:	d102      	bne.n	80025d4 <SDMMC_GetCmdResp3+0x38>
 80025ce:	23c5      	movs	r3, #197	; 0xc5
 80025d0:	638b      	str	r3, [r1, #56]	; 0x38
 80025d2:	4770      	bx	lr
 80025d4:	2004      	movs	r0, #4
 80025d6:	6388      	str	r0, [r1, #56]	; 0x38
 80025d8:	4770      	bx	lr
 80025da:	f04f 4000 	mov.w	r0, #2147483648	; 0x80000000
 80025de:	4770      	bx	lr
 80025e0:	20000008 	.word	0x20000008
 80025e4:	10624dd3 	.word	0x10624dd3

080025e8 <SDMMC_GetCmdResp7>:
 80025e8:	4601      	mov	r1, r0
 80025ea:	4b16      	ldr	r3, [pc, #88]	; (8002644 <SDMMC_GetCmdResp7+0x5c>)
 80025ec:	681b      	ldr	r3, [r3, #0]
 80025ee:	4a16      	ldr	r2, [pc, #88]	; (8002648 <SDMMC_GetCmdResp7+0x60>)
 80025f0:	fba2 2303 	umull	r2, r3, r2, r3
 80025f4:	0a5a      	lsrs	r2, r3, #9
 80025f6:	f241 3388 	movw	r3, #5000	; 0x1388
 80025fa:	fb03 f302 	mul.w	r3, r3, r2
 80025fe:	461a      	mov	r2, r3
 8002600:	3b01      	subs	r3, #1
 8002602:	b1e2      	cbz	r2, 800263e <SDMMC_GetCmdResp7+0x56>
 8002604:	6b4a      	ldr	r2, [r1, #52]	; 0x34
 8002606:	f012 0f45 	tst.w	r2, #69	; 0x45
 800260a:	d0f8      	beq.n	80025fe <SDMMC_GetCmdResp7+0x16>
 800260c:	f412 6f00 	tst.w	r2, #2048	; 0x800
 8002610:	d1f5      	bne.n	80025fe <SDMMC_GetCmdResp7+0x16>
 8002612:	6b4b      	ldr	r3, [r1, #52]	; 0x34
 8002614:	f013 0f04 	tst.w	r3, #4
 8002618:	d10b      	bne.n	8002632 <SDMMC_GetCmdResp7+0x4a>
 800261a:	6b4b      	ldr	r3, [r1, #52]	; 0x34
 800261c:	f013 0301 	ands.w	r3, r3, #1
 8002620:	d10a      	bne.n	8002638 <SDMMC_GetCmdResp7+0x50>
 8002622:	6b48      	ldr	r0, [r1, #52]	; 0x34
 8002624:	f010 0040 	ands.w	r0, r0, #64	; 0x40
 8002628:	d00b      	beq.n	8002642 <SDMMC_GetCmdResp7+0x5a>
 800262a:	2240      	movs	r2, #64	; 0x40
 800262c:	638a      	str	r2, [r1, #56]	; 0x38
 800262e:	4618      	mov	r0, r3
 8002630:	4770      	bx	lr
 8002632:	2004      	movs	r0, #4
 8002634:	6388      	str	r0, [r1, #56]	; 0x38
 8002636:	4770      	bx	lr
 8002638:	2001      	movs	r0, #1
 800263a:	6388      	str	r0, [r1, #56]	; 0x38
 800263c:	4770      	bx	lr
 800263e:	f04f 4000 	mov.w	r0, #2147483648	; 0x80000000
 8002642:	4770      	bx	lr
 8002644:	20000008 	.word	0x20000008
 8002648:	10624dd3 	.word	0x10624dd3

0800264c <SDIO_Init>:
 800264c:	b084      	sub	sp, #16
 800264e:	b410      	push	{r4}
 8002650:	ac02      	add	r4, sp, #8
 8002652:	e884 000e 	stmia.w	r4, {r1, r2, r3}
 8002656:	460b      	mov	r3, r1
 8002658:	9a03      	ldr	r2, [sp, #12]
 800265a:	4313      	orrs	r3, r2
 800265c:	9a04      	ldr	r2, [sp, #16]
 800265e:	4313      	orrs	r3, r2
 8002660:	9a05      	ldr	r2, [sp, #20]
 8002662:	4313      	orrs	r3, r2
 8002664:	9a06      	ldr	r2, [sp, #24]
 8002666:	4313      	orrs	r3, r2
 8002668:	9a07      	ldr	r2, [sp, #28]
 800266a:	4313      	orrs	r3, r2
 800266c:	6842      	ldr	r2, [r0, #4]
 800266e:	f422 42fd 	bic.w	r2, r2, #32384	; 0x7e80
 8002672:	f022 027f 	bic.w	r2, r2, #127	; 0x7f
 8002676:	4313      	orrs	r3, r2
 8002678:	6043      	str	r3, [r0, #4]
 800267a:	2000      	movs	r0, #0
 800267c:	f85d 4b04 	ldr.w	r4, [sp], #4
 8002680:	b004      	add	sp, #16
 8002682:	4770      	bx	lr

08002684 <SDIO_ReadFIFO>:
 8002684:	f8d0 0080 	ldr.w	r0, [r0, #128]	; 0x80
 8002688:	4770      	bx	lr

0800268a <SDIO_WriteFIFO>:
 800268a:	680b      	ldr	r3, [r1, #0]
 800268c:	f8c0 3080 	str.w	r3, [r0, #128]	; 0x80
 8002690:	2000      	movs	r0, #0
 8002692:	4770      	bx	lr

08002694 <SDIO_PowerState_ON>:
 8002694:	b508      	push	{r3, lr}
 8002696:	2303      	movs	r3, #3
 8002698:	6003      	str	r3, [r0, #0]
 800269a:	2002      	movs	r0, #2
 800269c:	f7ff ff20 	bl	80024e0 <HAL_Delay>
 80026a0:	2000      	movs	r0, #0
 80026a2:	bd08      	pop	{r3, pc}

080026a4 <SDIO_GetPowerState>:
 80026a4:	6800      	ldr	r0, [r0, #0]
 80026a6:	f000 0003 	and.w	r0, r0, #3
 80026aa:	4770      	bx	lr

080026ac <SDIO_SendCommand>:
 80026ac:	680b      	ldr	r3, [r1, #0]
 80026ae:	6083      	str	r3, [r0, #8]
 80026b0:	684b      	ldr	r3, [r1, #4]
 80026b2:	688a      	ldr	r2, [r1, #8]
 80026b4:	4313      	orrs	r3, r2
 80026b6:	68ca      	ldr	r2, [r1, #12]
 80026b8:	4313      	orrs	r3, r2
 80026ba:	690a      	ldr	r2, [r1, #16]
 80026bc:	4313      	orrs	r3, r2
 80026be:	68c2      	ldr	r2, [r0, #12]
 80026c0:	f422 627f 	bic.w	r2, r2, #4080	; 0xff0
 80026c4:	f022 020f 	bic.w	r2, r2, #15
 80026c8:	4313      	orrs	r3, r2
 80026ca:	60c3      	str	r3, [r0, #12]
 80026cc:	2000      	movs	r0, #0
 80026ce:	4770      	bx	lr

080026d0 <SDIO_GetCommandResponse>:
 80026d0:	6900      	ldr	r0, [r0, #16]
 80026d2:	b2c0      	uxtb	r0, r0
 80026d4:	4770      	bx	lr

080026d6 <SDIO_GetResponse>:
 80026d6:	3014      	adds	r0, #20
 80026d8:	5840      	ldr	r0, [r0, r1]
 80026da:	4770      	bx	lr

080026dc <SDMMC_GetCmdResp1>:
 80026dc:	b538      	push	{r3, r4, r5, lr}
 80026de:	4604      	mov	r4, r0
 80026e0:	460d      	mov	r5, r1
 80026e2:	4b50      	ldr	r3, [pc, #320]	; (8002824 <SDMMC_GetCmdResp1+0x148>)
 80026e4:	681b      	ldr	r3, [r3, #0]
 80026e6:	4950      	ldr	r1, [pc, #320]	; (8002828 <SDMMC_GetCmdResp1+0x14c>)
 80026e8:	fba1 1303 	umull	r1, r3, r1, r3
 80026ec:	0a5b      	lsrs	r3, r3, #9
 80026ee:	fb02 f203 	mul.w	r2, r2, r3
 80026f2:	4613      	mov	r3, r2
 80026f4:	3a01      	subs	r2, #1
 80026f6:	2b00      	cmp	r3, #0
 80026f8:	d05d      	beq.n	80027b6 <SDMMC_GetCmdResp1+0xda>
 80026fa:	6b63      	ldr	r3, [r4, #52]	; 0x34
 80026fc:	f013 0f45 	tst.w	r3, #69	; 0x45
 8002700:	d0f7      	beq.n	80026f2 <SDMMC_GetCmdResp1+0x16>
 8002702:	f413 6f00 	tst.w	r3, #2048	; 0x800
 8002706:	d1f4      	bne.n	80026f2 <SDMMC_GetCmdResp1+0x16>
 8002708:	6b63      	ldr	r3, [r4, #52]	; 0x34
 800270a:	f013 0f04 	tst.w	r3, #4
 800270e:	d106      	bne.n	800271e <SDMMC_GetCmdResp1+0x42>
 8002710:	6b63      	ldr	r3, [r4, #52]	; 0x34
 8002712:	f013 0f01 	tst.w	r3, #1
 8002716:	d005      	beq.n	8002724 <SDMMC_GetCmdResp1+0x48>
 8002718:	2001      	movs	r0, #1
 800271a:	63a0      	str	r0, [r4, #56]	; 0x38
 800271c:	e04d      	b.n	80027ba <SDMMC_GetCmdResp1+0xde>
 800271e:	2004      	movs	r0, #4
 8002720:	63a0      	str	r0, [r4, #56]	; 0x38
 8002722:	e04a      	b.n	80027ba <SDMMC_GetCmdResp1+0xde>
 8002724:	23c5      	movs	r3, #197	; 0xc5
 8002726:	63a3      	str	r3, [r4, #56]	; 0x38
 8002728:	4620      	mov	r0, r4
 800272a:	f7ff ffd1 	bl	80026d0 <SDIO_GetCommandResponse>
 800272e:	42a8      	cmp	r0, r5
 8002730:	d001      	beq.n	8002736 <SDMMC_GetCmdResp1+0x5a>
 8002732:	2001      	movs	r0, #1
 8002734:	e041      	b.n	80027ba <SDMMC_GetCmdResp1+0xde>
 8002736:	2100      	movs	r1, #0
 8002738:	4620      	mov	r0, r4
 800273a:	f7ff ffcc 	bl	80026d6 <SDIO_GetResponse>
 800273e:	4603      	mov	r3, r0
 8002740:	483a      	ldr	r0, [pc, #232]	; (800282c <SDMMC_GetCmdResp1+0x150>)
 8002742:	4018      	ands	r0, r3
 8002744:	b3c8      	cbz	r0, 80027ba <SDMMC_GetCmdResp1+0xde>
 8002746:	2b00      	cmp	r3, #0
 8002748:	db38      	blt.n	80027bc <SDMMC_GetCmdResp1+0xe0>
 800274a:	f013 4f80 	tst.w	r3, #1073741824	; 0x40000000
 800274e:	d138      	bne.n	80027c2 <SDMMC_GetCmdResp1+0xe6>
 8002750:	f013 5f00 	tst.w	r3, #536870912	; 0x20000000
 8002754:	d137      	bne.n	80027c6 <SDMMC_GetCmdResp1+0xea>
 8002756:	f013 5f80 	tst.w	r3, #268435456	; 0x10000000
 800275a:	d136      	bne.n	80027ca <SDMMC_GetCmdResp1+0xee>
 800275c:	f013 6f00 	tst.w	r3, #134217728	; 0x8000000
 8002760:	d136      	bne.n	80027d0 <SDMMC_GetCmdResp1+0xf4>
 8002762:	f013 6f80 	tst.w	r3, #67108864	; 0x4000000
 8002766:	d136      	bne.n	80027d6 <SDMMC_GetCmdResp1+0xfa>
 8002768:	f013 7f80 	tst.w	r3, #16777216	; 0x1000000
 800276c:	d136      	bne.n	80027dc <SDMMC_GetCmdResp1+0x100>
 800276e:	f413 0f00 	tst.w	r3, #8388608	; 0x800000
 8002772:	d136      	bne.n	80027e2 <SDMMC_GetCmdResp1+0x106>
 8002774:	f413 0f80 	tst.w	r3, #4194304	; 0x400000
 8002778:	d136      	bne.n	80027e8 <SDMMC_GetCmdResp1+0x10c>
 800277a:	f413 1f00 	tst.w	r3, #2097152	; 0x200000
 800277e:	d136      	bne.n	80027ee <SDMMC_GetCmdResp1+0x112>
 8002780:	f413 1f80 	tst.w	r3, #1048576	; 0x100000
 8002784:	d136      	bne.n	80027f4 <SDMMC_GetCmdResp1+0x118>
 8002786:	f413 2f80 	tst.w	r3, #262144	; 0x40000
 800278a:	d136      	bne.n	80027fa <SDMMC_GetCmdResp1+0x11e>
 800278c:	f413 3f00 	tst.w	r3, #131072	; 0x20000
 8002790:	d136      	bne.n	8002800 <SDMMC_GetCmdResp1+0x124>
 8002792:	f413 3f80 	tst.w	r3, #65536	; 0x10000
 8002796:	d136      	bne.n	8002806 <SDMMC_GetCmdResp1+0x12a>
 8002798:	f413 4f00 	tst.w	r3, #32768	; 0x8000
 800279c:	d136      	bne.n	800280c <SDMMC_GetCmdResp1+0x130>
 800279e:	f413 4f80 	tst.w	r3, #16384	; 0x4000
 80027a2:	d136      	bne.n	8002812 <SDMMC_GetCmdResp1+0x136>
 80027a4:	f413 5f00 	tst.w	r3, #8192	; 0x2000
 80027a8:	d136      	bne.n	8002818 <SDMMC_GetCmdResp1+0x13c>
 80027aa:	f013 0f08 	tst.w	r3, #8
 80027ae:	d036      	beq.n	800281e <SDMMC_GetCmdResp1+0x142>
 80027b0:	f44f 0000 	mov.w	r0, #8388608	; 0x800000
 80027b4:	e001      	b.n	80027ba <SDMMC_GetCmdResp1+0xde>
 80027b6:	f04f 4000 	mov.w	r0, #2147483648	; 0x80000000
 80027ba:	bd38      	pop	{r3, r4, r5, pc}
 80027bc:	f04f 7000 	mov.w	r0, #33554432	; 0x2000000
 80027c0:	e7fb      	b.n	80027ba <SDMMC_GetCmdResp1+0xde>
 80027c2:	2040      	movs	r0, #64	; 0x40
 80027c4:	e7f9      	b.n	80027ba <SDMMC_GetCmdResp1+0xde>
 80027c6:	2080      	movs	r0, #128	; 0x80
 80027c8:	e7f7      	b.n	80027ba <SDMMC_GetCmdResp1+0xde>
 80027ca:	f44f 7080 	mov.w	r0, #256	; 0x100
 80027ce:	e7f4      	b.n	80027ba <SDMMC_GetCmdResp1+0xde>
 80027d0:	f44f 7000 	mov.w	r0, #512	; 0x200
 80027d4:	e7f1      	b.n	80027ba <SDMMC_GetCmdResp1+0xde>
 80027d6:	f44f 6080 	mov.w	r0, #1024	; 0x400
 80027da:	e7ee      	b.n	80027ba <SDMMC_GetCmdResp1+0xde>
 80027dc:	f44f 6000 	mov.w	r0, #2048	; 0x800
 80027e0:	e7eb      	b.n	80027ba <SDMMC_GetCmdResp1+0xde>
 80027e2:	f44f 5080 	mov.w	r0, #4096	; 0x1000
 80027e6:	e7e8      	b.n	80027ba <SDMMC_GetCmdResp1+0xde>
 80027e8:	f44f 5000 	mov.w	r0, #8192	; 0x2000
 80027ec:	e7e5      	b.n	80027ba <SDMMC_GetCmdResp1+0xde>
 80027ee:	f44f 4080 	mov.w	r0, #16384	; 0x4000
 80027f2:	e7e2      	b.n	80027ba <SDMMC_GetCmdResp1+0xde>
 80027f4:	f44f 4000 	mov.w	r0, #32768	; 0x8000
 80027f8:	e7df      	b.n	80027ba <SDMMC_GetCmdResp1+0xde>
 80027fa:	f44f 3000 	mov.w	r0, #131072	; 0x20000
 80027fe:	e7dc      	b.n	80027ba <SDMMC_GetCmdResp1+0xde>
 8002800:	f44f 2080 	mov.w	r0, #262144	; 0x40000
 8002804:	e7d9      	b.n	80027ba <SDMMC_GetCmdResp1+0xde>
 8002806:	f44f 2000 	mov.w	r0, #524288	; 0x80000
 800280a:	e7d6      	b.n	80027ba <SDMMC_GetCmdResp1+0xde>
 800280c:	f44f 1080 	mov.w	r0, #1048576	; 0x100000
 8002810:	e7d3      	b.n	80027ba <SDMMC_GetCmdResp1+0xde>
 8002812:	f44f 1000 	mov.w	r0, #2097152	; 0x200000
 8002816:	e7d0      	b.n	80027ba <SDMMC_GetCmdResp1+0xde>
 8002818:	f44f 0080 	mov.w	r0, #4194304	; 0x400000
 800281c:	e7cd      	b.n	80027ba <SDMMC_GetCmdResp1+0xde>
 800281e:	f44f 3080 	mov.w	r0, #65536	; 0x10000
 8002822:	e7ca      	b.n	80027ba <SDMMC_GetCmdResp1+0xde>
 8002824:	20000008 	.word	0x20000008
 8002828:	10624dd3 	.word	0x10624dd3
 800282c:	fdffe008 	.word	0xfdffe008

08002830 <SDMMC_GetCmdResp6>:
 8002830:	b5f8      	push	{r3, r4, r5, r6, r7, lr}
 8002832:	4605      	mov	r5, r0
 8002834:	460e      	mov	r6, r1
 8002836:	4617      	mov	r7, r2
 8002838:	4b23      	ldr	r3, [pc, #140]	; (80028c8 <SDMMC_GetCmdResp6+0x98>)
 800283a:	681b      	ldr	r3, [r3, #0]
 800283c:	4823      	ldr	r0, [pc, #140]	; (80028cc <SDMMC_GetCmdResp6+0x9c>)
 800283e:	fba0 2303 	umull	r2, r3, r0, r3
 8002842:	0a58      	lsrs	r0, r3, #9
 8002844:	f241 3388 	movw	r3, #5000	; 0x1388
 8002848:	fb03 f300 	mul.w	r3, r3, r0
 800284c:	461c      	mov	r4, r3
 800284e:	3b01      	subs	r3, #1
 8002850:	b38c      	cbz	r4, 80028b6 <SDMMC_GetCmdResp6+0x86>
 8002852:	6b6c      	ldr	r4, [r5, #52]	; 0x34
 8002854:	f014 0f45 	tst.w	r4, #69	; 0x45
 8002858:	d0f8      	beq.n	800284c <SDMMC_GetCmdResp6+0x1c>
 800285a:	f414 6f00 	tst.w	r4, #2048	; 0x800
 800285e:	d1f5      	bne.n	800284c <SDMMC_GetCmdResp6+0x1c>
 8002860:	6b6b      	ldr	r3, [r5, #52]	; 0x34
 8002862:	f013 0f04 	tst.w	r3, #4
 8002866:	d106      	bne.n	8002876 <SDMMC_GetCmdResp6+0x46>
 8002868:	6b6b      	ldr	r3, [r5, #52]	; 0x34
 800286a:	f013 0f01 	tst.w	r3, #1
 800286e:	d005      	beq.n	800287c <SDMMC_GetCmdResp6+0x4c>
 8002870:	2001      	movs	r0, #1
 8002872:	63a8      	str	r0, [r5, #56]	; 0x38
 8002874:	e021      	b.n	80028ba <SDMMC_GetCmdResp6+0x8a>
 8002876:	2004      	movs	r0, #4
 8002878:	63a8      	str	r0, [r5, #56]	; 0x38
 800287a:	e01e      	b.n	80028ba <SDMMC_GetCmdResp6+0x8a>
 800287c:	4628      	mov	r0, r5
 800287e:	f7ff ff27 	bl	80026d0 <SDIO_GetCommandResponse>
 8002882:	42b0      	cmp	r0, r6
 8002884:	d001      	beq.n	800288a <SDMMC_GetCmdResp6+0x5a>
 8002886:	2001      	movs	r0, #1
 8002888:	e017      	b.n	80028ba <SDMMC_GetCmdResp6+0x8a>
 800288a:	23c5      	movs	r3, #197	; 0xc5
 800288c:	63ab      	str	r3, [r5, #56]	; 0x38
 800288e:	2100      	movs	r1, #0
 8002890:	4628      	mov	r0, r5
 8002892:	f7ff ff20 	bl	80026d6 <SDIO_GetResponse>
 8002896:	4603      	mov	r3, r0
 8002898:	f410 4060 	ands.w	r0, r0, #57344	; 0xe000
 800289c:	d008      	beq.n	80028b0 <SDMMC_GetCmdResp6+0x80>
 800289e:	f413 4f80 	tst.w	r3, #16384	; 0x4000
 80028a2:	d10b      	bne.n	80028bc <SDMMC_GetCmdResp6+0x8c>
 80028a4:	f413 4f00 	tst.w	r3, #32768	; 0x8000
 80028a8:	d00b      	beq.n	80028c2 <SDMMC_GetCmdResp6+0x92>
 80028aa:	f44f 5080 	mov.w	r0, #4096	; 0x1000
 80028ae:	e004      	b.n	80028ba <SDMMC_GetCmdResp6+0x8a>
 80028b0:	0c1b      	lsrs	r3, r3, #16
 80028b2:	803b      	strh	r3, [r7, #0]
 80028b4:	e001      	b.n	80028ba <SDMMC_GetCmdResp6+0x8a>
 80028b6:	f04f 4000 	mov.w	r0, #2147483648	; 0x80000000
 80028ba:	bdf8      	pop	{r3, r4, r5, r6, r7, pc}
 80028bc:	f44f 5000 	mov.w	r0, #8192	; 0x2000
 80028c0:	e7fb      	b.n	80028ba <SDMMC_GetCmdResp6+0x8a>
 80028c2:	f44f 3080 	mov.w	r0, #65536	; 0x10000
 80028c6:	e7f8      	b.n	80028ba <SDMMC_GetCmdResp6+0x8a>
 80028c8:	20000008 	.word	0x20000008
 80028cc:	10624dd3 	.word	0x10624dd3

080028d0 <SDIO_ConfigData>:
 80028d0:	680b      	ldr	r3, [r1, #0]
 80028d2:	6243      	str	r3, [r0, #36]	; 0x24
 80028d4:	684b      	ldr	r3, [r1, #4]
 80028d6:	6283      	str	r3, [r0, #40]	; 0x28
 80028d8:	688b      	ldr	r3, [r1, #8]
 80028da:	68ca      	ldr	r2, [r1, #12]
 80028dc:	4313      	orrs	r3, r2
 80028de:	690a      	ldr	r2, [r1, #16]
 80028e0:	4313      	orrs	r3, r2
 80028e2:	694a      	ldr	r2, [r1, #20]
 80028e4:	4313      	orrs	r3, r2
 80028e6:	6ac2      	ldr	r2, [r0, #44]	; 0x2c
 80028e8:	f022 02f7 	bic.w	r2, r2, #247	; 0xf7
 80028ec:	4313      	orrs	r3, r2
 80028ee:	62c3      	str	r3, [r0, #44]	; 0x2c
 80028f0:	2000      	movs	r0, #0
 80028f2:	4770      	bx	lr

080028f4 <SDMMC_CmdBlockLength>:
 80028f4:	b530      	push	{r4, r5, lr}
 80028f6:	b087      	sub	sp, #28
 80028f8:	4604      	mov	r4, r0
 80028fa:	9101      	str	r1, [sp, #4]
 80028fc:	2510      	movs	r5, #16
 80028fe:	9502      	str	r5, [sp, #8]
 8002900:	2340      	movs	r3, #64	; 0x40
 8002902:	9303      	str	r3, [sp, #12]
 8002904:	2300      	movs	r3, #0
 8002906:	9304      	str	r3, [sp, #16]
 8002908:	f44f 6380 	mov.w	r3, #1024	; 0x400
 800290c:	9305      	str	r3, [sp, #20]
 800290e:	a901      	add	r1, sp, #4
 8002910:	f7ff fecc 	bl	80026ac <SDIO_SendCommand>
 8002914:	f241 3288 	movw	r2, #5000	; 0x1388
 8002918:	4629      	mov	r1, r5
 800291a:	4620      	mov	r0, r4
 800291c:	f7ff fede 	bl	80026dc <SDMMC_GetCmdResp1>
 8002920:	b007      	add	sp, #28
 8002922:	bd30      	pop	{r4, r5, pc}

08002924 <SDMMC_CmdReadSingleBlock>:
 8002924:	b530      	push	{r4, r5, lr}
 8002926:	b087      	sub	sp, #28
 8002928:	4604      	mov	r4, r0
 800292a:	9101      	str	r1, [sp, #4]
 800292c:	2511      	movs	r5, #17
 800292e:	9502      	str	r5, [sp, #8]
 8002930:	2340      	movs	r3, #64	; 0x40
 8002932:	9303      	str	r3, [sp, #12]
 8002934:	2300      	movs	r3, #0
 8002936:	9304      	str	r3, [sp, #16]
 8002938:	f44f 6380 	mov.w	r3, #1024	; 0x400
 800293c:	9305      	str	r3, [sp, #20]
 800293e:	a901      	add	r1, sp, #4
 8002940:	f7ff feb4 	bl	80026ac <SDIO_SendCommand>
 8002944:	f241 3288 	movw	r2, #5000	; 0x1388
 8002948:	4629      	mov	r1, r5
 800294a:	4620      	mov	r0, r4
 800294c:	f7ff fec6 	bl	80026dc <SDMMC_GetCmdResp1>
 8002950:	b007      	add	sp, #28
 8002952:	bd30      	pop	{r4, r5, pc}

08002954 <SDMMC_CmdReadMultiBlock>:
 8002954:	b530      	push	{r4, r5, lr}
 8002956:	b087      	sub	sp, #28
 8002958:	4604      	mov	r4, r0
 800295a:	9101      	str	r1, [sp, #4]
 800295c:	2512      	movs	r5, #18
 800295e:	9502      	str	r5, [sp, #8]
 8002960:	2340      	movs	r3, #64	; 0x40
 8002962:	9303      	str	r3, [sp, #12]
 8002964:	2300      	movs	r3, #0
 8002966:	9304      	str	r3, [sp, #16]
 8002968:	f44f 6380 	mov.w	r3, #1024	; 0x400
 800296c:	9305      	str	r3, [sp, #20]
 800296e:	a901      	add	r1, sp, #4
 8002970:	f7ff fe9c 	bl	80026ac <SDIO_SendCommand>
 8002974:	f241 3288 	movw	r2, #5000	; 0x1388
 8002978:	4629      	mov	r1, r5
 800297a:	4620      	mov	r0, r4
 800297c:	f7ff feae 	bl	80026dc <SDMMC_GetCmdResp1>
 8002980:	b007      	add	sp, #28
 8002982:	bd30      	pop	{r4, r5, pc}

08002984 <SDMMC_CmdWriteSingleBlock>:
 8002984:	b530      	push	{r4, r5, lr}
 8002986:	b087      	sub	sp, #28
 8002988:	4604      	mov	r4, r0
 800298a:	9101      	str	r1, [sp, #4]
 800298c:	2518      	movs	r5, #24
 800298e:	9502      	str	r5, [sp, #8]
 8002990:	2340      	movs	r3, #64	; 0x40
 8002992:	9303      	str	r3, [sp, #12]
 8002994:	2300      	movs	r3, #0
 8002996:	9304      	str	r3, [sp, #16]
 8002998:	f44f 6380 	mov.w	r3, #1024	; 0x400
 800299c:	9305      	str	r3, [sp, #20]
 800299e:	a901      	add	r1, sp, #4
 80029a0:	f7ff fe84 	bl	80026ac <SDIO_SendCommand>
 80029a4:	f241 3288 	movw	r2, #5000	; 0x1388
 80029a8:	4629      	mov	r1, r5
 80029aa:	4620      	mov	r0, r4
 80029ac:	f7ff fe96 	bl	80026dc <SDMMC_GetCmdResp1>
 80029b0:	b007      	add	sp, #28
 80029b2:	bd30      	pop	{r4, r5, pc}

080029b4 <SDMMC_CmdWriteMultiBlock>:
 80029b4:	b530      	push	{r4, r5, lr}
 80029b6:	b087      	sub	sp, #28
 80029b8:	4604      	mov	r4, r0
 80029ba:	9101      	str	r1, [sp, #4]
 80029bc:	2519      	movs	r5, #25
 80029be:	9502      	str	r5, [sp, #8]
 80029c0:	2340      	movs	r3, #64	; 0x40
 80029c2:	9303      	str	r3, [sp, #12]
 80029c4:	2300      	movs	r3, #0
 80029c6:	9304      	str	r3, [sp, #16]
 80029c8:	f44f 6380 	mov.w	r3, #1024	; 0x400
 80029cc:	9305      	str	r3, [sp, #20]
 80029ce:	a901      	add	r1, sp, #4
 80029d0:	f7ff fe6c 	bl	80026ac <SDIO_SendCommand>
 80029d4:	f241 3288 	movw	r2, #5000	; 0x1388
 80029d8:	4629      	mov	r1, r5
 80029da:	4620      	mov	r0, r4
 80029dc:	f7ff fe7e 	bl	80026dc <SDMMC_GetCmdResp1>
 80029e0:	b007      	add	sp, #28
 80029e2:	bd30      	pop	{r4, r5, pc}

080029e4 <SDMMC_CmdStopTransfer>:
 80029e4:	b530      	push	{r4, r5, lr}
 80029e6:	b087      	sub	sp, #28
 80029e8:	4604      	mov	r4, r0
 80029ea:	2300      	movs	r3, #0
 80029ec:	9301      	str	r3, [sp, #4]
 80029ee:	250c      	movs	r5, #12
 80029f0:	9502      	str	r5, [sp, #8]
 80029f2:	2240      	movs	r2, #64	; 0x40
 80029f4:	9203      	str	r2, [sp, #12]
 80029f6:	9304      	str	r3, [sp, #16]
 80029f8:	f44f 6380 	mov.w	r3, #1024	; 0x400
 80029fc:	9305      	str	r3, [sp, #20]
 80029fe:	a901      	add	r1, sp, #4
 8002a00:	f7ff fe54 	bl	80026ac <SDIO_SendCommand>
 8002a04:	4a03      	ldr	r2, [pc, #12]	; (8002a14 <SDMMC_CmdStopTransfer+0x30>)
 8002a06:	4629      	mov	r1, r5
 8002a08:	4620      	mov	r0, r4
 8002a0a:	f7ff fe67 	bl	80026dc <SDMMC_GetCmdResp1>
 8002a0e:	b007      	add	sp, #28
 8002a10:	bd30      	pop	{r4, r5, pc}
 8002a12:	bf00      	nop
 8002a14:	05f5e100 	.word	0x05f5e100

08002a18 <SDMMC_CmdSelDesel>:
 8002a18:	b530      	push	{r4, r5, lr}
 8002a1a:	b087      	sub	sp, #28
 8002a1c:	4604      	mov	r4, r0
 8002a1e:	9201      	str	r2, [sp, #4]
 8002a20:	2507      	movs	r5, #7
 8002a22:	9502      	str	r5, [sp, #8]
 8002a24:	2340      	movs	r3, #64	; 0x40
 8002a26:	9303      	str	r3, [sp, #12]
 8002a28:	2300      	movs	r3, #0
 8002a2a:	9304      	str	r3, [sp, #16]
 8002a2c:	f44f 6380 	mov.w	r3, #1024	; 0x400
 8002a30:	9305      	str	r3, [sp, #20]
 8002a32:	a901      	add	r1, sp, #4
 8002a34:	f7ff fe3a 	bl	80026ac <SDIO_SendCommand>
 8002a38:	f241 3288 	movw	r2, #5000	; 0x1388
 8002a3c:	4629      	mov	r1, r5
 8002a3e:	4620      	mov	r0, r4
 8002a40:	f7ff fe4c 	bl	80026dc <SDMMC_GetCmdResp1>
 8002a44:	b007      	add	sp, #28
 8002a46:	bd30      	pop	{r4, r5, pc}

08002a48 <SDMMC_CmdGoIdleState>:
 8002a48:	b510      	push	{r4, lr}
 8002a4a:	b086      	sub	sp, #24
 8002a4c:	4604      	mov	r4, r0
 8002a4e:	2300      	movs	r3, #0
 8002a50:	9301      	str	r3, [sp, #4]
 8002a52:	9302      	str	r3, [sp, #8]
 8002a54:	9303      	str	r3, [sp, #12]
 8002a56:	9304      	str	r3, [sp, #16]
 8002a58:	f44f 6380 	mov.w	r3, #1024	; 0x400
 8002a5c:	9305      	str	r3, [sp, #20]
 8002a5e:	a901      	add	r1, sp, #4
 8002a60:	f7ff fe24 	bl	80026ac <SDIO_SendCommand>
 8002a64:	4620      	mov	r0, r4
 8002a66:	f7ff fd4f 	bl	8002508 <SDMMC_GetCmdError>
 8002a6a:	b006      	add	sp, #24
 8002a6c:	bd10      	pop	{r4, pc}

08002a6e <SDMMC_CmdOperCond>:
 8002a6e:	b510      	push	{r4, lr}
 8002a70:	b086      	sub	sp, #24
 8002a72:	4604      	mov	r4, r0
 8002a74:	f44f 73d5 	mov.w	r3, #426	; 0x1aa
 8002a78:	9301      	str	r3, [sp, #4]
 8002a7a:	2308      	movs	r3, #8
 8002a7c:	9302      	str	r3, [sp, #8]
 8002a7e:	2340      	movs	r3, #64	; 0x40
 8002a80:	9303      	str	r3, [sp, #12]
 8002a82:	2300      	movs	r3, #0
 8002a84:	9304      	str	r3, [sp, #16]
 8002a86:	f44f 6380 	mov.w	r3, #1024	; 0x400
 8002a8a:	9305      	str	r3, [sp, #20]
 8002a8c:	a901      	add	r1, sp, #4
 8002a8e:	f7ff fe0d 	bl	80026ac <SDIO_SendCommand>
 8002a92:	4620      	mov	r0, r4
 8002a94:	f7ff fda8 	bl	80025e8 <SDMMC_GetCmdResp7>
 8002a98:	b006      	add	sp, #24
 8002a9a:	bd10      	pop	{r4, pc}

08002a9c <SDMMC_CmdAppCommand>:
 8002a9c:	b530      	push	{r4, r5, lr}
 8002a9e:	b087      	sub	sp, #28
 8002aa0:	4604      	mov	r4, r0
 8002aa2:	9101      	str	r1, [sp, #4]
 8002aa4:	2537      	movs	r5, #55	; 0x37
 8002aa6:	9502      	str	r5, [sp, #8]
 8002aa8:	2340      	movs	r3, #64	; 0x40
 8002aaa:	9303      	str	r3, [sp, #12]
 8002aac:	2300      	movs	r3, #0
 8002aae:	9304      	str	r3, [sp, #16]
 8002ab0:	f44f 6380 	mov.w	r3, #1024	; 0x400
 8002ab4:	9305      	str	r3, [sp, #20]
 8002ab6:	a901      	add	r1, sp, #4
 8002ab8:	f7ff fdf8 	bl	80026ac <SDIO_SendCommand>
 8002abc:	f241 3288 	movw	r2, #5000	; 0x1388
 8002ac0:	4629      	mov	r1, r5
 8002ac2:	4620      	mov	r0, r4
 8002ac4:	f7ff fe0a 	bl	80026dc <SDMMC_GetCmdResp1>
 8002ac8:	b007      	add	sp, #28
 8002aca:	bd30      	pop	{r4, r5, pc}

08002acc <SDMMC_CmdAppOperCommand>:
 8002acc:	b510      	push	{r4, lr}
 8002ace:	b086      	sub	sp, #24
 8002ad0:	4604      	mov	r4, r0
 8002ad2:	f041 4100 	orr.w	r1, r1, #2147483648	; 0x80000000
 8002ad6:	f441 1180 	orr.w	r1, r1, #1048576	; 0x100000
 8002ada:	9101      	str	r1, [sp, #4]
 8002adc:	2329      	movs	r3, #41	; 0x29
 8002ade:	9302      	str	r3, [sp, #8]
 8002ae0:	2340      	movs	r3, #64	; 0x40
 8002ae2:	9303      	str	r3, [sp, #12]
 8002ae4:	2300      	movs	r3, #0
 8002ae6:	9304      	str	r3, [sp, #16]
 8002ae8:	f44f 6380 	mov.w	r3, #1024	; 0x400
 8002aec:	9305      	str	r3, [sp, #20]
 8002aee:	a901      	add	r1, sp, #4
 8002af0:	f7ff fddc 	bl	80026ac <SDIO_SendCommand>
 8002af4:	4620      	mov	r0, r4
 8002af6:	f7ff fd51 	bl	800259c <SDMMC_GetCmdResp3>
 8002afa:	b006      	add	sp, #24
 8002afc:	bd10      	pop	{r4, pc}

08002afe <SDMMC_CmdBusWidth>:
 8002afe:	b530      	push	{r4, r5, lr}
 8002b00:	b087      	sub	sp, #28
 8002b02:	4604      	mov	r4, r0
 8002b04:	9101      	str	r1, [sp, #4]
 8002b06:	2506      	movs	r5, #6
 8002b08:	9502      	str	r5, [sp, #8]
 8002b0a:	2340      	movs	r3, #64	; 0x40
 8002b0c:	9303      	str	r3, [sp, #12]
 8002b0e:	2300      	movs	r3, #0
 8002b10:	9304      	str	r3, [sp, #16]
 8002b12:	f44f 6380 	mov.w	r3, #1024	; 0x400
 8002b16:	9305      	str	r3, [sp, #20]
 8002b18:	a901      	add	r1, sp, #4
 8002b1a:	f7ff fdc7 	bl	80026ac <SDIO_SendCommand>
 8002b1e:	f241 3288 	movw	r2, #5000	; 0x1388
 8002b22:	4629      	mov	r1, r5
 8002b24:	4620      	mov	r0, r4
 8002b26:	f7ff fdd9 	bl	80026dc <SDMMC_GetCmdResp1>
 8002b2a:	b007      	add	sp, #28
 8002b2c:	bd30      	pop	{r4, r5, pc}

08002b2e <SDMMC_CmdSendSCR>:
 8002b2e:	b530      	push	{r4, r5, lr}
 8002b30:	b087      	sub	sp, #28
 8002b32:	4604      	mov	r4, r0
 8002b34:	2300      	movs	r3, #0
 8002b36:	9301      	str	r3, [sp, #4]
 8002b38:	2533      	movs	r5, #51	; 0x33
 8002b3a:	9502      	str	r5, [sp, #8]
 8002b3c:	2240      	movs	r2, #64	; 0x40
 8002b3e:	9203      	str	r2, [sp, #12]
 8002b40:	9304      	str	r3, [sp, #16]
 8002b42:	f44f 6380 	mov.w	r3, #1024	; 0x400
 8002b46:	9305      	str	r3, [sp, #20]
 8002b48:	a901      	add	r1, sp, #4
 8002b4a:	f7ff fdaf 	bl	80026ac <SDIO_SendCommand>
 8002b4e:	f241 3288 	movw	r2, #5000	; 0x1388
 8002b52:	4629      	mov	r1, r5
 8002b54:	4620      	mov	r0, r4
 8002b56:	f7ff fdc1 	bl	80026dc <SDMMC_GetCmdResp1>
 8002b5a:	b007      	add	sp, #28
 8002b5c:	bd30      	pop	{r4, r5, pc}

08002b5e <SDMMC_CmdSendCID>:
 8002b5e:	b510      	push	{r4, lr}
 8002b60:	b086      	sub	sp, #24
 8002b62:	4604      	mov	r4, r0
 8002b64:	2300      	movs	r3, #0
 8002b66:	9301      	str	r3, [sp, #4]
 8002b68:	2202      	movs	r2, #2
 8002b6a:	9202      	str	r2, [sp, #8]
 8002b6c:	22c0      	movs	r2, #192	; 0xc0
 8002b6e:	9203      	str	r2, [sp, #12]
 8002b70:	9304      	str	r3, [sp, #16]
 8002b72:	f44f 6380 	mov.w	r3, #1024	; 0x400
 8002b76:	9305      	str	r3, [sp, #20]
 8002b78:	a901      	add	r1, sp, #4
 8002b7a:	f7ff fd97 	bl	80026ac <SDIO_SendCommand>
 8002b7e:	4620      	mov	r0, r4
 8002b80:	f7ff fcde 	bl	8002540 <SDMMC_GetCmdResp2>
 8002b84:	b006      	add	sp, #24
 8002b86:	bd10      	pop	{r4, pc}

08002b88 <SDMMC_CmdSendCSD>:
 8002b88:	b510      	push	{r4, lr}
 8002b8a:	b086      	sub	sp, #24
 8002b8c:	4604      	mov	r4, r0
 8002b8e:	9101      	str	r1, [sp, #4]
 8002b90:	2309      	movs	r3, #9
 8002b92:	9302      	str	r3, [sp, #8]
 8002b94:	23c0      	movs	r3, #192	; 0xc0
 8002b96:	9303      	str	r3, [sp, #12]
 8002b98:	2300      	movs	r3, #0
 8002b9a:	9304      	str	r3, [sp, #16]
 8002b9c:	f44f 6380 	mov.w	r3, #1024	; 0x400
 8002ba0:	9305      	str	r3, [sp, #20]
 8002ba2:	a901      	add	r1, sp, #4
 8002ba4:	f7ff fd82 	bl	80026ac <SDIO_SendCommand>
 8002ba8:	4620      	mov	r0, r4
 8002baa:	f7ff fcc9 	bl	8002540 <SDMMC_GetCmdResp2>
 8002bae:	b006      	add	sp, #24
 8002bb0:	bd10      	pop	{r4, pc}

08002bb2 <SDMMC_CmdSetRelAdd>:
 8002bb2:	b570      	push	{r4, r5, r6, lr}
 8002bb4:	b086      	sub	sp, #24
 8002bb6:	4604      	mov	r4, r0
 8002bb8:	460d      	mov	r5, r1
 8002bba:	2300      	movs	r3, #0
 8002bbc:	9301      	str	r3, [sp, #4]
 8002bbe:	2603      	movs	r6, #3
 8002bc0:	9602      	str	r6, [sp, #8]
 8002bc2:	2240      	movs	r2, #64	; 0x40
 8002bc4:	9203      	str	r2, [sp, #12]
 8002bc6:	9304      	str	r3, [sp, #16]
 8002bc8:	f44f 6380 	mov.w	r3, #1024	; 0x400
 8002bcc:	9305      	str	r3, [sp, #20]
 8002bce:	a901      	add	r1, sp, #4
 8002bd0:	f7ff fd6c 	bl	80026ac <SDIO_SendCommand>
 8002bd4:	462a      	mov	r2, r5
 8002bd6:	4631      	mov	r1, r6
 8002bd8:	4620      	mov	r0, r4
 8002bda:	f7ff fe29 	bl	8002830 <SDMMC_GetCmdResp6>
 8002bde:	b006      	add	sp, #24
 8002be0:	bd70      	pop	{r4, r5, r6, pc}

08002be2 <SDMMC_CmdSendStatus>:
 8002be2:	b530      	push	{r4, r5, lr}
 8002be4:	b087      	sub	sp, #28
 8002be6:	4604      	mov	r4, r0
 8002be8:	9101      	str	r1, [sp, #4]
 8002bea:	250d      	movs	r5, #13
 8002bec:	9502      	str	r5, [sp, #8]
 8002bee:	2340      	movs	r3, #64	; 0x40
 8002bf0:	9303      	str	r3, [sp, #12]
 8002bf2:	2300      	movs	r3, #0
 8002bf4:	9304      	str	r3, [sp, #16]
 8002bf6:	f44f 6380 	mov.w	r3, #1024	; 0x400
 8002bfa:	9305      	str	r3, [sp, #20]
 8002bfc:	a901      	add	r1, sp, #4
 8002bfe:	f7ff fd55 	bl	80026ac <SDIO_SendCommand>
 8002c02:	f241 3288 	movw	r2, #5000	; 0x1388
 8002c06:	4629      	mov	r1, r5
 8002c08:	4620      	mov	r0, r4
 8002c0a:	f7ff fd67 	bl	80026dc <SDMMC_GetCmdResp1>
 8002c0e:	b007      	add	sp, #28
 8002c10:	bd30      	pop	{r4, r5, pc}

08002c12 <SDMMC_CmdStatusRegister>:
 8002c12:	b530      	push	{r4, r5, lr}
 8002c14:	b087      	sub	sp, #28
 8002c16:	4604      	mov	r4, r0
 8002c18:	2300      	movs	r3, #0
 8002c1a:	9301      	str	r3, [sp, #4]
 8002c1c:	250d      	movs	r5, #13
 8002c1e:	9502      	str	r5, [sp, #8]
 8002c20:	2240      	movs	r2, #64	; 0x40
 8002c22:	9203      	str	r2, [sp, #12]
 8002c24:	9304      	str	r3, [sp, #16]
 8002c26:	f44f 6380 	mov.w	r3, #1024	; 0x400
 8002c2a:	9305      	str	r3, [sp, #20]
 8002c2c:	a901      	add	r1, sp, #4
 8002c2e:	f7ff fd3d 	bl	80026ac <SDIO_SendCommand>
 8002c32:	f241 3288 	movw	r2, #5000	; 0x1388
 8002c36:	4629      	mov	r1, r5
 8002c38:	4620      	mov	r0, r4
 8002c3a:	f7ff fd4f 	bl	80026dc <SDMMC_GetCmdResp1>
 8002c3e:	b007      	add	sp, #28
 8002c40:	bd30      	pop	{r4, r5, pc}
	...

08002c44 <SD_PowerON>:
 8002c44:	b570      	push	{r4, r5, r6, lr}
 8002c46:	b082      	sub	sp, #8
 8002c48:	4604      	mov	r4, r0
 8002c4a:	2300      	movs	r3, #0
 8002c4c:	9301      	str	r3, [sp, #4]
 8002c4e:	6800      	ldr	r0, [r0, #0]
 8002c50:	f7ff fefa 	bl	8002a48 <SDMMC_CmdGoIdleState>
 8002c54:	4605      	mov	r5, r0
 8002c56:	b110      	cbz	r0, 8002c5e <SD_PowerON+0x1a>
 8002c58:	4628      	mov	r0, r5
 8002c5a:	b002      	add	sp, #8
 8002c5c:	bd70      	pop	{r4, r5, r6, pc}
 8002c5e:	6820      	ldr	r0, [r4, #0]
 8002c60:	f7ff ff05 	bl	8002a6e <SDMMC_CmdOperCond>
 8002c64:	b938      	cbnz	r0, 8002c76 <SD_PowerON+0x32>
 8002c66:	2301      	movs	r3, #1
 8002c68:	64a3      	str	r3, [r4, #72]	; 0x48
 8002c6a:	6ca3      	ldr	r3, [r4, #72]	; 0x48
 8002c6c:	2b01      	cmp	r3, #1
 8002c6e:	d00b      	beq.n	8002c88 <SD_PowerON+0x44>
 8002c70:	462e      	mov	r6, r5
 8002c72:	4628      	mov	r0, r5
 8002c74:	e014      	b.n	8002ca0 <SD_PowerON+0x5c>
 8002c76:	2300      	movs	r3, #0
 8002c78:	64a3      	str	r3, [r4, #72]	; 0x48
 8002c7a:	6820      	ldr	r0, [r4, #0]
 8002c7c:	f7ff fee4 	bl	8002a48 <SDMMC_CmdGoIdleState>
 8002c80:	2800      	cmp	r0, #0
 8002c82:	d0f2      	beq.n	8002c6a <SD_PowerON+0x26>
 8002c84:	4605      	mov	r5, r0
 8002c86:	e7e7      	b.n	8002c58 <SD_PowerON+0x14>
 8002c88:	2100      	movs	r1, #0
 8002c8a:	6820      	ldr	r0, [r4, #0]
 8002c8c:	f7ff ff06 	bl	8002a9c <SDMMC_CmdAppCommand>
 8002c90:	2800      	cmp	r0, #0
 8002c92:	d0ed      	beq.n	8002c70 <SD_PowerON+0x2c>
 8002c94:	f04f 5580 	mov.w	r5, #268435456	; 0x10000000
 8002c98:	e7de      	b.n	8002c58 <SD_PowerON+0x14>
 8002c9a:	9b01      	ldr	r3, [sp, #4]
 8002c9c:	3301      	adds	r3, #1
 8002c9e:	9301      	str	r3, [sp, #4]
 8002ca0:	9a01      	ldr	r2, [sp, #4]
 8002ca2:	f64f 73fe 	movw	r3, #65534	; 0xfffe
 8002ca6:	429a      	cmp	r2, r3
 8002ca8:	d813      	bhi.n	8002cd2 <SD_PowerON+0x8e>
 8002caa:	b996      	cbnz	r6, 8002cd2 <SD_PowerON+0x8e>
 8002cac:	2100      	movs	r1, #0
 8002cae:	6820      	ldr	r0, [r4, #0]
 8002cb0:	f7ff fef4 	bl	8002a9c <SDMMC_CmdAppCommand>
 8002cb4:	b9e0      	cbnz	r0, 8002cf0 <SD_PowerON+0xac>
 8002cb6:	4912      	ldr	r1, [pc, #72]	; (8002d00 <SD_PowerON+0xbc>)
 8002cb8:	6820      	ldr	r0, [r4, #0]
 8002cba:	f7ff ff07 	bl	8002acc <SDMMC_CmdAppOperCommand>
 8002cbe:	4606      	mov	r6, r0
 8002cc0:	b9c0      	cbnz	r0, 8002cf4 <SD_PowerON+0xb0>
 8002cc2:	2100      	movs	r1, #0
 8002cc4:	6820      	ldr	r0, [r4, #0]
 8002cc6:	f7ff fd06 	bl	80026d6 <SDIO_GetResponse>
 8002cca:	0fc3      	lsrs	r3, r0, #31
 8002ccc:	d0e5      	beq.n	8002c9a <SD_PowerON+0x56>
 8002cce:	461e      	mov	r6, r3
 8002cd0:	e7e3      	b.n	8002c9a <SD_PowerON+0x56>
 8002cd2:	9a01      	ldr	r2, [sp, #4]
 8002cd4:	f64f 73fe 	movw	r3, #65534	; 0xfffe
 8002cd8:	429a      	cmp	r2, r3
 8002cda:	d80e      	bhi.n	8002cfa <SD_PowerON+0xb6>
 8002cdc:	f010 4380 	ands.w	r3, r0, #1073741824	; 0x40000000
 8002ce0:	d002      	beq.n	8002ce8 <SD_PowerON+0xa4>
 8002ce2:	2301      	movs	r3, #1
 8002ce4:	6463      	str	r3, [r4, #68]	; 0x44
 8002ce6:	e7b7      	b.n	8002c58 <SD_PowerON+0x14>
 8002ce8:	2200      	movs	r2, #0
 8002cea:	6462      	str	r2, [r4, #68]	; 0x44
 8002cec:	461d      	mov	r5, r3
 8002cee:	e7b3      	b.n	8002c58 <SD_PowerON+0x14>
 8002cf0:	4605      	mov	r5, r0
 8002cf2:	e7b1      	b.n	8002c58 <SD_PowerON+0x14>
 8002cf4:	f04f 5580 	mov.w	r5, #268435456	; 0x10000000
 8002cf8:	e7ae      	b.n	8002c58 <SD_PowerON+0x14>
 8002cfa:	f04f 7580 	mov.w	r5, #16777216	; 0x1000000
 8002cfe:	e7ab      	b.n	8002c58 <SD_PowerON+0x14>
 8002d00:	c1100000 	.word	0xc1100000

08002d04 <SD_SendSDStatus>:
 8002d04:	b5f0      	push	{r4, r5, r6, r7, lr}
 8002d06:	b087      	sub	sp, #28
 8002d08:	4605      	mov	r5, r0
 8002d0a:	460e      	mov	r6, r1
 8002d0c:	f7ff fbe2 	bl	80024d4 <HAL_GetTick>
 8002d10:	4607      	mov	r7, r0
 8002d12:	2100      	movs	r1, #0
 8002d14:	6828      	ldr	r0, [r5, #0]
 8002d16:	f7ff fcde 	bl	80026d6 <SDIO_GetResponse>
 8002d1a:	f010 7f00 	tst.w	r0, #33554432	; 0x2000000
 8002d1e:	d166      	bne.n	8002dee <SD_SendSDStatus+0xea>
 8002d20:	2140      	movs	r1, #64	; 0x40
 8002d22:	6828      	ldr	r0, [r5, #0]
 8002d24:	f7ff fde6 	bl	80028f4 <SDMMC_CmdBlockLength>
 8002d28:	4603      	mov	r3, r0
 8002d2a:	b110      	cbz	r0, 8002d32 <SD_SendSDStatus+0x2e>
 8002d2c:	6baa      	ldr	r2, [r5, #56]	; 0x38
 8002d2e:	63aa      	str	r2, [r5, #56]	; 0x38
 8002d30:	e05f      	b.n	8002df2 <SD_SendSDStatus+0xee>
 8002d32:	6d29      	ldr	r1, [r5, #80]	; 0x50
 8002d34:	0409      	lsls	r1, r1, #16
 8002d36:	6828      	ldr	r0, [r5, #0]
 8002d38:	f7ff feb0 	bl	8002a9c <SDMMC_CmdAppCommand>
 8002d3c:	4603      	mov	r3, r0
 8002d3e:	b110      	cbz	r0, 8002d46 <SD_SendSDStatus+0x42>
 8002d40:	6baa      	ldr	r2, [r5, #56]	; 0x38
 8002d42:	63aa      	str	r2, [r5, #56]	; 0x38
 8002d44:	e055      	b.n	8002df2 <SD_SendSDStatus+0xee>
 8002d46:	f04f 33ff 	mov.w	r3, #4294967295	; 0xffffffff
 8002d4a:	9300      	str	r3, [sp, #0]
 8002d4c:	2340      	movs	r3, #64	; 0x40
 8002d4e:	9301      	str	r3, [sp, #4]
 8002d50:	2360      	movs	r3, #96	; 0x60
 8002d52:	9302      	str	r3, [sp, #8]
 8002d54:	2302      	movs	r3, #2
 8002d56:	9303      	str	r3, [sp, #12]
 8002d58:	2300      	movs	r3, #0
 8002d5a:	9304      	str	r3, [sp, #16]
 8002d5c:	2301      	movs	r3, #1
 8002d5e:	9305      	str	r3, [sp, #20]
 8002d60:	4669      	mov	r1, sp
 8002d62:	6828      	ldr	r0, [r5, #0]
 8002d64:	f7ff fdb4 	bl	80028d0 <SDIO_ConfigData>
 8002d68:	6828      	ldr	r0, [r5, #0]
 8002d6a:	f7ff ff52 	bl	8002c12 <SDMMC_CmdStatusRegister>
 8002d6e:	4603      	mov	r3, r0
 8002d70:	b180      	cbz	r0, 8002d94 <SD_SendSDStatus+0x90>
 8002d72:	6baa      	ldr	r2, [r5, #56]	; 0x38
 8002d74:	63aa      	str	r2, [r5, #56]	; 0x38
 8002d76:	e03c      	b.n	8002df2 <SD_SendSDStatus+0xee>
 8002d78:	6828      	ldr	r0, [r5, #0]
 8002d7a:	f7ff fc83 	bl	8002684 <SDIO_ReadFIFO>
 8002d7e:	f846 0b04 	str.w	r0, [r6], #4
 8002d82:	3401      	adds	r4, #1
 8002d84:	2c07      	cmp	r4, #7
 8002d86:	d9f7      	bls.n	8002d78 <SD_SendSDStatus+0x74>
 8002d88:	f7ff fba4 	bl	80024d4 <HAL_GetTick>
 8002d8c:	1bc0      	subs	r0, r0, r7
 8002d8e:	f1b0 3fff 	cmp.w	r0, #4294967295	; 0xffffffff
 8002d92:	d031      	beq.n	8002df8 <SD_SendSDStatus+0xf4>
 8002d94:	682b      	ldr	r3, [r5, #0]
 8002d96:	6b5c      	ldr	r4, [r3, #52]	; 0x34
 8002d98:	f240 422a 	movw	r2, #1066	; 0x42a
 8002d9c:	4014      	ands	r4, r2
 8002d9e:	d104      	bne.n	8002daa <SD_SendSDStatus+0xa6>
 8002da0:	6b5b      	ldr	r3, [r3, #52]	; 0x34
 8002da2:	f413 4f00 	tst.w	r3, #32768	; 0x8000
 8002da6:	d0ef      	beq.n	8002d88 <SD_SendSDStatus+0x84>
 8002da8:	e7ec      	b.n	8002d84 <SD_SendSDStatus+0x80>
 8002daa:	6b5a      	ldr	r2, [r3, #52]	; 0x34
 8002dac:	f012 0f08 	tst.w	r2, #8
 8002db0:	d125      	bne.n	8002dfe <SD_SendSDStatus+0xfa>
 8002db2:	6b5a      	ldr	r2, [r3, #52]	; 0x34
 8002db4:	f012 0f02 	tst.w	r2, #2
 8002db8:	d123      	bne.n	8002e02 <SD_SendSDStatus+0xfe>
 8002dba:	6b5b      	ldr	r3, [r3, #52]	; 0x34
 8002dbc:	f013 0f20 	tst.w	r3, #32
 8002dc0:	d121      	bne.n	8002e06 <SD_SendSDStatus+0x102>
 8002dc2:	6828      	ldr	r0, [r5, #0]
 8002dc4:	6b43      	ldr	r3, [r0, #52]	; 0x34
 8002dc6:	f413 1300 	ands.w	r3, r3, #2097152	; 0x200000
 8002dca:	d00c      	beq.n	8002de6 <SD_SendSDStatus+0xe2>
 8002dcc:	f7ff fc5a 	bl	8002684 <SDIO_ReadFIFO>
 8002dd0:	f846 0b04 	str.w	r0, [r6], #4
 8002dd4:	f7ff fb7e 	bl	80024d4 <HAL_GetTick>
 8002dd8:	1bc0      	subs	r0, r0, r7
 8002dda:	f1b0 3fff 	cmp.w	r0, #4294967295	; 0xffffffff
 8002dde:	d1f0      	bne.n	8002dc2 <SD_SendSDStatus+0xbe>
 8002de0:	f04f 4300 	mov.w	r3, #2147483648	; 0x80000000
 8002de4:	e005      	b.n	8002df2 <SD_SendSDStatus+0xee>
 8002de6:	f240 523a 	movw	r2, #1338	; 0x53a
 8002dea:	6382      	str	r2, [r0, #56]	; 0x38
 8002dec:	e001      	b.n	8002df2 <SD_SendSDStatus+0xee>
 8002dee:	f44f 6300 	mov.w	r3, #2048	; 0x800
 8002df2:	4618      	mov	r0, r3
 8002df4:	b007      	add	sp, #28
 8002df6:	bdf0      	pop	{r4, r5, r6, r7, pc}
 8002df8:	f04f 4300 	mov.w	r3, #2147483648	; 0x80000000
 8002dfc:	e7f9      	b.n	8002df2 <SD_SendSDStatus+0xee>
 8002dfe:	2308      	movs	r3, #8
 8002e00:	e7f7      	b.n	8002df2 <SD_SendSDStatus+0xee>
 8002e02:	2302      	movs	r3, #2
 8002e04:	e7f5      	b.n	8002df2 <SD_SendSDStatus+0xee>
 8002e06:	2320      	movs	r3, #32
 8002e08:	e7f3      	b.n	8002df2 <SD_SendSDStatus+0xee>

08002e0a <SD_FindSCR>:
 8002e0a:	b5f0      	push	{r4, r5, r6, r7, lr}
 8002e0c:	b089      	sub	sp, #36	; 0x24
 8002e0e:	4604      	mov	r4, r0
 8002e10:	460f      	mov	r7, r1
 8002e12:	f7ff fb5f 	bl	80024d4 <HAL_GetTick>
 8002e16:	4606      	mov	r6, r0
 8002e18:	2300      	movs	r3, #0
 8002e1a:	9300      	str	r3, [sp, #0]
 8002e1c:	9301      	str	r3, [sp, #4]
 8002e1e:	2108      	movs	r1, #8
 8002e20:	6820      	ldr	r0, [r4, #0]
 8002e22:	f7ff fd67 	bl	80028f4 <SDMMC_CmdBlockLength>
 8002e26:	4605      	mov	r5, r0
 8002e28:	b110      	cbz	r0, 8002e30 <SD_FindSCR+0x26>
 8002e2a:	4628      	mov	r0, r5
 8002e2c:	b009      	add	sp, #36	; 0x24
 8002e2e:	bdf0      	pop	{r4, r5, r6, r7, pc}
 8002e30:	6d21      	ldr	r1, [r4, #80]	; 0x50
 8002e32:	0409      	lsls	r1, r1, #16
 8002e34:	6820      	ldr	r0, [r4, #0]
 8002e36:	f7ff fe31 	bl	8002a9c <SDMMC_CmdAppCommand>
 8002e3a:	4605      	mov	r5, r0
 8002e3c:	2800      	cmp	r0, #0
 8002e3e:	d1f4      	bne.n	8002e2a <SD_FindSCR+0x20>
 8002e40:	f04f 33ff 	mov.w	r3, #4294967295	; 0xffffffff
 8002e44:	9302      	str	r3, [sp, #8]
 8002e46:	2308      	movs	r3, #8
 8002e48:	9303      	str	r3, [sp, #12]
 8002e4a:	2330      	movs	r3, #48	; 0x30
 8002e4c:	9304      	str	r3, [sp, #16]
 8002e4e:	2302      	movs	r3, #2
 8002e50:	9305      	str	r3, [sp, #20]
 8002e52:	2300      	movs	r3, #0
 8002e54:	9306      	str	r3, [sp, #24]
 8002e56:	2301      	movs	r3, #1
 8002e58:	9307      	str	r3, [sp, #28]
 8002e5a:	a902      	add	r1, sp, #8
 8002e5c:	6820      	ldr	r0, [r4, #0]
 8002e5e:	f7ff fd37 	bl	80028d0 <SDIO_ConfigData>
 8002e62:	6820      	ldr	r0, [r4, #0]
 8002e64:	f7ff fe63 	bl	8002b2e <SDMMC_CmdSendSCR>
 8002e68:	4605      	mov	r5, r0
 8002e6a:	b158      	cbz	r0, 8002e84 <SD_FindSCR+0x7a>
 8002e6c:	e7dd      	b.n	8002e2a <SD_FindSCR+0x20>
 8002e6e:	f7ff fc09 	bl	8002684 <SDIO_ReadFIFO>
 8002e72:	f84d 0025 	str.w	r0, [sp, r5, lsl #2]
 8002e76:	3501      	adds	r5, #1
 8002e78:	f7ff fb2c 	bl	80024d4 <HAL_GetTick>
 8002e7c:	1b83      	subs	r3, r0, r6
 8002e7e:	f1b3 3fff 	cmp.w	r3, #4294967295	; 0xffffffff
 8002e82:	d03f      	beq.n	8002f04 <SD_FindSCR+0xfa>
 8002e84:	6820      	ldr	r0, [r4, #0]
 8002e86:	6b43      	ldr	r3, [r0, #52]	; 0x34
 8002e88:	f013 0f2a 	tst.w	r3, #42	; 0x2a
 8002e8c:	d107      	bne.n	8002e9e <SD_FindSCR+0x94>
 8002e8e:	6b43      	ldr	r3, [r0, #52]	; 0x34
 8002e90:	f413 1f00 	tst.w	r3, #2097152	; 0x200000
 8002e94:	d1eb      	bne.n	8002e6e <SD_FindSCR+0x64>
 8002e96:	6b43      	ldr	r3, [r0, #52]	; 0x34
 8002e98:	f413 5f00 	tst.w	r3, #8192	; 0x2000
 8002e9c:	d1ec      	bne.n	8002e78 <SD_FindSCR+0x6e>
 8002e9e:	6b43      	ldr	r3, [r0, #52]	; 0x34
 8002ea0:	f013 0f08 	tst.w	r3, #8
 8002ea4:	d125      	bne.n	8002ef2 <SD_FindSCR+0xe8>
 8002ea6:	6b43      	ldr	r3, [r0, #52]	; 0x34
 8002ea8:	f013 0f02 	tst.w	r3, #2
 8002eac:	d124      	bne.n	8002ef8 <SD_FindSCR+0xee>
 8002eae:	6b45      	ldr	r5, [r0, #52]	; 0x34
 8002eb0:	f015 0520 	ands.w	r5, r5, #32
 8002eb4:	d123      	bne.n	8002efe <SD_FindSCR+0xf4>
 8002eb6:	f240 533a 	movw	r3, #1338	; 0x53a
 8002eba:	6383      	str	r3, [r0, #56]	; 0x38
 8002ebc:	9a01      	ldr	r2, [sp, #4]
 8002ebe:	0213      	lsls	r3, r2, #8
 8002ec0:	f403 037f 	and.w	r3, r3, #16711680	; 0xff0000
 8002ec4:	ea43 6302 	orr.w	r3, r3, r2, lsl #24
 8002ec8:	0a11      	lsrs	r1, r2, #8
 8002eca:	f401 417f 	and.w	r1, r1, #65280	; 0xff00
 8002ece:	430b      	orrs	r3, r1
 8002ed0:	ea43 6312 	orr.w	r3, r3, r2, lsr #24
 8002ed4:	603b      	str	r3, [r7, #0]
 8002ed6:	9a00      	ldr	r2, [sp, #0]
 8002ed8:	0213      	lsls	r3, r2, #8
 8002eda:	f403 037f 	and.w	r3, r3, #16711680	; 0xff0000
 8002ede:	ea43 6302 	orr.w	r3, r3, r2, lsl #24
 8002ee2:	0a11      	lsrs	r1, r2, #8
 8002ee4:	f401 417f 	and.w	r1, r1, #65280	; 0xff00
 8002ee8:	430b      	orrs	r3, r1
 8002eea:	ea43 6312 	orr.w	r3, r3, r2, lsr #24
 8002eee:	607b      	str	r3, [r7, #4]
 8002ef0:	e79b      	b.n	8002e2a <SD_FindSCR+0x20>
 8002ef2:	2508      	movs	r5, #8
 8002ef4:	6385      	str	r5, [r0, #56]	; 0x38
 8002ef6:	e798      	b.n	8002e2a <SD_FindSCR+0x20>
 8002ef8:	2502      	movs	r5, #2
 8002efa:	6385      	str	r5, [r0, #56]	; 0x38
 8002efc:	e795      	b.n	8002e2a <SD_FindSCR+0x20>
 8002efe:	2520      	movs	r5, #32
 8002f00:	6385      	str	r5, [r0, #56]	; 0x38
 8002f02:	e792      	b.n	8002e2a <SD_FindSCR+0x20>
 8002f04:	f04f 4500 	mov.w	r5, #2147483648	; 0x80000000
 8002f08:	e78f      	b.n	8002e2a <SD_FindSCR+0x20>

08002f0a <SD_WideBus_Enable>:
 8002f0a:	b510      	push	{r4, lr}
 8002f0c:	b082      	sub	sp, #8
 8002f0e:	4604      	mov	r4, r0
 8002f10:	2100      	movs	r1, #0
 8002f12:	9100      	str	r1, [sp, #0]
 8002f14:	9101      	str	r1, [sp, #4]
 8002f16:	6800      	ldr	r0, [r0, #0]
 8002f18:	f7ff fbdd 	bl	80026d6 <SDIO_GetResponse>
 8002f1c:	f010 7f00 	tst.w	r0, #33554432	; 0x2000000
 8002f20:	d113      	bne.n	8002f4a <SD_WideBus_Enable+0x40>
 8002f22:	4669      	mov	r1, sp
 8002f24:	4620      	mov	r0, r4
 8002f26:	f7ff ff70 	bl	8002e0a <SD_FindSCR>
 8002f2a:	b980      	cbnz	r0, 8002f4e <SD_WideBus_Enable+0x44>
 8002f2c:	9b01      	ldr	r3, [sp, #4]
 8002f2e:	f413 2f80 	tst.w	r3, #262144	; 0x40000
 8002f32:	d00e      	beq.n	8002f52 <SD_WideBus_Enable+0x48>
 8002f34:	6d21      	ldr	r1, [r4, #80]	; 0x50
 8002f36:	0409      	lsls	r1, r1, #16
 8002f38:	6820      	ldr	r0, [r4, #0]
 8002f3a:	f7ff fdaf 	bl	8002a9c <SDMMC_CmdAppCommand>
 8002f3e:	b930      	cbnz	r0, 8002f4e <SD_WideBus_Enable+0x44>
 8002f40:	2102      	movs	r1, #2
 8002f42:	6820      	ldr	r0, [r4, #0]
 8002f44:	f7ff fddb 	bl	8002afe <SDMMC_CmdBusWidth>
 8002f48:	e001      	b.n	8002f4e <SD_WideBus_Enable+0x44>
 8002f4a:	f44f 6000 	mov.w	r0, #2048	; 0x800
 8002f4e:	b002      	add	sp, #8
 8002f50:	bd10      	pop	{r4, pc}
 8002f52:	f04f 6080 	mov.w	r0, #67108864	; 0x4000000
 8002f56:	e7fa      	b.n	8002f4e <SD_WideBus_Enable+0x44>

08002f58 <SD_WideBus_Disable>:
 8002f58:	b510      	push	{r4, lr}
 8002f5a:	b082      	sub	sp, #8
 8002f5c:	4604      	mov	r4, r0
 8002f5e:	2100      	movs	r1, #0
 8002f60:	9100      	str	r1, [sp, #0]
 8002f62:	9101      	str	r1, [sp, #4]
 8002f64:	6800      	ldr	r0, [r0, #0]
 8002f66:	f7ff fbb6 	bl	80026d6 <SDIO_GetResponse>
 8002f6a:	f010 7f00 	tst.w	r0, #33554432	; 0x2000000
 8002f6e:	d113      	bne.n	8002f98 <SD_WideBus_Disable+0x40>
 8002f70:	4669      	mov	r1, sp
 8002f72:	4620      	mov	r0, r4
 8002f74:	f7ff ff49 	bl	8002e0a <SD_FindSCR>
 8002f78:	b980      	cbnz	r0, 8002f9c <SD_WideBus_Disable+0x44>
 8002f7a:	9b01      	ldr	r3, [sp, #4]
 8002f7c:	f413 3f80 	tst.w	r3, #65536	; 0x10000
 8002f80:	d00e      	beq.n	8002fa0 <SD_WideBus_Disable+0x48>
 8002f82:	6d21      	ldr	r1, [r4, #80]	; 0x50
 8002f84:	0409      	lsls	r1, r1, #16
 8002f86:	6820      	ldr	r0, [r4, #0]
 8002f88:	f7ff fd88 	bl	8002a9c <SDMMC_CmdAppCommand>
 8002f8c:	b930      	cbnz	r0, 8002f9c <SD_WideBus_Disable+0x44>
 8002f8e:	2100      	movs	r1, #0
 8002f90:	6820      	ldr	r0, [r4, #0]
 8002f92:	f7ff fdb4 	bl	8002afe <SDMMC_CmdBusWidth>
 8002f96:	e001      	b.n	8002f9c <SD_WideBus_Disable+0x44>
 8002f98:	f44f 6000 	mov.w	r0, #2048	; 0x800
 8002f9c:	b002      	add	sp, #8
 8002f9e:	bd10      	pop	{r4, pc}
 8002fa0:	f04f 6080 	mov.w	r0, #67108864	; 0x4000000
 8002fa4:	e7fa      	b.n	8002f9c <SD_WideBus_Disable+0x44>

08002fa6 <SD_SendStatus>:
 8002fa6:	b570      	push	{r4, r5, r6, lr}
 8002fa8:	b181      	cbz	r1, 8002fcc <SD_SendStatus+0x26>
 8002faa:	4604      	mov	r4, r0
 8002fac:	460e      	mov	r6, r1
 8002fae:	6d01      	ldr	r1, [r0, #80]	; 0x50
 8002fb0:	0409      	lsls	r1, r1, #16
 8002fb2:	6800      	ldr	r0, [r0, #0]
 8002fb4:	f7ff fe15 	bl	8002be2 <SDMMC_CmdSendStatus>
 8002fb8:	4605      	mov	r5, r0
 8002fba:	b108      	cbz	r0, 8002fc0 <SD_SendStatus+0x1a>
 8002fbc:	4628      	mov	r0, r5
 8002fbe:	bd70      	pop	{r4, r5, r6, pc}
 8002fc0:	2100      	movs	r1, #0
 8002fc2:	6820      	ldr	r0, [r4, #0]
 8002fc4:	f7ff fb87 	bl	80026d6 <SDIO_GetResponse>
 8002fc8:	6030      	str	r0, [r6, #0]
 8002fca:	e7f7      	b.n	8002fbc <SD_SendStatus+0x16>
 8002fcc:	f04f 6500 	mov.w	r5, #134217728	; 0x8000000
 8002fd0:	e7f4      	b.n	8002fbc <SD_SendStatus+0x16>
	...

08002fd4 <HAL_SD_ReadBlocks>:
 8002fd4:	e92d 4ff0 	stmdb	sp!, {r4, r5, r6, r7, r8, r9, sl, fp, lr}
 8002fd8:	b087      	sub	sp, #28
 8002fda:	4605      	mov	r5, r0
 8002fdc:	460c      	mov	r4, r1
 8002fde:	4616      	mov	r6, r2
 8002fe0:	469b      	mov	fp, r3
 8002fe2:	f8dd a040 	ldr.w	sl, [sp, #64]	; 0x40
 8002fe6:	f7ff fa75 	bl	80024d4 <HAL_GetTick>
 8002fea:	2c00      	cmp	r4, #0
 8002fec:	d036      	beq.n	800305c <HAL_SD_ReadBlocks+0x88>
 8002fee:	4681      	mov	r9, r0
 8002ff0:	f895 7034 	ldrb.w	r7, [r5, #52]	; 0x34
 8002ff4:	b2ff      	uxtb	r7, r7
 8002ff6:	2f01      	cmp	r7, #1
 8002ff8:	f040 8105 	bne.w	8003206 <HAL_SD_ReadBlocks+0x232>
 8002ffc:	2300      	movs	r3, #0
 8002ffe:	63ab      	str	r3, [r5, #56]	; 0x38
 8003000:	eb06 030b 	add.w	r3, r6, fp
 8003004:	6dea      	ldr	r2, [r5, #92]	; 0x5c
 8003006:	4293      	cmp	r3, r2
 8003008:	d82e      	bhi.n	8003068 <HAL_SD_ReadBlocks+0x94>
 800300a:	2303      	movs	r3, #3
 800300c:	f885 3034 	strb.w	r3, [r5, #52]	; 0x34
 8003010:	682b      	ldr	r3, [r5, #0]
 8003012:	2200      	movs	r2, #0
 8003014:	62da      	str	r2, [r3, #44]	; 0x2c
 8003016:	6c6b      	ldr	r3, [r5, #68]	; 0x44
 8003018:	2b01      	cmp	r3, #1
 800301a:	d000      	beq.n	800301e <HAL_SD_ReadBlocks+0x4a>
 800301c:	0276      	lsls	r6, r6, #9
 800301e:	f04f 33ff 	mov.w	r3, #4294967295	; 0xffffffff
 8003022:	9300      	str	r3, [sp, #0]
 8003024:	ea4f 234b 	mov.w	r3, fp, lsl #9
 8003028:	9301      	str	r3, [sp, #4]
 800302a:	2390      	movs	r3, #144	; 0x90
 800302c:	9302      	str	r3, [sp, #8]
 800302e:	2302      	movs	r3, #2
 8003030:	9303      	str	r3, [sp, #12]
 8003032:	2300      	movs	r3, #0
 8003034:	9304      	str	r3, [sp, #16]
 8003036:	2301      	movs	r3, #1
 8003038:	9305      	str	r3, [sp, #20]
 800303a:	4669      	mov	r1, sp
 800303c:	6828      	ldr	r0, [r5, #0]
 800303e:	f7ff fc47 	bl	80028d0 <SDIO_ConfigData>
 8003042:	f1bb 0f01 	cmp.w	fp, #1
 8003046:	d914      	bls.n	8003072 <HAL_SD_ReadBlocks+0x9e>
 8003048:	2302      	movs	r3, #2
 800304a:	632b      	str	r3, [r5, #48]	; 0x30
 800304c:	4631      	mov	r1, r6
 800304e:	6828      	ldr	r0, [r5, #0]
 8003050:	f7ff fc80 	bl	8002954 <SDMMC_CmdReadMultiBlock>
 8003054:	b9a0      	cbnz	r0, 8003080 <HAL_SD_ReadBlocks+0xac>
 8003056:	f8dd 8004 	ldr.w	r8, [sp, #4]
 800305a:	e038      	b.n	80030ce <HAL_SD_ReadBlocks+0xfa>
 800305c:	6bab      	ldr	r3, [r5, #56]	; 0x38
 800305e:	f043 6300 	orr.w	r3, r3, #134217728	; 0x8000000
 8003062:	63ab      	str	r3, [r5, #56]	; 0x38
 8003064:	2701      	movs	r7, #1
 8003066:	e0d3      	b.n	8003210 <HAL_SD_ReadBlocks+0x23c>
 8003068:	6bab      	ldr	r3, [r5, #56]	; 0x38
 800306a:	f043 7300 	orr.w	r3, r3, #33554432	; 0x2000000
 800306e:	63ab      	str	r3, [r5, #56]	; 0x38
 8003070:	e0ce      	b.n	8003210 <HAL_SD_ReadBlocks+0x23c>
 8003072:	2301      	movs	r3, #1
 8003074:	632b      	str	r3, [r5, #48]	; 0x30
 8003076:	4631      	mov	r1, r6
 8003078:	6828      	ldr	r0, [r5, #0]
 800307a:	f7ff fc53 	bl	8002924 <SDMMC_CmdReadSingleBlock>
 800307e:	e7e9      	b.n	8003054 <HAL_SD_ReadBlocks+0x80>
 8003080:	682b      	ldr	r3, [r5, #0]
 8003082:	4a65      	ldr	r2, [pc, #404]	; (8003218 <HAL_SD_ReadBlocks+0x244>)
 8003084:	639a      	str	r2, [r3, #56]	; 0x38
 8003086:	6bab      	ldr	r3, [r5, #56]	; 0x38
 8003088:	4318      	orrs	r0, r3
 800308a:	63a8      	str	r0, [r5, #56]	; 0x38
 800308c:	2301      	movs	r3, #1
 800308e:	f885 3034 	strb.w	r3, [r5, #52]	; 0x34
 8003092:	2300      	movs	r3, #0
 8003094:	632b      	str	r3, [r5, #48]	; 0x30
 8003096:	e0bb      	b.n	8003210 <HAL_SD_ReadBlocks+0x23c>
 8003098:	6828      	ldr	r0, [r5, #0]
 800309a:	f7ff faf3 	bl	8002684 <SDIO_ReadFIFO>
 800309e:	7020      	strb	r0, [r4, #0]
 80030a0:	f3c0 2307 	ubfx	r3, r0, #8, #8
 80030a4:	7063      	strb	r3, [r4, #1]
 80030a6:	f3c0 4307 	ubfx	r3, r0, #16, #8
 80030aa:	70a3      	strb	r3, [r4, #2]
 80030ac:	0e00      	lsrs	r0, r0, #24
 80030ae:	70e0      	strb	r0, [r4, #3]
 80030b0:	3404      	adds	r4, #4
 80030b2:	f1a8 0804 	sub.w	r8, r8, #4
 80030b6:	3601      	adds	r6, #1
 80030b8:	2e07      	cmp	r6, #7
 80030ba:	d9ed      	bls.n	8003098 <HAL_SD_ReadBlocks+0xc4>
 80030bc:	f7ff fa0a 	bl	80024d4 <HAL_GetTick>
 80030c0:	eba0 0009 	sub.w	r0, r0, r9
 80030c4:	4550      	cmp	r0, sl
 80030c6:	d210      	bcs.n	80030ea <HAL_SD_ReadBlocks+0x116>
 80030c8:	f1ba 0f00 	cmp.w	sl, #0
 80030cc:	d00d      	beq.n	80030ea <HAL_SD_ReadBlocks+0x116>
 80030ce:	6828      	ldr	r0, [r5, #0]
 80030d0:	6b46      	ldr	r6, [r0, #52]	; 0x34
 80030d2:	f240 332a 	movw	r3, #810	; 0x32a
 80030d6:	401e      	ands	r6, r3
 80030d8:	d115      	bne.n	8003106 <HAL_SD_ReadBlocks+0x132>
 80030da:	6b43      	ldr	r3, [r0, #52]	; 0x34
 80030dc:	f413 4f00 	tst.w	r3, #32768	; 0x8000
 80030e0:	d0ec      	beq.n	80030bc <HAL_SD_ReadBlocks+0xe8>
 80030e2:	f1b8 0f00 	cmp.w	r8, #0
 80030e6:	d0e9      	beq.n	80030bc <HAL_SD_ReadBlocks+0xe8>
 80030e8:	e7e6      	b.n	80030b8 <HAL_SD_ReadBlocks+0xe4>
 80030ea:	682b      	ldr	r3, [r5, #0]
 80030ec:	4a4a      	ldr	r2, [pc, #296]	; (8003218 <HAL_SD_ReadBlocks+0x244>)
 80030ee:	639a      	str	r2, [r3, #56]	; 0x38
 80030f0:	6bab      	ldr	r3, [r5, #56]	; 0x38
 80030f2:	f043 4300 	orr.w	r3, r3, #2147483648	; 0x80000000
 80030f6:	63ab      	str	r3, [r5, #56]	; 0x38
 80030f8:	2301      	movs	r3, #1
 80030fa:	f885 3034 	strb.w	r3, [r5, #52]	; 0x34
 80030fe:	2300      	movs	r3, #0
 8003100:	632b      	str	r3, [r5, #48]	; 0x30
 8003102:	2703      	movs	r7, #3
 8003104:	e084      	b.n	8003210 <HAL_SD_ReadBlocks+0x23c>
 8003106:	6b43      	ldr	r3, [r0, #52]	; 0x34
 8003108:	f413 7f80 	tst.w	r3, #256	; 0x100
 800310c:	d005      	beq.n	800311a <HAL_SD_ReadBlocks+0x146>
 800310e:	f1bb 0f01 	cmp.w	fp, #1
 8003112:	d902      	bls.n	800311a <HAL_SD_ReadBlocks+0x146>
 8003114:	6c6b      	ldr	r3, [r5, #68]	; 0x44
 8003116:	2b03      	cmp	r3, #3
 8003118:	d138      	bne.n	800318c <HAL_SD_ReadBlocks+0x1b8>
 800311a:	682b      	ldr	r3, [r5, #0]
 800311c:	6b5a      	ldr	r2, [r3, #52]	; 0x34
 800311e:	f012 0f08 	tst.w	r2, #8
 8003122:	d144      	bne.n	80031ae <HAL_SD_ReadBlocks+0x1da>
 8003124:	6b5a      	ldr	r2, [r3, #52]	; 0x34
 8003126:	f012 0f02 	tst.w	r2, #2
 800312a:	d14c      	bne.n	80031c6 <HAL_SD_ReadBlocks+0x1f2>
 800312c:	6b5a      	ldr	r2, [r3, #52]	; 0x34
 800312e:	f012 0f20 	tst.w	r2, #32
 8003132:	d154      	bne.n	80031de <HAL_SD_ReadBlocks+0x20a>
 8003134:	6828      	ldr	r0, [r5, #0]
 8003136:	6b43      	ldr	r3, [r0, #52]	; 0x34
 8003138:	f413 1f00 	tst.w	r3, #2097152	; 0x200000
 800313c:	d05b      	beq.n	80031f6 <HAL_SD_ReadBlocks+0x222>
 800313e:	f1b8 0f00 	cmp.w	r8, #0
 8003142:	d058      	beq.n	80031f6 <HAL_SD_ReadBlocks+0x222>
 8003144:	f7ff fa9e 	bl	8002684 <SDIO_ReadFIFO>
 8003148:	7020      	strb	r0, [r4, #0]
 800314a:	f3c0 2307 	ubfx	r3, r0, #8, #8
 800314e:	7063      	strb	r3, [r4, #1]
 8003150:	f3c0 4307 	ubfx	r3, r0, #16, #8
 8003154:	70a3      	strb	r3, [r4, #2]
 8003156:	0e00      	lsrs	r0, r0, #24
 8003158:	70e0      	strb	r0, [r4, #3]
 800315a:	3404      	adds	r4, #4
 800315c:	f1a8 0804 	sub.w	r8, r8, #4
 8003160:	f7ff f9b8 	bl	80024d4 <HAL_GetTick>
 8003164:	eba0 0009 	sub.w	r0, r0, r9
 8003168:	4550      	cmp	r0, sl
 800316a:	d202      	bcs.n	8003172 <HAL_SD_ReadBlocks+0x19e>
 800316c:	f1ba 0f00 	cmp.w	sl, #0
 8003170:	d1e0      	bne.n	8003134 <HAL_SD_ReadBlocks+0x160>
 8003172:	682b      	ldr	r3, [r5, #0]
 8003174:	4a28      	ldr	r2, [pc, #160]	; (8003218 <HAL_SD_ReadBlocks+0x244>)
 8003176:	639a      	str	r2, [r3, #56]	; 0x38
 8003178:	6bab      	ldr	r3, [r5, #56]	; 0x38
 800317a:	f043 4300 	orr.w	r3, r3, #2147483648	; 0x80000000
 800317e:	63ab      	str	r3, [r5, #56]	; 0x38
 8003180:	2301      	movs	r3, #1
 8003182:	f885 3034 	strb.w	r3, [r5, #52]	; 0x34
 8003186:	2300      	movs	r3, #0
 8003188:	632b      	str	r3, [r5, #48]	; 0x30
 800318a:	e041      	b.n	8003210 <HAL_SD_ReadBlocks+0x23c>
 800318c:	f7ff fc2a 	bl	80029e4 <SDMMC_CmdStopTransfer>
 8003190:	4603      	mov	r3, r0
 8003192:	2800      	cmp	r0, #0
 8003194:	d0c1      	beq.n	800311a <HAL_SD_ReadBlocks+0x146>
 8003196:	682a      	ldr	r2, [r5, #0]
 8003198:	491f      	ldr	r1, [pc, #124]	; (8003218 <HAL_SD_ReadBlocks+0x244>)
 800319a:	6391      	str	r1, [r2, #56]	; 0x38
 800319c:	6baa      	ldr	r2, [r5, #56]	; 0x38
 800319e:	4313      	orrs	r3, r2
 80031a0:	63ab      	str	r3, [r5, #56]	; 0x38
 80031a2:	2301      	movs	r3, #1
 80031a4:	f885 3034 	strb.w	r3, [r5, #52]	; 0x34
 80031a8:	2300      	movs	r3, #0
 80031aa:	632b      	str	r3, [r5, #48]	; 0x30
 80031ac:	e030      	b.n	8003210 <HAL_SD_ReadBlocks+0x23c>
 80031ae:	4a1a      	ldr	r2, [pc, #104]	; (8003218 <HAL_SD_ReadBlocks+0x244>)
 80031b0:	639a      	str	r2, [r3, #56]	; 0x38
 80031b2:	6bab      	ldr	r3, [r5, #56]	; 0x38
 80031b4:	f043 0308 	orr.w	r3, r3, #8
 80031b8:	63ab      	str	r3, [r5, #56]	; 0x38
 80031ba:	2301      	movs	r3, #1
 80031bc:	f885 3034 	strb.w	r3, [r5, #52]	; 0x34
 80031c0:	2300      	movs	r3, #0
 80031c2:	632b      	str	r3, [r5, #48]	; 0x30
 80031c4:	e024      	b.n	8003210 <HAL_SD_ReadBlocks+0x23c>
 80031c6:	4a14      	ldr	r2, [pc, #80]	; (8003218 <HAL_SD_ReadBlocks+0x244>)
 80031c8:	639a      	str	r2, [r3, #56]	; 0x38
 80031ca:	6bab      	ldr	r3, [r5, #56]	; 0x38
 80031cc:	f043 0302 	orr.w	r3, r3, #2
 80031d0:	63ab      	str	r3, [r5, #56]	; 0x38
 80031d2:	2301      	movs	r3, #1
 80031d4:	f885 3034 	strb.w	r3, [r5, #52]	; 0x34
 80031d8:	2300      	movs	r3, #0
 80031da:	632b      	str	r3, [r5, #48]	; 0x30
 80031dc:	e018      	b.n	8003210 <HAL_SD_ReadBlocks+0x23c>
 80031de:	4a0e      	ldr	r2, [pc, #56]	; (8003218 <HAL_SD_ReadBlocks+0x244>)
 80031e0:	639a      	str	r2, [r3, #56]	; 0x38
 80031e2:	6bab      	ldr	r3, [r5, #56]	; 0x38
 80031e4:	f043 0320 	orr.w	r3, r3, #32
 80031e8:	63ab      	str	r3, [r5, #56]	; 0x38
 80031ea:	2301      	movs	r3, #1
 80031ec:	f885 3034 	strb.w	r3, [r5, #52]	; 0x34
 80031f0:	2300      	movs	r3, #0
 80031f2:	632b      	str	r3, [r5, #48]	; 0x30
 80031f4:	e00c      	b.n	8003210 <HAL_SD_ReadBlocks+0x23c>
 80031f6:	f240 533a 	movw	r3, #1338	; 0x53a
 80031fa:	6383      	str	r3, [r0, #56]	; 0x38
 80031fc:	2301      	movs	r3, #1
 80031fe:	f885 3034 	strb.w	r3, [r5, #52]	; 0x34
 8003202:	2700      	movs	r7, #0
 8003204:	e004      	b.n	8003210 <HAL_SD_ReadBlocks+0x23c>
 8003206:	6bab      	ldr	r3, [r5, #56]	; 0x38
 8003208:	f043 5300 	orr.w	r3, r3, #536870912	; 0x20000000
 800320c:	63ab      	str	r3, [r5, #56]	; 0x38
 800320e:	2701      	movs	r7, #1
 8003210:	4638      	mov	r0, r7
 8003212:	b007      	add	sp, #28
 8003214:	e8bd 8ff0 	ldmia.w	sp!, {r4, r5, r6, r7, r8, r9, sl, fp, pc}
 8003218:	004005ff 	.word	0x004005ff

0800321c <HAL_SD_WriteBlocks>:
 800321c:	e92d 4ff0 	stmdb	sp!, {r4, r5, r6, r7, r8, r9, sl, fp, lr}
 8003220:	b08b      	sub	sp, #44	; 0x2c
 8003222:	4605      	mov	r5, r0
 8003224:	460c      	mov	r4, r1
 8003226:	4616      	mov	r6, r2
 8003228:	469b      	mov	fp, r3
 800322a:	f8dd a050 	ldr.w	sl, [sp, #80]	; 0x50
 800322e:	f7ff f951 	bl	80024d4 <HAL_GetTick>
 8003232:	2c00      	cmp	r4, #0
 8003234:	d037      	beq.n	80032a6 <HAL_SD_WriteBlocks+0x8a>
 8003236:	4680      	mov	r8, r0
 8003238:	f895 7034 	ldrb.w	r7, [r5, #52]	; 0x34
 800323c:	b2ff      	uxtb	r7, r7
 800323e:	2f01      	cmp	r7, #1
 8003240:	f040 80df 	bne.w	8003402 <HAL_SD_WriteBlocks+0x1e6>
 8003244:	2300      	movs	r3, #0
 8003246:	63ab      	str	r3, [r5, #56]	; 0x38
 8003248:	eb06 030b 	add.w	r3, r6, fp
 800324c:	6dea      	ldr	r2, [r5, #92]	; 0x5c
 800324e:	4293      	cmp	r3, r2
 8003250:	d82f      	bhi.n	80032b2 <HAL_SD_WriteBlocks+0x96>
 8003252:	2303      	movs	r3, #3
 8003254:	f885 3034 	strb.w	r3, [r5, #52]	; 0x34
 8003258:	682b      	ldr	r3, [r5, #0]
 800325a:	2200      	movs	r2, #0
 800325c:	62da      	str	r2, [r3, #44]	; 0x2c
 800325e:	6c6b      	ldr	r3, [r5, #68]	; 0x44
 8003260:	2b01      	cmp	r3, #1
 8003262:	d000      	beq.n	8003266 <HAL_SD_WriteBlocks+0x4a>
 8003264:	0276      	lsls	r6, r6, #9
 8003266:	f04f 33ff 	mov.w	r3, #4294967295	; 0xffffffff
 800326a:	9304      	str	r3, [sp, #16]
 800326c:	ea4f 234b 	mov.w	r3, fp, lsl #9
 8003270:	9305      	str	r3, [sp, #20]
 8003272:	2390      	movs	r3, #144	; 0x90
 8003274:	9306      	str	r3, [sp, #24]
 8003276:	2300      	movs	r3, #0
 8003278:	9307      	str	r3, [sp, #28]
 800327a:	9308      	str	r3, [sp, #32]
 800327c:	2301      	movs	r3, #1
 800327e:	9309      	str	r3, [sp, #36]	; 0x24
 8003280:	a904      	add	r1, sp, #16
 8003282:	6828      	ldr	r0, [r5, #0]
 8003284:	f7ff fb24 	bl	80028d0 <SDIO_ConfigData>
 8003288:	f1bb 0f01 	cmp.w	fp, #1
 800328c:	d916      	bls.n	80032bc <HAL_SD_WriteBlocks+0xa0>
 800328e:	2320      	movs	r3, #32
 8003290:	632b      	str	r3, [r5, #48]	; 0x30
 8003292:	4631      	mov	r1, r6
 8003294:	6828      	ldr	r0, [r5, #0]
 8003296:	f7ff fb8d 	bl	80029b4 <SDMMC_CmdWriteMultiBlock>
 800329a:	9001      	str	r0, [sp, #4]
 800329c:	9b01      	ldr	r3, [sp, #4]
 800329e:	b9ab      	cbnz	r3, 80032cc <HAL_SD_WriteBlocks+0xb0>
 80032a0:	f8dd 9014 	ldr.w	r9, [sp, #20]
 80032a4:	e03d      	b.n	8003322 <HAL_SD_WriteBlocks+0x106>
 80032a6:	6bab      	ldr	r3, [r5, #56]	; 0x38
 80032a8:	f043 6300 	orr.w	r3, r3, #134217728	; 0x8000000
 80032ac:	63ab      	str	r3, [r5, #56]	; 0x38
 80032ae:	2701      	movs	r7, #1
 80032b0:	e0ac      	b.n	800340c <HAL_SD_WriteBlocks+0x1f0>
 80032b2:	6bab      	ldr	r3, [r5, #56]	; 0x38
 80032b4:	f043 7300 	orr.w	r3, r3, #33554432	; 0x2000000
 80032b8:	63ab      	str	r3, [r5, #56]	; 0x38
 80032ba:	e0a7      	b.n	800340c <HAL_SD_WriteBlocks+0x1f0>
 80032bc:	2310      	movs	r3, #16
 80032be:	632b      	str	r3, [r5, #48]	; 0x30
 80032c0:	4631      	mov	r1, r6
 80032c2:	6828      	ldr	r0, [r5, #0]
 80032c4:	f7ff fb5e 	bl	8002984 <SDMMC_CmdWriteSingleBlock>
 80032c8:	9001      	str	r0, [sp, #4]
 80032ca:	e7e7      	b.n	800329c <HAL_SD_WriteBlocks+0x80>
 80032cc:	682b      	ldr	r3, [r5, #0]
 80032ce:	4a51      	ldr	r2, [pc, #324]	; (8003414 <HAL_SD_WriteBlocks+0x1f8>)
 80032d0:	639a      	str	r2, [r3, #56]	; 0x38
 80032d2:	6ba8      	ldr	r0, [r5, #56]	; 0x38
 80032d4:	9b01      	ldr	r3, [sp, #4]
 80032d6:	4318      	orrs	r0, r3
 80032d8:	63a8      	str	r0, [r5, #56]	; 0x38
 80032da:	2301      	movs	r3, #1
 80032dc:	f885 3034 	strb.w	r3, [r5, #52]	; 0x34
 80032e0:	2300      	movs	r3, #0
 80032e2:	632b      	str	r3, [r5, #48]	; 0x30
 80032e4:	e092      	b.n	800340c <HAL_SD_WriteBlocks+0x1f0>
 80032e6:	7823      	ldrb	r3, [r4, #0]
 80032e8:	7862      	ldrb	r2, [r4, #1]
 80032ea:	ea43 2302 	orr.w	r3, r3, r2, lsl #8
 80032ee:	78a2      	ldrb	r2, [r4, #2]
 80032f0:	ea43 4302 	orr.w	r3, r3, r2, lsl #16
 80032f4:	78e2      	ldrb	r2, [r4, #3]
 80032f6:	ea43 6302 	orr.w	r3, r3, r2, lsl #24
 80032fa:	9303      	str	r3, [sp, #12]
 80032fc:	3404      	adds	r4, #4
 80032fe:	f1a9 0904 	sub.w	r9, r9, #4
 8003302:	a903      	add	r1, sp, #12
 8003304:	6828      	ldr	r0, [r5, #0]
 8003306:	f7ff f9c0 	bl	800268a <SDIO_WriteFIFO>
 800330a:	3601      	adds	r6, #1
 800330c:	2e07      	cmp	r6, #7
 800330e:	d9ea      	bls.n	80032e6 <HAL_SD_WriteBlocks+0xca>
 8003310:	f7ff f8e0 	bl	80024d4 <HAL_GetTick>
 8003314:	eba0 0008 	sub.w	r0, r0, r8
 8003318:	4550      	cmp	r0, sl
 800331a:	d210      	bcs.n	800333e <HAL_SD_WriteBlocks+0x122>
 800331c:	f1ba 0f00 	cmp.w	sl, #0
 8003320:	d00d      	beq.n	800333e <HAL_SD_WriteBlocks+0x122>
 8003322:	6828      	ldr	r0, [r5, #0]
 8003324:	6b46      	ldr	r6, [r0, #52]	; 0x34
 8003326:	f240 331a 	movw	r3, #794	; 0x31a
 800332a:	401e      	ands	r6, r3
 800332c:	d115      	bne.n	800335a <HAL_SD_WriteBlocks+0x13e>
 800332e:	6b43      	ldr	r3, [r0, #52]	; 0x34
 8003330:	f413 4f80 	tst.w	r3, #16384	; 0x4000
 8003334:	d0ec      	beq.n	8003310 <HAL_SD_WriteBlocks+0xf4>
 8003336:	f1b9 0f00 	cmp.w	r9, #0
 800333a:	d0e9      	beq.n	8003310 <HAL_SD_WriteBlocks+0xf4>
 800333c:	e7e6      	b.n	800330c <HAL_SD_WriteBlocks+0xf0>
 800333e:	682b      	ldr	r3, [r5, #0]
 8003340:	4a34      	ldr	r2, [pc, #208]	; (8003414 <HAL_SD_WriteBlocks+0x1f8>)
 8003342:	639a      	str	r2, [r3, #56]	; 0x38
 8003344:	6ba8      	ldr	r0, [r5, #56]	; 0x38
 8003346:	9b01      	ldr	r3, [sp, #4]
 8003348:	4318      	orrs	r0, r3
 800334a:	63a8      	str	r0, [r5, #56]	; 0x38
 800334c:	2301      	movs	r3, #1
 800334e:	f885 3034 	strb.w	r3, [r5, #52]	; 0x34
 8003352:	2300      	movs	r3, #0
 8003354:	632b      	str	r3, [r5, #48]	; 0x30
 8003356:	2703      	movs	r7, #3
 8003358:	e058      	b.n	800340c <HAL_SD_WriteBlocks+0x1f0>
 800335a:	6b43      	ldr	r3, [r0, #52]	; 0x34
 800335c:	f413 7f80 	tst.w	r3, #256	; 0x100
 8003360:	d005      	beq.n	800336e <HAL_SD_WriteBlocks+0x152>
 8003362:	f1bb 0f01 	cmp.w	fp, #1
 8003366:	d902      	bls.n	800336e <HAL_SD_WriteBlocks+0x152>
 8003368:	6c6b      	ldr	r3, [r5, #68]	; 0x44
 800336a:	2b03      	cmp	r3, #3
 800336c:	d118      	bne.n	80033a0 <HAL_SD_WriteBlocks+0x184>
 800336e:	682b      	ldr	r3, [r5, #0]
 8003370:	6b5a      	ldr	r2, [r3, #52]	; 0x34
 8003372:	f012 0f08 	tst.w	r2, #8
 8003376:	d124      	bne.n	80033c2 <HAL_SD_WriteBlocks+0x1a6>
 8003378:	6b5a      	ldr	r2, [r3, #52]	; 0x34
 800337a:	f012 0f02 	tst.w	r2, #2
 800337e:	d12c      	bne.n	80033da <HAL_SD_WriteBlocks+0x1be>
 8003380:	6b5a      	ldr	r2, [r3, #52]	; 0x34
 8003382:	f012 0f10 	tst.w	r2, #16
 8003386:	d034      	beq.n	80033f2 <HAL_SD_WriteBlocks+0x1d6>
 8003388:	4a22      	ldr	r2, [pc, #136]	; (8003414 <HAL_SD_WriteBlocks+0x1f8>)
 800338a:	639a      	str	r2, [r3, #56]	; 0x38
 800338c:	6bab      	ldr	r3, [r5, #56]	; 0x38
 800338e:	f043 0310 	orr.w	r3, r3, #16
 8003392:	63ab      	str	r3, [r5, #56]	; 0x38
 8003394:	2301      	movs	r3, #1
 8003396:	f885 3034 	strb.w	r3, [r5, #52]	; 0x34
 800339a:	2300      	movs	r3, #0
 800339c:	632b      	str	r3, [r5, #48]	; 0x30
 800339e:	e035      	b.n	800340c <HAL_SD_WriteBlocks+0x1f0>
 80033a0:	f7ff fb20 	bl	80029e4 <SDMMC_CmdStopTransfer>
 80033a4:	4603      	mov	r3, r0
 80033a6:	2800      	cmp	r0, #0
 80033a8:	d0e1      	beq.n	800336e <HAL_SD_WriteBlocks+0x152>
 80033aa:	682a      	ldr	r2, [r5, #0]
 80033ac:	4919      	ldr	r1, [pc, #100]	; (8003414 <HAL_SD_WriteBlocks+0x1f8>)
 80033ae:	6391      	str	r1, [r2, #56]	; 0x38
 80033b0:	6baa      	ldr	r2, [r5, #56]	; 0x38
 80033b2:	4313      	orrs	r3, r2
 80033b4:	63ab      	str	r3, [r5, #56]	; 0x38
 80033b6:	2301      	movs	r3, #1
 80033b8:	f885 3034 	strb.w	r3, [r5, #52]	; 0x34
 80033bc:	2300      	movs	r3, #0
 80033be:	632b      	str	r3, [r5, #48]	; 0x30
 80033c0:	e024      	b.n	800340c <HAL_SD_WriteBlocks+0x1f0>
 80033c2:	4a14      	ldr	r2, [pc, #80]	; (8003414 <HAL_SD_WriteBlocks+0x1f8>)
 80033c4:	639a      	str	r2, [r3, #56]	; 0x38
 80033c6:	6bab      	ldr	r3, [r5, #56]	; 0x38
 80033c8:	f043 0308 	orr.w	r3, r3, #8
 80033cc:	63ab      	str	r3, [r5, #56]	; 0x38
 80033ce:	2301      	movs	r3, #1
 80033d0:	f885 3034 	strb.w	r3, [r5, #52]	; 0x34
 80033d4:	2300      	movs	r3, #0
 80033d6:	632b      	str	r3, [r5, #48]	; 0x30
 80033d8:	e018      	b.n	800340c <HAL_SD_WriteBlocks+0x1f0>
 80033da:	4a0e      	ldr	r2, [pc, #56]	; (8003414 <HAL_SD_WriteBlocks+0x1f8>)
 80033dc:	639a      	str	r2, [r3, #56]	; 0x38
 80033de:	6bab      	ldr	r3, [r5, #56]	; 0x38
 80033e0:	f043 0302 	orr.w	r3, r3, #2
 80033e4:	63ab      	str	r3, [r5, #56]	; 0x38
 80033e6:	2301      	movs	r3, #1
 80033e8:	f885 3034 	strb.w	r3, [r5, #52]	; 0x34
 80033ec:	2300      	movs	r3, #0
 80033ee:	632b      	str	r3, [r5, #48]	; 0x30
 80033f0:	e00c      	b.n	800340c <HAL_SD_WriteBlocks+0x1f0>
 80033f2:	f240 523a 	movw	r2, #1338	; 0x53a
 80033f6:	639a      	str	r2, [r3, #56]	; 0x38
 80033f8:	2301      	movs	r3, #1
 80033fa:	f885 3034 	strb.w	r3, [r5, #52]	; 0x34
 80033fe:	2700      	movs	r7, #0
 8003400:	e004      	b.n	800340c <HAL_SD_WriteBlocks+0x1f0>
 8003402:	6bab      	ldr	r3, [r5, #56]	; 0x38
 8003404:	f043 5300 	orr.w	r3, r3, #536870912	; 0x20000000
 8003408:	63ab      	str	r3, [r5, #56]	; 0x38
 800340a:	2701      	movs	r7, #1
 800340c:	4638      	mov	r0, r7
 800340e:	b00b      	add	sp, #44	; 0x2c
 8003410:	e8bd 8ff0 	ldmia.w	sp!, {r4, r5, r6, r7, r8, r9, sl, fp, pc}
 8003414:	004005ff 	.word	0x004005ff

08003418 <HAL_SD_GetCardCID>:
 8003418:	f890 3077 	ldrb.w	r3, [r0, #119]	; 0x77
 800341c:	700b      	strb	r3, [r1, #0]
 800341e:	6f43      	ldr	r3, [r0, #116]	; 0x74
 8003420:	f3c3 230f 	ubfx	r3, r3, #8, #16
 8003424:	804b      	strh	r3, [r1, #2]
 8003426:	6f42      	ldr	r2, [r0, #116]	; 0x74
 8003428:	6f83      	ldr	r3, [r0, #120]	; 0x78
 800342a:	0a1b      	lsrs	r3, r3, #8
 800342c:	ea43 6302 	orr.w	r3, r3, r2, lsl #24
 8003430:	604b      	str	r3, [r1, #4]
 8003432:	f890 3078 	ldrb.w	r3, [r0, #120]	; 0x78
 8003436:	720b      	strb	r3, [r1, #8]
 8003438:	f890 307f 	ldrb.w	r3, [r0, #127]	; 0x7f
 800343c:	724b      	strb	r3, [r1, #9]
 800343e:	6fc2      	ldr	r2, [r0, #124]	; 0x7c
 8003440:	f890 3083 	ldrb.w	r3, [r0, #131]	; 0x83
 8003444:	ea43 2302 	orr.w	r3, r3, r2, lsl #8
 8003448:	60cb      	str	r3, [r1, #12]
 800344a:	f8d0 3080 	ldr.w	r3, [r0, #128]	; 0x80
 800344e:	f3c3 5303 	ubfx	r3, r3, #20, #4
 8003452:	740b      	strb	r3, [r1, #16]
 8003454:	f8d0 3080 	ldr.w	r3, [r0, #128]	; 0x80
 8003458:	f3c3 230b 	ubfx	r3, r3, #8, #12
 800345c:	824b      	strh	r3, [r1, #18]
 800345e:	f8d0 3080 	ldr.w	r3, [r0, #128]	; 0x80
 8003462:	f3c3 0346 	ubfx	r3, r3, #1, #7
 8003466:	750b      	strb	r3, [r1, #20]
 8003468:	2301      	movs	r3, #1
 800346a:	754b      	strb	r3, [r1, #21]
 800346c:	2000      	movs	r0, #0
 800346e:	4770      	bx	lr

08003470 <HAL_SD_GetCardCSD>:
 8003470:	b410      	push	{r4}
 8003472:	6e43      	ldr	r3, [r0, #100]	; 0x64
 8003474:	0f9b      	lsrs	r3, r3, #30
 8003476:	700b      	strb	r3, [r1, #0]
 8003478:	6e43      	ldr	r3, [r0, #100]	; 0x64
 800347a:	f3c3 6383 	ubfx	r3, r3, #26, #4
 800347e:	704b      	strb	r3, [r1, #1]
 8003480:	f890 3067 	ldrb.w	r3, [r0, #103]	; 0x67
 8003484:	f003 0303 	and.w	r3, r3, #3
 8003488:	708b      	strb	r3, [r1, #2]
 800348a:	f890 3066 	ldrb.w	r3, [r0, #102]	; 0x66
 800348e:	70cb      	strb	r3, [r1, #3]
 8003490:	f890 3065 	ldrb.w	r3, [r0, #101]	; 0x65
 8003494:	710b      	strb	r3, [r1, #4]
 8003496:	f890 3064 	ldrb.w	r3, [r0, #100]	; 0x64
 800349a:	714b      	strb	r3, [r1, #5]
 800349c:	6e83      	ldr	r3, [r0, #104]	; 0x68
 800349e:	0d1b      	lsrs	r3, r3, #20
 80034a0:	80cb      	strh	r3, [r1, #6]
 80034a2:	f8b0 306a 	ldrh.w	r3, [r0, #106]	; 0x6a
 80034a6:	f003 030f 	and.w	r3, r3, #15
 80034aa:	720b      	strb	r3, [r1, #8]
 80034ac:	6e83      	ldr	r3, [r0, #104]	; 0x68
 80034ae:	f3c3 33c0 	ubfx	r3, r3, #15, #1
 80034b2:	724b      	strb	r3, [r1, #9]
 80034b4:	6e83      	ldr	r3, [r0, #104]	; 0x68
 80034b6:	f3c3 3380 	ubfx	r3, r3, #14, #1
 80034ba:	728b      	strb	r3, [r1, #10]
 80034bc:	6e83      	ldr	r3, [r0, #104]	; 0x68
 80034be:	f3c3 3340 	ubfx	r3, r3, #13, #1
 80034c2:	72cb      	strb	r3, [r1, #11]
 80034c4:	6e83      	ldr	r3, [r0, #104]	; 0x68
 80034c6:	f3c3 3300 	ubfx	r3, r3, #12, #1
 80034ca:	730b      	strb	r3, [r1, #12]
 80034cc:	2300      	movs	r3, #0
 80034ce:	734b      	strb	r3, [r1, #13]
 80034d0:	6c43      	ldr	r3, [r0, #68]	; 0x44
 80034d2:	2b00      	cmp	r3, #0
 80034d4:	f040 8088 	bne.w	80035e8 <HAL_SD_GetCardCSD+0x178>
 80034d8:	6e82      	ldr	r2, [r0, #104]	; 0x68
 80034da:	f640 73fc 	movw	r3, #4092	; 0xffc
 80034de:	ea03 0382 	and.w	r3, r3, r2, lsl #2
 80034e2:	6ec2      	ldr	r2, [r0, #108]	; 0x6c
 80034e4:	ea43 7392 	orr.w	r3, r3, r2, lsr #30
 80034e8:	610b      	str	r3, [r1, #16]
 80034ea:	6ec3      	ldr	r3, [r0, #108]	; 0x6c
 80034ec:	f3c3 63c2 	ubfx	r3, r3, #27, #3
 80034f0:	750b      	strb	r3, [r1, #20]
 80034f2:	f890 306f 	ldrb.w	r3, [r0, #111]	; 0x6f
 80034f6:	f003 0307 	and.w	r3, r3, #7
 80034fa:	754b      	strb	r3, [r1, #21]
 80034fc:	6ec3      	ldr	r3, [r0, #108]	; 0x6c
 80034fe:	f3c3 5342 	ubfx	r3, r3, #21, #3
 8003502:	758b      	strb	r3, [r1, #22]
 8003504:	6ec3      	ldr	r3, [r0, #108]	; 0x6c
 8003506:	f3c3 4382 	ubfx	r3, r3, #18, #3
 800350a:	75cb      	strb	r3, [r1, #23]
 800350c:	6ec3      	ldr	r3, [r0, #108]	; 0x6c
 800350e:	f3c3 33c2 	ubfx	r3, r3, #15, #3
 8003512:	760b      	strb	r3, [r1, #24]
 8003514:	690b      	ldr	r3, [r1, #16]
 8003516:	3301      	adds	r3, #1
 8003518:	6543      	str	r3, [r0, #84]	; 0x54
 800351a:	7e0a      	ldrb	r2, [r1, #24]
 800351c:	f002 0207 	and.w	r2, r2, #7
 8003520:	3202      	adds	r2, #2
 8003522:	fa03 f202 	lsl.w	r2, r3, r2
 8003526:	6542      	str	r2, [r0, #84]	; 0x54
 8003528:	7a0b      	ldrb	r3, [r1, #8]
 800352a:	f003 040f 	and.w	r4, r3, #15
 800352e:	2301      	movs	r3, #1
 8003530:	40a3      	lsls	r3, r4
 8003532:	6583      	str	r3, [r0, #88]	; 0x58
 8003534:	0a5b      	lsrs	r3, r3, #9
 8003536:	fb03 f302 	mul.w	r3, r3, r2
 800353a:	65c3      	str	r3, [r0, #92]	; 0x5c
 800353c:	f44f 7300 	mov.w	r3, #512	; 0x200
 8003540:	6603      	str	r3, [r0, #96]	; 0x60
 8003542:	6ec3      	ldr	r3, [r0, #108]	; 0x6c
 8003544:	f3c3 3380 	ubfx	r3, r3, #14, #1
 8003548:	764b      	strb	r3, [r1, #25]
 800354a:	6ec3      	ldr	r3, [r0, #108]	; 0x6c
 800354c:	f3c3 13c6 	ubfx	r3, r3, #7, #7
 8003550:	768b      	strb	r3, [r1, #26]
 8003552:	6ec3      	ldr	r3, [r0, #108]	; 0x6c
 8003554:	f003 037f 	and.w	r3, r3, #127	; 0x7f
 8003558:	76cb      	strb	r3, [r1, #27]
 800355a:	6f03      	ldr	r3, [r0, #112]	; 0x70
 800355c:	0fdb      	lsrs	r3, r3, #31
 800355e:	770b      	strb	r3, [r1, #28]
 8003560:	6f03      	ldr	r3, [r0, #112]	; 0x70
 8003562:	f3c3 7341 	ubfx	r3, r3, #29, #2
 8003566:	774b      	strb	r3, [r1, #29]
 8003568:	6f03      	ldr	r3, [r0, #112]	; 0x70
 800356a:	f3c3 6382 	ubfx	r3, r3, #26, #3
 800356e:	778b      	strb	r3, [r1, #30]
 8003570:	6f03      	ldr	r3, [r0, #112]	; 0x70
 8003572:	f3c3 5383 	ubfx	r3, r3, #22, #4
 8003576:	77cb      	strb	r3, [r1, #31]
 8003578:	6f03      	ldr	r3, [r0, #112]	; 0x70
 800357a:	f3c3 5340 	ubfx	r3, r3, #21, #1
 800357e:	f881 3020 	strb.w	r3, [r1, #32]
 8003582:	2300      	movs	r3, #0
 8003584:	f881 3021 	strb.w	r3, [r1, #33]	; 0x21
 8003588:	f8b0 2072 	ldrh.w	r2, [r0, #114]	; 0x72
 800358c:	f002 0201 	and.w	r2, r2, #1
 8003590:	f881 2022 	strb.w	r2, [r1, #34]	; 0x22
 8003594:	6f02      	ldr	r2, [r0, #112]	; 0x70
 8003596:	f3c2 32c0 	ubfx	r2, r2, #15, #1
 800359a:	f881 2023 	strb.w	r2, [r1, #35]	; 0x23
 800359e:	6f02      	ldr	r2, [r0, #112]	; 0x70
 80035a0:	f3c2 3280 	ubfx	r2, r2, #14, #1
 80035a4:	f881 2024 	strb.w	r2, [r1, #36]	; 0x24
 80035a8:	6f02      	ldr	r2, [r0, #112]	; 0x70
 80035aa:	f3c2 3240 	ubfx	r2, r2, #13, #1
 80035ae:	f881 2025 	strb.w	r2, [r1, #37]	; 0x25
 80035b2:	6f02      	ldr	r2, [r0, #112]	; 0x70
 80035b4:	f3c2 3200 	ubfx	r2, r2, #12, #1
 80035b8:	f881 2026 	strb.w	r2, [r1, #38]	; 0x26
 80035bc:	6f02      	ldr	r2, [r0, #112]	; 0x70
 80035be:	f3c2 2281 	ubfx	r2, r2, #10, #2
 80035c2:	f881 2027 	strb.w	r2, [r1, #39]	; 0x27
 80035c6:	6f02      	ldr	r2, [r0, #112]	; 0x70
 80035c8:	f3c2 2201 	ubfx	r2, r2, #8, #2
 80035cc:	f881 2028 	strb.w	r2, [r1, #40]	; 0x28
 80035d0:	6f02      	ldr	r2, [r0, #112]	; 0x70
 80035d2:	f3c2 0246 	ubfx	r2, r2, #1, #7
 80035d6:	f881 2029 	strb.w	r2, [r1, #41]	; 0x29
 80035da:	2201      	movs	r2, #1
 80035dc:	f881 202a 	strb.w	r2, [r1, #42]	; 0x2a
 80035e0:	4618      	mov	r0, r3
 80035e2:	f85d 4b04 	ldr.w	r4, [sp], #4
 80035e6:	4770      	bx	lr
 80035e8:	2b01      	cmp	r3, #1
 80035ea:	d111      	bne.n	8003610 <HAL_SD_GetCardCSD+0x1a0>
 80035ec:	6e83      	ldr	r3, [r0, #104]	; 0x68
 80035ee:	041b      	lsls	r3, r3, #16
 80035f0:	f403 137c 	and.w	r3, r3, #4128768	; 0x3f0000
 80035f4:	f8b0 206e 	ldrh.w	r2, [r0, #110]	; 0x6e
 80035f8:	4313      	orrs	r3, r2
 80035fa:	610b      	str	r3, [r1, #16]
 80035fc:	690b      	ldr	r3, [r1, #16]
 80035fe:	3301      	adds	r3, #1
 8003600:	029b      	lsls	r3, r3, #10
 8003602:	6543      	str	r3, [r0, #84]	; 0x54
 8003604:	65c3      	str	r3, [r0, #92]	; 0x5c
 8003606:	f44f 7300 	mov.w	r3, #512	; 0x200
 800360a:	6583      	str	r3, [r0, #88]	; 0x58
 800360c:	6603      	str	r3, [r0, #96]	; 0x60
 800360e:	e798      	b.n	8003542 <HAL_SD_GetCardCSD+0xd2>
 8003610:	6803      	ldr	r3, [r0, #0]
 8003612:	4a05      	ldr	r2, [pc, #20]	; (8003628 <HAL_SD_GetCardCSD+0x1b8>)
 8003614:	639a      	str	r2, [r3, #56]	; 0x38
 8003616:	6b83      	ldr	r3, [r0, #56]	; 0x38
 8003618:	f043 5380 	orr.w	r3, r3, #268435456	; 0x10000000
 800361c:	6383      	str	r3, [r0, #56]	; 0x38
 800361e:	2301      	movs	r3, #1
 8003620:	f880 3034 	strb.w	r3, [r0, #52]	; 0x34
 8003624:	4618      	mov	r0, r3
 8003626:	e7dc      	b.n	80035e2 <HAL_SD_GetCardCSD+0x172>
 8003628:	004005ff 	.word	0x004005ff

0800362c <SD_InitCard>:
 800362c:	b570      	push	{r4, r5, r6, lr}
 800362e:	b090      	sub	sp, #64	; 0x40
 8003630:	4604      	mov	r4, r0
 8003632:	2301      	movs	r3, #1
 8003634:	f8ad 3012 	strh.w	r3, [sp, #18]
 8003638:	6800      	ldr	r0, [r0, #0]
 800363a:	f7ff f833 	bl	80026a4 <SDIO_GetPowerState>
 800363e:	2800      	cmp	r0, #0
 8003640:	d06c      	beq.n	800371c <SD_InitCard+0xf0>
 8003642:	6c63      	ldr	r3, [r4, #68]	; 0x44
 8003644:	2b03      	cmp	r3, #3
 8003646:	d145      	bne.n	80036d4 <SD_InitCard+0xa8>
 8003648:	6c63      	ldr	r3, [r4, #68]	; 0x44
 800364a:	2b03      	cmp	r3, #3
 800364c:	d15d      	bne.n	800370a <SD_InitCard+0xde>
 800364e:	6c63      	ldr	r3, [r4, #68]	; 0x44
 8003650:	2b03      	cmp	r3, #3
 8003652:	d01d      	beq.n	8003690 <SD_InitCard+0x64>
 8003654:	f8bd 1012 	ldrh.w	r1, [sp, #18]
 8003658:	6521      	str	r1, [r4, #80]	; 0x50
 800365a:	0409      	lsls	r1, r1, #16
 800365c:	6820      	ldr	r0, [r4, #0]
 800365e:	f7ff fa93 	bl	8002b88 <SDMMC_CmdSendCSD>
 8003662:	4605      	mov	r5, r0
 8003664:	2800      	cmp	r0, #0
 8003666:	d15b      	bne.n	8003720 <SD_InitCard+0xf4>
 8003668:	2100      	movs	r1, #0
 800366a:	6820      	ldr	r0, [r4, #0]
 800366c:	f7ff f833 	bl	80026d6 <SDIO_GetResponse>
 8003670:	6660      	str	r0, [r4, #100]	; 0x64
 8003672:	2104      	movs	r1, #4
 8003674:	6820      	ldr	r0, [r4, #0]
 8003676:	f7ff f82e 	bl	80026d6 <SDIO_GetResponse>
 800367a:	66a0      	str	r0, [r4, #104]	; 0x68
 800367c:	2108      	movs	r1, #8
 800367e:	6820      	ldr	r0, [r4, #0]
 8003680:	f7ff f829 	bl	80026d6 <SDIO_GetResponse>
 8003684:	66e0      	str	r0, [r4, #108]	; 0x6c
 8003686:	210c      	movs	r1, #12
 8003688:	6820      	ldr	r0, [r4, #0]
 800368a:	f7ff f824 	bl	80026d6 <SDIO_GetResponse>
 800368e:	6720      	str	r0, [r4, #112]	; 0x70
 8003690:	2104      	movs	r1, #4
 8003692:	6820      	ldr	r0, [r4, #0]
 8003694:	f7ff f81f 	bl	80026d6 <SDIO_GetResponse>
 8003698:	0d00      	lsrs	r0, r0, #20
 800369a:	64e0      	str	r0, [r4, #76]	; 0x4c
 800369c:	a905      	add	r1, sp, #20
 800369e:	4620      	mov	r0, r4
 80036a0:	f7ff fee6 	bl	8003470 <HAL_SD_GetCardCSD>
 80036a4:	2800      	cmp	r0, #0
 80036a6:	d13e      	bne.n	8003726 <SD_InitCard+0xfa>
 80036a8:	6d22      	ldr	r2, [r4, #80]	; 0x50
 80036aa:	0412      	lsls	r2, r2, #16
 80036ac:	2300      	movs	r3, #0
 80036ae:	6820      	ldr	r0, [r4, #0]
 80036b0:	f7ff f9b2 	bl	8002a18 <SDMMC_CmdSelDesel>
 80036b4:	4605      	mov	r5, r0
 80036b6:	bb98      	cbnz	r0, 8003720 <SD_InitCard+0xf4>
 80036b8:	4623      	mov	r3, r4
 80036ba:	f853 6b10 	ldr.w	r6, [r3], #16
 80036be:	e893 0007 	ldmia.w	r3, {r0, r1, r2}
 80036c2:	e88d 0007 	stmia.w	sp, {r0, r1, r2}
 80036c6:	3404      	adds	r4, #4
 80036c8:	e894 000e 	ldmia.w	r4, {r1, r2, r3}
 80036cc:	4630      	mov	r0, r6
 80036ce:	f7fe ffbd 	bl	800264c <SDIO_Init>
 80036d2:	e025      	b.n	8003720 <SD_InitCard+0xf4>
 80036d4:	6820      	ldr	r0, [r4, #0]
 80036d6:	f7ff fa42 	bl	8002b5e <SDMMC_CmdSendCID>
 80036da:	4605      	mov	r5, r0
 80036dc:	bb00      	cbnz	r0, 8003720 <SD_InitCard+0xf4>
 80036de:	2100      	movs	r1, #0
 80036e0:	6820      	ldr	r0, [r4, #0]
 80036e2:	f7fe fff8 	bl	80026d6 <SDIO_GetResponse>
 80036e6:	6760      	str	r0, [r4, #116]	; 0x74
 80036e8:	2104      	movs	r1, #4
 80036ea:	6820      	ldr	r0, [r4, #0]
 80036ec:	f7fe fff3 	bl	80026d6 <SDIO_GetResponse>
 80036f0:	67a0      	str	r0, [r4, #120]	; 0x78
 80036f2:	2108      	movs	r1, #8
 80036f4:	6820      	ldr	r0, [r4, #0]
 80036f6:	f7fe ffee 	bl	80026d6 <SDIO_GetResponse>
 80036fa:	67e0      	str	r0, [r4, #124]	; 0x7c
 80036fc:	210c      	movs	r1, #12
 80036fe:	6820      	ldr	r0, [r4, #0]
 8003700:	f7fe ffe9 	bl	80026d6 <SDIO_GetResponse>
 8003704:	f8c4 0080 	str.w	r0, [r4, #128]	; 0x80
 8003708:	e79e      	b.n	8003648 <SD_InitCard+0x1c>
 800370a:	f10d 0112 	add.w	r1, sp, #18
 800370e:	6820      	ldr	r0, [r4, #0]
 8003710:	f7ff fa4f 	bl	8002bb2 <SDMMC_CmdSetRelAdd>
 8003714:	4605      	mov	r5, r0
 8003716:	2800      	cmp	r0, #0
 8003718:	d099      	beq.n	800364e <SD_InitCard+0x22>
 800371a:	e001      	b.n	8003720 <SD_InitCard+0xf4>
 800371c:	f04f 6580 	mov.w	r5, #67108864	; 0x4000000
 8003720:	4628      	mov	r0, r5
 8003722:	b010      	add	sp, #64	; 0x40
 8003724:	bd70      	pop	{r4, r5, r6, pc}
 8003726:	f04f 5580 	mov.w	r5, #268435456	; 0x10000000
 800372a:	e7f9      	b.n	8003720 <SD_InitCard+0xf4>

0800372c <HAL_SD_InitCard>:
 800372c:	b570      	push	{r4, r5, r6, lr}
 800372e:	b08a      	sub	sp, #40	; 0x28
 8003730:	4604      	mov	r4, r0
 8003732:	2300      	movs	r3, #0
 8003734:	9304      	str	r3, [sp, #16]
 8003736:	9305      	str	r3, [sp, #20]
 8003738:	9306      	str	r3, [sp, #24]
 800373a:	9307      	str	r3, [sp, #28]
 800373c:	9308      	str	r3, [sp, #32]
 800373e:	2376      	movs	r3, #118	; 0x76
 8003740:	9309      	str	r3, [sp, #36]	; 0x24
 8003742:	ab0a      	add	r3, sp, #40	; 0x28
 8003744:	e913 0007 	ldmdb	r3, {r0, r1, r2}
 8003748:	e88d 0007 	stmia.w	sp, {r0, r1, r2}
 800374c:	ab04      	add	r3, sp, #16
 800374e:	cb0e      	ldmia	r3, {r1, r2, r3}
 8003750:	6820      	ldr	r0, [r4, #0]
 8003752:	f7fe ff7b 	bl	800264c <SDIO_Init>
 8003756:	b118      	cbz	r0, 8003760 <HAL_SD_InitCard+0x34>
 8003758:	2501      	movs	r5, #1
 800375a:	4628      	mov	r0, r5
 800375c:	b00a      	add	sp, #40	; 0x28
 800375e:	bd70      	pop	{r4, r5, r6, pc}
 8003760:	4605      	mov	r5, r0
 8003762:	4e17      	ldr	r6, [pc, #92]	; (80037c0 <HAL_SD_InitCard+0x94>)
 8003764:	2300      	movs	r3, #0
 8003766:	6033      	str	r3, [r6, #0]
 8003768:	6820      	ldr	r0, [r4, #0]
 800376a:	f7fe ff93 	bl	8002694 <SDIO_PowerState_ON>
 800376e:	2301      	movs	r3, #1
 8003770:	6033      	str	r3, [r6, #0]
 8003772:	4620      	mov	r0, r4
 8003774:	f7ff fa66 	bl	8002c44 <SD_PowerON>
 8003778:	b130      	cbz	r0, 8003788 <HAL_SD_InitCard+0x5c>
 800377a:	2501      	movs	r5, #1
 800377c:	f884 5034 	strb.w	r5, [r4, #52]	; 0x34
 8003780:	6ba3      	ldr	r3, [r4, #56]	; 0x38
 8003782:	4303      	orrs	r3, r0
 8003784:	63a3      	str	r3, [r4, #56]	; 0x38
 8003786:	e7e8      	b.n	800375a <HAL_SD_InitCard+0x2e>
 8003788:	4620      	mov	r0, r4
 800378a:	f7ff ff4f 	bl	800362c <SD_InitCard>
 800378e:	b130      	cbz	r0, 800379e <HAL_SD_InitCard+0x72>
 8003790:	2501      	movs	r5, #1
 8003792:	f884 5034 	strb.w	r5, [r4, #52]	; 0x34
 8003796:	6ba3      	ldr	r3, [r4, #56]	; 0x38
 8003798:	4303      	orrs	r3, r0
 800379a:	63a3      	str	r3, [r4, #56]	; 0x38
 800379c:	e7dd      	b.n	800375a <HAL_SD_InitCard+0x2e>
 800379e:	f44f 7100 	mov.w	r1, #512	; 0x200
 80037a2:	6820      	ldr	r0, [r4, #0]
 80037a4:	f7ff f8a6 	bl	80028f4 <SDMMC_CmdBlockLength>
 80037a8:	2800      	cmp	r0, #0
 80037aa:	d0d6      	beq.n	800375a <HAL_SD_InitCard+0x2e>
 80037ac:	6823      	ldr	r3, [r4, #0]
 80037ae:	4905      	ldr	r1, [pc, #20]	; (80037c4 <HAL_SD_InitCard+0x98>)
 80037b0:	6399      	str	r1, [r3, #56]	; 0x38
 80037b2:	6ba3      	ldr	r3, [r4, #56]	; 0x38
 80037b4:	4303      	orrs	r3, r0
 80037b6:	63a3      	str	r3, [r4, #56]	; 0x38
 80037b8:	2501      	movs	r5, #1
 80037ba:	f884 5034 	strb.w	r5, [r4, #52]	; 0x34
 80037be:	e7cc      	b.n	800375a <HAL_SD_InitCard+0x2e>
 80037c0:	422580a0 	.word	0x422580a0
 80037c4:	004005ff 	.word	0x004005ff

080037c8 <HAL_SD_Init>:
 80037c8:	b1a8      	cbz	r0, 80037f6 <HAL_SD_Init+0x2e>
 80037ca:	b510      	push	{r4, lr}
 80037cc:	4604      	mov	r4, r0
 80037ce:	f890 3034 	ldrb.w	r3, [r0, #52]	; 0x34
 80037d2:	b163      	cbz	r3, 80037ee <HAL_SD_Init+0x26>
 80037d4:	2303      	movs	r3, #3
 80037d6:	f884 3034 	strb.w	r3, [r4, #52]	; 0x34
 80037da:	4620      	mov	r0, r4
 80037dc:	f7ff ffa6 	bl	800372c <HAL_SD_InitCard>
 80037e0:	b958      	cbnz	r0, 80037fa <HAL_SD_Init+0x32>
 80037e2:	63a0      	str	r0, [r4, #56]	; 0x38
 80037e4:	6320      	str	r0, [r4, #48]	; 0x30
 80037e6:	2301      	movs	r3, #1
 80037e8:	f884 3034 	strb.w	r3, [r4, #52]	; 0x34
 80037ec:	bd10      	pop	{r4, pc}
 80037ee:	7703      	strb	r3, [r0, #28]
 80037f0:	f7fd fdfc 	bl	80013ec <HAL_SD_MspInit>
 80037f4:	e7ee      	b.n	80037d4 <HAL_SD_Init+0xc>
 80037f6:	2001      	movs	r0, #1
 80037f8:	4770      	bx	lr
 80037fa:	2001      	movs	r0, #1
 80037fc:	e7f6      	b.n	80037ec <HAL_SD_Init+0x24>
	...

08003800 <HAL_SD_GetCardStatus>:
 8003800:	b530      	push	{r4, r5, lr}
 8003802:	b091      	sub	sp, #68	; 0x44
 8003804:	4605      	mov	r5, r0
 8003806:	460c      	mov	r4, r1
 8003808:	4669      	mov	r1, sp
 800380a:	f7ff fa7b 	bl	8002d04 <SD_SendSDStatus>
 800380e:	b1c0      	cbz	r0, 8003842 <HAL_SD_GetCardStatus+0x42>
 8003810:	682b      	ldr	r3, [r5, #0]
 8003812:	4925      	ldr	r1, [pc, #148]	; (80038a8 <HAL_SD_GetCardStatus+0xa8>)
 8003814:	6399      	str	r1, [r3, #56]	; 0x38
 8003816:	6bab      	ldr	r3, [r5, #56]	; 0x38
 8003818:	4303      	orrs	r3, r0
 800381a:	63ab      	str	r3, [r5, #56]	; 0x38
 800381c:	2401      	movs	r4, #1
 800381e:	f885 4034 	strb.w	r4, [r5, #52]	; 0x34
 8003822:	f44f 7100 	mov.w	r1, #512	; 0x200
 8003826:	6828      	ldr	r0, [r5, #0]
 8003828:	f7ff f864 	bl	80028f4 <SDMMC_CmdBlockLength>
 800382c:	b130      	cbz	r0, 800383c <HAL_SD_GetCardStatus+0x3c>
 800382e:	682a      	ldr	r2, [r5, #0]
 8003830:	491d      	ldr	r1, [pc, #116]	; (80038a8 <HAL_SD_GetCardStatus+0xa8>)
 8003832:	6391      	str	r1, [r2, #56]	; 0x38
 8003834:	63a8      	str	r0, [r5, #56]	; 0x38
 8003836:	2401      	movs	r4, #1
 8003838:	f885 4034 	strb.w	r4, [r5, #52]	; 0x34
 800383c:	4620      	mov	r0, r4
 800383e:	b011      	add	sp, #68	; 0x44
 8003840:	bd30      	pop	{r4, r5, pc}
 8003842:	9a00      	ldr	r2, [sp, #0]
 8003844:	f3c2 1381 	ubfx	r3, r2, #6, #2
 8003848:	7023      	strb	r3, [r4, #0]
 800384a:	f3c2 1340 	ubfx	r3, r2, #5, #1
 800384e:	7063      	strb	r3, [r4, #1]
 8003850:	0a13      	lsrs	r3, r2, #8
 8003852:	f023 03ff 	bic.w	r3, r3, #255	; 0xff
 8003856:	ea43 6312 	orr.w	r3, r3, r2, lsr #24
 800385a:	b29b      	uxth	r3, r3
 800385c:	8063      	strh	r3, [r4, #2]
 800385e:	9a01      	ldr	r2, [sp, #4]
 8003860:	0213      	lsls	r3, r2, #8
 8003862:	f403 037f 	and.w	r3, r3, #16711680	; 0xff0000
 8003866:	ea43 6302 	orr.w	r3, r3, r2, lsl #24
 800386a:	0a11      	lsrs	r1, r2, #8
 800386c:	f401 417f 	and.w	r1, r1, #65280	; 0xff00
 8003870:	430b      	orrs	r3, r1
 8003872:	ea43 6312 	orr.w	r3, r3, r2, lsr #24
 8003876:	6063      	str	r3, [r4, #4]
 8003878:	9b02      	ldr	r3, [sp, #8]
 800387a:	b2da      	uxtb	r2, r3
 800387c:	7222      	strb	r2, [r4, #8]
 800387e:	f3c3 2207 	ubfx	r2, r3, #8, #8
 8003882:	7262      	strb	r2, [r4, #9]
 8003884:	f3c3 5203 	ubfx	r2, r3, #20, #4
 8003888:	72a2      	strb	r2, [r4, #10]
 800388a:	0c1b      	lsrs	r3, r3, #16
 800388c:	9a03      	ldr	r2, [sp, #12]
 800388e:	b2d1      	uxtb	r1, r2
 8003890:	f023 03ff 	bic.w	r3, r3, #255	; 0xff
 8003894:	430b      	orrs	r3, r1
 8003896:	81a3      	strh	r3, [r4, #12]
 8003898:	f3c2 2385 	ubfx	r3, r2, #10, #6
 800389c:	73a3      	strb	r3, [r4, #14]
 800389e:	f3c2 2201 	ubfx	r2, r2, #8, #2
 80038a2:	73e2      	strb	r2, [r4, #15]
 80038a4:	2400      	movs	r4, #0
 80038a6:	e7bc      	b.n	8003822 <HAL_SD_GetCardStatus+0x22>
 80038a8:	004005ff 	.word	0x004005ff

080038ac <HAL_SD_GetCardInfo>:
 80038ac:	6c43      	ldr	r3, [r0, #68]	; 0x44
 80038ae:	600b      	str	r3, [r1, #0]
 80038b0:	6c83      	ldr	r3, [r0, #72]	; 0x48
 80038b2:	604b      	str	r3, [r1, #4]
 80038b4:	6cc3      	ldr	r3, [r0, #76]	; 0x4c
 80038b6:	608b      	str	r3, [r1, #8]
 80038b8:	6d03      	ldr	r3, [r0, #80]	; 0x50
 80038ba:	60cb      	str	r3, [r1, #12]
 80038bc:	6d43      	ldr	r3, [r0, #84]	; 0x54
 80038be:	610b      	str	r3, [r1, #16]
 80038c0:	6d83      	ldr	r3, [r0, #88]	; 0x58
 80038c2:	614b      	str	r3, [r1, #20]
 80038c4:	6dc3      	ldr	r3, [r0, #92]	; 0x5c
 80038c6:	618b      	str	r3, [r1, #24]
 80038c8:	6e03      	ldr	r3, [r0, #96]	; 0x60
 80038ca:	61cb      	str	r3, [r1, #28]
 80038cc:	2000      	movs	r0, #0
 80038ce:	4770      	bx	lr

080038d0 <HAL_SD_ConfigWideBusOperation>:
 80038d0:	b530      	push	{r4, r5, lr}
 80038d2:	b08b      	sub	sp, #44	; 0x2c
 80038d4:	4604      	mov	r4, r0
 80038d6:	460d      	mov	r5, r1
 80038d8:	2303      	movs	r3, #3
 80038da:	f880 3034 	strb.w	r3, [r0, #52]	; 0x34
 80038de:	6c43      	ldr	r3, [r0, #68]	; 0x44
 80038e0:	2b03      	cmp	r3, #3
 80038e2:	d01c      	beq.n	800391e <HAL_SD_ConfigWideBusOperation+0x4e>
 80038e4:	f5b1 5f80 	cmp.w	r1, #4096	; 0x1000
 80038e8:	d008      	beq.n	80038fc <HAL_SD_ConfigWideBusOperation+0x2c>
 80038ea:	f5b1 6f00 	cmp.w	r1, #2048	; 0x800
 80038ee:	d00a      	beq.n	8003906 <HAL_SD_ConfigWideBusOperation+0x36>
 80038f0:	b179      	cbz	r1, 8003912 <HAL_SD_ConfigWideBusOperation+0x42>
 80038f2:	6b83      	ldr	r3, [r0, #56]	; 0x38
 80038f4:	f043 6300 	orr.w	r3, r3, #134217728	; 0x8000000
 80038f8:	6383      	str	r3, [r0, #56]	; 0x38
 80038fa:	e014      	b.n	8003926 <HAL_SD_ConfigWideBusOperation+0x56>
 80038fc:	6b83      	ldr	r3, [r0, #56]	; 0x38
 80038fe:	f043 5380 	orr.w	r3, r3, #268435456	; 0x10000000
 8003902:	6383      	str	r3, [r0, #56]	; 0x38
 8003904:	e00f      	b.n	8003926 <HAL_SD_ConfigWideBusOperation+0x56>
 8003906:	f7ff fb00 	bl	8002f0a <SD_WideBus_Enable>
 800390a:	6ba3      	ldr	r3, [r4, #56]	; 0x38
 800390c:	4303      	orrs	r3, r0
 800390e:	63a3      	str	r3, [r4, #56]	; 0x38
 8003910:	e009      	b.n	8003926 <HAL_SD_ConfigWideBusOperation+0x56>
 8003912:	f7ff fb21 	bl	8002f58 <SD_WideBus_Disable>
 8003916:	6ba3      	ldr	r3, [r4, #56]	; 0x38
 8003918:	4303      	orrs	r3, r0
 800391a:	63a3      	str	r3, [r4, #56]	; 0x38
 800391c:	e003      	b.n	8003926 <HAL_SD_ConfigWideBusOperation+0x56>
 800391e:	6b83      	ldr	r3, [r0, #56]	; 0x38
 8003920:	f043 5380 	orr.w	r3, r3, #268435456	; 0x10000000
 8003924:	6383      	str	r3, [r0, #56]	; 0x38
 8003926:	6ba3      	ldr	r3, [r4, #56]	; 0x38
 8003928:	b1c3      	cbz	r3, 800395c <HAL_SD_ConfigWideBusOperation+0x8c>
 800392a:	6823      	ldr	r3, [r4, #0]
 800392c:	4a17      	ldr	r2, [pc, #92]	; (800398c <HAL_SD_ConfigWideBusOperation+0xbc>)
 800392e:	639a      	str	r2, [r3, #56]	; 0x38
 8003930:	2501      	movs	r5, #1
 8003932:	f884 5034 	strb.w	r5, [r4, #52]	; 0x34
 8003936:	f44f 7100 	mov.w	r1, #512	; 0x200
 800393a:	6820      	ldr	r0, [r4, #0]
 800393c:	f7fe ffda 	bl	80028f4 <SDMMC_CmdBlockLength>
 8003940:	b130      	cbz	r0, 8003950 <HAL_SD_ConfigWideBusOperation+0x80>
 8003942:	6823      	ldr	r3, [r4, #0]
 8003944:	4911      	ldr	r1, [pc, #68]	; (800398c <HAL_SD_ConfigWideBusOperation+0xbc>)
 8003946:	6399      	str	r1, [r3, #56]	; 0x38
 8003948:	6ba3      	ldr	r3, [r4, #56]	; 0x38
 800394a:	4303      	orrs	r3, r0
 800394c:	63a3      	str	r3, [r4, #56]	; 0x38
 800394e:	2501      	movs	r5, #1
 8003950:	2301      	movs	r3, #1
 8003952:	f884 3034 	strb.w	r3, [r4, #52]	; 0x34
 8003956:	4628      	mov	r0, r5
 8003958:	b00b      	add	sp, #44	; 0x2c
 800395a:	bd30      	pop	{r4, r5, pc}
 800395c:	6863      	ldr	r3, [r4, #4]
 800395e:	9304      	str	r3, [sp, #16]
 8003960:	68a3      	ldr	r3, [r4, #8]
 8003962:	9305      	str	r3, [sp, #20]
 8003964:	68e3      	ldr	r3, [r4, #12]
 8003966:	9306      	str	r3, [sp, #24]
 8003968:	9507      	str	r5, [sp, #28]
 800396a:	6963      	ldr	r3, [r4, #20]
 800396c:	9308      	str	r3, [sp, #32]
 800396e:	69a3      	ldr	r3, [r4, #24]
 8003970:	9309      	str	r3, [sp, #36]	; 0x24
 8003972:	ab0a      	add	r3, sp, #40	; 0x28
 8003974:	e913 0007 	ldmdb	r3, {r0, r1, r2}
 8003978:	e88d 0007 	stmia.w	sp, {r0, r1, r2}
 800397c:	ab04      	add	r3, sp, #16
 800397e:	cb0e      	ldmia	r3, {r1, r2, r3}
 8003980:	6820      	ldr	r0, [r4, #0]
 8003982:	f7fe fe63 	bl	800264c <SDIO_Init>
 8003986:	2500      	movs	r5, #0
 8003988:	e7d5      	b.n	8003936 <HAL_SD_ConfigWideBusOperation+0x66>
 800398a:	bf00      	nop
 800398c:	004005ff 	.word	0x004005ff

08003990 <HAL_SD_GetCardState>:
 8003990:	b510      	push	{r4, lr}
 8003992:	b082      	sub	sp, #8
 8003994:	4604      	mov	r4, r0
 8003996:	2300      	movs	r3, #0
 8003998:	9301      	str	r3, [sp, #4]
 800399a:	a901      	add	r1, sp, #4
 800399c:	f7ff fb03 	bl	8002fa6 <SD_SendStatus>
 80039a0:	b110      	cbz	r0, 80039a8 <HAL_SD_GetCardState+0x18>
 80039a2:	6ba3      	ldr	r3, [r4, #56]	; 0x38
 80039a4:	4303      	orrs	r3, r0
 80039a6:	63a3      	str	r3, [r4, #56]	; 0x38
 80039a8:	9801      	ldr	r0, [sp, #4]
 80039aa:	f3c0 2043 	ubfx	r0, r0, #9, #4
 80039ae:	b002      	add	sp, #8
 80039b0:	bd10      	pop	{r4, pc}
	...

080039b4 <SPI_WaitFlagStateUntilTimeout>:
 80039b4:	e92d 47f0 	stmdb	sp!, {r4, r5, r6, r7, r8, r9, sl, lr}
 80039b8:	b082      	sub	sp, #8
 80039ba:	4605      	mov	r5, r0
 80039bc:	4688      	mov	r8, r1
 80039be:	4617      	mov	r7, r2
 80039c0:	461e      	mov	r6, r3
 80039c2:	f7fe fd87 	bl	80024d4 <HAL_GetTick>
 80039c6:	9b0a      	ldr	r3, [sp, #40]	; 0x28
 80039c8:	1a1b      	subs	r3, r3, r0
 80039ca:	eb03 0906 	add.w	r9, r3, r6
 80039ce:	f7fe fd81 	bl	80024d4 <HAL_GetTick>
 80039d2:	4682      	mov	sl, r0
 80039d4:	4b2a      	ldr	r3, [pc, #168]	; (8003a80 <SPI_WaitFlagStateUntilTimeout+0xcc>)
 80039d6:	681b      	ldr	r3, [r3, #0]
 80039d8:	f3c3 33cb 	ubfx	r3, r3, #15, #12
 80039dc:	fb09 f303 	mul.w	r3, r9, r3
 80039e0:	9301      	str	r3, [sp, #4]
 80039e2:	682b      	ldr	r3, [r5, #0]
 80039e4:	689c      	ldr	r4, [r3, #8]
 80039e6:	ea38 0304 	bics.w	r3, r8, r4
 80039ea:	bf0c      	ite	eq
 80039ec:	2401      	moveq	r4, #1
 80039ee:	2400      	movne	r4, #0
 80039f0:	42bc      	cmp	r4, r7
 80039f2:	d040      	beq.n	8003a76 <SPI_WaitFlagStateUntilTimeout+0xc2>
 80039f4:	f1b6 3fff 	cmp.w	r6, #4294967295	; 0xffffffff
 80039f8:	d0f3      	beq.n	80039e2 <SPI_WaitFlagStateUntilTimeout+0x2e>
 80039fa:	f7fe fd6b 	bl	80024d4 <HAL_GetTick>
 80039fe:	eba0 000a 	sub.w	r0, r0, sl
 8003a02:	4548      	cmp	r0, r9
 8003a04:	d20a      	bcs.n	8003a1c <SPI_WaitFlagStateUntilTimeout+0x68>
 8003a06:	f1b9 0f00 	cmp.w	r9, #0
 8003a0a:	d007      	beq.n	8003a1c <SPI_WaitFlagStateUntilTimeout+0x68>
 8003a0c:	9a01      	ldr	r2, [sp, #4]
 8003a0e:	b102      	cbz	r2, 8003a12 <SPI_WaitFlagStateUntilTimeout+0x5e>
 8003a10:	464a      	mov	r2, r9
 8003a12:	9b01      	ldr	r3, [sp, #4]
 8003a14:	3b01      	subs	r3, #1
 8003a16:	9301      	str	r3, [sp, #4]
 8003a18:	4691      	mov	r9, r2
 8003a1a:	e7e2      	b.n	80039e2 <SPI_WaitFlagStateUntilTimeout+0x2e>
 8003a1c:	682a      	ldr	r2, [r5, #0]
 8003a1e:	6853      	ldr	r3, [r2, #4]
 8003a20:	f023 03e0 	bic.w	r3, r3, #224	; 0xe0
 8003a24:	6053      	str	r3, [r2, #4]
 8003a26:	686b      	ldr	r3, [r5, #4]
 8003a28:	f5b3 7f82 	cmp.w	r3, #260	; 0x104
 8003a2c:	d00b      	beq.n	8003a46 <SPI_WaitFlagStateUntilTimeout+0x92>
 8003a2e:	6aab      	ldr	r3, [r5, #40]	; 0x28
 8003a30:	f5b3 5f00 	cmp.w	r3, #8192	; 0x2000
 8003a34:	d014      	beq.n	8003a60 <SPI_WaitFlagStateUntilTimeout+0xac>
 8003a36:	2301      	movs	r3, #1
 8003a38:	f885 3051 	strb.w	r3, [r5, #81]	; 0x51
 8003a3c:	2300      	movs	r3, #0
 8003a3e:	f885 3050 	strb.w	r3, [r5, #80]	; 0x50
 8003a42:	2003      	movs	r0, #3
 8003a44:	e018      	b.n	8003a78 <SPI_WaitFlagStateUntilTimeout+0xc4>
 8003a46:	68ab      	ldr	r3, [r5, #8]
 8003a48:	f5b3 4f00 	cmp.w	r3, #32768	; 0x8000
 8003a4c:	d002      	beq.n	8003a54 <SPI_WaitFlagStateUntilTimeout+0xa0>
 8003a4e:	f5b3 6f80 	cmp.w	r3, #1024	; 0x400
 8003a52:	d1ec      	bne.n	8003a2e <SPI_WaitFlagStateUntilTimeout+0x7a>
 8003a54:	682a      	ldr	r2, [r5, #0]
 8003a56:	6813      	ldr	r3, [r2, #0]
 8003a58:	f023 0340 	bic.w	r3, r3, #64	; 0x40
 8003a5c:	6013      	str	r3, [r2, #0]
 8003a5e:	e7e6      	b.n	8003a2e <SPI_WaitFlagStateUntilTimeout+0x7a>
 8003a60:	682a      	ldr	r2, [r5, #0]
 8003a62:	6813      	ldr	r3, [r2, #0]
 8003a64:	f423 5300 	bic.w	r3, r3, #8192	; 0x2000
 8003a68:	6013      	str	r3, [r2, #0]
 8003a6a:	682a      	ldr	r2, [r5, #0]
 8003a6c:	6813      	ldr	r3, [r2, #0]
 8003a6e:	f443 5300 	orr.w	r3, r3, #8192	; 0x2000
 8003a72:	6013      	str	r3, [r2, #0]
 8003a74:	e7df      	b.n	8003a36 <SPI_WaitFlagStateUntilTimeout+0x82>
 8003a76:	2000      	movs	r0, #0
 8003a78:	b002      	add	sp, #8
 8003a7a:	e8bd 87f0 	ldmia.w	sp!, {r4, r5, r6, r7, r8, r9, sl, pc}
 8003a7e:	bf00      	nop
 8003a80:	20000008 	.word	0x20000008

08003a84 <SPI_EndRxTxTransaction>:
 8003a84:	b530      	push	{r4, r5, lr}
 8003a86:	b085      	sub	sp, #20
 8003a88:	4604      	mov	r4, r0
 8003a8a:	4b16      	ldr	r3, [pc, #88]	; (8003ae4 <SPI_EndRxTxTransaction+0x60>)
 8003a8c:	6818      	ldr	r0, [r3, #0]
 8003a8e:	4b16      	ldr	r3, [pc, #88]	; (8003ae8 <SPI_EndRxTxTransaction+0x64>)
 8003a90:	fba3 3000 	umull	r3, r0, r3, r0
 8003a94:	0d40      	lsrs	r0, r0, #21
 8003a96:	f44f 757a 	mov.w	r5, #1000	; 0x3e8
 8003a9a:	fb05 f000 	mul.w	r0, r5, r0
 8003a9e:	9003      	str	r0, [sp, #12]
 8003aa0:	6863      	ldr	r3, [r4, #4]
 8003aa2:	f5b3 7f82 	cmp.w	r3, #260	; 0x104
 8003aa6:	d00b      	beq.n	8003ac0 <SPI_EndRxTxTransaction+0x3c>
 8003aa8:	9b03      	ldr	r3, [sp, #12]
 8003aaa:	b1bb      	cbz	r3, 8003adc <SPI_EndRxTxTransaction+0x58>
 8003aac:	9b03      	ldr	r3, [sp, #12]
 8003aae:	3b01      	subs	r3, #1
 8003ab0:	9303      	str	r3, [sp, #12]
 8003ab2:	6823      	ldr	r3, [r4, #0]
 8003ab4:	689b      	ldr	r3, [r3, #8]
 8003ab6:	f013 0f80 	tst.w	r3, #128	; 0x80
 8003aba:	d1f5      	bne.n	8003aa8 <SPI_EndRxTxTransaction+0x24>
 8003abc:	2000      	movs	r0, #0
 8003abe:	e00e      	b.n	8003ade <SPI_EndRxTxTransaction+0x5a>
 8003ac0:	9200      	str	r2, [sp, #0]
 8003ac2:	460b      	mov	r3, r1
 8003ac4:	2200      	movs	r2, #0
 8003ac6:	2180      	movs	r1, #128	; 0x80
 8003ac8:	4620      	mov	r0, r4
 8003aca:	f7ff ff73 	bl	80039b4 <SPI_WaitFlagStateUntilTimeout>
 8003ace:	b130      	cbz	r0, 8003ade <SPI_EndRxTxTransaction+0x5a>
 8003ad0:	6d63      	ldr	r3, [r4, #84]	; 0x54
 8003ad2:	f043 0320 	orr.w	r3, r3, #32
 8003ad6:	6563      	str	r3, [r4, #84]	; 0x54
 8003ad8:	2003      	movs	r0, #3
 8003ada:	e000      	b.n	8003ade <SPI_EndRxTxTransaction+0x5a>
 8003adc:	2000      	movs	r0, #0
 8003ade:	b005      	add	sp, #20
 8003ae0:	bd30      	pop	{r4, r5, pc}
 8003ae2:	bf00      	nop
 8003ae4:	20000008 	.word	0x20000008
 8003ae8:	165e9f81 	.word	0x165e9f81

08003aec <HAL_SPI_Init>:
 8003aec:	2800      	cmp	r0, #0
 8003aee:	d05a      	beq.n	8003ba6 <HAL_SPI_Init+0xba>
 8003af0:	b510      	push	{r4, lr}
 8003af2:	4604      	mov	r4, r0
 8003af4:	6a43      	ldr	r3, [r0, #36]	; 0x24
 8003af6:	b933      	cbnz	r3, 8003b06 <HAL_SPI_Init+0x1a>
 8003af8:	6843      	ldr	r3, [r0, #4]
 8003afa:	f5b3 7f82 	cmp.w	r3, #260	; 0x104
 8003afe:	d005      	beq.n	8003b0c <HAL_SPI_Init+0x20>
 8003b00:	2300      	movs	r3, #0
 8003b02:	61c3      	str	r3, [r0, #28]
 8003b04:	e002      	b.n	8003b0c <HAL_SPI_Init+0x20>
 8003b06:	2300      	movs	r3, #0
 8003b08:	6103      	str	r3, [r0, #16]
 8003b0a:	6143      	str	r3, [r0, #20]
 8003b0c:	2300      	movs	r3, #0
 8003b0e:	62a3      	str	r3, [r4, #40]	; 0x28
 8003b10:	f894 3051 	ldrb.w	r3, [r4, #81]	; 0x51
 8003b14:	2b00      	cmp	r3, #0
 8003b16:	d040      	beq.n	8003b9a <HAL_SPI_Init+0xae>
 8003b18:	2302      	movs	r3, #2
 8003b1a:	f884 3051 	strb.w	r3, [r4, #81]	; 0x51
 8003b1e:	6822      	ldr	r2, [r4, #0]
 8003b20:	6813      	ldr	r3, [r2, #0]
 8003b22:	f023 0340 	bic.w	r3, r3, #64	; 0x40
 8003b26:	6013      	str	r3, [r2, #0]
 8003b28:	6863      	ldr	r3, [r4, #4]
 8003b2a:	f403 7382 	and.w	r3, r3, #260	; 0x104
 8003b2e:	68a2      	ldr	r2, [r4, #8]
 8003b30:	f402 4204 	and.w	r2, r2, #33792	; 0x8400
 8003b34:	4313      	orrs	r3, r2
 8003b36:	68e2      	ldr	r2, [r4, #12]
 8003b38:	f402 6200 	and.w	r2, r2, #2048	; 0x800
 8003b3c:	4313      	orrs	r3, r2
 8003b3e:	6922      	ldr	r2, [r4, #16]
 8003b40:	f002 0202 	and.w	r2, r2, #2
 8003b44:	4313      	orrs	r3, r2
 8003b46:	6962      	ldr	r2, [r4, #20]
 8003b48:	f002 0201 	and.w	r2, r2, #1
 8003b4c:	4313      	orrs	r3, r2
 8003b4e:	69a2      	ldr	r2, [r4, #24]
 8003b50:	f402 7200 	and.w	r2, r2, #512	; 0x200
 8003b54:	4313      	orrs	r3, r2
 8003b56:	69e2      	ldr	r2, [r4, #28]
 8003b58:	f002 0238 	and.w	r2, r2, #56	; 0x38
 8003b5c:	4313      	orrs	r3, r2
 8003b5e:	6a22      	ldr	r2, [r4, #32]
 8003b60:	f002 0280 	and.w	r2, r2, #128	; 0x80
 8003b64:	4313      	orrs	r3, r2
 8003b66:	6aa2      	ldr	r2, [r4, #40]	; 0x28
 8003b68:	f402 5200 	and.w	r2, r2, #8192	; 0x2000
 8003b6c:	6821      	ldr	r1, [r4, #0]
 8003b6e:	4313      	orrs	r3, r2
 8003b70:	600b      	str	r3, [r1, #0]
 8003b72:	8b63      	ldrh	r3, [r4, #26]
 8003b74:	f003 0304 	and.w	r3, r3, #4
 8003b78:	6a62      	ldr	r2, [r4, #36]	; 0x24
 8003b7a:	f002 0210 	and.w	r2, r2, #16
 8003b7e:	6821      	ldr	r1, [r4, #0]
 8003b80:	4313      	orrs	r3, r2
 8003b82:	604b      	str	r3, [r1, #4]
 8003b84:	6822      	ldr	r2, [r4, #0]
 8003b86:	69d3      	ldr	r3, [r2, #28]
 8003b88:	f423 6300 	bic.w	r3, r3, #2048	; 0x800
 8003b8c:	61d3      	str	r3, [r2, #28]
 8003b8e:	2000      	movs	r0, #0
 8003b90:	6560      	str	r0, [r4, #84]	; 0x54
 8003b92:	2301      	movs	r3, #1
 8003b94:	f884 3051 	strb.w	r3, [r4, #81]	; 0x51
 8003b98:	bd10      	pop	{r4, pc}
 8003b9a:	f884 3050 	strb.w	r3, [r4, #80]	; 0x50
 8003b9e:	4620      	mov	r0, r4
 8003ba0:	f7fd fc94 	bl	80014cc <HAL_SPI_MspInit>
 8003ba4:	e7b8      	b.n	8003b18 <HAL_SPI_Init+0x2c>
 8003ba6:	2001      	movs	r0, #1
 8003ba8:	4770      	bx	lr

08003baa <HAL_SPI_Transmit>:
 8003baa:	e92d 43f0 	stmdb	sp!, {r4, r5, r6, r7, r8, r9, lr}
 8003bae:	b083      	sub	sp, #12
 8003bb0:	461d      	mov	r5, r3
 8003bb2:	f890 3050 	ldrb.w	r3, [r0, #80]	; 0x50
 8003bb6:	2b01      	cmp	r3, #1
 8003bb8:	f000 80cc 	beq.w	8003d54 <HAL_SPI_Transmit+0x1aa>
 8003bbc:	4604      	mov	r4, r0
 8003bbe:	4688      	mov	r8, r1
 8003bc0:	4691      	mov	r9, r2
 8003bc2:	2301      	movs	r3, #1
 8003bc4:	f880 3050 	strb.w	r3, [r0, #80]	; 0x50
 8003bc8:	f7fe fc84 	bl	80024d4 <HAL_GetTick>
 8003bcc:	4607      	mov	r7, r0
 8003bce:	f894 6051 	ldrb.w	r6, [r4, #81]	; 0x51
 8003bd2:	b2f6      	uxtb	r6, r6
 8003bd4:	2e01      	cmp	r6, #1
 8003bd6:	f040 80aa 	bne.w	8003d2e <HAL_SPI_Transmit+0x184>
 8003bda:	f1b8 0f00 	cmp.w	r8, #0
 8003bde:	f000 80a7 	beq.w	8003d30 <HAL_SPI_Transmit+0x186>
 8003be2:	f1b9 0f00 	cmp.w	r9, #0
 8003be6:	f000 80a3 	beq.w	8003d30 <HAL_SPI_Transmit+0x186>
 8003bea:	2303      	movs	r3, #3
 8003bec:	f884 3051 	strb.w	r3, [r4, #81]	; 0x51
 8003bf0:	2300      	movs	r3, #0
 8003bf2:	6563      	str	r3, [r4, #84]	; 0x54
 8003bf4:	f8c4 8030 	str.w	r8, [r4, #48]	; 0x30
 8003bf8:	f8a4 9034 	strh.w	r9, [r4, #52]	; 0x34
 8003bfc:	f8a4 9036 	strh.w	r9, [r4, #54]	; 0x36
 8003c00:	63a3      	str	r3, [r4, #56]	; 0x38
 8003c02:	87a3      	strh	r3, [r4, #60]	; 0x3c
 8003c04:	87e3      	strh	r3, [r4, #62]	; 0x3e
 8003c06:	6463      	str	r3, [r4, #68]	; 0x44
 8003c08:	6423      	str	r3, [r4, #64]	; 0x40
 8003c0a:	68a3      	ldr	r3, [r4, #8]
 8003c0c:	f5b3 4f00 	cmp.w	r3, #32768	; 0x8000
 8003c10:	d01e      	beq.n	8003c50 <HAL_SPI_Transmit+0xa6>
 8003c12:	6823      	ldr	r3, [r4, #0]
 8003c14:	681a      	ldr	r2, [r3, #0]
 8003c16:	f012 0f40 	tst.w	r2, #64	; 0x40
 8003c1a:	d103      	bne.n	8003c24 <HAL_SPI_Transmit+0x7a>
 8003c1c:	681a      	ldr	r2, [r3, #0]
 8003c1e:	f042 0240 	orr.w	r2, r2, #64	; 0x40
 8003c22:	601a      	str	r2, [r3, #0]
 8003c24:	68e3      	ldr	r3, [r4, #12]
 8003c26:	f5b3 6f00 	cmp.w	r3, #2048	; 0x800
 8003c2a:	d01c      	beq.n	8003c66 <HAL_SPI_Transmit+0xbc>
 8003c2c:	6863      	ldr	r3, [r4, #4]
 8003c2e:	b113      	cbz	r3, 8003c36 <HAL_SPI_Transmit+0x8c>
 8003c30:	f1b9 0f01 	cmp.w	r9, #1
 8003c34:	d152      	bne.n	8003cdc <HAL_SPI_Transmit+0x132>
 8003c36:	6b22      	ldr	r2, [r4, #48]	; 0x30
 8003c38:	6823      	ldr	r3, [r4, #0]
 8003c3a:	7812      	ldrb	r2, [r2, #0]
 8003c3c:	731a      	strb	r2, [r3, #12]
 8003c3e:	6b23      	ldr	r3, [r4, #48]	; 0x30
 8003c40:	3301      	adds	r3, #1
 8003c42:	6323      	str	r3, [r4, #48]	; 0x30
 8003c44:	8ee3      	ldrh	r3, [r4, #54]	; 0x36
 8003c46:	b29b      	uxth	r3, r3
 8003c48:	3b01      	subs	r3, #1
 8003c4a:	b29b      	uxth	r3, r3
 8003c4c:	86e3      	strh	r3, [r4, #54]	; 0x36
 8003c4e:	e045      	b.n	8003cdc <HAL_SPI_Transmit+0x132>
 8003c50:	6822      	ldr	r2, [r4, #0]
 8003c52:	6813      	ldr	r3, [r2, #0]
 8003c54:	f023 0340 	bic.w	r3, r3, #64	; 0x40
 8003c58:	6013      	str	r3, [r2, #0]
 8003c5a:	6822      	ldr	r2, [r4, #0]
 8003c5c:	6813      	ldr	r3, [r2, #0]
 8003c5e:	f443 4380 	orr.w	r3, r3, #16384	; 0x4000
 8003c62:	6013      	str	r3, [r2, #0]
 8003c64:	e7d5      	b.n	8003c12 <HAL_SPI_Transmit+0x68>
 8003c66:	6863      	ldr	r3, [r4, #4]
 8003c68:	b113      	cbz	r3, 8003c70 <HAL_SPI_Transmit+0xc6>
 8003c6a:	f1b9 0f01 	cmp.w	r9, #1
 8003c6e:	d116      	bne.n	8003c9e <HAL_SPI_Transmit+0xf4>
 8003c70:	6b22      	ldr	r2, [r4, #48]	; 0x30
 8003c72:	6823      	ldr	r3, [r4, #0]
 8003c74:	8812      	ldrh	r2, [r2, #0]
 8003c76:	60da      	str	r2, [r3, #12]
 8003c78:	6b23      	ldr	r3, [r4, #48]	; 0x30
 8003c7a:	3302      	adds	r3, #2
 8003c7c:	6323      	str	r3, [r4, #48]	; 0x30
 8003c7e:	8ee3      	ldrh	r3, [r4, #54]	; 0x36
 8003c80:	b29b      	uxth	r3, r3
 8003c82:	3b01      	subs	r3, #1
 8003c84:	b29b      	uxth	r3, r3
 8003c86:	86e3      	strh	r3, [r4, #54]	; 0x36
 8003c88:	e009      	b.n	8003c9e <HAL_SPI_Transmit+0xf4>
 8003c8a:	f7fe fc23 	bl	80024d4 <HAL_GetTick>
 8003c8e:	1bc0      	subs	r0, r0, r7
 8003c90:	42a8      	cmp	r0, r5
 8003c92:	d302      	bcc.n	8003c9a <HAL_SPI_Transmit+0xf0>
 8003c94:	f1b5 3fff 	cmp.w	r5, #4294967295	; 0xffffffff
 8003c98:	d154      	bne.n	8003d44 <HAL_SPI_Transmit+0x19a>
 8003c9a:	2d00      	cmp	r5, #0
 8003c9c:	d054      	beq.n	8003d48 <HAL_SPI_Transmit+0x19e>
 8003c9e:	8ee3      	ldrh	r3, [r4, #54]	; 0x36
 8003ca0:	b29b      	uxth	r3, r3
 8003ca2:	2b00      	cmp	r3, #0
 8003ca4:	d02e      	beq.n	8003d04 <HAL_SPI_Transmit+0x15a>
 8003ca6:	6823      	ldr	r3, [r4, #0]
 8003ca8:	689a      	ldr	r2, [r3, #8]
 8003caa:	f012 0f02 	tst.w	r2, #2
 8003cae:	d0ec      	beq.n	8003c8a <HAL_SPI_Transmit+0xe0>
 8003cb0:	6b22      	ldr	r2, [r4, #48]	; 0x30
 8003cb2:	8812      	ldrh	r2, [r2, #0]
 8003cb4:	60da      	str	r2, [r3, #12]
 8003cb6:	6b23      	ldr	r3, [r4, #48]	; 0x30
 8003cb8:	3302      	adds	r3, #2
 8003cba:	6323      	str	r3, [r4, #48]	; 0x30
 8003cbc:	8ee3      	ldrh	r3, [r4, #54]	; 0x36
 8003cbe:	b29b      	uxth	r3, r3
 8003cc0:	3b01      	subs	r3, #1
 8003cc2:	b29b      	uxth	r3, r3
 8003cc4:	86e3      	strh	r3, [r4, #54]	; 0x36
 8003cc6:	e7ea      	b.n	8003c9e <HAL_SPI_Transmit+0xf4>
 8003cc8:	f7fe fc04 	bl	80024d4 <HAL_GetTick>
 8003ccc:	1bc0      	subs	r0, r0, r7
 8003cce:	42a8      	cmp	r0, r5
 8003cd0:	d302      	bcc.n	8003cd8 <HAL_SPI_Transmit+0x12e>
 8003cd2:	f1b5 3fff 	cmp.w	r5, #4294967295	; 0xffffffff
 8003cd6:	d139      	bne.n	8003d4c <HAL_SPI_Transmit+0x1a2>
 8003cd8:	2d00      	cmp	r5, #0
 8003cda:	d039      	beq.n	8003d50 <HAL_SPI_Transmit+0x1a6>
 8003cdc:	8ee3      	ldrh	r3, [r4, #54]	; 0x36
 8003cde:	b29b      	uxth	r3, r3
 8003ce0:	b183      	cbz	r3, 8003d04 <HAL_SPI_Transmit+0x15a>
 8003ce2:	6823      	ldr	r3, [r4, #0]
 8003ce4:	689a      	ldr	r2, [r3, #8]
 8003ce6:	f012 0f02 	tst.w	r2, #2
 8003cea:	d0ed      	beq.n	8003cc8 <HAL_SPI_Transmit+0x11e>
 8003cec:	6b22      	ldr	r2, [r4, #48]	; 0x30
 8003cee:	7812      	ldrb	r2, [r2, #0]
 8003cf0:	731a      	strb	r2, [r3, #12]
 8003cf2:	6b23      	ldr	r3, [r4, #48]	; 0x30
 8003cf4:	3301      	adds	r3, #1
 8003cf6:	6323      	str	r3, [r4, #48]	; 0x30
 8003cf8:	8ee2      	ldrh	r2, [r4, #54]	; 0x36
 8003cfa:	b292      	uxth	r2, r2
 8003cfc:	3a01      	subs	r2, #1
 8003cfe:	b292      	uxth	r2, r2
 8003d00:	86e2      	strh	r2, [r4, #54]	; 0x36
 8003d02:	e7eb      	b.n	8003cdc <HAL_SPI_Transmit+0x132>
 8003d04:	463a      	mov	r2, r7
 8003d06:	4629      	mov	r1, r5
 8003d08:	4620      	mov	r0, r4
 8003d0a:	f7ff febb 	bl	8003a84 <SPI_EndRxTxTransaction>
 8003d0e:	b108      	cbz	r0, 8003d14 <HAL_SPI_Transmit+0x16a>
 8003d10:	2320      	movs	r3, #32
 8003d12:	6563      	str	r3, [r4, #84]	; 0x54
 8003d14:	68a3      	ldr	r3, [r4, #8]
 8003d16:	b933      	cbnz	r3, 8003d26 <HAL_SPI_Transmit+0x17c>
 8003d18:	9301      	str	r3, [sp, #4]
 8003d1a:	6823      	ldr	r3, [r4, #0]
 8003d1c:	68da      	ldr	r2, [r3, #12]
 8003d1e:	9201      	str	r2, [sp, #4]
 8003d20:	689b      	ldr	r3, [r3, #8]
 8003d22:	9301      	str	r3, [sp, #4]
 8003d24:	9b01      	ldr	r3, [sp, #4]
 8003d26:	6d63      	ldr	r3, [r4, #84]	; 0x54
 8003d28:	b913      	cbnz	r3, 8003d30 <HAL_SPI_Transmit+0x186>
 8003d2a:	2600      	movs	r6, #0
 8003d2c:	e000      	b.n	8003d30 <HAL_SPI_Transmit+0x186>
 8003d2e:	2602      	movs	r6, #2
 8003d30:	2301      	movs	r3, #1
 8003d32:	f884 3051 	strb.w	r3, [r4, #81]	; 0x51
 8003d36:	2300      	movs	r3, #0
 8003d38:	f884 3050 	strb.w	r3, [r4, #80]	; 0x50
 8003d3c:	4630      	mov	r0, r6
 8003d3e:	b003      	add	sp, #12
 8003d40:	e8bd 83f0 	ldmia.w	sp!, {r4, r5, r6, r7, r8, r9, pc}
 8003d44:	2603      	movs	r6, #3
 8003d46:	e7f3      	b.n	8003d30 <HAL_SPI_Transmit+0x186>
 8003d48:	2603      	movs	r6, #3
 8003d4a:	e7f1      	b.n	8003d30 <HAL_SPI_Transmit+0x186>
 8003d4c:	2603      	movs	r6, #3
 8003d4e:	e7ef      	b.n	8003d30 <HAL_SPI_Transmit+0x186>
 8003d50:	2603      	movs	r6, #3
 8003d52:	e7ed      	b.n	8003d30 <HAL_SPI_Transmit+0x186>
 8003d54:	2602      	movs	r6, #2
 8003d56:	e7f1      	b.n	8003d3c <HAL_SPI_Transmit+0x192>

08003d58 <UART_EndRxTransfer>:
 8003d58:	6802      	ldr	r2, [r0, #0]
 8003d5a:	68d3      	ldr	r3, [r2, #12]
 8003d5c:	f423 7390 	bic.w	r3, r3, #288	; 0x120
 8003d60:	60d3      	str	r3, [r2, #12]
 8003d62:	6802      	ldr	r2, [r0, #0]
 8003d64:	6953      	ldr	r3, [r2, #20]
 8003d66:	f023 0301 	bic.w	r3, r3, #1
 8003d6a:	6153      	str	r3, [r2, #20]
 8003d6c:	6b03      	ldr	r3, [r0, #48]	; 0x30
 8003d6e:	2b01      	cmp	r3, #1
 8003d70:	d005      	beq.n	8003d7e <UART_EndRxTransfer+0x26>
 8003d72:	2320      	movs	r3, #32
 8003d74:	f880 303e 	strb.w	r3, [r0, #62]	; 0x3e
 8003d78:	2300      	movs	r3, #0
 8003d7a:	6303      	str	r3, [r0, #48]	; 0x30
 8003d7c:	4770      	bx	lr
 8003d7e:	6802      	ldr	r2, [r0, #0]
 8003d80:	68d3      	ldr	r3, [r2, #12]
 8003d82:	f023 0310 	bic.w	r3, r3, #16
 8003d86:	60d3      	str	r3, [r2, #12]
 8003d88:	e7f3      	b.n	8003d72 <UART_EndRxTransfer+0x1a>

08003d8a <UART_Transmit_IT>:
 8003d8a:	f890 303d 	ldrb.w	r3, [r0, #61]	; 0x3d
 8003d8e:	b2db      	uxtb	r3, r3
 8003d90:	2b21      	cmp	r3, #33	; 0x21
 8003d92:	d001      	beq.n	8003d98 <UART_Transmit_IT+0xe>
 8003d94:	2002      	movs	r0, #2
 8003d96:	4770      	bx	lr
 8003d98:	6883      	ldr	r3, [r0, #8]
 8003d9a:	f5b3 5f80 	cmp.w	r3, #4096	; 0x1000
 8003d9e:	d017      	beq.n	8003dd0 <UART_Transmit_IT+0x46>
 8003da0:	6a03      	ldr	r3, [r0, #32]
 8003da2:	1c5a      	adds	r2, r3, #1
 8003da4:	6202      	str	r2, [r0, #32]
 8003da6:	781a      	ldrb	r2, [r3, #0]
 8003da8:	6803      	ldr	r3, [r0, #0]
 8003daa:	605a      	str	r2, [r3, #4]
 8003dac:	8cc3      	ldrh	r3, [r0, #38]	; 0x26
 8003dae:	b29b      	uxth	r3, r3
 8003db0:	3b01      	subs	r3, #1
 8003db2:	b29b      	uxth	r3, r3
 8003db4:	84c3      	strh	r3, [r0, #38]	; 0x26
 8003db6:	b94b      	cbnz	r3, 8003dcc <UART_Transmit_IT+0x42>
 8003db8:	6802      	ldr	r2, [r0, #0]
 8003dba:	68d3      	ldr	r3, [r2, #12]
 8003dbc:	f023 0380 	bic.w	r3, r3, #128	; 0x80
 8003dc0:	60d3      	str	r3, [r2, #12]
 8003dc2:	6802      	ldr	r2, [r0, #0]
 8003dc4:	68d3      	ldr	r3, [r2, #12]
 8003dc6:	f043 0340 	orr.w	r3, r3, #64	; 0x40
 8003dca:	60d3      	str	r3, [r2, #12]
 8003dcc:	2000      	movs	r0, #0
 8003dce:	4770      	bx	lr
 8003dd0:	6903      	ldr	r3, [r0, #16]
 8003dd2:	2b00      	cmp	r3, #0
 8003dd4:	d1e4      	bne.n	8003da0 <UART_Transmit_IT+0x16>
 8003dd6:	6a03      	ldr	r3, [r0, #32]
 8003dd8:	881b      	ldrh	r3, [r3, #0]
 8003dda:	6802      	ldr	r2, [r0, #0]
 8003ddc:	f3c3 0308 	ubfx	r3, r3, #0, #9
 8003de0:	6053      	str	r3, [r2, #4]
 8003de2:	6a03      	ldr	r3, [r0, #32]
 8003de4:	3302      	adds	r3, #2
 8003de6:	6203      	str	r3, [r0, #32]
 8003de8:	e7e0      	b.n	8003dac <UART_Transmit_IT+0x22>
	...

08003dec <UART_SetConfig>:
 8003dec:	b570      	push	{r4, r5, r6, lr}
 8003dee:	4604      	mov	r4, r0
 8003df0:	6802      	ldr	r2, [r0, #0]
 8003df2:	6913      	ldr	r3, [r2, #16]
 8003df4:	f423 5340 	bic.w	r3, r3, #12288	; 0x3000
 8003df8:	68c1      	ldr	r1, [r0, #12]
 8003dfa:	430b      	orrs	r3, r1
 8003dfc:	6113      	str	r3, [r2, #16]
 8003dfe:	6883      	ldr	r3, [r0, #8]
 8003e00:	6902      	ldr	r2, [r0, #16]
 8003e02:	4313      	orrs	r3, r2
 8003e04:	6942      	ldr	r2, [r0, #20]
 8003e06:	4313      	orrs	r3, r2
 8003e08:	69c2      	ldr	r2, [r0, #28]
 8003e0a:	431a      	orrs	r2, r3
 8003e0c:	6801      	ldr	r1, [r0, #0]
 8003e0e:	68cb      	ldr	r3, [r1, #12]
 8003e10:	f423 4316 	bic.w	r3, r3, #38400	; 0x9600
 8003e14:	f023 030c 	bic.w	r3, r3, #12
 8003e18:	4313      	orrs	r3, r2
 8003e1a:	60cb      	str	r3, [r1, #12]
 8003e1c:	6802      	ldr	r2, [r0, #0]
 8003e1e:	6953      	ldr	r3, [r2, #20]
 8003e20:	f423 7340 	bic.w	r3, r3, #768	; 0x300
 8003e24:	6981      	ldr	r1, [r0, #24]
 8003e26:	430b      	orrs	r3, r1
 8003e28:	6153      	str	r3, [r2, #20]
 8003e2a:	6803      	ldr	r3, [r0, #0]
 8003e2c:	4a34      	ldr	r2, [pc, #208]	; (8003f00 <UART_SetConfig+0x114>)
 8003e2e:	4293      	cmp	r3, r2
 8003e30:	d006      	beq.n	8003e40 <UART_SetConfig+0x54>
 8003e32:	f502 6280 	add.w	r2, r2, #1024	; 0x400
 8003e36:	4293      	cmp	r3, r2
 8003e38:	d002      	beq.n	8003e40 <UART_SetConfig+0x54>
 8003e3a:	f7fe f927 	bl	800208c <HAL_RCC_GetPCLK1Freq>
 8003e3e:	e001      	b.n	8003e44 <UART_SetConfig+0x58>
 8003e40:	f7fe f934 	bl	80020ac <HAL_RCC_GetPCLK2Freq>
 8003e44:	69e3      	ldr	r3, [r4, #28]
 8003e46:	f5b3 4f00 	cmp.w	r3, #32768	; 0x8000
 8003e4a:	d02a      	beq.n	8003ea2 <UART_SetConfig+0xb6>
 8003e4c:	2600      	movs	r6, #0
 8003e4e:	1805      	adds	r5, r0, r0
 8003e50:	eb46 0106 	adc.w	r1, r6, r6
 8003e54:	182d      	adds	r5, r5, r0
 8003e56:	eb46 0101 	adc.w	r1, r6, r1
 8003e5a:	00cb      	lsls	r3, r1, #3
 8003e5c:	ea43 7355 	orr.w	r3, r3, r5, lsr #29
 8003e60:	00ea      	lsls	r2, r5, #3
 8003e62:	4615      	mov	r5, r2
 8003e64:	4619      	mov	r1, r3
 8003e66:	6863      	ldr	r3, [r4, #4]
 8003e68:	009a      	lsls	r2, r3, #2
 8003e6a:	0f9b      	lsrs	r3, r3, #30
 8003e6c:	1828      	adds	r0, r5, r0
 8003e6e:	eb46 0101 	adc.w	r1, r6, r1
 8003e72:	f7fc fe31 	bl	8000ad8 <__aeabi_uldivmod>
 8003e76:	4d23      	ldr	r5, [pc, #140]	; (8003f04 <UART_SetConfig+0x118>)
 8003e78:	fba5 3200 	umull	r3, r2, r5, r0
 8003e7c:	0951      	lsrs	r1, r2, #5
 8003e7e:	2364      	movs	r3, #100	; 0x64
 8003e80:	fb03 0311 	mls	r3, r3, r1, r0
 8003e84:	011b      	lsls	r3, r3, #4
 8003e86:	3332      	adds	r3, #50	; 0x32
 8003e88:	fba5 2303 	umull	r2, r3, r5, r3
 8003e8c:	095b      	lsrs	r3, r3, #5
 8003e8e:	f003 02f0 	and.w	r2, r3, #240	; 0xf0
 8003e92:	eb02 1201 	add.w	r2, r2, r1, lsl #4
 8003e96:	f003 030f 	and.w	r3, r3, #15
 8003e9a:	6821      	ldr	r1, [r4, #0]
 8003e9c:	4413      	add	r3, r2
 8003e9e:	608b      	str	r3, [r1, #8]
 8003ea0:	bd70      	pop	{r4, r5, r6, pc}
 8003ea2:	2600      	movs	r6, #0
 8003ea4:	1805      	adds	r5, r0, r0
 8003ea6:	eb46 0106 	adc.w	r1, r6, r6
 8003eaa:	182d      	adds	r5, r5, r0
 8003eac:	eb46 0101 	adc.w	r1, r6, r1
 8003eb0:	00cb      	lsls	r3, r1, #3
 8003eb2:	ea43 7355 	orr.w	r3, r3, r5, lsr #29
 8003eb6:	00ea      	lsls	r2, r5, #3
 8003eb8:	4615      	mov	r5, r2
 8003eba:	4619      	mov	r1, r3
 8003ebc:	6862      	ldr	r2, [r4, #4]
 8003ebe:	4633      	mov	r3, r6
 8003ec0:	1892      	adds	r2, r2, r2
 8003ec2:	eb46 0303 	adc.w	r3, r6, r3
 8003ec6:	1828      	adds	r0, r5, r0
 8003ec8:	eb46 0101 	adc.w	r1, r6, r1
 8003ecc:	f7fc fe04 	bl	8000ad8 <__aeabi_uldivmod>
 8003ed0:	4d0c      	ldr	r5, [pc, #48]	; (8003f04 <UART_SetConfig+0x118>)
 8003ed2:	fba5 3200 	umull	r3, r2, r5, r0
 8003ed6:	0951      	lsrs	r1, r2, #5
 8003ed8:	2364      	movs	r3, #100	; 0x64
 8003eda:	fb03 0311 	mls	r3, r3, r1, r0
 8003ede:	00db      	lsls	r3, r3, #3
 8003ee0:	3332      	adds	r3, #50	; 0x32
 8003ee2:	fba5 2303 	umull	r2, r3, r5, r3
 8003ee6:	095b      	lsrs	r3, r3, #5
 8003ee8:	005a      	lsls	r2, r3, #1
 8003eea:	f402 72f8 	and.w	r2, r2, #496	; 0x1f0
 8003eee:	eb02 1201 	add.w	r2, r2, r1, lsl #4
 8003ef2:	f003 0307 	and.w	r3, r3, #7
 8003ef6:	6821      	ldr	r1, [r4, #0]
 8003ef8:	4413      	add	r3, r2
 8003efa:	608b      	str	r3, [r1, #8]
 8003efc:	e7d0      	b.n	8003ea0 <UART_SetConfig+0xb4>
 8003efe:	bf00      	nop
 8003f00:	40011000 	.word	0x40011000
 8003f04:	51eb851f 	.word	0x51eb851f

08003f08 <HAL_UART_Init>:
 8003f08:	b358      	cbz	r0, 8003f62 <HAL_UART_Init+0x5a>
 8003f0a:	b510      	push	{r4, lr}
 8003f0c:	4604      	mov	r4, r0
 8003f0e:	f890 303d 	ldrb.w	r3, [r0, #61]	; 0x3d
 8003f12:	b30b      	cbz	r3, 8003f58 <HAL_UART_Init+0x50>
 8003f14:	2324      	movs	r3, #36	; 0x24
 8003f16:	f884 303d 	strb.w	r3, [r4, #61]	; 0x3d
 8003f1a:	6822      	ldr	r2, [r4, #0]
 8003f1c:	68d3      	ldr	r3, [r2, #12]
 8003f1e:	f423 5300 	bic.w	r3, r3, #8192	; 0x2000
 8003f22:	60d3      	str	r3, [r2, #12]
 8003f24:	4620      	mov	r0, r4
 8003f26:	f7ff ff61 	bl	8003dec <UART_SetConfig>
 8003f2a:	6822      	ldr	r2, [r4, #0]
 8003f2c:	6913      	ldr	r3, [r2, #16]
 8003f2e:	f423 4390 	bic.w	r3, r3, #18432	; 0x4800
 8003f32:	6113      	str	r3, [r2, #16]
 8003f34:	6822      	ldr	r2, [r4, #0]
 8003f36:	6953      	ldr	r3, [r2, #20]
 8003f38:	f023 032a 	bic.w	r3, r3, #42	; 0x2a
 8003f3c:	6153      	str	r3, [r2, #20]
 8003f3e:	6822      	ldr	r2, [r4, #0]
 8003f40:	68d3      	ldr	r3, [r2, #12]
 8003f42:	f443 5300 	orr.w	r3, r3, #8192	; 0x2000
 8003f46:	60d3      	str	r3, [r2, #12]
 8003f48:	2000      	movs	r0, #0
 8003f4a:	6420      	str	r0, [r4, #64]	; 0x40
 8003f4c:	2320      	movs	r3, #32
 8003f4e:	f884 303d 	strb.w	r3, [r4, #61]	; 0x3d
 8003f52:	f884 303e 	strb.w	r3, [r4, #62]	; 0x3e
 8003f56:	bd10      	pop	{r4, pc}
 8003f58:	f880 303c 	strb.w	r3, [r0, #60]	; 0x3c
 8003f5c:	f7fd fb1e 	bl	800159c <HAL_UART_MspInit>
 8003f60:	e7d8      	b.n	8003f14 <HAL_UART_Init+0xc>
 8003f62:	2001      	movs	r0, #1
 8003f64:	4770      	bx	lr

08003f66 <HAL_UART_TxCpltCallback>:
 8003f66:	4770      	bx	lr

08003f68 <UART_EndTransmit_IT>:
 8003f68:	b508      	push	{r3, lr}
 8003f6a:	6801      	ldr	r1, [r0, #0]
 8003f6c:	68ca      	ldr	r2, [r1, #12]
 8003f6e:	f022 0240 	bic.w	r2, r2, #64	; 0x40
 8003f72:	60ca      	str	r2, [r1, #12]
 8003f74:	2220      	movs	r2, #32
 8003f76:	f880 203d 	strb.w	r2, [r0, #61]	; 0x3d
 8003f7a:	f7ff fff4 	bl	8003f66 <HAL_UART_TxCpltCallback>
 8003f7e:	2000      	movs	r0, #0
 8003f80:	bd08      	pop	{r3, pc}

08003f82 <HAL_UART_RxCpltCallback>:
 8003f82:	4770      	bx	lr

08003f84 <HAL_UART_ErrorCallback>:
 8003f84:	4770      	bx	lr

08003f86 <UART_DMAAbortOnError>:
 8003f86:	b508      	push	{r3, lr}
 8003f88:	6b80      	ldr	r0, [r0, #56]	; 0x38
 8003f8a:	2300      	movs	r3, #0
 8003f8c:	85c3      	strh	r3, [r0, #46]	; 0x2e
 8003f8e:	84c3      	strh	r3, [r0, #38]	; 0x26
 8003f90:	f7ff fff8 	bl	8003f84 <HAL_UART_ErrorCallback>
 8003f94:	bd08      	pop	{r3, pc}

08003f96 <HAL_UARTEx_RxEventCallback>:
 8003f96:	4770      	bx	lr

08003f98 <UART_Receive_IT>:
 8003f98:	f890 303e 	ldrb.w	r3, [r0, #62]	; 0x3e
 8003f9c:	b2db      	uxtb	r3, r3
 8003f9e:	2b22      	cmp	r3, #34	; 0x22
 8003fa0:	d153      	bne.n	800404a <UART_Receive_IT+0xb2>
 8003fa2:	b510      	push	{r4, lr}
 8003fa4:	4604      	mov	r4, r0
 8003fa6:	6883      	ldr	r3, [r0, #8]
 8003fa8:	f5b3 5f80 	cmp.w	r3, #4096	; 0x1000
 8003fac:	d030      	beq.n	8004010 <UART_Receive_IT+0x78>
 8003fae:	6aa2      	ldr	r2, [r4, #40]	; 0x28
 8003fb0:	f5b3 5f80 	cmp.w	r3, #4096	; 0x1000
 8003fb4:	d004      	beq.n	8003fc0 <UART_Receive_IT+0x28>
 8003fb6:	2b00      	cmp	r3, #0
 8003fb8:	d137      	bne.n	800402a <UART_Receive_IT+0x92>
 8003fba:	6923      	ldr	r3, [r4, #16]
 8003fbc:	2b00      	cmp	r3, #0
 8003fbe:	d134      	bne.n	800402a <UART_Receive_IT+0x92>
 8003fc0:	6823      	ldr	r3, [r4, #0]
 8003fc2:	685b      	ldr	r3, [r3, #4]
 8003fc4:	7013      	strb	r3, [r2, #0]
 8003fc6:	6aa3      	ldr	r3, [r4, #40]	; 0x28
 8003fc8:	3301      	adds	r3, #1
 8003fca:	62a3      	str	r3, [r4, #40]	; 0x28
 8003fcc:	8de3      	ldrh	r3, [r4, #46]	; 0x2e
 8003fce:	b29b      	uxth	r3, r3
 8003fd0:	3b01      	subs	r3, #1
 8003fd2:	b29b      	uxth	r3, r3
 8003fd4:	85e3      	strh	r3, [r4, #46]	; 0x2e
 8003fd6:	2b00      	cmp	r3, #0
 8003fd8:	d139      	bne.n	800404e <UART_Receive_IT+0xb6>
 8003fda:	6822      	ldr	r2, [r4, #0]
 8003fdc:	68d3      	ldr	r3, [r2, #12]
 8003fde:	f023 0320 	bic.w	r3, r3, #32
 8003fe2:	60d3      	str	r3, [r2, #12]
 8003fe4:	6822      	ldr	r2, [r4, #0]
 8003fe6:	68d3      	ldr	r3, [r2, #12]
 8003fe8:	f423 7380 	bic.w	r3, r3, #256	; 0x100
 8003fec:	60d3      	str	r3, [r2, #12]
 8003fee:	6822      	ldr	r2, [r4, #0]
 8003ff0:	6953      	ldr	r3, [r2, #20]
 8003ff2:	f023 0301 	bic.w	r3, r3, #1
 8003ff6:	6153      	str	r3, [r2, #20]
 8003ff8:	2320      	movs	r3, #32
 8003ffa:	f884 303e 	strb.w	r3, [r4, #62]	; 0x3e
 8003ffe:	6b23      	ldr	r3, [r4, #48]	; 0x30
 8004000:	2b01      	cmp	r3, #1
 8004002:	d018      	beq.n	8004036 <UART_Receive_IT+0x9e>
 8004004:	4620      	mov	r0, r4
 8004006:	f7ff ffbc 	bl	8003f82 <HAL_UART_RxCpltCallback>
 800400a:	2000      	movs	r0, #0
 800400c:	6320      	str	r0, [r4, #48]	; 0x30
 800400e:	e01f      	b.n	8004050 <UART_Receive_IT+0xb8>
 8004010:	6902      	ldr	r2, [r0, #16]
 8004012:	2a00      	cmp	r2, #0
 8004014:	d1cb      	bne.n	8003fae <UART_Receive_IT+0x16>
 8004016:	6a82      	ldr	r2, [r0, #40]	; 0x28
 8004018:	6803      	ldr	r3, [r0, #0]
 800401a:	685b      	ldr	r3, [r3, #4]
 800401c:	f3c3 0308 	ubfx	r3, r3, #0, #9
 8004020:	8013      	strh	r3, [r2, #0]
 8004022:	6a83      	ldr	r3, [r0, #40]	; 0x28
 8004024:	3302      	adds	r3, #2
 8004026:	6283      	str	r3, [r0, #40]	; 0x28
 8004028:	e7d0      	b.n	8003fcc <UART_Receive_IT+0x34>
 800402a:	6823      	ldr	r3, [r4, #0]
 800402c:	685b      	ldr	r3, [r3, #4]
 800402e:	f003 037f 	and.w	r3, r3, #127	; 0x7f
 8004032:	7013      	strb	r3, [r2, #0]
 8004034:	e7c7      	b.n	8003fc6 <UART_Receive_IT+0x2e>
 8004036:	6822      	ldr	r2, [r4, #0]
 8004038:	68d3      	ldr	r3, [r2, #12]
 800403a:	f023 0310 	bic.w	r3, r3, #16
 800403e:	60d3      	str	r3, [r2, #12]
 8004040:	8da1      	ldrh	r1, [r4, #44]	; 0x2c
 8004042:	4620      	mov	r0, r4
 8004044:	f7ff ffa7 	bl	8003f96 <HAL_UARTEx_RxEventCallback>
 8004048:	e7df      	b.n	800400a <UART_Receive_IT+0x72>
 800404a:	2002      	movs	r0, #2
 800404c:	4770      	bx	lr
 800404e:	2000      	movs	r0, #0
 8004050:	bd10      	pop	{r4, pc}
	...

08004054 <HAL_UART_IRQHandler>:
 8004054:	b530      	push	{r4, r5, lr}
 8004056:	b083      	sub	sp, #12
 8004058:	4604      	mov	r4, r0
 800405a:	6802      	ldr	r2, [r0, #0]
 800405c:	6813      	ldr	r3, [r2, #0]
 800405e:	68d0      	ldr	r0, [r2, #12]
 8004060:	6951      	ldr	r1, [r2, #20]
 8004062:	f013 050f 	ands.w	r5, r3, #15
 8004066:	d105      	bne.n	8004074 <HAL_UART_IRQHandler+0x20>
 8004068:	f013 0f20 	tst.w	r3, #32
 800406c:	d002      	beq.n	8004074 <HAL_UART_IRQHandler+0x20>
 800406e:	f010 0f20 	tst.w	r0, #32
 8004072:	d119      	bne.n	80040a8 <HAL_UART_IRQHandler+0x54>
 8004074:	b12d      	cbz	r5, 8004082 <HAL_UART_IRQHandler+0x2e>
 8004076:	f011 0101 	ands.w	r1, r1, #1
 800407a:	d119      	bne.n	80040b0 <HAL_UART_IRQHandler+0x5c>
 800407c:	f410 7f90 	tst.w	r0, #288	; 0x120
 8004080:	d116      	bne.n	80040b0 <HAL_UART_IRQHandler+0x5c>
 8004082:	6b21      	ldr	r1, [r4, #48]	; 0x30
 8004084:	2901      	cmp	r1, #1
 8004086:	d075      	beq.n	8004174 <HAL_UART_IRQHandler+0x120>
 8004088:	f013 0f80 	tst.w	r3, #128	; 0x80
 800408c:	d003      	beq.n	8004096 <HAL_UART_IRQHandler+0x42>
 800408e:	f010 0f80 	tst.w	r0, #128	; 0x80
 8004092:	f040 80d8 	bne.w	8004246 <HAL_UART_IRQHandler+0x1f2>
 8004096:	f013 0f40 	tst.w	r3, #64	; 0x40
 800409a:	d003      	beq.n	80040a4 <HAL_UART_IRQHandler+0x50>
 800409c:	f010 0f40 	tst.w	r0, #64	; 0x40
 80040a0:	f040 80d5 	bne.w	800424e <HAL_UART_IRQHandler+0x1fa>
 80040a4:	b003      	add	sp, #12
 80040a6:	bd30      	pop	{r4, r5, pc}
 80040a8:	4620      	mov	r0, r4
 80040aa:	f7ff ff75 	bl	8003f98 <UART_Receive_IT>
 80040ae:	e7f9      	b.n	80040a4 <HAL_UART_IRQHandler+0x50>
 80040b0:	f013 0f01 	tst.w	r3, #1
 80040b4:	d006      	beq.n	80040c4 <HAL_UART_IRQHandler+0x70>
 80040b6:	f410 7f80 	tst.w	r0, #256	; 0x100
 80040ba:	d003      	beq.n	80040c4 <HAL_UART_IRQHandler+0x70>
 80040bc:	6c22      	ldr	r2, [r4, #64]	; 0x40
 80040be:	f042 0201 	orr.w	r2, r2, #1
 80040c2:	6422      	str	r2, [r4, #64]	; 0x40
 80040c4:	f013 0f04 	tst.w	r3, #4
 80040c8:	d004      	beq.n	80040d4 <HAL_UART_IRQHandler+0x80>
 80040ca:	b119      	cbz	r1, 80040d4 <HAL_UART_IRQHandler+0x80>
 80040cc:	6c22      	ldr	r2, [r4, #64]	; 0x40
 80040ce:	f042 0202 	orr.w	r2, r2, #2
 80040d2:	6422      	str	r2, [r4, #64]	; 0x40
 80040d4:	f013 0f02 	tst.w	r3, #2
 80040d8:	d004      	beq.n	80040e4 <HAL_UART_IRQHandler+0x90>
 80040da:	b119      	cbz	r1, 80040e4 <HAL_UART_IRQHandler+0x90>
 80040dc:	6c22      	ldr	r2, [r4, #64]	; 0x40
 80040de:	f042 0204 	orr.w	r2, r2, #4
 80040e2:	6422      	str	r2, [r4, #64]	; 0x40
 80040e4:	f013 0f08 	tst.w	r3, #8
 80040e8:	d007      	beq.n	80040fa <HAL_UART_IRQHandler+0xa6>
 80040ea:	f010 0f20 	tst.w	r0, #32
 80040ee:	d100      	bne.n	80040f2 <HAL_UART_IRQHandler+0x9e>
 80040f0:	b119      	cbz	r1, 80040fa <HAL_UART_IRQHandler+0xa6>
 80040f2:	6c22      	ldr	r2, [r4, #64]	; 0x40
 80040f4:	f042 0208 	orr.w	r2, r2, #8
 80040f8:	6422      	str	r2, [r4, #64]	; 0x40
 80040fa:	6c22      	ldr	r2, [r4, #64]	; 0x40
 80040fc:	2a00      	cmp	r2, #0
 80040fe:	d0d1      	beq.n	80040a4 <HAL_UART_IRQHandler+0x50>
 8004100:	f013 0f20 	tst.w	r3, #32
 8004104:	d002      	beq.n	800410c <HAL_UART_IRQHandler+0xb8>
 8004106:	f010 0f20 	tst.w	r0, #32
 800410a:	d121      	bne.n	8004150 <HAL_UART_IRQHandler+0xfc>
 800410c:	6823      	ldr	r3, [r4, #0]
 800410e:	695b      	ldr	r3, [r3, #20]
 8004110:	f003 0340 	and.w	r3, r3, #64	; 0x40
 8004114:	6c22      	ldr	r2, [r4, #64]	; 0x40
 8004116:	f012 0f08 	tst.w	r2, #8
 800411a:	d100      	bne.n	800411e <HAL_UART_IRQHandler+0xca>
 800411c:	b323      	cbz	r3, 8004168 <HAL_UART_IRQHandler+0x114>
 800411e:	4620      	mov	r0, r4
 8004120:	f7ff fe1a 	bl	8003d58 <UART_EndRxTransfer>
 8004124:	6823      	ldr	r3, [r4, #0]
 8004126:	695a      	ldr	r2, [r3, #20]
 8004128:	f012 0f40 	tst.w	r2, #64	; 0x40
 800412c:	d018      	beq.n	8004160 <HAL_UART_IRQHandler+0x10c>
 800412e:	695a      	ldr	r2, [r3, #20]
 8004130:	f022 0240 	bic.w	r2, r2, #64	; 0x40
 8004134:	615a      	str	r2, [r3, #20]
 8004136:	6ba3      	ldr	r3, [r4, #56]	; 0x38
 8004138:	b173      	cbz	r3, 8004158 <HAL_UART_IRQHandler+0x104>
 800413a:	4a47      	ldr	r2, [pc, #284]	; (8004258 <HAL_UART_IRQHandler+0x204>)
 800413c:	651a      	str	r2, [r3, #80]	; 0x50
 800413e:	6ba0      	ldr	r0, [r4, #56]	; 0x38
 8004140:	f7fe f8fe 	bl	8002340 <HAL_DMA_Abort_IT>
 8004144:	2800      	cmp	r0, #0
 8004146:	d0ad      	beq.n	80040a4 <HAL_UART_IRQHandler+0x50>
 8004148:	6ba0      	ldr	r0, [r4, #56]	; 0x38
 800414a:	6d03      	ldr	r3, [r0, #80]	; 0x50
 800414c:	4798      	blx	r3
 800414e:	e7a9      	b.n	80040a4 <HAL_UART_IRQHandler+0x50>
 8004150:	4620      	mov	r0, r4
 8004152:	f7ff ff21 	bl	8003f98 <UART_Receive_IT>
 8004156:	e7d9      	b.n	800410c <HAL_UART_IRQHandler+0xb8>
 8004158:	4620      	mov	r0, r4
 800415a:	f7ff ff13 	bl	8003f84 <HAL_UART_ErrorCallback>
 800415e:	e7a1      	b.n	80040a4 <HAL_UART_IRQHandler+0x50>
 8004160:	4620      	mov	r0, r4
 8004162:	f7ff ff0f 	bl	8003f84 <HAL_UART_ErrorCallback>
 8004166:	e79d      	b.n	80040a4 <HAL_UART_IRQHandler+0x50>
 8004168:	4620      	mov	r0, r4
 800416a:	f7ff ff0b 	bl	8003f84 <HAL_UART_ErrorCallback>
 800416e:	2300      	movs	r3, #0
 8004170:	6423      	str	r3, [r4, #64]	; 0x40
 8004172:	e797      	b.n	80040a4 <HAL_UART_IRQHandler+0x50>
 8004174:	f013 0f10 	tst.w	r3, #16
 8004178:	d086      	beq.n	8004088 <HAL_UART_IRQHandler+0x34>
 800417a:	f010 0f10 	tst.w	r0, #16
 800417e:	d083      	beq.n	8004088 <HAL_UART_IRQHandler+0x34>
 8004180:	2300      	movs	r3, #0
 8004182:	9301      	str	r3, [sp, #4]
 8004184:	6813      	ldr	r3, [r2, #0]
 8004186:	9301      	str	r3, [sp, #4]
 8004188:	6853      	ldr	r3, [r2, #4]
 800418a:	9301      	str	r3, [sp, #4]
 800418c:	9b01      	ldr	r3, [sp, #4]
 800418e:	6953      	ldr	r3, [r2, #20]
 8004190:	f013 0f40 	tst.w	r3, #64	; 0x40
 8004194:	d033      	beq.n	80041fe <HAL_UART_IRQHandler+0x1aa>
 8004196:	6ba1      	ldr	r1, [r4, #56]	; 0x38
 8004198:	680b      	ldr	r3, [r1, #0]
 800419a:	685b      	ldr	r3, [r3, #4]
 800419c:	b29b      	uxth	r3, r3
 800419e:	2b00      	cmp	r3, #0
 80041a0:	d080      	beq.n	80040a4 <HAL_UART_IRQHandler+0x50>
 80041a2:	8da0      	ldrh	r0, [r4, #44]	; 0x2c
 80041a4:	4298      	cmp	r0, r3
 80041a6:	f67f af7d 	bls.w	80040a4 <HAL_UART_IRQHandler+0x50>
 80041aa:	85e3      	strh	r3, [r4, #46]	; 0x2e
 80041ac:	69cb      	ldr	r3, [r1, #28]
 80041ae:	f5b3 7f80 	cmp.w	r3, #256	; 0x100
 80041b2:	d108      	bne.n	80041c6 <HAL_UART_IRQHandler+0x172>
 80041b4:	8da1      	ldrh	r1, [r4, #44]	; 0x2c
 80041b6:	8de3      	ldrh	r3, [r4, #46]	; 0x2e
 80041b8:	b29b      	uxth	r3, r3
 80041ba:	1ac9      	subs	r1, r1, r3
 80041bc:	b289      	uxth	r1, r1
 80041be:	4620      	mov	r0, r4
 80041c0:	f7ff fee9 	bl	8003f96 <HAL_UARTEx_RxEventCallback>
 80041c4:	e76e      	b.n	80040a4 <HAL_UART_IRQHandler+0x50>
 80041c6:	68d3      	ldr	r3, [r2, #12]
 80041c8:	f423 7380 	bic.w	r3, r3, #256	; 0x100
 80041cc:	60d3      	str	r3, [r2, #12]
 80041ce:	6822      	ldr	r2, [r4, #0]
 80041d0:	6953      	ldr	r3, [r2, #20]
 80041d2:	f023 0301 	bic.w	r3, r3, #1
 80041d6:	6153      	str	r3, [r2, #20]
 80041d8:	6822      	ldr	r2, [r4, #0]
 80041da:	6953      	ldr	r3, [r2, #20]
 80041dc:	f023 0340 	bic.w	r3, r3, #64	; 0x40
 80041e0:	6153      	str	r3, [r2, #20]
 80041e2:	2320      	movs	r3, #32
 80041e4:	f884 303e 	strb.w	r3, [r4, #62]	; 0x3e
 80041e8:	2300      	movs	r3, #0
 80041ea:	6323      	str	r3, [r4, #48]	; 0x30
 80041ec:	6822      	ldr	r2, [r4, #0]
 80041ee:	68d3      	ldr	r3, [r2, #12]
 80041f0:	f023 0310 	bic.w	r3, r3, #16
 80041f4:	60d3      	str	r3, [r2, #12]
 80041f6:	6ba0      	ldr	r0, [r4, #56]	; 0x38
 80041f8:	f7fe f858 	bl	80022ac <HAL_DMA_Abort>
 80041fc:	e7da      	b.n	80041b4 <HAL_UART_IRQHandler+0x160>
 80041fe:	8da1      	ldrh	r1, [r4, #44]	; 0x2c
 8004200:	8de3      	ldrh	r3, [r4, #46]	; 0x2e
 8004202:	b29b      	uxth	r3, r3
 8004204:	1ac9      	subs	r1, r1, r3
 8004206:	b289      	uxth	r1, r1
 8004208:	8de3      	ldrh	r3, [r4, #46]	; 0x2e
 800420a:	b29b      	uxth	r3, r3
 800420c:	2b00      	cmp	r3, #0
 800420e:	f43f af49 	beq.w	80040a4 <HAL_UART_IRQHandler+0x50>
 8004212:	2900      	cmp	r1, #0
 8004214:	f43f af46 	beq.w	80040a4 <HAL_UART_IRQHandler+0x50>
 8004218:	68d3      	ldr	r3, [r2, #12]
 800421a:	f423 7390 	bic.w	r3, r3, #288	; 0x120
 800421e:	60d3      	str	r3, [r2, #12]
 8004220:	6822      	ldr	r2, [r4, #0]
 8004222:	6953      	ldr	r3, [r2, #20]
 8004224:	f023 0301 	bic.w	r3, r3, #1
 8004228:	6153      	str	r3, [r2, #20]
 800422a:	2320      	movs	r3, #32
 800422c:	f884 303e 	strb.w	r3, [r4, #62]	; 0x3e
 8004230:	2300      	movs	r3, #0
 8004232:	6323      	str	r3, [r4, #48]	; 0x30
 8004234:	6822      	ldr	r2, [r4, #0]
 8004236:	68d3      	ldr	r3, [r2, #12]
 8004238:	f023 0310 	bic.w	r3, r3, #16
 800423c:	60d3      	str	r3, [r2, #12]
 800423e:	4620      	mov	r0, r4
 8004240:	f7ff fea9 	bl	8003f96 <HAL_UARTEx_RxEventCallback>
 8004244:	e72e      	b.n	80040a4 <HAL_UART_IRQHandler+0x50>
 8004246:	4620      	mov	r0, r4
 8004248:	f7ff fd9f 	bl	8003d8a <UART_Transmit_IT>
 800424c:	e72a      	b.n	80040a4 <HAL_UART_IRQHandler+0x50>
 800424e:	4620      	mov	r0, r4
 8004250:	f7ff fe8a 	bl	8003f68 <UART_EndTransmit_IT>
 8004254:	e726      	b.n	80040a4 <HAL_UART_IRQHandler+0x50>
 8004256:	bf00      	nop
 8004258:	08003f87 	.word	0x08003f87

0800425c <SystemInit>:
 800425c:	4a03      	ldr	r2, [pc, #12]	; (800426c <SystemInit+0x10>)
 800425e:	f8d2 3088 	ldr.w	r3, [r2, #136]	; 0x88
 8004262:	f443 0370 	orr.w	r3, r3, #15728640	; 0xf00000
 8004266:	f8c2 3088 	str.w	r3, [r2, #136]	; 0x88
 800426a:	4770      	bx	lr
 800426c:	e000ed00 	.word	0xe000ed00

08004270 <disk_status>:
 8004270:	b508      	push	{r3, lr}
 8004272:	4b04      	ldr	r3, [pc, #16]	; (8004284 <disk_status+0x14>)
 8004274:	eb03 0280 	add.w	r2, r3, r0, lsl #2
 8004278:	6852      	ldr	r2, [r2, #4]
 800427a:	6852      	ldr	r2, [r2, #4]
 800427c:	4403      	add	r3, r0
 800427e:	7a18      	ldrb	r0, [r3, #8]
 8004280:	4790      	blx	r2
 8004282:	bd08      	pop	{r3, pc}
 8004284:	200000ec 	.word	0x200000ec

08004288 <disk_initialize>:
 8004288:	b508      	push	{r3, lr}
 800428a:	4b08      	ldr	r3, [pc, #32]	; (80042ac <disk_initialize+0x24>)
 800428c:	5c1b      	ldrb	r3, [r3, r0]
 800428e:	b953      	cbnz	r3, 80042a6 <disk_initialize+0x1e>
 8004290:	4b06      	ldr	r3, [pc, #24]	; (80042ac <disk_initialize+0x24>)
 8004292:	2201      	movs	r2, #1
 8004294:	541a      	strb	r2, [r3, r0]
 8004296:	eb03 0280 	add.w	r2, r3, r0, lsl #2
 800429a:	6852      	ldr	r2, [r2, #4]
 800429c:	6812      	ldr	r2, [r2, #0]
 800429e:	4418      	add	r0, r3
 80042a0:	7a00      	ldrb	r0, [r0, #8]
 80042a2:	4790      	blx	r2
 80042a4:	bd08      	pop	{r3, pc}
 80042a6:	2000      	movs	r0, #0
 80042a8:	e7fc      	b.n	80042a4 <disk_initialize+0x1c>
 80042aa:	bf00      	nop
 80042ac:	200000ec 	.word	0x200000ec

080042b0 <disk_read>:
 80042b0:	b538      	push	{r3, r4, r5, lr}
 80042b2:	4c04      	ldr	r4, [pc, #16]	; (80042c4 <disk_read+0x14>)
 80042b4:	eb04 0580 	add.w	r5, r4, r0, lsl #2
 80042b8:	686d      	ldr	r5, [r5, #4]
 80042ba:	68ad      	ldr	r5, [r5, #8]
 80042bc:	4404      	add	r4, r0
 80042be:	7a20      	ldrb	r0, [r4, #8]
 80042c0:	47a8      	blx	r5
 80042c2:	bd38      	pop	{r3, r4, r5, pc}
 80042c4:	200000ec 	.word	0x200000ec

080042c8 <disk_write>:
 80042c8:	b538      	push	{r3, r4, r5, lr}
 80042ca:	4c04      	ldr	r4, [pc, #16]	; (80042dc <disk_write+0x14>)
 80042cc:	eb04 0580 	add.w	r5, r4, r0, lsl #2
 80042d0:	686d      	ldr	r5, [r5, #4]
 80042d2:	68ed      	ldr	r5, [r5, #12]
 80042d4:	4404      	add	r4, r0
 80042d6:	7a20      	ldrb	r0, [r4, #8]
 80042d8:	47a8      	blx	r5
 80042da:	bd38      	pop	{r3, r4, r5, pc}
 80042dc:	200000ec 	.word	0x200000ec

080042e0 <disk_ioctl>:
 80042e0:	b510      	push	{r4, lr}
 80042e2:	4b04      	ldr	r3, [pc, #16]	; (80042f4 <disk_ioctl+0x14>)
 80042e4:	eb03 0480 	add.w	r4, r3, r0, lsl #2
 80042e8:	6864      	ldr	r4, [r4, #4]
 80042ea:	6924      	ldr	r4, [r4, #16]
 80042ec:	4403      	add	r3, r0
 80042ee:	7a18      	ldrb	r0, [r3, #8]
 80042f0:	47a0      	blx	r4
 80042f2:	bd10      	pop	{r4, pc}
 80042f4:	200000ec 	.word	0x200000ec

080042f8 <ld_word>:
 80042f8:	7842      	ldrb	r2, [r0, #1]
 80042fa:	7800      	ldrb	r0, [r0, #0]
 80042fc:	ea40 2002 	orr.w	r0, r0, r2, lsl #8
 8004300:	4770      	bx	lr

08004302 <ld_dword>:
 8004302:	78c2      	ldrb	r2, [r0, #3]
 8004304:	7883      	ldrb	r3, [r0, #2]
 8004306:	ea43 2202 	orr.w	r2, r3, r2, lsl #8
 800430a:	7843      	ldrb	r3, [r0, #1]
 800430c:	ea43 2302 	orr.w	r3, r3, r2, lsl #8
 8004310:	7800      	ldrb	r0, [r0, #0]
 8004312:	ea40 2003 	orr.w	r0, r0, r3, lsl #8
 8004316:	4770      	bx	lr

08004318 <st_word>:
 8004318:	7001      	strb	r1, [r0, #0]
 800431a:	0a09      	lsrs	r1, r1, #8
 800431c:	7041      	strb	r1, [r0, #1]
 800431e:	4770      	bx	lr

08004320 <st_dword>:
 8004320:	7001      	strb	r1, [r0, #0]
 8004322:	f3c1 2307 	ubfx	r3, r1, #8, #8
 8004326:	7043      	strb	r3, [r0, #1]
 8004328:	f3c1 4307 	ubfx	r3, r1, #16, #8
 800432c:	7083      	strb	r3, [r0, #2]
 800432e:	0e09      	lsrs	r1, r1, #24
 8004330:	70c1      	strb	r1, [r0, #3]
 8004332:	4770      	bx	lr

08004334 <mem_cpy>:
 8004334:	b410      	push	{r4}
 8004336:	4614      	mov	r4, r2
 8004338:	b12a      	cbz	r2, 8004346 <mem_cpy+0x12>
 800433a:	780a      	ldrb	r2, [r1, #0]
 800433c:	3101      	adds	r1, #1
 800433e:	7002      	strb	r2, [r0, #0]
 8004340:	3001      	adds	r0, #1
 8004342:	3c01      	subs	r4, #1
 8004344:	d1f9      	bne.n	800433a <mem_cpy+0x6>
 8004346:	f85d 4b04 	ldr.w	r4, [sp], #4
 800434a:	4770      	bx	lr

0800434c <mem_set>:
 800434c:	7001      	strb	r1, [r0, #0]
 800434e:	3001      	adds	r0, #1
 8004350:	3a01      	subs	r2, #1
 8004352:	d1fb      	bne.n	800434c <mem_set>
 8004354:	4770      	bx	lr

08004356 <mem_cmp>:
 8004356:	b410      	push	{r4}
 8004358:	4604      	mov	r4, r0
 800435a:	7820      	ldrb	r0, [r4, #0]
 800435c:	3401      	adds	r4, #1
 800435e:	780b      	ldrb	r3, [r1, #0]
 8004360:	3101      	adds	r1, #1
 8004362:	1ac0      	subs	r0, r0, r3
 8004364:	3a01      	subs	r2, #1
 8004366:	d001      	beq.n	800436c <mem_cmp+0x16>
 8004368:	2800      	cmp	r0, #0
 800436a:	d0f6      	beq.n	800435a <mem_cmp+0x4>
 800436c:	f85d 4b04 	ldr.w	r4, [sp], #4
 8004370:	4770      	bx	lr

08004372 <chk_chr>:
 8004372:	4603      	mov	r3, r0
 8004374:	7818      	ldrb	r0, [r3, #0]
 8004376:	b118      	cbz	r0, 8004380 <chk_chr+0xe>
 8004378:	4288      	cmp	r0, r1
 800437a:	d001      	beq.n	8004380 <chk_chr+0xe>
 800437c:	3301      	adds	r3, #1
 800437e:	e7f9      	b.n	8004374 <chk_chr+0x2>
 8004380:	4770      	bx	lr
	...

08004384 <chk_lock>:
 8004384:	b430      	push	{r4, r5}
 8004386:	2500      	movs	r5, #0
 8004388:	462b      	mov	r3, r5
 800438a:	e001      	b.n	8004390 <chk_lock+0xc>
 800438c:	2501      	movs	r5, #1
 800438e:	3301      	adds	r3, #1
 8004390:	2b01      	cmp	r3, #1
 8004392:	d815      	bhi.n	80043c0 <chk_lock+0x3c>
 8004394:	011a      	lsls	r2, r3, #4
 8004396:	4c17      	ldr	r4, [pc, #92]	; (80043f4 <chk_lock+0x70>)
 8004398:	58a2      	ldr	r2, [r4, r2]
 800439a:	2a00      	cmp	r2, #0
 800439c:	d0f6      	beq.n	800438c <chk_lock+0x8>
 800439e:	6804      	ldr	r4, [r0, #0]
 80043a0:	42a2      	cmp	r2, r4
 80043a2:	d1f4      	bne.n	800438e <chk_lock+0xa>
 80043a4:	4a13      	ldr	r2, [pc, #76]	; (80043f4 <chk_lock+0x70>)
 80043a6:	eb02 1203 	add.w	r2, r2, r3, lsl #4
 80043aa:	6854      	ldr	r4, [r2, #4]
 80043ac:	6882      	ldr	r2, [r0, #8]
 80043ae:	4294      	cmp	r4, r2
 80043b0:	d1ed      	bne.n	800438e <chk_lock+0xa>
 80043b2:	4a10      	ldr	r2, [pc, #64]	; (80043f4 <chk_lock+0x70>)
 80043b4:	eb02 1203 	add.w	r2, r2, r3, lsl #4
 80043b8:	6894      	ldr	r4, [r2, #8]
 80043ba:	6942      	ldr	r2, [r0, #20]
 80043bc:	4294      	cmp	r4, r2
 80043be:	d1e6      	bne.n	800438e <chk_lock+0xa>
 80043c0:	2b02      	cmp	r3, #2
 80043c2:	d00a      	beq.n	80043da <chk_lock+0x56>
 80043c4:	b9a1      	cbnz	r1, 80043f0 <chk_lock+0x6c>
 80043c6:	4a0b      	ldr	r2, [pc, #44]	; (80043f4 <chk_lock+0x70>)
 80043c8:	eb02 1303 	add.w	r3, r2, r3, lsl #4
 80043cc:	899b      	ldrh	r3, [r3, #12]
 80043ce:	f5b3 7f80 	cmp.w	r3, #256	; 0x100
 80043d2:	d00b      	beq.n	80043ec <chk_lock+0x68>
 80043d4:	2000      	movs	r0, #0
 80043d6:	bc30      	pop	{r4, r5}
 80043d8:	4770      	bx	lr
 80043da:	b92d      	cbnz	r5, 80043e8 <chk_lock+0x64>
 80043dc:	2902      	cmp	r1, #2
 80043de:	d001      	beq.n	80043e4 <chk_lock+0x60>
 80043e0:	2012      	movs	r0, #18
 80043e2:	e7f8      	b.n	80043d6 <chk_lock+0x52>
 80043e4:	2000      	movs	r0, #0
 80043e6:	e7f6      	b.n	80043d6 <chk_lock+0x52>
 80043e8:	2000      	movs	r0, #0
 80043ea:	e7f4      	b.n	80043d6 <chk_lock+0x52>
 80043ec:	2010      	movs	r0, #16
 80043ee:	e7f2      	b.n	80043d6 <chk_lock+0x52>
 80043f0:	2010      	movs	r0, #16
 80043f2:	e7f0      	b.n	80043d6 <chk_lock+0x52>
 80043f4:	200000c8 	.word	0x200000c8

080043f8 <enq_lock>:
 80043f8:	2000      	movs	r0, #0
 80043fa:	e000      	b.n	80043fe <enq_lock+0x6>
 80043fc:	3001      	adds	r0, #1
 80043fe:	2801      	cmp	r0, #1
 8004400:	d804      	bhi.n	800440c <enq_lock+0x14>
 8004402:	0103      	lsls	r3, r0, #4
 8004404:	4a03      	ldr	r2, [pc, #12]	; (8004414 <enq_lock+0x1c>)
 8004406:	58d3      	ldr	r3, [r2, r3]
 8004408:	2b00      	cmp	r3, #0
 800440a:	d1f7      	bne.n	80043fc <enq_lock+0x4>
 800440c:	3802      	subs	r0, #2
 800440e:	bf18      	it	ne
 8004410:	2001      	movne	r0, #1
 8004412:	4770      	bx	lr
 8004414:	200000c8 	.word	0x200000c8

08004418 <inc_lock>:
 8004418:	b470      	push	{r4, r5, r6}
 800441a:	2300      	movs	r3, #0
 800441c:	e000      	b.n	8004420 <inc_lock+0x8>
 800441e:	3301      	adds	r3, #1
 8004420:	2b01      	cmp	r3, #1
 8004422:	d813      	bhi.n	800444c <inc_lock+0x34>
 8004424:	011a      	lsls	r2, r3, #4
 8004426:	4c24      	ldr	r4, [pc, #144]	; (80044b8 <inc_lock+0xa0>)
 8004428:	58a4      	ldr	r4, [r4, r2]
 800442a:	6802      	ldr	r2, [r0, #0]
 800442c:	4294      	cmp	r4, r2
 800442e:	d1f6      	bne.n	800441e <inc_lock+0x6>
 8004430:	4a21      	ldr	r2, [pc, #132]	; (80044b8 <inc_lock+0xa0>)
 8004432:	eb02 1203 	add.w	r2, r2, r3, lsl #4
 8004436:	6854      	ldr	r4, [r2, #4]
 8004438:	6882      	ldr	r2, [r0, #8]
 800443a:	4294      	cmp	r4, r2
 800443c:	d1ef      	bne.n	800441e <inc_lock+0x6>
 800443e:	4a1e      	ldr	r2, [pc, #120]	; (80044b8 <inc_lock+0xa0>)
 8004440:	eb02 1203 	add.w	r2, r2, r3, lsl #4
 8004444:	6894      	ldr	r4, [r2, #8]
 8004446:	6942      	ldr	r2, [r0, #20]
 8004448:	4294      	cmp	r4, r2
 800444a:	d1e8      	bne.n	800441e <inc_lock+0x6>
 800444c:	2b02      	cmp	r3, #2
 800444e:	d013      	beq.n	8004478 <inc_lock+0x60>
 8004450:	b121      	cbz	r1, 800445c <inc_lock+0x44>
 8004452:	4a19      	ldr	r2, [pc, #100]	; (80044b8 <inc_lock+0xa0>)
 8004454:	eb02 1203 	add.w	r2, r2, r3, lsl #4
 8004458:	8992      	ldrh	r2, [r2, #12]
 800445a:	bb52      	cbnz	r2, 80044b2 <inc_lock+0x9a>
 800445c:	bb21      	cbnz	r1, 80044a8 <inc_lock+0x90>
 800445e:	4a16      	ldr	r2, [pc, #88]	; (80044b8 <inc_lock+0xa0>)
 8004460:	eb02 1203 	add.w	r2, r2, r3, lsl #4
 8004464:	8991      	ldrh	r1, [r2, #12]
 8004466:	3101      	adds	r1, #1
 8004468:	b289      	uxth	r1, r1
 800446a:	4a13      	ldr	r2, [pc, #76]	; (80044b8 <inc_lock+0xa0>)
 800446c:	eb02 1203 	add.w	r2, r2, r3, lsl #4
 8004470:	8191      	strh	r1, [r2, #12]
 8004472:	1c58      	adds	r0, r3, #1
 8004474:	bc70      	pop	{r4, r5, r6}
 8004476:	4770      	bx	lr
 8004478:	2300      	movs	r3, #0
 800447a:	2b01      	cmp	r3, #1
 800447c:	d805      	bhi.n	800448a <inc_lock+0x72>
 800447e:	011a      	lsls	r2, r3, #4
 8004480:	4c0d      	ldr	r4, [pc, #52]	; (80044b8 <inc_lock+0xa0>)
 8004482:	58a2      	ldr	r2, [r4, r2]
 8004484:	b10a      	cbz	r2, 800448a <inc_lock+0x72>
 8004486:	3301      	adds	r3, #1
 8004488:	e7f7      	b.n	800447a <inc_lock+0x62>
 800448a:	2b02      	cmp	r3, #2
 800448c:	d00f      	beq.n	80044ae <inc_lock+0x96>
 800448e:	6806      	ldr	r6, [r0, #0]
 8004490:	4d09      	ldr	r5, [pc, #36]	; (80044b8 <inc_lock+0xa0>)
 8004492:	011c      	lsls	r4, r3, #4
 8004494:	eb05 1203 	add.w	r2, r5, r3, lsl #4
 8004498:	512e      	str	r6, [r5, r4]
 800449a:	6884      	ldr	r4, [r0, #8]
 800449c:	6054      	str	r4, [r2, #4]
 800449e:	6940      	ldr	r0, [r0, #20]
 80044a0:	6090      	str	r0, [r2, #8]
 80044a2:	2000      	movs	r0, #0
 80044a4:	8190      	strh	r0, [r2, #12]
 80044a6:	e7d3      	b.n	8004450 <inc_lock+0x38>
 80044a8:	f44f 7180 	mov.w	r1, #256	; 0x100
 80044ac:	e7dd      	b.n	800446a <inc_lock+0x52>
 80044ae:	2000      	movs	r0, #0
 80044b0:	e7e0      	b.n	8004474 <inc_lock+0x5c>
 80044b2:	2000      	movs	r0, #0
 80044b4:	e7de      	b.n	8004474 <inc_lock+0x5c>
 80044b6:	bf00      	nop
 80044b8:	200000c8 	.word	0x200000c8

080044bc <dec_lock>:
 80044bc:	3801      	subs	r0, #1
 80044be:	2801      	cmp	r0, #1
 80044c0:	d815      	bhi.n	80044ee <dec_lock+0x32>
 80044c2:	4b0d      	ldr	r3, [pc, #52]	; (80044f8 <dec_lock+0x3c>)
 80044c4:	eb03 1300 	add.w	r3, r3, r0, lsl #4
 80044c8:	899b      	ldrh	r3, [r3, #12]
 80044ca:	f5b3 7f80 	cmp.w	r3, #256	; 0x100
 80044ce:	d003      	beq.n	80044d8 <dec_lock+0x1c>
 80044d0:	b11b      	cbz	r3, 80044da <dec_lock+0x1e>
 80044d2:	3b01      	subs	r3, #1
 80044d4:	b29b      	uxth	r3, r3
 80044d6:	e000      	b.n	80044da <dec_lock+0x1e>
 80044d8:	2300      	movs	r3, #0
 80044da:	4a07      	ldr	r2, [pc, #28]	; (80044f8 <dec_lock+0x3c>)
 80044dc:	eb02 1200 	add.w	r2, r2, r0, lsl #4
 80044e0:	8193      	strh	r3, [r2, #12]
 80044e2:	b933      	cbnz	r3, 80044f2 <dec_lock+0x36>
 80044e4:	0103      	lsls	r3, r0, #4
 80044e6:	2000      	movs	r0, #0
 80044e8:	4a03      	ldr	r2, [pc, #12]	; (80044f8 <dec_lock+0x3c>)
 80044ea:	50d0      	str	r0, [r2, r3]
 80044ec:	4770      	bx	lr
 80044ee:	2002      	movs	r0, #2
 80044f0:	4770      	bx	lr
 80044f2:	2000      	movs	r0, #0
 80044f4:	4770      	bx	lr
 80044f6:	bf00      	nop
 80044f8:	200000c8 	.word	0x200000c8

080044fc <clear_lock>:
 80044fc:	2300      	movs	r3, #0
 80044fe:	e003      	b.n	8004508 <clear_lock+0xc>
 8004500:	f85d 4b04 	ldr.w	r4, [sp], #4
 8004504:	4770      	bx	lr
 8004506:	3301      	adds	r3, #1
 8004508:	2b01      	cmp	r3, #1
 800450a:	d811      	bhi.n	8004530 <clear_lock+0x34>
 800450c:	011a      	lsls	r2, r3, #4
 800450e:	4909      	ldr	r1, [pc, #36]	; (8004534 <clear_lock+0x38>)
 8004510:	588a      	ldr	r2, [r1, r2]
 8004512:	4282      	cmp	r2, r0
 8004514:	d1f7      	bne.n	8004506 <clear_lock+0xa>
 8004516:	b410      	push	{r4}
 8004518:	011a      	lsls	r2, r3, #4
 800451a:	2400      	movs	r4, #0
 800451c:	508c      	str	r4, [r1, r2]
 800451e:	3301      	adds	r3, #1
 8004520:	2b01      	cmp	r3, #1
 8004522:	d8ed      	bhi.n	8004500 <clear_lock+0x4>
 8004524:	011a      	lsls	r2, r3, #4
 8004526:	4903      	ldr	r1, [pc, #12]	; (8004534 <clear_lock+0x38>)
 8004528:	588a      	ldr	r2, [r1, r2]
 800452a:	4282      	cmp	r2, r0
 800452c:	d1f7      	bne.n	800451e <clear_lock+0x22>
 800452e:	e7f3      	b.n	8004518 <clear_lock+0x1c>
 8004530:	4770      	bx	lr
 8004532:	bf00      	nop
 8004534:	200000c8 	.word	0x200000c8

08004538 <clust2sect>:
 8004538:	3902      	subs	r1, #2
 800453a:	6983      	ldr	r3, [r0, #24]
 800453c:	3b02      	subs	r3, #2
 800453e:	428b      	cmp	r3, r1
 8004540:	d904      	bls.n	800454c <clust2sect+0x14>
 8004542:	8943      	ldrh	r3, [r0, #10]
 8004544:	6ac0      	ldr	r0, [r0, #44]	; 0x2c
 8004546:	fb01 0003 	mla	r0, r1, r3, r0
 800454a:	4770      	bx	lr
 800454c:	2000      	movs	r0, #0
 800454e:	4770      	bx	lr

08004550 <clmt_clust>:
 8004550:	6802      	ldr	r2, [r0, #0]
 8004552:	6ac3      	ldr	r3, [r0, #44]	; 0x2c
 8004554:	3304      	adds	r3, #4
 8004556:	8990      	ldrh	r0, [r2, #12]
 8004558:	fbb1 f1f0 	udiv	r1, r1, r0
 800455c:	8952      	ldrh	r2, [r2, #10]
 800455e:	fbb1 f1f2 	udiv	r1, r1, r2
 8004562:	6818      	ldr	r0, [r3, #0]
 8004564:	b130      	cbz	r0, 8004574 <clmt_clust+0x24>
 8004566:	4281      	cmp	r1, r0
 8004568:	d302      	bcc.n	8004570 <clmt_clust+0x20>
 800456a:	1a09      	subs	r1, r1, r0
 800456c:	3308      	adds	r3, #8
 800456e:	e7f8      	b.n	8004562 <clmt_clust+0x12>
 8004570:	6858      	ldr	r0, [r3, #4]
 8004572:	4408      	add	r0, r1
 8004574:	4770      	bx	lr

08004576 <ld_clust>:
 8004576:	b570      	push	{r4, r5, r6, lr}
 8004578:	4606      	mov	r6, r0
 800457a:	460d      	mov	r5, r1
 800457c:	f101 001a 	add.w	r0, r1, #26
 8004580:	f7ff feba 	bl	80042f8 <ld_word>
 8004584:	7833      	ldrb	r3, [r6, #0]
 8004586:	2b03      	cmp	r3, #3
 8004588:	d000      	beq.n	800458c <ld_clust+0x16>
 800458a:	bd70      	pop	{r4, r5, r6, pc}
 800458c:	4604      	mov	r4, r0
 800458e:	f105 0014 	add.w	r0, r5, #20
 8004592:	f7ff feb1 	bl	80042f8 <ld_word>
 8004596:	ea44 4000 	orr.w	r0, r4, r0, lsl #16
 800459a:	e7f6      	b.n	800458a <ld_clust+0x14>

0800459c <st_clust>:
 800459c:	b570      	push	{r4, r5, r6, lr}
 800459e:	4606      	mov	r6, r0
 80045a0:	460c      	mov	r4, r1
 80045a2:	4615      	mov	r5, r2
 80045a4:	b291      	uxth	r1, r2
 80045a6:	f104 001a 	add.w	r0, r4, #26
 80045aa:	f7ff feb5 	bl	8004318 <st_word>
 80045ae:	7833      	ldrb	r3, [r6, #0]
 80045b0:	2b03      	cmp	r3, #3
 80045b2:	d000      	beq.n	80045b6 <st_clust+0x1a>
 80045b4:	bd70      	pop	{r4, r5, r6, pc}
 80045b6:	0c29      	lsrs	r1, r5, #16
 80045b8:	f104 0014 	add.w	r0, r4, #20
 80045bc:	f7ff feac 	bl	8004318 <st_word>
 80045c0:	e7f8      	b.n	80045b4 <st_clust+0x18>
	...

080045c4 <create_name>:
 80045c4:	e92d 4ff8 	stmdb	sp!, {r3, r4, r5, r6, r7, r8, r9, sl, fp, lr}
 80045c8:	4681      	mov	r9, r0
 80045ca:	468a      	mov	sl, r1
 80045cc:	680f      	ldr	r7, [r1, #0]
 80045ce:	f100 0b24 	add.w	fp, r0, #36	; 0x24
 80045d2:	220b      	movs	r2, #11
 80045d4:	2120      	movs	r1, #32
 80045d6:	4658      	mov	r0, fp
 80045d8:	f7ff feb8 	bl	800434c <mem_set>
 80045dc:	2600      	movs	r6, #0
 80045de:	4633      	mov	r3, r6
 80045e0:	f04f 0808 	mov.w	r8, #8
 80045e4:	e02c      	b.n	8004640 <create_name+0x7c>
 80045e6:	3501      	adds	r5, #1
 80045e8:	5d7b      	ldrb	r3, [r7, r5]
 80045ea:	2b2f      	cmp	r3, #47	; 0x2f
 80045ec:	d0fb      	beq.n	80045e6 <create_name+0x22>
 80045ee:	2b5c      	cmp	r3, #92	; 0x5c
 80045f0:	d0f9      	beq.n	80045e6 <create_name+0x22>
 80045f2:	443d      	add	r5, r7
 80045f4:	f8ca 5000 	str.w	r5, [sl]
 80045f8:	2e00      	cmp	r6, #0
 80045fa:	d043      	beq.n	8004684 <create_name+0xc0>
 80045fc:	f899 3024 	ldrb.w	r3, [r9, #36]	; 0x24
 8004600:	2be5      	cmp	r3, #229	; 0xe5
 8004602:	d035      	beq.n	8004670 <create_name+0xac>
 8004604:	2c20      	cmp	r4, #32
 8004606:	d837      	bhi.n	8004678 <create_name+0xb4>
 8004608:	2304      	movs	r3, #4
 800460a:	f889 302f 	strb.w	r3, [r9, #47]	; 0x2f
 800460e:	2000      	movs	r0, #0
 8004610:	e028      	b.n	8004664 <create_name+0xa0>
 8004612:	2608      	movs	r6, #8
 8004614:	f04f 080b 	mov.w	r8, #11
 8004618:	e011      	b.n	800463e <create_name+0x7a>
 800461a:	f014 0f80 	tst.w	r4, #128	; 0x80
 800461e:	d123      	bne.n	8004668 <create_name+0xa4>
 8004620:	4621      	mov	r1, r4
 8004622:	4819      	ldr	r0, [pc, #100]	; (8004688 <create_name+0xc4>)
 8004624:	f7ff fea5 	bl	8004372 <chk_chr>
 8004628:	bb50      	cbnz	r0, 8004680 <create_name+0xbc>
 800462a:	f1a4 0361 	sub.w	r3, r4, #97	; 0x61
 800462e:	b2db      	uxtb	r3, r3
 8004630:	2b19      	cmp	r3, #25
 8004632:	d801      	bhi.n	8004638 <create_name+0x74>
 8004634:	3c20      	subs	r4, #32
 8004636:	b2e4      	uxtb	r4, r4
 8004638:	f80b 4006 	strb.w	r4, [fp, r6]
 800463c:	3601      	adds	r6, #1
 800463e:	462b      	mov	r3, r5
 8004640:	1c5d      	adds	r5, r3, #1
 8004642:	5cfc      	ldrb	r4, [r7, r3]
 8004644:	2c20      	cmp	r4, #32
 8004646:	d9d4      	bls.n	80045f2 <create_name+0x2e>
 8004648:	2c2f      	cmp	r4, #47	; 0x2f
 800464a:	d0cd      	beq.n	80045e8 <create_name+0x24>
 800464c:	2c5c      	cmp	r4, #92	; 0x5c
 800464e:	d0cb      	beq.n	80045e8 <create_name+0x24>
 8004650:	2c2e      	cmp	r4, #46	; 0x2e
 8004652:	d001      	beq.n	8004658 <create_name+0x94>
 8004654:	45b0      	cmp	r8, r6
 8004656:	d8e0      	bhi.n	800461a <create_name+0x56>
 8004658:	f1b8 0f0b 	cmp.w	r8, #11
 800465c:	d00e      	beq.n	800467c <create_name+0xb8>
 800465e:	2c2e      	cmp	r4, #46	; 0x2e
 8004660:	d0d7      	beq.n	8004612 <create_name+0x4e>
 8004662:	2006      	movs	r0, #6
 8004664:	e8bd 8ff8 	ldmia.w	sp!, {r3, r4, r5, r6, r7, r8, r9, sl, fp, pc}
 8004668:	3c80      	subs	r4, #128	; 0x80
 800466a:	4b08      	ldr	r3, [pc, #32]	; (800468c <create_name+0xc8>)
 800466c:	5d1c      	ldrb	r4, [r3, r4]
 800466e:	e7d7      	b.n	8004620 <create_name+0x5c>
 8004670:	2305      	movs	r3, #5
 8004672:	f889 3024 	strb.w	r3, [r9, #36]	; 0x24
 8004676:	e7c5      	b.n	8004604 <create_name+0x40>
 8004678:	2300      	movs	r3, #0
 800467a:	e7c6      	b.n	800460a <create_name+0x46>
 800467c:	2006      	movs	r0, #6
 800467e:	e7f1      	b.n	8004664 <create_name+0xa0>
 8004680:	2006      	movs	r0, #6
 8004682:	e7ef      	b.n	8004664 <create_name+0xa0>
 8004684:	2006      	movs	r0, #6
 8004686:	e7ed      	b.n	8004664 <create_name+0xa0>
 8004688:	080081dc 	.word	0x080081dc
 800468c:	080081ec 	.word	0x080081ec

08004690 <get_ldnumber>:
 8004690:	4601      	mov	r1, r0
 8004692:	6800      	ldr	r0, [r0, #0]
 8004694:	b108      	cbz	r0, 800469a <get_ldnumber+0xa>
 8004696:	4602      	mov	r2, r0
 8004698:	e003      	b.n	80046a2 <get_ldnumber+0x12>
 800469a:	f04f 30ff 	mov.w	r0, #4294967295	; 0xffffffff
 800469e:	4770      	bx	lr
 80046a0:	3201      	adds	r2, #1
 80046a2:	7813      	ldrb	r3, [r2, #0]
 80046a4:	2b20      	cmp	r3, #32
 80046a6:	d901      	bls.n	80046ac <get_ldnumber+0x1c>
 80046a8:	2b3a      	cmp	r3, #58	; 0x3a
 80046aa:	d1f9      	bne.n	80046a0 <get_ldnumber+0x10>
 80046ac:	2b3a      	cmp	r3, #58	; 0x3a
 80046ae:	d001      	beq.n	80046b4 <get_ldnumber+0x24>
 80046b0:	2000      	movs	r0, #0
 80046b2:	4770      	bx	lr
 80046b4:	b410      	push	{r4}
 80046b6:	4603      	mov	r3, r0
 80046b8:	f813 0b01 	ldrb.w	r0, [r3], #1
 80046bc:	3830      	subs	r0, #48	; 0x30
 80046be:	2809      	cmp	r0, #9
 80046c0:	d808      	bhi.n	80046d4 <get_ldnumber+0x44>
 80046c2:	429a      	cmp	r2, r3
 80046c4:	d002      	beq.n	80046cc <get_ldnumber+0x3c>
 80046c6:	f04f 30ff 	mov.w	r0, #4294967295	; 0xffffffff
 80046ca:	e005      	b.n	80046d8 <get_ldnumber+0x48>
 80046cc:	b938      	cbnz	r0, 80046de <get_ldnumber+0x4e>
 80046ce:	3201      	adds	r2, #1
 80046d0:	600a      	str	r2, [r1, #0]
 80046d2:	e001      	b.n	80046d8 <get_ldnumber+0x48>
 80046d4:	f04f 30ff 	mov.w	r0, #4294967295	; 0xffffffff
 80046d8:	f85d 4b04 	ldr.w	r4, [sp], #4
 80046dc:	4770      	bx	lr
 80046de:	f04f 30ff 	mov.w	r0, #4294967295	; 0xffffffff
 80046e2:	e7f9      	b.n	80046d8 <get_ldnumber+0x48>

080046e4 <putc_init>:
 80046e4:	6001      	str	r1, [r0, #0]
 80046e6:	2300      	movs	r3, #0
 80046e8:	6043      	str	r3, [r0, #4]
 80046ea:	6083      	str	r3, [r0, #8]
 80046ec:	4770      	bx	lr

080046ee <validate>:
 80046ee:	b538      	push	{r3, r4, r5, lr}
 80046f0:	460d      	mov	r5, r1
 80046f2:	4604      	mov	r4, r0
 80046f4:	b198      	cbz	r0, 800471e <validate+0x30>
 80046f6:	6803      	ldr	r3, [r0, #0]
 80046f8:	b19b      	cbz	r3, 8004722 <validate+0x34>
 80046fa:	781a      	ldrb	r2, [r3, #0]
 80046fc:	b1a2      	cbz	r2, 8004728 <validate+0x3a>
 80046fe:	8881      	ldrh	r1, [r0, #4]
 8004700:	88da      	ldrh	r2, [r3, #6]
 8004702:	4291      	cmp	r1, r2
 8004704:	d003      	beq.n	800470e <validate+0x20>
 8004706:	2009      	movs	r0, #9
 8004708:	2400      	movs	r4, #0
 800470a:	602c      	str	r4, [r5, #0]
 800470c:	bd38      	pop	{r3, r4, r5, pc}
 800470e:	7858      	ldrb	r0, [r3, #1]
 8004710:	f7ff fdae 	bl	8004270 <disk_status>
 8004714:	f010 0001 	ands.w	r0, r0, #1
 8004718:	d109      	bne.n	800472e <validate+0x40>
 800471a:	6824      	ldr	r4, [r4, #0]
 800471c:	e7f5      	b.n	800470a <validate+0x1c>
 800471e:	2009      	movs	r0, #9
 8004720:	e7f3      	b.n	800470a <validate+0x1c>
 8004722:	461c      	mov	r4, r3
 8004724:	2009      	movs	r0, #9
 8004726:	e7f0      	b.n	800470a <validate+0x1c>
 8004728:	2009      	movs	r0, #9
 800472a:	2400      	movs	r4, #0
 800472c:	e7ed      	b.n	800470a <validate+0x1c>
 800472e:	2009      	movs	r0, #9
 8004730:	2400      	movs	r4, #0
 8004732:	e7ea      	b.n	800470a <validate+0x1c>

08004734 <sync_window>:
 8004734:	e92d 41f0 	stmdb	sp!, {r4, r5, r6, r7, r8, lr}
 8004738:	78c5      	ldrb	r5, [r0, #3]
 800473a:	b915      	cbnz	r5, 8004742 <sync_window+0xe>
 800473c:	4628      	mov	r0, r5
 800473e:	e8bd 81f0 	ldmia.w	sp!, {r4, r5, r6, r7, r8, pc}
 8004742:	4604      	mov	r4, r0
 8004744:	6b07      	ldr	r7, [r0, #48]	; 0x30
 8004746:	f100 0834 	add.w	r8, r0, #52	; 0x34
 800474a:	2301      	movs	r3, #1
 800474c:	463a      	mov	r2, r7
 800474e:	4641      	mov	r1, r8
 8004750:	7840      	ldrb	r0, [r0, #1]
 8004752:	f7ff fdb9 	bl	80042c8 <disk_write>
 8004756:	4605      	mov	r5, r0
 8004758:	b998      	cbnz	r0, 8004782 <sync_window+0x4e>
 800475a:	2300      	movs	r3, #0
 800475c:	70e3      	strb	r3, [r4, #3]
 800475e:	6a63      	ldr	r3, [r4, #36]	; 0x24
 8004760:	1afb      	subs	r3, r7, r3
 8004762:	69e2      	ldr	r2, [r4, #28]
 8004764:	4293      	cmp	r3, r2
 8004766:	d2e9      	bcs.n	800473c <sync_window+0x8>
 8004768:	78a6      	ldrb	r6, [r4, #2]
 800476a:	2e01      	cmp	r6, #1
 800476c:	d9e6      	bls.n	800473c <sync_window+0x8>
 800476e:	69e3      	ldr	r3, [r4, #28]
 8004770:	441f      	add	r7, r3
 8004772:	2301      	movs	r3, #1
 8004774:	463a      	mov	r2, r7
 8004776:	4641      	mov	r1, r8
 8004778:	7860      	ldrb	r0, [r4, #1]
 800477a:	f7ff fda5 	bl	80042c8 <disk_write>
 800477e:	3e01      	subs	r6, #1
 8004780:	e7f3      	b.n	800476a <sync_window+0x36>
 8004782:	2501      	movs	r5, #1
 8004784:	e7da      	b.n	800473c <sync_window+0x8>

08004786 <move_window>:
 8004786:	b570      	push	{r4, r5, r6, lr}
 8004788:	6b03      	ldr	r3, [r0, #48]	; 0x30
 800478a:	428b      	cmp	r3, r1
 800478c:	d102      	bne.n	8004794 <move_window+0xe>
 800478e:	2600      	movs	r6, #0
 8004790:	4630      	mov	r0, r6
 8004792:	bd70      	pop	{r4, r5, r6, pc}
 8004794:	4604      	mov	r4, r0
 8004796:	460d      	mov	r5, r1
 8004798:	f7ff ffcc 	bl	8004734 <sync_window>
 800479c:	4606      	mov	r6, r0
 800479e:	2800      	cmp	r0, #0
 80047a0:	d1f6      	bne.n	8004790 <move_window+0xa>
 80047a2:	2301      	movs	r3, #1
 80047a4:	462a      	mov	r2, r5
 80047a6:	f104 0134 	add.w	r1, r4, #52	; 0x34
 80047aa:	7860      	ldrb	r0, [r4, #1]
 80047ac:	f7ff fd80 	bl	80042b0 <disk_read>
 80047b0:	b110      	cbz	r0, 80047b8 <move_window+0x32>
 80047b2:	2601      	movs	r6, #1
 80047b4:	f04f 35ff 	mov.w	r5, #4294967295	; 0xffffffff
 80047b8:	6325      	str	r5, [r4, #48]	; 0x30
 80047ba:	e7e9      	b.n	8004790 <move_window+0xa>

080047bc <check_fs>:
 80047bc:	b538      	push	{r3, r4, r5, lr}
 80047be:	4604      	mov	r4, r0
 80047c0:	2300      	movs	r3, #0
 80047c2:	70c3      	strb	r3, [r0, #3]
 80047c4:	f04f 33ff 	mov.w	r3, #4294967295	; 0xffffffff
 80047c8:	6303      	str	r3, [r0, #48]	; 0x30
 80047ca:	f7ff ffdc 	bl	8004786 <move_window>
 80047ce:	bb30      	cbnz	r0, 800481e <check_fs+0x62>
 80047d0:	4605      	mov	r5, r0
 80047d2:	f204 2032 	addw	r0, r4, #562	; 0x232
 80047d6:	f7ff fd8f 	bl	80042f8 <ld_word>
 80047da:	f64a 2355 	movw	r3, #43605	; 0xaa55
 80047de:	4298      	cmp	r0, r3
 80047e0:	d11f      	bne.n	8004822 <check_fs+0x66>
 80047e2:	f894 3034 	ldrb.w	r3, [r4, #52]	; 0x34
 80047e6:	2be9      	cmp	r3, #233	; 0xe9
 80047e8:	d007      	beq.n	80047fa <check_fs+0x3e>
 80047ea:	6b63      	ldr	r3, [r4, #52]	; 0x34
 80047ec:	f003 13ff 	and.w	r3, r3, #16711935	; 0xff00ff
 80047f0:	4a0d      	ldr	r2, [pc, #52]	; (8004828 <check_fs+0x6c>)
 80047f2:	4293      	cmp	r3, r2
 80047f4:	d001      	beq.n	80047fa <check_fs+0x3e>
 80047f6:	2502      	movs	r5, #2
 80047f8:	e014      	b.n	8004824 <check_fs+0x68>
 80047fa:	f104 006a 	add.w	r0, r4, #106	; 0x6a
 80047fe:	f7ff fd80 	bl	8004302 <ld_dword>
 8004802:	f020 407f 	bic.w	r0, r0, #4278190080	; 0xff000000
 8004806:	4b09      	ldr	r3, [pc, #36]	; (800482c <check_fs+0x70>)
 8004808:	4298      	cmp	r0, r3
 800480a:	d00b      	beq.n	8004824 <check_fs+0x68>
 800480c:	f104 0086 	add.w	r0, r4, #134	; 0x86
 8004810:	f7ff fd77 	bl	8004302 <ld_dword>
 8004814:	4b06      	ldr	r3, [pc, #24]	; (8004830 <check_fs+0x74>)
 8004816:	4298      	cmp	r0, r3
 8004818:	d004      	beq.n	8004824 <check_fs+0x68>
 800481a:	2502      	movs	r5, #2
 800481c:	e002      	b.n	8004824 <check_fs+0x68>
 800481e:	2504      	movs	r5, #4
 8004820:	e000      	b.n	8004824 <check_fs+0x68>
 8004822:	2503      	movs	r5, #3
 8004824:	4628      	mov	r0, r5
 8004826:	bd38      	pop	{r3, r4, r5, pc}
 8004828:	009000eb 	.word	0x009000eb
 800482c:	00544146 	.word	0x00544146
 8004830:	33544146 	.word	0x33544146

08004834 <find_volume>:
 8004834:	e92d 4ff0 	stmdb	sp!, {r4, r5, r6, r7, r8, r9, sl, fp, lr}
 8004838:	b087      	sub	sp, #28
 800483a:	460d      	mov	r5, r1
 800483c:	4616      	mov	r6, r2
 800483e:	2300      	movs	r3, #0
 8004840:	600b      	str	r3, [r1, #0]
 8004842:	f7ff ff25 	bl	8004690 <get_ldnumber>
 8004846:	1e07      	subs	r7, r0, #0
 8004848:	f2c0 8166 	blt.w	8004b18 <find_volume+0x2e4>
 800484c:	4bc8      	ldr	r3, [pc, #800]	; (8004b70 <find_volume+0x33c>)
 800484e:	f853 4027 	ldr.w	r4, [r3, r7, lsl #2]
 8004852:	2c00      	cmp	r4, #0
 8004854:	f000 8165 	beq.w	8004b22 <find_volume+0x2ee>
 8004858:	602c      	str	r4, [r5, #0]
 800485a:	f006 06fe 	and.w	r6, r6, #254	; 0xfe
 800485e:	7823      	ldrb	r3, [r4, #0]
 8004860:	b173      	cbz	r3, 8004880 <find_volume+0x4c>
 8004862:	7860      	ldrb	r0, [r4, #1]
 8004864:	f7ff fd04 	bl	8004270 <disk_status>
 8004868:	f010 0501 	ands.w	r5, r0, #1
 800486c:	d108      	bne.n	8004880 <find_volume+0x4c>
 800486e:	2e00      	cmp	r6, #0
 8004870:	f000 8153 	beq.w	8004b1a <find_volume+0x2e6>
 8004874:	f010 0f04 	tst.w	r0, #4
 8004878:	f000 814f 	beq.w	8004b1a <find_volume+0x2e6>
 800487c:	250a      	movs	r5, #10
 800487e:	e14c      	b.n	8004b1a <find_volume+0x2e6>
 8004880:	2300      	movs	r3, #0
 8004882:	7023      	strb	r3, [r4, #0]
 8004884:	b2f8      	uxtb	r0, r7
 8004886:	7060      	strb	r0, [r4, #1]
 8004888:	f7ff fcfe 	bl	8004288 <disk_initialize>
 800488c:	f010 0f01 	tst.w	r0, #1
 8004890:	f040 8149 	bne.w	8004b26 <find_volume+0x2f2>
 8004894:	b11e      	cbz	r6, 800489e <find_volume+0x6a>
 8004896:	f010 0f04 	tst.w	r0, #4
 800489a:	f040 8146 	bne.w	8004b2a <find_volume+0x2f6>
 800489e:	f104 020c 	add.w	r2, r4, #12
 80048a2:	2102      	movs	r1, #2
 80048a4:	7860      	ldrb	r0, [r4, #1]
 80048a6:	f7ff fd1b 	bl	80042e0 <disk_ioctl>
 80048aa:	4605      	mov	r5, r0
 80048ac:	2800      	cmp	r0, #0
 80048ae:	f040 813e 	bne.w	8004b2e <find_volume+0x2fa>
 80048b2:	89a2      	ldrh	r2, [r4, #12]
 80048b4:	f5a2 7300 	sub.w	r3, r2, #512	; 0x200
 80048b8:	b29b      	uxth	r3, r3
 80048ba:	f5b3 6f60 	cmp.w	r3, #3584	; 0xe00
 80048be:	f200 8138 	bhi.w	8004b32 <find_volume+0x2fe>
 80048c2:	1e53      	subs	r3, r2, #1
 80048c4:	421a      	tst	r2, r3
 80048c6:	d001      	beq.n	80048cc <find_volume+0x98>
 80048c8:	2501      	movs	r5, #1
 80048ca:	e126      	b.n	8004b1a <find_volume+0x2e6>
 80048cc:	2100      	movs	r1, #0
 80048ce:	4620      	mov	r0, r4
 80048d0:	f7ff ff74 	bl	80047bc <check_fs>
 80048d4:	2802      	cmp	r0, #2
 80048d6:	f000 80c1 	beq.w	8004a5c <find_volume+0x228>
 80048da:	2600      	movs	r6, #0
 80048dc:	2804      	cmp	r0, #4
 80048de:	f000 812a 	beq.w	8004b36 <find_volume+0x302>
 80048e2:	2801      	cmp	r0, #1
 80048e4:	f200 8129 	bhi.w	8004b3a <find_volume+0x306>
 80048e8:	f104 003f 	add.w	r0, r4, #63	; 0x3f
 80048ec:	f7ff fd04 	bl	80042f8 <ld_word>
 80048f0:	f8b4 800c 	ldrh.w	r8, [r4, #12]
 80048f4:	4540      	cmp	r0, r8
 80048f6:	f040 8122 	bne.w	8004b3e <find_volume+0x30a>
 80048fa:	f104 004a 	add.w	r0, r4, #74	; 0x4a
 80048fe:	f7ff fcfb 	bl	80042f8 <ld_word>
 8004902:	4607      	mov	r7, r0
 8004904:	b920      	cbnz	r0, 8004910 <find_volume+0xdc>
 8004906:	f104 0058 	add.w	r0, r4, #88	; 0x58
 800490a:	f7ff fcfa 	bl	8004302 <ld_dword>
 800490e:	4607      	mov	r7, r0
 8004910:	61e7      	str	r7, [r4, #28]
 8004912:	f894 2044 	ldrb.w	r2, [r4, #68]	; 0x44
 8004916:	70a2      	strb	r2, [r4, #2]
 8004918:	1e53      	subs	r3, r2, #1
 800491a:	b2db      	uxtb	r3, r3
 800491c:	2b01      	cmp	r3, #1
 800491e:	f200 8110 	bhi.w	8004b42 <find_volume+0x30e>
 8004922:	fb07 f302 	mul.w	r3, r7, r2
 8004926:	9300      	str	r3, [sp, #0]
 8004928:	f894 9041 	ldrb.w	r9, [r4, #65]	; 0x41
 800492c:	f8a4 900a 	strh.w	r9, [r4, #10]
 8004930:	f1b9 0f00 	cmp.w	r9, #0
 8004934:	f000 8107 	beq.w	8004b46 <find_volume+0x312>
 8004938:	f109 33ff 	add.w	r3, r9, #4294967295	; 0xffffffff
 800493c:	ea19 0f03 	tst.w	r9, r3
 8004940:	f040 8103 	bne.w	8004b4a <find_volume+0x316>
 8004944:	f104 0045 	add.w	r0, r4, #69	; 0x45
 8004948:	f7ff fcd6 	bl	80042f8 <ld_word>
 800494c:	4682      	mov	sl, r0
 800494e:	8120      	strh	r0, [r4, #8]
 8004950:	ea4f 1b58 	mov.w	fp, r8, lsr #5
 8004954:	fbb0 f3fb 	udiv	r3, r0, fp
 8004958:	fb0b 0313 	mls	r3, fp, r3, r0
 800495c:	b29b      	uxth	r3, r3
 800495e:	2b00      	cmp	r3, #0
 8004960:	f040 80f5 	bne.w	8004b4e <find_volume+0x31a>
 8004964:	f104 0047 	add.w	r0, r4, #71	; 0x47
 8004968:	f7ff fcc6 	bl	80042f8 <ld_word>
 800496c:	9001      	str	r0, [sp, #4]
 800496e:	b920      	cbnz	r0, 800497a <find_volume+0x146>
 8004970:	f104 0054 	add.w	r0, r4, #84	; 0x54
 8004974:	f7ff fcc5 	bl	8004302 <ld_dword>
 8004978:	9001      	str	r0, [sp, #4]
 800497a:	f104 0042 	add.w	r0, r4, #66	; 0x42
 800497e:	f7ff fcbb 	bl	80042f8 <ld_word>
 8004982:	4601      	mov	r1, r0
 8004984:	2800      	cmp	r0, #0
 8004986:	f000 80e4 	beq.w	8004b52 <find_volume+0x31e>
 800498a:	9b00      	ldr	r3, [sp, #0]
 800498c:	18c3      	adds	r3, r0, r3
 800498e:	fbba fbfb 	udiv	fp, sl, fp
 8004992:	445b      	add	r3, fp
 8004994:	9a01      	ldr	r2, [sp, #4]
 8004996:	429a      	cmp	r2, r3
 8004998:	f0c0 80dd 	bcc.w	8004b56 <find_volume+0x322>
 800499c:	1ad2      	subs	r2, r2, r3
 800499e:	fbb2 f0f9 	udiv	r0, r2, r9
 80049a2:	454a      	cmp	r2, r9
 80049a4:	f0c0 80d9 	bcc.w	8004b5a <find_volume+0x326>
 80049a8:	f64f 72f5 	movw	r2, #65525	; 0xfff5
 80049ac:	4290      	cmp	r0, r2
 80049ae:	d96d      	bls.n	8004a8c <find_volume+0x258>
 80049b0:	f04f 0b03 	mov.w	fp, #3
 80049b4:	f640 72f5 	movw	r2, #4085	; 0xff5
 80049b8:	4290      	cmp	r0, r2
 80049ba:	d801      	bhi.n	80049c0 <find_volume+0x18c>
 80049bc:	f04f 0b01 	mov.w	fp, #1
 80049c0:	f100 0902 	add.w	r9, r0, #2
 80049c4:	f8c4 9018 	str.w	r9, [r4, #24]
 80049c8:	6226      	str	r6, [r4, #32]
 80049ca:	198a      	adds	r2, r1, r6
 80049cc:	6262      	str	r2, [r4, #36]	; 0x24
 80049ce:	4433      	add	r3, r6
 80049d0:	62e3      	str	r3, [r4, #44]	; 0x2c
 80049d2:	f1bb 0f03 	cmp.w	fp, #3
 80049d6:	d05c      	beq.n	8004a92 <find_volume+0x25e>
 80049d8:	f1ba 0f00 	cmp.w	sl, #0
 80049dc:	f000 80c3 	beq.w	8004b66 <find_volume+0x332>
 80049e0:	9b00      	ldr	r3, [sp, #0]
 80049e2:	441a      	add	r2, r3
 80049e4:	62a2      	str	r2, [r4, #40]	; 0x28
 80049e6:	f1bb 0f02 	cmp.w	fp, #2
 80049ea:	d063      	beq.n	8004ab4 <find_volume+0x280>
 80049ec:	eb09 0249 	add.w	r2, r9, r9, lsl #1
 80049f0:	f009 0301 	and.w	r3, r9, #1
 80049f4:	eb03 0352 	add.w	r3, r3, r2, lsr #1
 80049f8:	4443      	add	r3, r8
 80049fa:	3b01      	subs	r3, #1
 80049fc:	fbb3 f8f8 	udiv	r8, r3, r8
 8004a00:	45b8      	cmp	r8, r7
 8004a02:	f200 80b2 	bhi.w	8004b6a <find_volume+0x336>
 8004a06:	f04f 33ff 	mov.w	r3, #4294967295	; 0xffffffff
 8004a0a:	6163      	str	r3, [r4, #20]
 8004a0c:	6123      	str	r3, [r4, #16]
 8004a0e:	2380      	movs	r3, #128	; 0x80
 8004a10:	7123      	strb	r3, [r4, #4]
 8004a12:	f1bb 0f03 	cmp.w	fp, #3
 8004a16:	d050      	beq.n	8004aba <find_volume+0x286>
 8004a18:	f884 b000 	strb.w	fp, [r4]
 8004a1c:	4a55      	ldr	r2, [pc, #340]	; (8004b74 <find_volume+0x340>)
 8004a1e:	8813      	ldrh	r3, [r2, #0]
 8004a20:	3301      	adds	r3, #1
 8004a22:	b29b      	uxth	r3, r3
 8004a24:	8013      	strh	r3, [r2, #0]
 8004a26:	80e3      	strh	r3, [r4, #6]
 8004a28:	4620      	mov	r0, r4
 8004a2a:	f7ff fd67 	bl	80044fc <clear_lock>
 8004a2e:	e074      	b.n	8004b1a <find_volume+0x2e6>
 8004a30:	2000      	movs	r0, #0
 8004a32:	ab06      	add	r3, sp, #24
 8004a34:	eb03 0386 	add.w	r3, r3, r6, lsl #2
 8004a38:	f843 0c10 	str.w	r0, [r3, #-16]
 8004a3c:	3601      	adds	r6, #1
 8004a3e:	2e03      	cmp	r6, #3
 8004a40:	d80e      	bhi.n	8004a60 <find_volume+0x22c>
 8004a42:	f104 0034 	add.w	r0, r4, #52	; 0x34
 8004a46:	0133      	lsls	r3, r6, #4
 8004a48:	f503 73df 	add.w	r3, r3, #446	; 0x1be
 8004a4c:	4418      	add	r0, r3
 8004a4e:	7903      	ldrb	r3, [r0, #4]
 8004a50:	2b00      	cmp	r3, #0
 8004a52:	d0ed      	beq.n	8004a30 <find_volume+0x1fc>
 8004a54:	3008      	adds	r0, #8
 8004a56:	f7ff fc54 	bl	8004302 <ld_dword>
 8004a5a:	e7ea      	b.n	8004a32 <find_volume+0x1fe>
 8004a5c:	2600      	movs	r6, #0
 8004a5e:	e7ee      	b.n	8004a3e <find_volume+0x20a>
 8004a60:	2700      	movs	r7, #0
 8004a62:	e00a      	b.n	8004a7a <find_volume+0x246>
 8004a64:	4631      	mov	r1, r6
 8004a66:	4620      	mov	r0, r4
 8004a68:	f7ff fea8 	bl	80047bc <check_fs>
 8004a6c:	2801      	cmp	r0, #1
 8004a6e:	f67f af35 	bls.w	80048dc <find_volume+0xa8>
 8004a72:	3701      	adds	r7, #1
 8004a74:	2f03      	cmp	r7, #3
 8004a76:	f63f af31 	bhi.w	80048dc <find_volume+0xa8>
 8004a7a:	ab06      	add	r3, sp, #24
 8004a7c:	eb03 0387 	add.w	r3, r3, r7, lsl #2
 8004a80:	f853 6c10 	ldr.w	r6, [r3, #-16]
 8004a84:	2e00      	cmp	r6, #0
 8004a86:	d1ed      	bne.n	8004a64 <find_volume+0x230>
 8004a88:	2003      	movs	r0, #3
 8004a8a:	e7f2      	b.n	8004a72 <find_volume+0x23e>
 8004a8c:	f04f 0b02 	mov.w	fp, #2
 8004a90:	e790      	b.n	80049b4 <find_volume+0x180>
 8004a92:	f104 005e 	add.w	r0, r4, #94	; 0x5e
 8004a96:	f7ff fc2f 	bl	80042f8 <ld_word>
 8004a9a:	2800      	cmp	r0, #0
 8004a9c:	d15f      	bne.n	8004b5e <find_volume+0x32a>
 8004a9e:	f1ba 0f00 	cmp.w	sl, #0
 8004aa2:	d15e      	bne.n	8004b62 <find_volume+0x32e>
 8004aa4:	f104 0060 	add.w	r0, r4, #96	; 0x60
 8004aa8:	f7ff fc2b 	bl	8004302 <ld_dword>
 8004aac:	62a0      	str	r0, [r4, #40]	; 0x28
 8004aae:	ea4f 0389 	mov.w	r3, r9, lsl #2
 8004ab2:	e7a1      	b.n	80049f8 <find_volume+0x1c4>
 8004ab4:	ea4f 0349 	mov.w	r3, r9, lsl #1
 8004ab8:	e79e      	b.n	80049f8 <find_volume+0x1c4>
 8004aba:	f104 0064 	add.w	r0, r4, #100	; 0x64
 8004abe:	f7ff fc1b 	bl	80042f8 <ld_word>
 8004ac2:	2801      	cmp	r0, #1
 8004ac4:	d1a8      	bne.n	8004a18 <find_volume+0x1e4>
 8004ac6:	1c71      	adds	r1, r6, #1
 8004ac8:	4620      	mov	r0, r4
 8004aca:	f7ff fe5c 	bl	8004786 <move_window>
 8004ace:	2800      	cmp	r0, #0
 8004ad0:	d1a2      	bne.n	8004a18 <find_volume+0x1e4>
 8004ad2:	2300      	movs	r3, #0
 8004ad4:	7123      	strb	r3, [r4, #4]
 8004ad6:	f204 2032 	addw	r0, r4, #562	; 0x232
 8004ada:	f7ff fc0d 	bl	80042f8 <ld_word>
 8004ade:	f64a 2355 	movw	r3, #43605	; 0xaa55
 8004ae2:	4298      	cmp	r0, r3
 8004ae4:	d198      	bne.n	8004a18 <find_volume+0x1e4>
 8004ae6:	f104 0034 	add.w	r0, r4, #52	; 0x34
 8004aea:	f7ff fc0a 	bl	8004302 <ld_dword>
 8004aee:	4b22      	ldr	r3, [pc, #136]	; (8004b78 <find_volume+0x344>)
 8004af0:	4298      	cmp	r0, r3
 8004af2:	d191      	bne.n	8004a18 <find_volume+0x1e4>
 8004af4:	f504 7006 	add.w	r0, r4, #536	; 0x218
 8004af8:	f7ff fc03 	bl	8004302 <ld_dword>
 8004afc:	4b1f      	ldr	r3, [pc, #124]	; (8004b7c <find_volume+0x348>)
 8004afe:	4298      	cmp	r0, r3
 8004b00:	d18a      	bne.n	8004a18 <find_volume+0x1e4>
 8004b02:	f504 7007 	add.w	r0, r4, #540	; 0x21c
 8004b06:	f7ff fbfc 	bl	8004302 <ld_dword>
 8004b0a:	6160      	str	r0, [r4, #20]
 8004b0c:	f504 7008 	add.w	r0, r4, #544	; 0x220
 8004b10:	f7ff fbf7 	bl	8004302 <ld_dword>
 8004b14:	6120      	str	r0, [r4, #16]
 8004b16:	e77f      	b.n	8004a18 <find_volume+0x1e4>
 8004b18:	250b      	movs	r5, #11
 8004b1a:	4628      	mov	r0, r5
 8004b1c:	b007      	add	sp, #28
 8004b1e:	e8bd 8ff0 	ldmia.w	sp!, {r4, r5, r6, r7, r8, r9, sl, fp, pc}
 8004b22:	250c      	movs	r5, #12
 8004b24:	e7f9      	b.n	8004b1a <find_volume+0x2e6>
 8004b26:	2503      	movs	r5, #3
 8004b28:	e7f7      	b.n	8004b1a <find_volume+0x2e6>
 8004b2a:	250a      	movs	r5, #10
 8004b2c:	e7f5      	b.n	8004b1a <find_volume+0x2e6>
 8004b2e:	2501      	movs	r5, #1
 8004b30:	e7f3      	b.n	8004b1a <find_volume+0x2e6>
 8004b32:	2501      	movs	r5, #1
 8004b34:	e7f1      	b.n	8004b1a <find_volume+0x2e6>
 8004b36:	2501      	movs	r5, #1
 8004b38:	e7ef      	b.n	8004b1a <find_volume+0x2e6>
 8004b3a:	250d      	movs	r5, #13
 8004b3c:	e7ed      	b.n	8004b1a <find_volume+0x2e6>
 8004b3e:	250d      	movs	r5, #13
 8004b40:	e7eb      	b.n	8004b1a <find_volume+0x2e6>
 8004b42:	250d      	movs	r5, #13
 8004b44:	e7e9      	b.n	8004b1a <find_volume+0x2e6>
 8004b46:	250d      	movs	r5, #13
 8004b48:	e7e7      	b.n	8004b1a <find_volume+0x2e6>
 8004b4a:	250d      	movs	r5, #13
 8004b4c:	e7e5      	b.n	8004b1a <find_volume+0x2e6>
 8004b4e:	250d      	movs	r5, #13
 8004b50:	e7e3      	b.n	8004b1a <find_volume+0x2e6>
 8004b52:	250d      	movs	r5, #13
 8004b54:	e7e1      	b.n	8004b1a <find_volume+0x2e6>
 8004b56:	250d      	movs	r5, #13
 8004b58:	e7df      	b.n	8004b1a <find_volume+0x2e6>
 8004b5a:	250d      	movs	r5, #13
 8004b5c:	e7dd      	b.n	8004b1a <find_volume+0x2e6>
 8004b5e:	250d      	movs	r5, #13
 8004b60:	e7db      	b.n	8004b1a <find_volume+0x2e6>
 8004b62:	250d      	movs	r5, #13
 8004b64:	e7d9      	b.n	8004b1a <find_volume+0x2e6>
 8004b66:	250d      	movs	r5, #13
 8004b68:	e7d7      	b.n	8004b1a <find_volume+0x2e6>
 8004b6a:	250d      	movs	r5, #13
 8004b6c:	e7d5      	b.n	8004b1a <find_volume+0x2e6>
 8004b6e:	bf00      	nop
 8004b70:	200000c4 	.word	0x200000c4
 8004b74:	200000e8 	.word	0x200000e8
 8004b78:	41615252 	.word	0x41615252
 8004b7c:	61417272 	.word	0x61417272

08004b80 <put_fat>:
 8004b80:	e92d 47f0 	stmdb	sp!, {r4, r5, r6, r7, r8, r9, sl, lr}
 8004b84:	2901      	cmp	r1, #1
 8004b86:	f240 8096 	bls.w	8004cb6 <put_fat+0x136>
 8004b8a:	4604      	mov	r4, r0
 8004b8c:	460d      	mov	r5, r1
 8004b8e:	4617      	mov	r7, r2
 8004b90:	6983      	ldr	r3, [r0, #24]
 8004b92:	428b      	cmp	r3, r1
 8004b94:	f240 8091 	bls.w	8004cba <put_fat+0x13a>
 8004b98:	7803      	ldrb	r3, [r0, #0]
 8004b9a:	2b02      	cmp	r3, #2
 8004b9c:	d04f      	beq.n	8004c3e <put_fat+0xbe>
 8004b9e:	2b03      	cmp	r3, #3
 8004ba0:	d067      	beq.n	8004c72 <put_fat+0xf2>
 8004ba2:	2b01      	cmp	r3, #1
 8004ba4:	d003      	beq.n	8004bae <put_fat+0x2e>
 8004ba6:	2602      	movs	r6, #2
 8004ba8:	4630      	mov	r0, r6
 8004baa:	e8bd 87f0 	ldmia.w	sp!, {r4, r5, r6, r7, r8, r9, sl, pc}
 8004bae:	eb01 0851 	add.w	r8, r1, r1, lsr #1
 8004bb2:	6a41      	ldr	r1, [r0, #36]	; 0x24
 8004bb4:	8983      	ldrh	r3, [r0, #12]
 8004bb6:	fbb8 f3f3 	udiv	r3, r8, r3
 8004bba:	4419      	add	r1, r3
 8004bbc:	f7ff fde3 	bl	8004786 <move_window>
 8004bc0:	4606      	mov	r6, r0
 8004bc2:	2800      	cmp	r0, #0
 8004bc4:	d1f0      	bne.n	8004ba8 <put_fat+0x28>
 8004bc6:	f104 0934 	add.w	r9, r4, #52	; 0x34
 8004bca:	f108 0a01 	add.w	sl, r8, #1
 8004bce:	89a2      	ldrh	r2, [r4, #12]
 8004bd0:	fbb8 f3f2 	udiv	r3, r8, r2
 8004bd4:	fb02 8813 	mls	r8, r2, r3, r8
 8004bd8:	f015 0501 	ands.w	r5, r5, #1
 8004bdc:	d024      	beq.n	8004c28 <put_fat+0xa8>
 8004bde:	f919 3008 	ldrsb.w	r3, [r9, r8]
 8004be2:	f003 030f 	and.w	r3, r3, #15
 8004be6:	013a      	lsls	r2, r7, #4
 8004be8:	f402 627f 	and.w	r2, r2, #4080	; 0xff0
 8004bec:	4313      	orrs	r3, r2
 8004bee:	b2db      	uxtb	r3, r3
 8004bf0:	f809 3008 	strb.w	r3, [r9, r8]
 8004bf4:	2301      	movs	r3, #1
 8004bf6:	70e3      	strb	r3, [r4, #3]
 8004bf8:	6a61      	ldr	r1, [r4, #36]	; 0x24
 8004bfa:	89a3      	ldrh	r3, [r4, #12]
 8004bfc:	fbba f3f3 	udiv	r3, sl, r3
 8004c00:	4419      	add	r1, r3
 8004c02:	4620      	mov	r0, r4
 8004c04:	f7ff fdbf 	bl	8004786 <move_window>
 8004c08:	4606      	mov	r6, r0
 8004c0a:	2800      	cmp	r0, #0
 8004c0c:	d1cc      	bne.n	8004ba8 <put_fat+0x28>
 8004c0e:	89a2      	ldrh	r2, [r4, #12]
 8004c10:	fbba f3f2 	udiv	r3, sl, r2
 8004c14:	fb02 aa13 	mls	sl, r2, r3, sl
 8004c18:	b145      	cbz	r5, 8004c2c <put_fat+0xac>
 8004c1a:	f3c7 1207 	ubfx	r2, r7, #4, #8
 8004c1e:	f809 200a 	strb.w	r2, [r9, sl]
 8004c22:	2301      	movs	r3, #1
 8004c24:	70e3      	strb	r3, [r4, #3]
 8004c26:	e7bf      	b.n	8004ba8 <put_fat+0x28>
 8004c28:	b2fb      	uxtb	r3, r7
 8004c2a:	e7e1      	b.n	8004bf0 <put_fat+0x70>
 8004c2c:	f919 200a 	ldrsb.w	r2, [r9, sl]
 8004c30:	f022 020f 	bic.w	r2, r2, #15
 8004c34:	f3c7 2703 	ubfx	r7, r7, #8, #4
 8004c38:	433a      	orrs	r2, r7
 8004c3a:	b2d2      	uxtb	r2, r2
 8004c3c:	e7ef      	b.n	8004c1e <put_fat+0x9e>
 8004c3e:	6a41      	ldr	r1, [r0, #36]	; 0x24
 8004c40:	8983      	ldrh	r3, [r0, #12]
 8004c42:	085b      	lsrs	r3, r3, #1
 8004c44:	fbb5 f3f3 	udiv	r3, r5, r3
 8004c48:	4419      	add	r1, r3
 8004c4a:	f7ff fd9c 	bl	8004786 <move_window>
 8004c4e:	4606      	mov	r6, r0
 8004c50:	2800      	cmp	r0, #0
 8004c52:	d1a9      	bne.n	8004ba8 <put_fat+0x28>
 8004c54:	f104 0034 	add.w	r0, r4, #52	; 0x34
 8004c58:	006d      	lsls	r5, r5, #1
 8004c5a:	89a2      	ldrh	r2, [r4, #12]
 8004c5c:	fbb5 f3f2 	udiv	r3, r5, r2
 8004c60:	fb02 5513 	mls	r5, r2, r3, r5
 8004c64:	b2b9      	uxth	r1, r7
 8004c66:	4428      	add	r0, r5
 8004c68:	f7ff fb56 	bl	8004318 <st_word>
 8004c6c:	2301      	movs	r3, #1
 8004c6e:	70e3      	strb	r3, [r4, #3]
 8004c70:	e79a      	b.n	8004ba8 <put_fat+0x28>
 8004c72:	6a41      	ldr	r1, [r0, #36]	; 0x24
 8004c74:	8983      	ldrh	r3, [r0, #12]
 8004c76:	089b      	lsrs	r3, r3, #2
 8004c78:	fbb5 f3f3 	udiv	r3, r5, r3
 8004c7c:	4419      	add	r1, r3
 8004c7e:	f7ff fd82 	bl	8004786 <move_window>
 8004c82:	4606      	mov	r6, r0
 8004c84:	2800      	cmp	r0, #0
 8004c86:	d18f      	bne.n	8004ba8 <put_fat+0x28>
 8004c88:	f027 4770 	bic.w	r7, r7, #4026531840	; 0xf0000000
 8004c8c:	f104 0334 	add.w	r3, r4, #52	; 0x34
 8004c90:	00ad      	lsls	r5, r5, #2
 8004c92:	89a1      	ldrh	r1, [r4, #12]
 8004c94:	fbb5 f2f1 	udiv	r2, r5, r1
 8004c98:	fb01 5512 	mls	r5, r1, r2, r5
 8004c9c:	441d      	add	r5, r3
 8004c9e:	4628      	mov	r0, r5
 8004ca0:	f7ff fb2f 	bl	8004302 <ld_dword>
 8004ca4:	f000 4170 	and.w	r1, r0, #4026531840	; 0xf0000000
 8004ca8:	4339      	orrs	r1, r7
 8004caa:	4628      	mov	r0, r5
 8004cac:	f7ff fb38 	bl	8004320 <st_dword>
 8004cb0:	2301      	movs	r3, #1
 8004cb2:	70e3      	strb	r3, [r4, #3]
 8004cb4:	e778      	b.n	8004ba8 <put_fat+0x28>
 8004cb6:	2602      	movs	r6, #2
 8004cb8:	e776      	b.n	8004ba8 <put_fat+0x28>
 8004cba:	2602      	movs	r6, #2
 8004cbc:	e774      	b.n	8004ba8 <put_fat+0x28>

08004cbe <get_fat>:
 8004cbe:	b5f8      	push	{r3, r4, r5, r6, r7, lr}
 8004cc0:	6805      	ldr	r5, [r0, #0]
 8004cc2:	2901      	cmp	r1, #1
 8004cc4:	d96c      	bls.n	8004da0 <get_fat+0xe2>
 8004cc6:	460c      	mov	r4, r1
 8004cc8:	69ab      	ldr	r3, [r5, #24]
 8004cca:	428b      	cmp	r3, r1
 8004ccc:	d96a      	bls.n	8004da4 <get_fat+0xe6>
 8004cce:	782b      	ldrb	r3, [r5, #0]
 8004cd0:	2b02      	cmp	r3, #2
 8004cd2:	d037      	beq.n	8004d44 <get_fat+0x86>
 8004cd4:	2b03      	cmp	r3, #3
 8004cd6:	d04b      	beq.n	8004d70 <get_fat+0xb2>
 8004cd8:	2b01      	cmp	r3, #1
 8004cda:	d001      	beq.n	8004ce0 <get_fat+0x22>
 8004cdc:	2001      	movs	r0, #1
 8004cde:	e060      	b.n	8004da2 <get_fat+0xe4>
 8004ce0:	eb01 0651 	add.w	r6, r1, r1, lsr #1
 8004ce4:	6a69      	ldr	r1, [r5, #36]	; 0x24
 8004ce6:	89ab      	ldrh	r3, [r5, #12]
 8004ce8:	fbb6 f3f3 	udiv	r3, r6, r3
 8004cec:	4419      	add	r1, r3
 8004cee:	4628      	mov	r0, r5
 8004cf0:	f7ff fd49 	bl	8004786 <move_window>
 8004cf4:	b110      	cbz	r0, 8004cfc <get_fat+0x3e>
 8004cf6:	f04f 30ff 	mov.w	r0, #4294967295	; 0xffffffff
 8004cfa:	e052      	b.n	8004da2 <get_fat+0xe4>
 8004cfc:	1c77      	adds	r7, r6, #1
 8004cfe:	89ab      	ldrh	r3, [r5, #12]
 8004d00:	fbb6 f2f3 	udiv	r2, r6, r3
 8004d04:	fb03 6612 	mls	r6, r3, r2, r6
 8004d08:	442e      	add	r6, r5
 8004d0a:	f896 6034 	ldrb.w	r6, [r6, #52]	; 0x34
 8004d0e:	6a69      	ldr	r1, [r5, #36]	; 0x24
 8004d10:	fbb7 f3f3 	udiv	r3, r7, r3
 8004d14:	4419      	add	r1, r3
 8004d16:	4628      	mov	r0, r5
 8004d18:	f7ff fd35 	bl	8004786 <move_window>
 8004d1c:	2800      	cmp	r0, #0
 8004d1e:	d143      	bne.n	8004da8 <get_fat+0xea>
 8004d20:	89aa      	ldrh	r2, [r5, #12]
 8004d22:	fbb7 f3f2 	udiv	r3, r7, r2
 8004d26:	fb02 7713 	mls	r7, r2, r3, r7
 8004d2a:	443d      	add	r5, r7
 8004d2c:	f895 0034 	ldrb.w	r0, [r5, #52]	; 0x34
 8004d30:	ea46 2000 	orr.w	r0, r6, r0, lsl #8
 8004d34:	f014 0f01 	tst.w	r4, #1
 8004d38:	d001      	beq.n	8004d3e <get_fat+0x80>
 8004d3a:	0900      	lsrs	r0, r0, #4
 8004d3c:	e031      	b.n	8004da2 <get_fat+0xe4>
 8004d3e:	f3c0 000b 	ubfx	r0, r0, #0, #12
 8004d42:	e02e      	b.n	8004da2 <get_fat+0xe4>
 8004d44:	6a69      	ldr	r1, [r5, #36]	; 0x24
 8004d46:	89ab      	ldrh	r3, [r5, #12]
 8004d48:	085b      	lsrs	r3, r3, #1
 8004d4a:	fbb4 f3f3 	udiv	r3, r4, r3
 8004d4e:	4419      	add	r1, r3
 8004d50:	4628      	mov	r0, r5
 8004d52:	f7ff fd18 	bl	8004786 <move_window>
 8004d56:	bb50      	cbnz	r0, 8004dae <get_fat+0xf0>
 8004d58:	f105 0034 	add.w	r0, r5, #52	; 0x34
 8004d5c:	0064      	lsls	r4, r4, #1
 8004d5e:	89aa      	ldrh	r2, [r5, #12]
 8004d60:	fbb4 f3f2 	udiv	r3, r4, r2
 8004d64:	fb02 4413 	mls	r4, r2, r3, r4
 8004d68:	4420      	add	r0, r4
 8004d6a:	f7ff fac5 	bl	80042f8 <ld_word>
 8004d6e:	e018      	b.n	8004da2 <get_fat+0xe4>
 8004d70:	6a69      	ldr	r1, [r5, #36]	; 0x24
 8004d72:	89ab      	ldrh	r3, [r5, #12]
 8004d74:	089b      	lsrs	r3, r3, #2
 8004d76:	fbb4 f3f3 	udiv	r3, r4, r3
 8004d7a:	4419      	add	r1, r3
 8004d7c:	4628      	mov	r0, r5
 8004d7e:	f7ff fd02 	bl	8004786 <move_window>
 8004d82:	b9b8      	cbnz	r0, 8004db4 <get_fat+0xf6>
 8004d84:	f105 0034 	add.w	r0, r5, #52	; 0x34
 8004d88:	00a4      	lsls	r4, r4, #2
 8004d8a:	89aa      	ldrh	r2, [r5, #12]
 8004d8c:	fbb4 f3f2 	udiv	r3, r4, r2
 8004d90:	fb02 4413 	mls	r4, r2, r3, r4
 8004d94:	4420      	add	r0, r4
 8004d96:	f7ff fab4 	bl	8004302 <ld_dword>
 8004d9a:	f020 4070 	bic.w	r0, r0, #4026531840	; 0xf0000000
 8004d9e:	e000      	b.n	8004da2 <get_fat+0xe4>
 8004da0:	2001      	movs	r0, #1
 8004da2:	bdf8      	pop	{r3, r4, r5, r6, r7, pc}
 8004da4:	2001      	movs	r0, #1
 8004da6:	e7fc      	b.n	8004da2 <get_fat+0xe4>
 8004da8:	f04f 30ff 	mov.w	r0, #4294967295	; 0xffffffff
 8004dac:	e7f9      	b.n	8004da2 <get_fat+0xe4>
 8004dae:	f04f 30ff 	mov.w	r0, #4294967295	; 0xffffffff
 8004db2:	e7f6      	b.n	8004da2 <get_fat+0xe4>
 8004db4:	f04f 30ff 	mov.w	r0, #4294967295	; 0xffffffff
 8004db8:	e7f3      	b.n	8004da2 <get_fat+0xe4>

08004dba <dir_sdi>:
 8004dba:	e92d 41f0 	stmdb	sp!, {r4, r5, r6, r7, r8, lr}
 8004dbe:	f8d0 8000 	ldr.w	r8, [r0]
 8004dc2:	f5b1 1f00 	cmp.w	r1, #2097152	; 0x200000
 8004dc6:	d24c      	bcs.n	8004e62 <dir_sdi+0xa8>
 8004dc8:	4607      	mov	r7, r0
 8004dca:	460e      	mov	r6, r1
 8004dcc:	f011 0f1f 	tst.w	r1, #31
 8004dd0:	d149      	bne.n	8004e66 <dir_sdi+0xac>
 8004dd2:	6141      	str	r1, [r0, #20]
 8004dd4:	6884      	ldr	r4, [r0, #8]
 8004dd6:	b92c      	cbnz	r4, 8004de4 <dir_sdi+0x2a>
 8004dd8:	f898 3000 	ldrb.w	r3, [r8]
 8004ddc:	2b02      	cmp	r3, #2
 8004dde:	d901      	bls.n	8004de4 <dir_sdi+0x2a>
 8004de0:	f8d8 4028 	ldr.w	r4, [r8, #40]	; 0x28
 8004de4:	b9ec      	cbnz	r4, 8004e22 <dir_sdi+0x68>
 8004de6:	f8b8 3008 	ldrh.w	r3, [r8, #8]
 8004dea:	ebb3 1f56 	cmp.w	r3, r6, lsr #5
 8004dee:	d93c      	bls.n	8004e6a <dir_sdi+0xb0>
 8004df0:	f8d8 3028 	ldr.w	r3, [r8, #40]	; 0x28
 8004df4:	61fb      	str	r3, [r7, #28]
 8004df6:	61bc      	str	r4, [r7, #24]
 8004df8:	69fb      	ldr	r3, [r7, #28]
 8004dfa:	b3e3      	cbz	r3, 8004e76 <dir_sdi+0xbc>
 8004dfc:	f8b8 200c 	ldrh.w	r2, [r8, #12]
 8004e00:	fbb6 f2f2 	udiv	r2, r6, r2
 8004e04:	4413      	add	r3, r2
 8004e06:	61fb      	str	r3, [r7, #28]
 8004e08:	f108 0334 	add.w	r3, r8, #52	; 0x34
 8004e0c:	f8b8 200c 	ldrh.w	r2, [r8, #12]
 8004e10:	fbb6 f1f2 	udiv	r1, r6, r2
 8004e14:	fb02 6611 	mls	r6, r2, r1, r6
 8004e18:	441e      	add	r6, r3
 8004e1a:	623e      	str	r6, [r7, #32]
 8004e1c:	2000      	movs	r0, #0
 8004e1e:	e8bd 81f0 	ldmia.w	sp!, {r4, r5, r6, r7, r8, pc}
 8004e22:	f8b8 300a 	ldrh.w	r3, [r8, #10]
 8004e26:	f8b8 500c 	ldrh.w	r5, [r8, #12]
 8004e2a:	fb05 f503 	mul.w	r5, r5, r3
 8004e2e:	e000      	b.n	8004e32 <dir_sdi+0x78>
 8004e30:	1b76      	subs	r6, r6, r5
 8004e32:	42ae      	cmp	r6, r5
 8004e34:	d30f      	bcc.n	8004e56 <dir_sdi+0x9c>
 8004e36:	4621      	mov	r1, r4
 8004e38:	4638      	mov	r0, r7
 8004e3a:	f7ff ff40 	bl	8004cbe <get_fat>
 8004e3e:	4604      	mov	r4, r0
 8004e40:	f1b0 3fff 	cmp.w	r0, #4294967295	; 0xffffffff
 8004e44:	d013      	beq.n	8004e6e <dir_sdi+0xb4>
 8004e46:	2801      	cmp	r0, #1
 8004e48:	d913      	bls.n	8004e72 <dir_sdi+0xb8>
 8004e4a:	f8d8 3018 	ldr.w	r3, [r8, #24]
 8004e4e:	4283      	cmp	r3, r0
 8004e50:	d8ee      	bhi.n	8004e30 <dir_sdi+0x76>
 8004e52:	2002      	movs	r0, #2
 8004e54:	e7e3      	b.n	8004e1e <dir_sdi+0x64>
 8004e56:	4621      	mov	r1, r4
 8004e58:	4640      	mov	r0, r8
 8004e5a:	f7ff fb6d 	bl	8004538 <clust2sect>
 8004e5e:	61f8      	str	r0, [r7, #28]
 8004e60:	e7c9      	b.n	8004df6 <dir_sdi+0x3c>
 8004e62:	2002      	movs	r0, #2
 8004e64:	e7db      	b.n	8004e1e <dir_sdi+0x64>
 8004e66:	2002      	movs	r0, #2
 8004e68:	e7d9      	b.n	8004e1e <dir_sdi+0x64>
 8004e6a:	2002      	movs	r0, #2
 8004e6c:	e7d7      	b.n	8004e1e <dir_sdi+0x64>
 8004e6e:	2001      	movs	r0, #1
 8004e70:	e7d5      	b.n	8004e1e <dir_sdi+0x64>
 8004e72:	2002      	movs	r0, #2
 8004e74:	e7d3      	b.n	8004e1e <dir_sdi+0x64>
 8004e76:	2002      	movs	r0, #2
 8004e78:	e7d1      	b.n	8004e1e <dir_sdi+0x64>

08004e7a <create_chain>:
 8004e7a:	e92d 41f0 	stmdb	sp!, {r4, r5, r6, r7, r8, lr}
 8004e7e:	4605      	mov	r5, r0
 8004e80:	6806      	ldr	r6, [r0, #0]
 8004e82:	460f      	mov	r7, r1
 8004e84:	b951      	cbnz	r1, 8004e9c <create_chain+0x22>
 8004e86:	f8d6 8010 	ldr.w	r8, [r6, #16]
 8004e8a:	f1b8 0f00 	cmp.w	r8, #0
 8004e8e:	d012      	beq.n	8004eb6 <create_chain+0x3c>
 8004e90:	69b3      	ldr	r3, [r6, #24]
 8004e92:	4543      	cmp	r3, r8
 8004e94:	d811      	bhi.n	8004eba <create_chain+0x40>
 8004e96:	f04f 0801 	mov.w	r8, #1
 8004e9a:	e00e      	b.n	8004eba <create_chain+0x40>
 8004e9c:	f7ff ff0f 	bl	8004cbe <get_fat>
 8004ea0:	4603      	mov	r3, r0
 8004ea2:	2801      	cmp	r0, #1
 8004ea4:	d947      	bls.n	8004f36 <create_chain+0xbc>
 8004ea6:	f1b0 3fff 	cmp.w	r0, #4294967295	; 0xffffffff
 8004eaa:	d049      	beq.n	8004f40 <create_chain+0xc6>
 8004eac:	69b2      	ldr	r2, [r6, #24]
 8004eae:	4282      	cmp	r2, r0
 8004eb0:	d846      	bhi.n	8004f40 <create_chain+0xc6>
 8004eb2:	46b8      	mov	r8, r7
 8004eb4:	e001      	b.n	8004eba <create_chain+0x40>
 8004eb6:	f04f 0801 	mov.w	r8, #1
 8004eba:	4644      	mov	r4, r8
 8004ebc:	e00c      	b.n	8004ed8 <create_chain+0x5e>
 8004ebe:	4621      	mov	r1, r4
 8004ec0:	4628      	mov	r0, r5
 8004ec2:	f7ff fefc 	bl	8004cbe <get_fat>
 8004ec6:	4603      	mov	r3, r0
 8004ec8:	b178      	cbz	r0, 8004eea <create_chain+0x70>
 8004eca:	2801      	cmp	r0, #1
 8004ecc:	d038      	beq.n	8004f40 <create_chain+0xc6>
 8004ece:	f1b0 3fff 	cmp.w	r0, #4294967295	; 0xffffffff
 8004ed2:	d035      	beq.n	8004f40 <create_chain+0xc6>
 8004ed4:	4544      	cmp	r4, r8
 8004ed6:	d032      	beq.n	8004f3e <create_chain+0xc4>
 8004ed8:	3401      	adds	r4, #1
 8004eda:	69b3      	ldr	r3, [r6, #24]
 8004edc:	42a3      	cmp	r3, r4
 8004ede:	d8ee      	bhi.n	8004ebe <create_chain+0x44>
 8004ee0:	f1b8 0f01 	cmp.w	r8, #1
 8004ee4:	d929      	bls.n	8004f3a <create_chain+0xc0>
 8004ee6:	2402      	movs	r4, #2
 8004ee8:	e7e9      	b.n	8004ebe <create_chain+0x44>
 8004eea:	f04f 32ff 	mov.w	r2, #4294967295	; 0xffffffff
 8004eee:	4621      	mov	r1, r4
 8004ef0:	4630      	mov	r0, r6
 8004ef2:	f7ff fe45 	bl	8004b80 <put_fat>
 8004ef6:	4603      	mov	r3, r0
 8004ef8:	b900      	cbnz	r0, 8004efc <create_chain+0x82>
 8004efa:	b977      	cbnz	r7, 8004f1a <create_chain+0xa0>
 8004efc:	b9a3      	cbnz	r3, 8004f28 <create_chain+0xae>
 8004efe:	6134      	str	r4, [r6, #16]
 8004f00:	6972      	ldr	r2, [r6, #20]
 8004f02:	69b3      	ldr	r3, [r6, #24]
 8004f04:	3b02      	subs	r3, #2
 8004f06:	429a      	cmp	r2, r3
 8004f08:	d801      	bhi.n	8004f0e <create_chain+0x94>
 8004f0a:	3a01      	subs	r2, #1
 8004f0c:	6172      	str	r2, [r6, #20]
 8004f0e:	7933      	ldrb	r3, [r6, #4]
 8004f10:	f043 0301 	orr.w	r3, r3, #1
 8004f14:	7133      	strb	r3, [r6, #4]
 8004f16:	4623      	mov	r3, r4
 8004f18:	e012      	b.n	8004f40 <create_chain+0xc6>
 8004f1a:	4622      	mov	r2, r4
 8004f1c:	4639      	mov	r1, r7
 8004f1e:	4630      	mov	r0, r6
 8004f20:	f7ff fe2e 	bl	8004b80 <put_fat>
 8004f24:	4603      	mov	r3, r0
 8004f26:	e7e9      	b.n	8004efc <create_chain+0x82>
 8004f28:	2b01      	cmp	r3, #1
 8004f2a:	d001      	beq.n	8004f30 <create_chain+0xb6>
 8004f2c:	2301      	movs	r3, #1
 8004f2e:	e007      	b.n	8004f40 <create_chain+0xc6>
 8004f30:	f04f 33ff 	mov.w	r3, #4294967295	; 0xffffffff
 8004f34:	e004      	b.n	8004f40 <create_chain+0xc6>
 8004f36:	2301      	movs	r3, #1
 8004f38:	e002      	b.n	8004f40 <create_chain+0xc6>
 8004f3a:	2300      	movs	r3, #0
 8004f3c:	e000      	b.n	8004f40 <create_chain+0xc6>
 8004f3e:	2300      	movs	r3, #0
 8004f40:	4618      	mov	r0, r3
 8004f42:	e8bd 81f0 	ldmia.w	sp!, {r4, r5, r6, r7, r8, pc}

08004f46 <remove_chain>:
 8004f46:	b5f8      	push	{r3, r4, r5, r6, r7, lr}
 8004f48:	460c      	mov	r4, r1
 8004f4a:	6805      	ldr	r5, [r0, #0]
 8004f4c:	2901      	cmp	r1, #1
 8004f4e:	d92e      	bls.n	8004fae <remove_chain+0x68>
 8004f50:	4606      	mov	r6, r0
 8004f52:	4611      	mov	r1, r2
 8004f54:	69ab      	ldr	r3, [r5, #24]
 8004f56:	42a3      	cmp	r3, r4
 8004f58:	d92b      	bls.n	8004fb2 <remove_chain+0x6c>
 8004f5a:	b14a      	cbz	r2, 8004f70 <remove_chain+0x2a>
 8004f5c:	f04f 32ff 	mov.w	r2, #4294967295	; 0xffffffff
 8004f60:	4628      	mov	r0, r5
 8004f62:	f7ff fe0d 	bl	8004b80 <put_fat>
 8004f66:	4607      	mov	r7, r0
 8004f68:	b110      	cbz	r0, 8004f70 <remove_chain+0x2a>
 8004f6a:	e023      	b.n	8004fb4 <remove_chain+0x6e>
 8004f6c:	42a2      	cmp	r2, r4
 8004f6e:	d921      	bls.n	8004fb4 <remove_chain+0x6e>
 8004f70:	4627      	mov	r7, r4
 8004f72:	4621      	mov	r1, r4
 8004f74:	4630      	mov	r0, r6
 8004f76:	f7ff fea2 	bl	8004cbe <get_fat>
 8004f7a:	4604      	mov	r4, r0
 8004f7c:	b1e0      	cbz	r0, 8004fb8 <remove_chain+0x72>
 8004f7e:	2801      	cmp	r0, #1
 8004f80:	d01c      	beq.n	8004fbc <remove_chain+0x76>
 8004f82:	f1b0 3fff 	cmp.w	r0, #4294967295	; 0xffffffff
 8004f86:	d01b      	beq.n	8004fc0 <remove_chain+0x7a>
 8004f88:	2200      	movs	r2, #0
 8004f8a:	4639      	mov	r1, r7
 8004f8c:	4628      	mov	r0, r5
 8004f8e:	f7ff fdf7 	bl	8004b80 <put_fat>
 8004f92:	4607      	mov	r7, r0
 8004f94:	b970      	cbnz	r0, 8004fb4 <remove_chain+0x6e>
 8004f96:	696b      	ldr	r3, [r5, #20]
 8004f98:	69aa      	ldr	r2, [r5, #24]
 8004f9a:	1e91      	subs	r1, r2, #2
 8004f9c:	428b      	cmp	r3, r1
 8004f9e:	d2e5      	bcs.n	8004f6c <remove_chain+0x26>
 8004fa0:	3301      	adds	r3, #1
 8004fa2:	616b      	str	r3, [r5, #20]
 8004fa4:	792b      	ldrb	r3, [r5, #4]
 8004fa6:	f043 0301 	orr.w	r3, r3, #1
 8004faa:	712b      	strb	r3, [r5, #4]
 8004fac:	e7de      	b.n	8004f6c <remove_chain+0x26>
 8004fae:	2702      	movs	r7, #2
 8004fb0:	e000      	b.n	8004fb4 <remove_chain+0x6e>
 8004fb2:	2702      	movs	r7, #2
 8004fb4:	4638      	mov	r0, r7
 8004fb6:	bdf8      	pop	{r3, r4, r5, r6, r7, pc}
 8004fb8:	2700      	movs	r7, #0
 8004fba:	e7fb      	b.n	8004fb4 <remove_chain+0x6e>
 8004fbc:	2702      	movs	r7, #2
 8004fbe:	e7f9      	b.n	8004fb4 <remove_chain+0x6e>
 8004fc0:	2701      	movs	r7, #1
 8004fc2:	e7f7      	b.n	8004fb4 <remove_chain+0x6e>

08004fc4 <dir_next>:
 8004fc4:	e92d 43f8 	stmdb	sp!, {r3, r4, r5, r6, r7, r8, r9, lr}
 8004fc8:	6806      	ldr	r6, [r0, #0]
 8004fca:	6945      	ldr	r5, [r0, #20]
 8004fcc:	69c3      	ldr	r3, [r0, #28]
 8004fce:	2b00      	cmp	r3, #0
 8004fd0:	d074      	beq.n	80050bc <dir_next+0xf8>
 8004fd2:	4604      	mov	r4, r0
 8004fd4:	460f      	mov	r7, r1
 8004fd6:	3520      	adds	r5, #32
 8004fd8:	f5b5 1f00 	cmp.w	r5, #2097152	; 0x200000
 8004fdc:	d270      	bcs.n	80050c0 <dir_next+0xfc>
 8004fde:	89b1      	ldrh	r1, [r6, #12]
 8004fe0:	fbb5 f2f1 	udiv	r2, r5, r1
 8004fe4:	fb01 5212 	mls	r2, r1, r2, r5
 8004fe8:	b93a      	cbnz	r2, 8004ffa <dir_next+0x36>
 8004fea:	3301      	adds	r3, #1
 8004fec:	61c3      	str	r3, [r0, #28]
 8004fee:	6981      	ldr	r1, [r0, #24]
 8004ff0:	b9a1      	cbnz	r1, 800501c <dir_next+0x58>
 8004ff2:	8933      	ldrh	r3, [r6, #8]
 8004ff4:	ebb3 1f55 	cmp.w	r3, r5, lsr #5
 8004ff8:	d90c      	bls.n	8005014 <dir_next+0x50>
 8004ffa:	6165      	str	r5, [r4, #20]
 8004ffc:	f106 0334 	add.w	r3, r6, #52	; 0x34
 8005000:	89b1      	ldrh	r1, [r6, #12]
 8005002:	fbb5 f2f1 	udiv	r2, r5, r1
 8005006:	fb01 5512 	mls	r5, r1, r2, r5
 800500a:	441d      	add	r5, r3
 800500c:	6225      	str	r5, [r4, #32]
 800500e:	2000      	movs	r0, #0
 8005010:	e8bd 83f8 	ldmia.w	sp!, {r3, r4, r5, r6, r7, r8, r9, pc}
 8005014:	2300      	movs	r3, #0
 8005016:	61c3      	str	r3, [r0, #28]
 8005018:	2004      	movs	r0, #4
 800501a:	e7f9      	b.n	8005010 <dir_next+0x4c>
 800501c:	89b2      	ldrh	r2, [r6, #12]
 800501e:	fbb5 f2f2 	udiv	r2, r5, r2
 8005022:	8973      	ldrh	r3, [r6, #10]
 8005024:	3b01      	subs	r3, #1
 8005026:	ea12 0803 	ands.w	r8, r2, r3
 800502a:	d1e6      	bne.n	8004ffa <dir_next+0x36>
 800502c:	f7ff fe47 	bl	8004cbe <get_fat>
 8005030:	4681      	mov	r9, r0
 8005032:	2801      	cmp	r0, #1
 8005034:	d946      	bls.n	80050c4 <dir_next+0x100>
 8005036:	f1b0 3fff 	cmp.w	r0, #4294967295	; 0xffffffff
 800503a:	d045      	beq.n	80050c8 <dir_next+0x104>
 800503c:	69b3      	ldr	r3, [r6, #24]
 800503e:	4283      	cmp	r3, r0
 8005040:	d834      	bhi.n	80050ac <dir_next+0xe8>
 8005042:	b18f      	cbz	r7, 8005068 <dir_next+0xa4>
 8005044:	69a1      	ldr	r1, [r4, #24]
 8005046:	4620      	mov	r0, r4
 8005048:	f7ff ff17 	bl	8004e7a <create_chain>
 800504c:	4681      	mov	r9, r0
 800504e:	2800      	cmp	r0, #0
 8005050:	d03c      	beq.n	80050cc <dir_next+0x108>
 8005052:	2801      	cmp	r0, #1
 8005054:	d03c      	beq.n	80050d0 <dir_next+0x10c>
 8005056:	f1b0 3fff 	cmp.w	r0, #4294967295	; 0xffffffff
 800505a:	d03b      	beq.n	80050d4 <dir_next+0x110>
 800505c:	4630      	mov	r0, r6
 800505e:	f7ff fb69 	bl	8004734 <sync_window>
 8005062:	b128      	cbz	r0, 8005070 <dir_next+0xac>
 8005064:	2001      	movs	r0, #1
 8005066:	e7d3      	b.n	8005010 <dir_next+0x4c>
 8005068:	2300      	movs	r3, #0
 800506a:	61e3      	str	r3, [r4, #28]
 800506c:	2004      	movs	r0, #4
 800506e:	e7cf      	b.n	8005010 <dir_next+0x4c>
 8005070:	89b2      	ldrh	r2, [r6, #12]
 8005072:	2100      	movs	r1, #0
 8005074:	f106 0034 	add.w	r0, r6, #52	; 0x34
 8005078:	f7ff f968 	bl	800434c <mem_set>
 800507c:	4649      	mov	r1, r9
 800507e:	4630      	mov	r0, r6
 8005080:	f7ff fa5a 	bl	8004538 <clust2sect>
 8005084:	6330      	str	r0, [r6, #48]	; 0x30
 8005086:	8973      	ldrh	r3, [r6, #10]
 8005088:	4598      	cmp	r8, r3
 800508a:	d20b      	bcs.n	80050a4 <dir_next+0xe0>
 800508c:	2301      	movs	r3, #1
 800508e:	70f3      	strb	r3, [r6, #3]
 8005090:	4630      	mov	r0, r6
 8005092:	f7ff fb4f 	bl	8004734 <sync_window>
 8005096:	b9f8      	cbnz	r0, 80050d8 <dir_next+0x114>
 8005098:	f108 0801 	add.w	r8, r8, #1
 800509c:	6b33      	ldr	r3, [r6, #48]	; 0x30
 800509e:	3301      	adds	r3, #1
 80050a0:	6333      	str	r3, [r6, #48]	; 0x30
 80050a2:	e7f0      	b.n	8005086 <dir_next+0xc2>
 80050a4:	6b33      	ldr	r3, [r6, #48]	; 0x30
 80050a6:	eba3 0308 	sub.w	r3, r3, r8
 80050aa:	6333      	str	r3, [r6, #48]	; 0x30
 80050ac:	f8c4 9018 	str.w	r9, [r4, #24]
 80050b0:	4649      	mov	r1, r9
 80050b2:	4630      	mov	r0, r6
 80050b4:	f7ff fa40 	bl	8004538 <clust2sect>
 80050b8:	61e0      	str	r0, [r4, #28]
 80050ba:	e79e      	b.n	8004ffa <dir_next+0x36>
 80050bc:	2004      	movs	r0, #4
 80050be:	e7a7      	b.n	8005010 <dir_next+0x4c>
 80050c0:	2004      	movs	r0, #4
 80050c2:	e7a5      	b.n	8005010 <dir_next+0x4c>
 80050c4:	2002      	movs	r0, #2
 80050c6:	e7a3      	b.n	8005010 <dir_next+0x4c>
 80050c8:	2001      	movs	r0, #1
 80050ca:	e7a1      	b.n	8005010 <dir_next+0x4c>
 80050cc:	2007      	movs	r0, #7
 80050ce:	e79f      	b.n	8005010 <dir_next+0x4c>
 80050d0:	2002      	movs	r0, #2
 80050d2:	e79d      	b.n	8005010 <dir_next+0x4c>
 80050d4:	2001      	movs	r0, #1
 80050d6:	e79b      	b.n	8005010 <dir_next+0x4c>
 80050d8:	2001      	movs	r0, #1
 80050da:	e799      	b.n	8005010 <dir_next+0x4c>

080050dc <dir_find>:
 80050dc:	b570      	push	{r4, r5, r6, lr}
 80050de:	4604      	mov	r4, r0
 80050e0:	6806      	ldr	r6, [r0, #0]
 80050e2:	2100      	movs	r1, #0
 80050e4:	f7ff fe69 	bl	8004dba <dir_sdi>
 80050e8:	4605      	mov	r5, r0
 80050ea:	b140      	cbz	r0, 80050fe <dir_find+0x22>
 80050ec:	4628      	mov	r0, r5
 80050ee:	bd70      	pop	{r4, r5, r6, pc}
 80050f0:	2100      	movs	r1, #0
 80050f2:	4620      	mov	r0, r4
 80050f4:	f7ff ff66 	bl	8004fc4 <dir_next>
 80050f8:	4605      	mov	r5, r0
 80050fa:	2800      	cmp	r0, #0
 80050fc:	d1f6      	bne.n	80050ec <dir_find+0x10>
 80050fe:	69e1      	ldr	r1, [r4, #28]
 8005100:	4630      	mov	r0, r6
 8005102:	f7ff fb40 	bl	8004786 <move_window>
 8005106:	4605      	mov	r5, r0
 8005108:	2800      	cmp	r0, #0
 800510a:	d1ef      	bne.n	80050ec <dir_find+0x10>
 800510c:	6a20      	ldr	r0, [r4, #32]
 800510e:	7803      	ldrb	r3, [r0, #0]
 8005110:	b17b      	cbz	r3, 8005132 <dir_find+0x56>
 8005112:	7ac3      	ldrb	r3, [r0, #11]
 8005114:	f003 033f 	and.w	r3, r3, #63	; 0x3f
 8005118:	71a3      	strb	r3, [r4, #6]
 800511a:	7ac3      	ldrb	r3, [r0, #11]
 800511c:	f013 0f08 	tst.w	r3, #8
 8005120:	d1e6      	bne.n	80050f0 <dir_find+0x14>
 8005122:	220b      	movs	r2, #11
 8005124:	f104 0124 	add.w	r1, r4, #36	; 0x24
 8005128:	f7ff f915 	bl	8004356 <mem_cmp>
 800512c:	2800      	cmp	r0, #0
 800512e:	d1df      	bne.n	80050f0 <dir_find+0x14>
 8005130:	e7dc      	b.n	80050ec <dir_find+0x10>
 8005132:	2504      	movs	r5, #4
 8005134:	e7da      	b.n	80050ec <dir_find+0x10>

08005136 <follow_path>:
 8005136:	b530      	push	{r4, r5, lr}
 8005138:	b083      	sub	sp, #12
 800513a:	4604      	mov	r4, r0
 800513c:	9101      	str	r1, [sp, #4]
 800513e:	6805      	ldr	r5, [r0, #0]
 8005140:	e001      	b.n	8005146 <follow_path+0x10>
 8005142:	3301      	adds	r3, #1
 8005144:	9301      	str	r3, [sp, #4]
 8005146:	9b01      	ldr	r3, [sp, #4]
 8005148:	781a      	ldrb	r2, [r3, #0]
 800514a:	2a2f      	cmp	r2, #47	; 0x2f
 800514c:	d0f9      	beq.n	8005142 <follow_path+0xc>
 800514e:	2a5c      	cmp	r2, #92	; 0x5c
 8005150:	d0f7      	beq.n	8005142 <follow_path+0xc>
 8005152:	2200      	movs	r2, #0
 8005154:	60a2      	str	r2, [r4, #8]
 8005156:	781b      	ldrb	r3, [r3, #0]
 8005158:	2b1f      	cmp	r3, #31
 800515a:	d81e      	bhi.n	800519a <follow_path+0x64>
 800515c:	2380      	movs	r3, #128	; 0x80
 800515e:	f884 302f 	strb.w	r3, [r4, #47]	; 0x2f
 8005162:	4611      	mov	r1, r2
 8005164:	4620      	mov	r0, r4
 8005166:	f7ff fe28 	bl	8004dba <dir_sdi>
 800516a:	4603      	mov	r3, r0
 800516c:	4618      	mov	r0, r3
 800516e:	b003      	add	sp, #12
 8005170:	bd30      	pop	{r4, r5, pc}
 8005172:	2804      	cmp	r0, #4
 8005174:	d1fa      	bne.n	800516c <follow_path+0x36>
 8005176:	f012 0f04 	tst.w	r2, #4
 800517a:	d1f7      	bne.n	800516c <follow_path+0x36>
 800517c:	2305      	movs	r3, #5
 800517e:	e7f5      	b.n	800516c <follow_path+0x36>
 8005180:	f105 0134 	add.w	r1, r5, #52	; 0x34
 8005184:	6960      	ldr	r0, [r4, #20]
 8005186:	89aa      	ldrh	r2, [r5, #12]
 8005188:	fbb0 f3f2 	udiv	r3, r0, r2
 800518c:	fb02 0313 	mls	r3, r2, r3, r0
 8005190:	4419      	add	r1, r3
 8005192:	4628      	mov	r0, r5
 8005194:	f7ff f9ef 	bl	8004576 <ld_clust>
 8005198:	60a0      	str	r0, [r4, #8]
 800519a:	a901      	add	r1, sp, #4
 800519c:	4620      	mov	r0, r4
 800519e:	f7ff fa11 	bl	80045c4 <create_name>
 80051a2:	4603      	mov	r3, r0
 80051a4:	2800      	cmp	r0, #0
 80051a6:	d1e1      	bne.n	800516c <follow_path+0x36>
 80051a8:	4620      	mov	r0, r4
 80051aa:	f7ff ff97 	bl	80050dc <dir_find>
 80051ae:	f894 202f 	ldrb.w	r2, [r4, #47]	; 0x2f
 80051b2:	4603      	mov	r3, r0
 80051b4:	2800      	cmp	r0, #0
 80051b6:	d1dc      	bne.n	8005172 <follow_path+0x3c>
 80051b8:	f012 0f04 	tst.w	r2, #4
 80051bc:	d1d6      	bne.n	800516c <follow_path+0x36>
 80051be:	79a3      	ldrb	r3, [r4, #6]
 80051c0:	f013 0f10 	tst.w	r3, #16
 80051c4:	d1dc      	bne.n	8005180 <follow_path+0x4a>
 80051c6:	2305      	movs	r3, #5
 80051c8:	e7d0      	b.n	800516c <follow_path+0x36>

080051ca <dir_alloc>:
 80051ca:	b5f8      	push	{r3, r4, r5, r6, r7, lr}
 80051cc:	4604      	mov	r4, r0
 80051ce:	460e      	mov	r6, r1
 80051d0:	6807      	ldr	r7, [r0, #0]
 80051d2:	2100      	movs	r1, #0
 80051d4:	f7ff fdf1 	bl	8004dba <dir_sdi>
 80051d8:	4602      	mov	r2, r0
 80051da:	b9c0      	cbnz	r0, 800520e <dir_alloc+0x44>
 80051dc:	2500      	movs	r5, #0
 80051de:	e008      	b.n	80051f2 <dir_alloc+0x28>
 80051e0:	3501      	adds	r5, #1
 80051e2:	42b5      	cmp	r5, r6
 80051e4:	d013      	beq.n	800520e <dir_alloc+0x44>
 80051e6:	2101      	movs	r1, #1
 80051e8:	4620      	mov	r0, r4
 80051ea:	f7ff feeb 	bl	8004fc4 <dir_next>
 80051ee:	4602      	mov	r2, r0
 80051f0:	b968      	cbnz	r0, 800520e <dir_alloc+0x44>
 80051f2:	69e1      	ldr	r1, [r4, #28]
 80051f4:	4638      	mov	r0, r7
 80051f6:	f7ff fac6 	bl	8004786 <move_window>
 80051fa:	4602      	mov	r2, r0
 80051fc:	b938      	cbnz	r0, 800520e <dir_alloc+0x44>
 80051fe:	6a23      	ldr	r3, [r4, #32]
 8005200:	781b      	ldrb	r3, [r3, #0]
 8005202:	2be5      	cmp	r3, #229	; 0xe5
 8005204:	d0ec      	beq.n	80051e0 <dir_alloc+0x16>
 8005206:	2b00      	cmp	r3, #0
 8005208:	d0ea      	beq.n	80051e0 <dir_alloc+0x16>
 800520a:	2500      	movs	r5, #0
 800520c:	e7eb      	b.n	80051e6 <dir_alloc+0x1c>
 800520e:	2a04      	cmp	r2, #4
 8005210:	d001      	beq.n	8005216 <dir_alloc+0x4c>
 8005212:	4610      	mov	r0, r2
 8005214:	bdf8      	pop	{r3, r4, r5, r6, r7, pc}
 8005216:	2207      	movs	r2, #7
 8005218:	e7fb      	b.n	8005212 <dir_alloc+0x48>

0800521a <dir_register>:
 800521a:	b570      	push	{r4, r5, r6, lr}
 800521c:	4604      	mov	r4, r0
 800521e:	6806      	ldr	r6, [r0, #0]
 8005220:	2101      	movs	r1, #1
 8005222:	f7ff ffd2 	bl	80051ca <dir_alloc>
 8005226:	4605      	mov	r5, r0
 8005228:	b108      	cbz	r0, 800522e <dir_register+0x14>
 800522a:	4628      	mov	r0, r5
 800522c:	bd70      	pop	{r4, r5, r6, pc}
 800522e:	69e1      	ldr	r1, [r4, #28]
 8005230:	4630      	mov	r0, r6
 8005232:	f7ff faa8 	bl	8004786 <move_window>
 8005236:	4605      	mov	r5, r0
 8005238:	2800      	cmp	r0, #0
 800523a:	d1f6      	bne.n	800522a <dir_register+0x10>
 800523c:	2220      	movs	r2, #32
 800523e:	2100      	movs	r1, #0
 8005240:	6a20      	ldr	r0, [r4, #32]
 8005242:	f7ff f883 	bl	800434c <mem_set>
 8005246:	220b      	movs	r2, #11
 8005248:	f104 0124 	add.w	r1, r4, #36	; 0x24
 800524c:	6a20      	ldr	r0, [r4, #32]
 800524e:	f7ff f871 	bl	8004334 <mem_cpy>
 8005252:	2301      	movs	r3, #1
 8005254:	70f3      	strb	r3, [r6, #3]
 8005256:	e7e8      	b.n	800522a <dir_register+0x10>

08005258 <sync_fs>:
 8005258:	b570      	push	{r4, r5, r6, lr}
 800525a:	4604      	mov	r4, r0
 800525c:	f7ff fa6a 	bl	8004734 <sync_window>
 8005260:	4605      	mov	r5, r0
 8005262:	b948      	cbnz	r0, 8005278 <sync_fs+0x20>
 8005264:	7823      	ldrb	r3, [r4, #0]
 8005266:	2b03      	cmp	r3, #3
 8005268:	d008      	beq.n	800527c <sync_fs+0x24>
 800526a:	2200      	movs	r2, #0
 800526c:	4611      	mov	r1, r2
 800526e:	7860      	ldrb	r0, [r4, #1]
 8005270:	f7ff f836 	bl	80042e0 <disk_ioctl>
 8005274:	b100      	cbz	r0, 8005278 <sync_fs+0x20>
 8005276:	2501      	movs	r5, #1
 8005278:	4628      	mov	r0, r5
 800527a:	bd70      	pop	{r4, r5, r6, pc}
 800527c:	7923      	ldrb	r3, [r4, #4]
 800527e:	2b01      	cmp	r3, #1
 8005280:	d1f3      	bne.n	800526a <sync_fs+0x12>
 8005282:	f104 0634 	add.w	r6, r4, #52	; 0x34
 8005286:	89a2      	ldrh	r2, [r4, #12]
 8005288:	2100      	movs	r1, #0
 800528a:	4630      	mov	r0, r6
 800528c:	f7ff f85e 	bl	800434c <mem_set>
 8005290:	f64a 2155 	movw	r1, #43605	; 0xaa55
 8005294:	f204 2032 	addw	r0, r4, #562	; 0x232
 8005298:	f7ff f83e 	bl	8004318 <st_word>
 800529c:	490e      	ldr	r1, [pc, #56]	; (80052d8 <sync_fs+0x80>)
 800529e:	4630      	mov	r0, r6
 80052a0:	f7ff f83e 	bl	8004320 <st_dword>
 80052a4:	490d      	ldr	r1, [pc, #52]	; (80052dc <sync_fs+0x84>)
 80052a6:	f504 7006 	add.w	r0, r4, #536	; 0x218
 80052aa:	f7ff f839 	bl	8004320 <st_dword>
 80052ae:	6961      	ldr	r1, [r4, #20]
 80052b0:	f504 7007 	add.w	r0, r4, #540	; 0x21c
 80052b4:	f7ff f834 	bl	8004320 <st_dword>
 80052b8:	6921      	ldr	r1, [r4, #16]
 80052ba:	f504 7008 	add.w	r0, r4, #544	; 0x220
 80052be:	f7ff f82f 	bl	8004320 <st_dword>
 80052c2:	6a22      	ldr	r2, [r4, #32]
 80052c4:	3201      	adds	r2, #1
 80052c6:	6322      	str	r2, [r4, #48]	; 0x30
 80052c8:	2301      	movs	r3, #1
 80052ca:	4631      	mov	r1, r6
 80052cc:	7860      	ldrb	r0, [r4, #1]
 80052ce:	f7fe fffb 	bl	80042c8 <disk_write>
 80052d2:	2300      	movs	r3, #0
 80052d4:	7123      	strb	r3, [r4, #4]
 80052d6:	e7c8      	b.n	800526a <sync_fs+0x12>
 80052d8:	41615252 	.word	0x41615252
 80052dc:	61417272 	.word	0x61417272

080052e0 <f_mount>:
 80052e0:	b570      	push	{r4, r5, r6, lr}
 80052e2:	b084      	sub	sp, #16
 80052e4:	9001      	str	r0, [sp, #4]
 80052e6:	9100      	str	r1, [sp, #0]
 80052e8:	4616      	mov	r6, r2
 80052ea:	9103      	str	r1, [sp, #12]
 80052ec:	a803      	add	r0, sp, #12
 80052ee:	f7ff f9cf 	bl	8004690 <get_ldnumber>
 80052f2:	1e04      	subs	r4, r0, #0
 80052f4:	db1c      	blt.n	8005330 <f_mount+0x50>
 80052f6:	4b10      	ldr	r3, [pc, #64]	; (8005338 <f_mount+0x58>)
 80052f8:	f853 5024 	ldr.w	r5, [r3, r4, lsl #2]
 80052fc:	b125      	cbz	r5, 8005308 <f_mount+0x28>
 80052fe:	4628      	mov	r0, r5
 8005300:	f7ff f8fc 	bl	80044fc <clear_lock>
 8005304:	2300      	movs	r3, #0
 8005306:	702b      	strb	r3, [r5, #0]
 8005308:	9b01      	ldr	r3, [sp, #4]
 800530a:	b10b      	cbz	r3, 8005310 <f_mount+0x30>
 800530c:	2200      	movs	r2, #0
 800530e:	701a      	strb	r2, [r3, #0]
 8005310:	9b01      	ldr	r3, [sp, #4]
 8005312:	4a09      	ldr	r2, [pc, #36]	; (8005338 <f_mount+0x58>)
 8005314:	f842 3024 	str.w	r3, [r2, r4, lsl #2]
 8005318:	b163      	cbz	r3, 8005334 <f_mount+0x54>
 800531a:	2e01      	cmp	r6, #1
 800531c:	d002      	beq.n	8005324 <f_mount+0x44>
 800531e:	2000      	movs	r0, #0
 8005320:	b004      	add	sp, #16
 8005322:	bd70      	pop	{r4, r5, r6, pc}
 8005324:	2200      	movs	r2, #0
 8005326:	a901      	add	r1, sp, #4
 8005328:	4668      	mov	r0, sp
 800532a:	f7ff fa83 	bl	8004834 <find_volume>
 800532e:	e7f7      	b.n	8005320 <f_mount+0x40>
 8005330:	200b      	movs	r0, #11
 8005332:	e7f5      	b.n	8005320 <f_mount+0x40>
 8005334:	2000      	movs	r0, #0
 8005336:	e7f3      	b.n	8005320 <f_mount+0x40>
 8005338:	200000c4 	.word	0x200000c4

0800533c <f_open>:
 800533c:	e92d 43f0 	stmdb	sp!, {r4, r5, r6, r7, r8, r9, lr}
 8005340:	b091      	sub	sp, #68	; 0x44
 8005342:	9101      	str	r1, [sp, #4]
 8005344:	2800      	cmp	r0, #0
 8005346:	f000 8111 	beq.w	800556c <f_open+0x230>
 800534a:	4615      	mov	r5, r2
 800534c:	4606      	mov	r6, r0
 800534e:	f002 073f 	and.w	r7, r2, #63	; 0x3f
 8005352:	463a      	mov	r2, r7
 8005354:	a903      	add	r1, sp, #12
 8005356:	a801      	add	r0, sp, #4
 8005358:	f7ff fa6c 	bl	8004834 <find_volume>
 800535c:	4604      	mov	r4, r0
 800535e:	b130      	cbz	r0, 800536e <f_open+0x32>
 8005360:	b10c      	cbz	r4, 8005366 <f_open+0x2a>
 8005362:	2300      	movs	r3, #0
 8005364:	6033      	str	r3, [r6, #0]
 8005366:	4620      	mov	r0, r4
 8005368:	b011      	add	sp, #68	; 0x44
 800536a:	e8bd 83f0 	ldmia.w	sp!, {r4, r5, r6, r7, r8, r9, pc}
 800536e:	9b03      	ldr	r3, [sp, #12]
 8005370:	9304      	str	r3, [sp, #16]
 8005372:	9901      	ldr	r1, [sp, #4]
 8005374:	a804      	add	r0, sp, #16
 8005376:	f7ff fede 	bl	8005136 <follow_path>
 800537a:	4604      	mov	r4, r0
 800537c:	b960      	cbnz	r0, 8005398 <f_open+0x5c>
 800537e:	f99d 303f 	ldrsb.w	r3, [sp, #63]	; 0x3f
 8005382:	2b00      	cmp	r3, #0
 8005384:	db50      	blt.n	8005428 <f_open+0xec>
 8005386:	f037 0301 	bics.w	r3, r7, #1
 800538a:	bf14      	ite	ne
 800538c:	2101      	movne	r1, #1
 800538e:	2100      	moveq	r1, #0
 8005390:	a804      	add	r0, sp, #16
 8005392:	f7fe fff7 	bl	8004384 <chk_lock>
 8005396:	4604      	mov	r4, r0
 8005398:	f015 0f1c 	tst.w	r5, #28
 800539c:	d05a      	beq.n	8005454 <f_open+0x118>
 800539e:	2c00      	cmp	r4, #0
 80053a0:	d04e      	beq.n	8005440 <f_open+0x104>
 80053a2:	2c04      	cmp	r4, #4
 80053a4:	d042      	beq.n	800542c <f_open+0xf0>
 80053a6:	f047 0708 	orr.w	r7, r7, #8
 80053aa:	2c00      	cmp	r4, #0
 80053ac:	d161      	bne.n	8005472 <f_open+0x136>
 80053ae:	f017 0f08 	tst.w	r7, #8
 80053b2:	d05e      	beq.n	8005472 <f_open+0x136>
 80053b4:	f7fc fa98 	bl	80018e8 <get_fattime>
 80053b8:	4605      	mov	r5, r0
 80053ba:	4601      	mov	r1, r0
 80053bc:	980c      	ldr	r0, [sp, #48]	; 0x30
 80053be:	300e      	adds	r0, #14
 80053c0:	f7fe ffae 	bl	8004320 <st_dword>
 80053c4:	4629      	mov	r1, r5
 80053c6:	980c      	ldr	r0, [sp, #48]	; 0x30
 80053c8:	3016      	adds	r0, #22
 80053ca:	f7fe ffa9 	bl	8004320 <st_dword>
 80053ce:	9b0c      	ldr	r3, [sp, #48]	; 0x30
 80053d0:	2220      	movs	r2, #32
 80053d2:	72da      	strb	r2, [r3, #11]
 80053d4:	f8dd 800c 	ldr.w	r8, [sp, #12]
 80053d8:	f8dd 9030 	ldr.w	r9, [sp, #48]	; 0x30
 80053dc:	4649      	mov	r1, r9
 80053de:	4640      	mov	r0, r8
 80053e0:	f7ff f8c9 	bl	8004576 <ld_clust>
 80053e4:	4605      	mov	r5, r0
 80053e6:	2200      	movs	r2, #0
 80053e8:	4649      	mov	r1, r9
 80053ea:	4640      	mov	r0, r8
 80053ec:	f7ff f8d6 	bl	800459c <st_clust>
 80053f0:	2100      	movs	r1, #0
 80053f2:	980c      	ldr	r0, [sp, #48]	; 0x30
 80053f4:	301c      	adds	r0, #28
 80053f6:	f7fe ff93 	bl	8004320 <st_dword>
 80053fa:	9b03      	ldr	r3, [sp, #12]
 80053fc:	2201      	movs	r2, #1
 80053fe:	70da      	strb	r2, [r3, #3]
 8005400:	b3bd      	cbz	r5, 8005472 <f_open+0x136>
 8005402:	9b03      	ldr	r3, [sp, #12]
 8005404:	f8d3 8030 	ldr.w	r8, [r3, #48]	; 0x30
 8005408:	2200      	movs	r2, #0
 800540a:	4629      	mov	r1, r5
 800540c:	a804      	add	r0, sp, #16
 800540e:	f7ff fd9a 	bl	8004f46 <remove_chain>
 8005412:	4604      	mov	r4, r0
 8005414:	bb68      	cbnz	r0, 8005472 <f_open+0x136>
 8005416:	4641      	mov	r1, r8
 8005418:	9803      	ldr	r0, [sp, #12]
 800541a:	f7ff f9b4 	bl	8004786 <move_window>
 800541e:	4604      	mov	r4, r0
 8005420:	3d01      	subs	r5, #1
 8005422:	9b03      	ldr	r3, [sp, #12]
 8005424:	611d      	str	r5, [r3, #16]
 8005426:	e024      	b.n	8005472 <f_open+0x136>
 8005428:	2406      	movs	r4, #6
 800542a:	e7b5      	b.n	8005398 <f_open+0x5c>
 800542c:	f7fe ffe4 	bl	80043f8 <enq_lock>
 8005430:	b908      	cbnz	r0, 8005436 <f_open+0xfa>
 8005432:	2412      	movs	r4, #18
 8005434:	e7b7      	b.n	80053a6 <f_open+0x6a>
 8005436:	a804      	add	r0, sp, #16
 8005438:	f7ff feef 	bl	800521a <dir_register>
 800543c:	4604      	mov	r4, r0
 800543e:	e7b2      	b.n	80053a6 <f_open+0x6a>
 8005440:	f89d 3016 	ldrb.w	r3, [sp, #22]
 8005444:	f013 0f11 	tst.w	r3, #17
 8005448:	d112      	bne.n	8005470 <f_open+0x134>
 800544a:	f015 0f04 	tst.w	r5, #4
 800544e:	d0ac      	beq.n	80053aa <f_open+0x6e>
 8005450:	2408      	movs	r4, #8
 8005452:	e00e      	b.n	8005472 <f_open+0x136>
 8005454:	b96c      	cbnz	r4, 8005472 <f_open+0x136>
 8005456:	f89d 3016 	ldrb.w	r3, [sp, #22]
 800545a:	f013 0f10 	tst.w	r3, #16
 800545e:	d14e      	bne.n	80054fe <f_open+0x1c2>
 8005460:	f015 0f02 	tst.w	r5, #2
 8005464:	d005      	beq.n	8005472 <f_open+0x136>
 8005466:	f013 0f01 	tst.w	r3, #1
 800546a:	d002      	beq.n	8005472 <f_open+0x136>
 800546c:	2407      	movs	r4, #7
 800546e:	e016      	b.n	800549e <f_open+0x162>
 8005470:	2407      	movs	r4, #7
 8005472:	b9a4      	cbnz	r4, 800549e <f_open+0x162>
 8005474:	f017 0f08 	tst.w	r7, #8
 8005478:	d001      	beq.n	800547e <f_open+0x142>
 800547a:	f047 0740 	orr.w	r7, r7, #64	; 0x40
 800547e:	9b03      	ldr	r3, [sp, #12]
 8005480:	6b1b      	ldr	r3, [r3, #48]	; 0x30
 8005482:	6273      	str	r3, [r6, #36]	; 0x24
 8005484:	9b0c      	ldr	r3, [sp, #48]	; 0x30
 8005486:	62b3      	str	r3, [r6, #40]	; 0x28
 8005488:	f037 0301 	bics.w	r3, r7, #1
 800548c:	bf14      	ite	ne
 800548e:	2101      	movne	r1, #1
 8005490:	2100      	moveq	r1, #0
 8005492:	a804      	add	r0, sp, #16
 8005494:	f7fe ffc0 	bl	8004418 <inc_lock>
 8005498:	6130      	str	r0, [r6, #16]
 800549a:	2800      	cmp	r0, #0
 800549c:	d064      	beq.n	8005568 <f_open+0x22c>
 800549e:	2c00      	cmp	r4, #0
 80054a0:	f47f af5e 	bne.w	8005360 <f_open+0x24>
 80054a4:	9d03      	ldr	r5, [sp, #12]
 80054a6:	f8dd 8030 	ldr.w	r8, [sp, #48]	; 0x30
 80054aa:	4641      	mov	r1, r8
 80054ac:	4628      	mov	r0, r5
 80054ae:	f7ff f862 	bl	8004576 <ld_clust>
 80054b2:	60b0      	str	r0, [r6, #8]
 80054b4:	f108 001c 	add.w	r0, r8, #28
 80054b8:	f7fe ff23 	bl	8004302 <ld_dword>
 80054bc:	60f0      	str	r0, [r6, #12]
 80054be:	2100      	movs	r1, #0
 80054c0:	62f1      	str	r1, [r6, #44]	; 0x2c
 80054c2:	6035      	str	r5, [r6, #0]
 80054c4:	88eb      	ldrh	r3, [r5, #6]
 80054c6:	80b3      	strh	r3, [r6, #4]
 80054c8:	7537      	strb	r7, [r6, #20]
 80054ca:	7571      	strb	r1, [r6, #21]
 80054cc:	6231      	str	r1, [r6, #32]
 80054ce:	61b1      	str	r1, [r6, #24]
 80054d0:	f106 0830 	add.w	r8, r6, #48	; 0x30
 80054d4:	f44f 5280 	mov.w	r2, #4096	; 0x1000
 80054d8:	4640      	mov	r0, r8
 80054da:	f7fe ff37 	bl	800434c <mem_set>
 80054de:	f017 0f20 	tst.w	r7, #32
 80054e2:	f43f af3d 	beq.w	8005360 <f_open+0x24>
 80054e6:	68f5      	ldr	r5, [r6, #12]
 80054e8:	2d00      	cmp	r5, #0
 80054ea:	f43f af39 	beq.w	8005360 <f_open+0x24>
 80054ee:	61b5      	str	r5, [r6, #24]
 80054f0:	9b03      	ldr	r3, [sp, #12]
 80054f2:	895a      	ldrh	r2, [r3, #10]
 80054f4:	899f      	ldrh	r7, [r3, #12]
 80054f6:	fb07 f702 	mul.w	r7, r7, r2
 80054fa:	68b1      	ldr	r1, [r6, #8]
 80054fc:	e005      	b.n	800550a <f_open+0x1ce>
 80054fe:	2404      	movs	r4, #4
 8005500:	e7cd      	b.n	800549e <f_open+0x162>
 8005502:	f1b1 3fff 	cmp.w	r1, #4294967295	; 0xffffffff
 8005506:	d00b      	beq.n	8005520 <f_open+0x1e4>
 8005508:	1bed      	subs	r5, r5, r7
 800550a:	b95c      	cbnz	r4, 8005524 <f_open+0x1e8>
 800550c:	42bd      	cmp	r5, r7
 800550e:	d909      	bls.n	8005524 <f_open+0x1e8>
 8005510:	4630      	mov	r0, r6
 8005512:	f7ff fbd4 	bl	8004cbe <get_fat>
 8005516:	4601      	mov	r1, r0
 8005518:	2801      	cmp	r0, #1
 800551a:	d8f2      	bhi.n	8005502 <f_open+0x1c6>
 800551c:	2402      	movs	r4, #2
 800551e:	e7f0      	b.n	8005502 <f_open+0x1c6>
 8005520:	2401      	movs	r4, #1
 8005522:	e7f1      	b.n	8005508 <f_open+0x1cc>
 8005524:	61f1      	str	r1, [r6, #28]
 8005526:	2c00      	cmp	r4, #0
 8005528:	f47f af1a 	bne.w	8005360 <f_open+0x24>
 800552c:	9f03      	ldr	r7, [sp, #12]
 800552e:	f8b7 900c 	ldrh.w	r9, [r7, #12]
 8005532:	fbb5 f3f9 	udiv	r3, r5, r9
 8005536:	fb09 5313 	mls	r3, r9, r3, r5
 800553a:	2b00      	cmp	r3, #0
 800553c:	f43f af10 	beq.w	8005360 <f_open+0x24>
 8005540:	4638      	mov	r0, r7
 8005542:	f7fe fff9 	bl	8004538 <clust2sect>
 8005546:	b908      	cbnz	r0, 800554c <f_open+0x210>
 8005548:	2402      	movs	r4, #2
 800554a:	e70a      	b.n	8005362 <f_open+0x26>
 800554c:	fbb5 f2f9 	udiv	r2, r5, r9
 8005550:	4402      	add	r2, r0
 8005552:	6232      	str	r2, [r6, #32]
 8005554:	2301      	movs	r3, #1
 8005556:	4641      	mov	r1, r8
 8005558:	7878      	ldrb	r0, [r7, #1]
 800555a:	f7fe fea9 	bl	80042b0 <disk_read>
 800555e:	2800      	cmp	r0, #0
 8005560:	f43f aefe 	beq.w	8005360 <f_open+0x24>
 8005564:	2401      	movs	r4, #1
 8005566:	e6fc      	b.n	8005362 <f_open+0x26>
 8005568:	2402      	movs	r4, #2
 800556a:	e6f9      	b.n	8005360 <f_open+0x24>
 800556c:	2409      	movs	r4, #9
 800556e:	e6fa      	b.n	8005366 <f_open+0x2a>

08005570 <f_read>:
 8005570:	e92d 4ff0 	stmdb	sp!, {r4, r5, r6, r7, r8, r9, sl, fp, lr}
 8005574:	b085      	sub	sp, #20
 8005576:	4604      	mov	r4, r0
 8005578:	460f      	mov	r7, r1
 800557a:	4615      	mov	r5, r2
 800557c:	4698      	mov	r8, r3
 800557e:	2300      	movs	r3, #0
 8005580:	f8c8 3000 	str.w	r3, [r8]
 8005584:	9001      	str	r0, [sp, #4]
 8005586:	a903      	add	r1, sp, #12
 8005588:	f7ff f8b1 	bl	80046ee <validate>
 800558c:	9000      	str	r0, [sp, #0]
 800558e:	2800      	cmp	r0, #0
 8005590:	f040 80b9 	bne.w	8005706 <f_read+0x196>
 8005594:	7d63      	ldrb	r3, [r4, #21]
 8005596:	9300      	str	r3, [sp, #0]
 8005598:	2b00      	cmp	r3, #0
 800559a:	f040 80b4 	bne.w	8005706 <f_read+0x196>
 800559e:	7d23      	ldrb	r3, [r4, #20]
 80055a0:	f013 0f01 	tst.w	r3, #1
 80055a4:	f000 80ce 	beq.w	8005744 <f_read+0x1d4>
 80055a8:	68e6      	ldr	r6, [r4, #12]
 80055aa:	69a3      	ldr	r3, [r4, #24]
 80055ac:	1af6      	subs	r6, r6, r3
 80055ae:	42ae      	cmp	r6, r5
 80055b0:	d367      	bcc.n	8005682 <f_read+0x112>
 80055b2:	462e      	mov	r6, r5
 80055b4:	e065      	b.n	8005682 <f_read+0x112>
 80055b6:	6ae3      	ldr	r3, [r4, #44]	; 0x2c
 80055b8:	b11b      	cbz	r3, 80055c2 <f_read+0x52>
 80055ba:	4620      	mov	r0, r4
 80055bc:	f7fe ffc8 	bl	8004550 <clmt_clust>
 80055c0:	e073      	b.n	80056aa <f_read+0x13a>
 80055c2:	69e1      	ldr	r1, [r4, #28]
 80055c4:	9801      	ldr	r0, [sp, #4]
 80055c6:	f7ff fb7a 	bl	8004cbe <get_fat>
 80055ca:	e06e      	b.n	80056aa <f_read+0x13a>
 80055cc:	f04f 0a02 	mov.w	sl, #2
 80055d0:	f884 a015 	strb.w	sl, [r4, #21]
 80055d4:	f8cd a000 	str.w	sl, [sp]
 80055d8:	e095      	b.n	8005706 <f_read+0x196>
 80055da:	f04f 0a01 	mov.w	sl, #1
 80055de:	f884 a015 	strb.w	sl, [r4, #21]
 80055e2:	f8cd a000 	str.w	sl, [sp]
 80055e6:	e08e      	b.n	8005706 <f_read+0x196>
 80055e8:	f04f 0a02 	mov.w	sl, #2
 80055ec:	f884 a015 	strb.w	sl, [r4, #21]
 80055f0:	f8cd a000 	str.w	sl, [sp]
 80055f4:	e087      	b.n	8005706 <f_read+0x196>
 80055f6:	f994 3014 	ldrsb.w	r3, [r4, #20]
 80055fa:	2b00      	cmp	r3, #0
 80055fc:	db04      	blt.n	8005608 <f_read+0x98>
 80055fe:	9b03      	ldr	r3, [sp, #12]
 8005600:	899d      	ldrh	r5, [r3, #12]
 8005602:	fb0a f505 	mul.w	r5, sl, r5
 8005606:	e032      	b.n	800566e <f_read+0xfe>
 8005608:	6a20      	ldr	r0, [r4, #32]
 800560a:	eba0 0009 	sub.w	r0, r0, r9
 800560e:	4550      	cmp	r0, sl
 8005610:	d2f5      	bcs.n	80055fe <f_read+0x8e>
 8005612:	9b03      	ldr	r3, [sp, #12]
 8005614:	899a      	ldrh	r2, [r3, #12]
 8005616:	f104 0130 	add.w	r1, r4, #48	; 0x30
 800561a:	fb02 7000 	mla	r0, r2, r0, r7
 800561e:	f7fe fe89 	bl	8004334 <mem_cpy>
 8005622:	e7ec      	b.n	80055fe <f_read+0x8e>
 8005624:	6a22      	ldr	r2, [r4, #32]
 8005626:	454a      	cmp	r2, r9
 8005628:	d00d      	beq.n	8005646 <f_read+0xd6>
 800562a:	f994 3014 	ldrsb.w	r3, [r4, #20]
 800562e:	2b00      	cmp	r3, #0
 8005630:	db6d      	blt.n	800570e <f_read+0x19e>
 8005632:	2301      	movs	r3, #1
 8005634:	464a      	mov	r2, r9
 8005636:	f104 0130 	add.w	r1, r4, #48	; 0x30
 800563a:	9803      	ldr	r0, [sp, #12]
 800563c:	7840      	ldrb	r0, [r0, #1]
 800563e:	f7fe fe37 	bl	80042b0 <disk_read>
 8005642:	2800      	cmp	r0, #0
 8005644:	d177      	bne.n	8005736 <f_read+0x1c6>
 8005646:	f8c4 9020 	str.w	r9, [r4, #32]
 800564a:	9b03      	ldr	r3, [sp, #12]
 800564c:	899d      	ldrh	r5, [r3, #12]
 800564e:	69a1      	ldr	r1, [r4, #24]
 8005650:	fbb1 f3f5 	udiv	r3, r1, r5
 8005654:	fb05 1313 	mls	r3, r5, r3, r1
 8005658:	1aed      	subs	r5, r5, r3
 800565a:	42ae      	cmp	r6, r5
 800565c:	d200      	bcs.n	8005660 <f_read+0xf0>
 800565e:	4635      	mov	r5, r6
 8005660:	f104 0130 	add.w	r1, r4, #48	; 0x30
 8005664:	462a      	mov	r2, r5
 8005666:	4419      	add	r1, r3
 8005668:	4638      	mov	r0, r7
 800566a:	f7fe fe63 	bl	8004334 <mem_cpy>
 800566e:	442f      	add	r7, r5
 8005670:	69a3      	ldr	r3, [r4, #24]
 8005672:	442b      	add	r3, r5
 8005674:	61a3      	str	r3, [r4, #24]
 8005676:	f8d8 3000 	ldr.w	r3, [r8]
 800567a:	442b      	add	r3, r5
 800567c:	f8c8 3000 	str.w	r3, [r8]
 8005680:	1b76      	subs	r6, r6, r5
 8005682:	2e00      	cmp	r6, #0
 8005684:	d03f      	beq.n	8005706 <f_read+0x196>
 8005686:	69a1      	ldr	r1, [r4, #24]
 8005688:	9a03      	ldr	r2, [sp, #12]
 800568a:	8995      	ldrh	r5, [r2, #12]
 800568c:	fbb1 f3f5 	udiv	r3, r1, r5
 8005690:	fb05 1313 	mls	r3, r5, r3, r1
 8005694:	2b00      	cmp	r3, #0
 8005696:	d1d8      	bne.n	800564a <f_read+0xda>
 8005698:	fbb1 f5f5 	udiv	r5, r1, r5
 800569c:	8953      	ldrh	r3, [r2, #10]
 800569e:	3b01      	subs	r3, #1
 80056a0:	401d      	ands	r5, r3
 80056a2:	d108      	bne.n	80056b6 <f_read+0x146>
 80056a4:	2900      	cmp	r1, #0
 80056a6:	d186      	bne.n	80055b6 <f_read+0x46>
 80056a8:	68a0      	ldr	r0, [r4, #8]
 80056aa:	2801      	cmp	r0, #1
 80056ac:	d98e      	bls.n	80055cc <f_read+0x5c>
 80056ae:	f1b0 3fff 	cmp.w	r0, #4294967295	; 0xffffffff
 80056b2:	d092      	beq.n	80055da <f_read+0x6a>
 80056b4:	61e0      	str	r0, [r4, #28]
 80056b6:	f8dd b00c 	ldr.w	fp, [sp, #12]
 80056ba:	69e1      	ldr	r1, [r4, #28]
 80056bc:	4658      	mov	r0, fp
 80056be:	f7fe ff3b 	bl	8004538 <clust2sect>
 80056c2:	4681      	mov	r9, r0
 80056c4:	2800      	cmp	r0, #0
 80056c6:	d08f      	beq.n	80055e8 <f_read+0x78>
 80056c8:	44a9      	add	r9, r5
 80056ca:	f8bb 300c 	ldrh.w	r3, [fp, #12]
 80056ce:	fbb6 faf3 	udiv	sl, r6, r3
 80056d2:	42b3      	cmp	r3, r6
 80056d4:	d8a6      	bhi.n	8005624 <f_read+0xb4>
 80056d6:	eb05 030a 	add.w	r3, r5, sl
 80056da:	f8bb 200a 	ldrh.w	r2, [fp, #10]
 80056de:	4293      	cmp	r3, r2
 80056e0:	d901      	bls.n	80056e6 <f_read+0x176>
 80056e2:	eba2 0a05 	sub.w	sl, r2, r5
 80056e6:	4653      	mov	r3, sl
 80056e8:	464a      	mov	r2, r9
 80056ea:	4639      	mov	r1, r7
 80056ec:	f89b 0001 	ldrb.w	r0, [fp, #1]
 80056f0:	f7fe fdde 	bl	80042b0 <disk_read>
 80056f4:	2800      	cmp	r0, #0
 80056f6:	f43f af7e 	beq.w	80055f6 <f_read+0x86>
 80056fa:	f04f 0a01 	mov.w	sl, #1
 80056fe:	f884 a015 	strb.w	sl, [r4, #21]
 8005702:	f8cd a000 	str.w	sl, [sp]
 8005706:	9800      	ldr	r0, [sp, #0]
 8005708:	b005      	add	sp, #20
 800570a:	e8bd 8ff0 	ldmia.w	sp!, {r4, r5, r6, r7, r8, r9, sl, fp, pc}
 800570e:	2301      	movs	r3, #1
 8005710:	f104 0130 	add.w	r1, r4, #48	; 0x30
 8005714:	f89b 0001 	ldrb.w	r0, [fp, #1]
 8005718:	f7fe fdd6 	bl	80042c8 <disk_write>
 800571c:	b920      	cbnz	r0, 8005728 <f_read+0x1b8>
 800571e:	7d23      	ldrb	r3, [r4, #20]
 8005720:	f003 037f 	and.w	r3, r3, #127	; 0x7f
 8005724:	7523      	strb	r3, [r4, #20]
 8005726:	e784      	b.n	8005632 <f_read+0xc2>
 8005728:	f04f 0a01 	mov.w	sl, #1
 800572c:	f884 a015 	strb.w	sl, [r4, #21]
 8005730:	f8cd a000 	str.w	sl, [sp]
 8005734:	e7e7      	b.n	8005706 <f_read+0x196>
 8005736:	f04f 0a01 	mov.w	sl, #1
 800573a:	f884 a015 	strb.w	sl, [r4, #21]
 800573e:	f8cd a000 	str.w	sl, [sp]
 8005742:	e7e0      	b.n	8005706 <f_read+0x196>
 8005744:	2307      	movs	r3, #7
 8005746:	9300      	str	r3, [sp, #0]
 8005748:	e7dd      	b.n	8005706 <f_read+0x196>

0800574a <f_write>:
 800574a:	e92d 4ff0 	stmdb	sp!, {r4, r5, r6, r7, r8, r9, sl, fp, lr}
 800574e:	b085      	sub	sp, #20
 8005750:	4604      	mov	r4, r0
 8005752:	460f      	mov	r7, r1
 8005754:	4615      	mov	r5, r2
 8005756:	4698      	mov	r8, r3
 8005758:	2300      	movs	r3, #0
 800575a:	f8c8 3000 	str.w	r3, [r8]
 800575e:	9001      	str	r0, [sp, #4]
 8005760:	a903      	add	r1, sp, #12
 8005762:	f7fe ffc4 	bl	80046ee <validate>
 8005766:	9000      	str	r0, [sp, #0]
 8005768:	2800      	cmp	r0, #0
 800576a:	d14b      	bne.n	8005804 <f_write+0xba>
 800576c:	7d63      	ldrb	r3, [r4, #21]
 800576e:	9300      	str	r3, [sp, #0]
 8005770:	2b00      	cmp	r3, #0
 8005772:	d147      	bne.n	8005804 <f_write+0xba>
 8005774:	7d23      	ldrb	r3, [r4, #20]
 8005776:	f013 0f02 	tst.w	r3, #2
 800577a:	f000 80ed 	beq.w	8005958 <f_write+0x20e>
 800577e:	69a3      	ldr	r3, [r4, #24]
 8005780:	42eb      	cmn	r3, r5
 8005782:	f0c0 80b7 	bcc.w	80058f4 <f_write+0x1aa>
 8005786:	43dd      	mvns	r5, r3
 8005788:	e0b4      	b.n	80058f4 <f_write+0x1aa>
 800578a:	6ae3      	ldr	r3, [r4, #44]	; 0x2c
 800578c:	2b00      	cmp	r3, #0
 800578e:	d03d      	beq.n	800580c <f_write+0xc2>
 8005790:	4620      	mov	r0, r4
 8005792:	f7fe fedd 	bl	8004550 <clmt_clust>
 8005796:	2800      	cmp	r0, #0
 8005798:	f000 80d9 	beq.w	800594e <f_write+0x204>
 800579c:	2801      	cmp	r0, #1
 800579e:	d03a      	beq.n	8005816 <f_write+0xcc>
 80057a0:	f1b0 3fff 	cmp.w	r0, #4294967295	; 0xffffffff
 80057a4:	d03e      	beq.n	8005824 <f_write+0xda>
 80057a6:	61e0      	str	r0, [r4, #28]
 80057a8:	68a3      	ldr	r3, [r4, #8]
 80057aa:	b903      	cbnz	r3, 80057ae <f_write+0x64>
 80057ac:	60a0      	str	r0, [r4, #8]
 80057ae:	f994 3014 	ldrsb.w	r3, [r4, #20]
 80057b2:	2b00      	cmp	r3, #0
 80057b4:	db3d      	blt.n	8005832 <f_write+0xe8>
 80057b6:	f8dd b00c 	ldr.w	fp, [sp, #12]
 80057ba:	69e1      	ldr	r1, [r4, #28]
 80057bc:	4658      	mov	r0, fp
 80057be:	f7fe febb 	bl	8004538 <clust2sect>
 80057c2:	4681      	mov	r9, r0
 80057c4:	2800      	cmp	r0, #0
 80057c6:	d049      	beq.n	800585c <f_write+0x112>
 80057c8:	44b1      	add	r9, r6
 80057ca:	f8bb 300c 	ldrh.w	r3, [fp, #12]
 80057ce:	fbb5 faf3 	udiv	sl, r5, r3
 80057d2:	42ab      	cmp	r3, r5
 80057d4:	d860      	bhi.n	8005898 <f_write+0x14e>
 80057d6:	eb06 030a 	add.w	r3, r6, sl
 80057da:	f8bb 200a 	ldrh.w	r2, [fp, #10]
 80057de:	4293      	cmp	r3, r2
 80057e0:	d901      	bls.n	80057e6 <f_write+0x9c>
 80057e2:	eba2 0a06 	sub.w	sl, r2, r6
 80057e6:	4653      	mov	r3, sl
 80057e8:	464a      	mov	r2, r9
 80057ea:	4639      	mov	r1, r7
 80057ec:	f89b 0001 	ldrb.w	r0, [fp, #1]
 80057f0:	f7fe fd6a 	bl	80042c8 <disk_write>
 80057f4:	2800      	cmp	r0, #0
 80057f6:	d038      	beq.n	800586a <f_write+0x120>
 80057f8:	f04f 0a01 	mov.w	sl, #1
 80057fc:	f884 a015 	strb.w	sl, [r4, #21]
 8005800:	f8cd a000 	str.w	sl, [sp]
 8005804:	9800      	ldr	r0, [sp, #0]
 8005806:	b005      	add	sp, #20
 8005808:	e8bd 8ff0 	ldmia.w	sp!, {r4, r5, r6, r7, r8, r9, sl, fp, pc}
 800580c:	69e1      	ldr	r1, [r4, #28]
 800580e:	9801      	ldr	r0, [sp, #4]
 8005810:	f7ff fb33 	bl	8004e7a <create_chain>
 8005814:	e7bf      	b.n	8005796 <f_write+0x4c>
 8005816:	f04f 0a02 	mov.w	sl, #2
 800581a:	f884 a015 	strb.w	sl, [r4, #21]
 800581e:	f8cd a000 	str.w	sl, [sp]
 8005822:	e7ef      	b.n	8005804 <f_write+0xba>
 8005824:	f04f 0a01 	mov.w	sl, #1
 8005828:	f884 a015 	strb.w	sl, [r4, #21]
 800582c:	f8cd a000 	str.w	sl, [sp]
 8005830:	e7e8      	b.n	8005804 <f_write+0xba>
 8005832:	2301      	movs	r3, #1
 8005834:	6a22      	ldr	r2, [r4, #32]
 8005836:	f104 0130 	add.w	r1, r4, #48	; 0x30
 800583a:	9803      	ldr	r0, [sp, #12]
 800583c:	7840      	ldrb	r0, [r0, #1]
 800583e:	f7fe fd43 	bl	80042c8 <disk_write>
 8005842:	b920      	cbnz	r0, 800584e <f_write+0x104>
 8005844:	7d23      	ldrb	r3, [r4, #20]
 8005846:	f003 037f 	and.w	r3, r3, #127	; 0x7f
 800584a:	7523      	strb	r3, [r4, #20]
 800584c:	e7b3      	b.n	80057b6 <f_write+0x6c>
 800584e:	f04f 0a01 	mov.w	sl, #1
 8005852:	f884 a015 	strb.w	sl, [r4, #21]
 8005856:	f8cd a000 	str.w	sl, [sp]
 800585a:	e7d3      	b.n	8005804 <f_write+0xba>
 800585c:	f04f 0a02 	mov.w	sl, #2
 8005860:	f884 a015 	strb.w	sl, [r4, #21]
 8005864:	f8cd a000 	str.w	sl, [sp]
 8005868:	e7cc      	b.n	8005804 <f_write+0xba>
 800586a:	6a21      	ldr	r1, [r4, #32]
 800586c:	eba1 0109 	sub.w	r1, r1, r9
 8005870:	4551      	cmp	r1, sl
 8005872:	d304      	bcc.n	800587e <f_write+0x134>
 8005874:	9b03      	ldr	r3, [sp, #12]
 8005876:	899e      	ldrh	r6, [r3, #12]
 8005878:	fb0a f606 	mul.w	r6, sl, r6
 800587c:	e02b      	b.n	80058d6 <f_write+0x18c>
 800587e:	9b03      	ldr	r3, [sp, #12]
 8005880:	899a      	ldrh	r2, [r3, #12]
 8005882:	fb02 7101 	mla	r1, r2, r1, r7
 8005886:	f104 0030 	add.w	r0, r4, #48	; 0x30
 800588a:	f7fe fd53 	bl	8004334 <mem_cpy>
 800588e:	7d23      	ldrb	r3, [r4, #20]
 8005890:	f003 037f 	and.w	r3, r3, #127	; 0x7f
 8005894:	7523      	strb	r3, [r4, #20]
 8005896:	e7ed      	b.n	8005874 <f_write+0x12a>
 8005898:	6a23      	ldr	r3, [r4, #32]
 800589a:	454b      	cmp	r3, r9
 800589c:	d003      	beq.n	80058a6 <f_write+0x15c>
 800589e:	69a2      	ldr	r2, [r4, #24]
 80058a0:	68e3      	ldr	r3, [r4, #12]
 80058a2:	429a      	cmp	r2, r3
 80058a4:	d342      	bcc.n	800592c <f_write+0x1e2>
 80058a6:	f8c4 9020 	str.w	r9, [r4, #32]
 80058aa:	9b03      	ldr	r3, [sp, #12]
 80058ac:	899e      	ldrh	r6, [r3, #12]
 80058ae:	69a0      	ldr	r0, [r4, #24]
 80058b0:	fbb0 f3f6 	udiv	r3, r0, r6
 80058b4:	fb06 0313 	mls	r3, r6, r3, r0
 80058b8:	1af6      	subs	r6, r6, r3
 80058ba:	42b5      	cmp	r5, r6
 80058bc:	d200      	bcs.n	80058c0 <f_write+0x176>
 80058be:	462e      	mov	r6, r5
 80058c0:	f104 0030 	add.w	r0, r4, #48	; 0x30
 80058c4:	4632      	mov	r2, r6
 80058c6:	4639      	mov	r1, r7
 80058c8:	4418      	add	r0, r3
 80058ca:	f7fe fd33 	bl	8004334 <mem_cpy>
 80058ce:	7d23      	ldrb	r3, [r4, #20]
 80058d0:	f063 037f 	orn	r3, r3, #127	; 0x7f
 80058d4:	7523      	strb	r3, [r4, #20]
 80058d6:	4437      	add	r7, r6
 80058d8:	69a3      	ldr	r3, [r4, #24]
 80058da:	4433      	add	r3, r6
 80058dc:	61a3      	str	r3, [r4, #24]
 80058de:	68e2      	ldr	r2, [r4, #12]
 80058e0:	4293      	cmp	r3, r2
 80058e2:	bf38      	it	cc
 80058e4:	4613      	movcc	r3, r2
 80058e6:	60e3      	str	r3, [r4, #12]
 80058e8:	f8d8 3000 	ldr.w	r3, [r8]
 80058ec:	4433      	add	r3, r6
 80058ee:	f8c8 3000 	str.w	r3, [r8]
 80058f2:	1bad      	subs	r5, r5, r6
 80058f4:	b35d      	cbz	r5, 800594e <f_write+0x204>
 80058f6:	69a1      	ldr	r1, [r4, #24]
 80058f8:	9a03      	ldr	r2, [sp, #12]
 80058fa:	8996      	ldrh	r6, [r2, #12]
 80058fc:	fbb1 f3f6 	udiv	r3, r1, r6
 8005900:	fb06 1313 	mls	r3, r6, r3, r1
 8005904:	2b00      	cmp	r3, #0
 8005906:	d1d0      	bne.n	80058aa <f_write+0x160>
 8005908:	fbb1 f6f6 	udiv	r6, r1, r6
 800590c:	8953      	ldrh	r3, [r2, #10]
 800590e:	3b01      	subs	r3, #1
 8005910:	401e      	ands	r6, r3
 8005912:	f47f af4c 	bne.w	80057ae <f_write+0x64>
 8005916:	2900      	cmp	r1, #0
 8005918:	f47f af37 	bne.w	800578a <f_write+0x40>
 800591c:	68a0      	ldr	r0, [r4, #8]
 800591e:	2800      	cmp	r0, #0
 8005920:	f47f af39 	bne.w	8005796 <f_write+0x4c>
 8005924:	9801      	ldr	r0, [sp, #4]
 8005926:	f7ff faa8 	bl	8004e7a <create_chain>
 800592a:	e734      	b.n	8005796 <f_write+0x4c>
 800592c:	2301      	movs	r3, #1
 800592e:	464a      	mov	r2, r9
 8005930:	f104 0130 	add.w	r1, r4, #48	; 0x30
 8005934:	f89b 0001 	ldrb.w	r0, [fp, #1]
 8005938:	f7fe fcba 	bl	80042b0 <disk_read>
 800593c:	2800      	cmp	r0, #0
 800593e:	d0b2      	beq.n	80058a6 <f_write+0x15c>
 8005940:	f04f 0a01 	mov.w	sl, #1
 8005944:	f884 a015 	strb.w	sl, [r4, #21]
 8005948:	f8cd a000 	str.w	sl, [sp]
 800594c:	e75a      	b.n	8005804 <f_write+0xba>
 800594e:	7d23      	ldrb	r3, [r4, #20]
 8005950:	f043 0340 	orr.w	r3, r3, #64	; 0x40
 8005954:	7523      	strb	r3, [r4, #20]
 8005956:	e755      	b.n	8005804 <f_write+0xba>
 8005958:	2307      	movs	r3, #7
 800595a:	9300      	str	r3, [sp, #0]
 800595c:	e752      	b.n	8005804 <f_write+0xba>

0800595e <putc_bfd>:
 800595e:	b570      	push	{r4, r5, r6, lr}
 8005960:	b082      	sub	sp, #8
 8005962:	4604      	mov	r4, r0
 8005964:	460d      	mov	r5, r1
 8005966:	290a      	cmp	r1, #10
 8005968:	d00d      	beq.n	8005986 <putc_bfd+0x28>
 800596a:	6863      	ldr	r3, [r4, #4]
 800596c:	2b00      	cmp	r3, #0
 800596e:	db08      	blt.n	8005982 <putc_bfd+0x24>
 8005970:	1c5e      	adds	r6, r3, #1
 8005972:	4423      	add	r3, r4
 8005974:	731d      	strb	r5, [r3, #12]
 8005976:	2e3c      	cmp	r6, #60	; 0x3c
 8005978:	dc09      	bgt.n	800598e <putc_bfd+0x30>
 800597a:	6066      	str	r6, [r4, #4]
 800597c:	68a3      	ldr	r3, [r4, #8]
 800597e:	3301      	adds	r3, #1
 8005980:	60a3      	str	r3, [r4, #8]
 8005982:	b002      	add	sp, #8
 8005984:	bd70      	pop	{r4, r5, r6, pc}
 8005986:	210d      	movs	r1, #13
 8005988:	f7ff ffe9 	bl	800595e <putc_bfd>
 800598c:	e7ed      	b.n	800596a <putc_bfd+0xc>
 800598e:	4621      	mov	r1, r4
 8005990:	f851 0b0c 	ldr.w	r0, [r1], #12
 8005994:	ab01      	add	r3, sp, #4
 8005996:	4632      	mov	r2, r6
 8005998:	f7ff fed7 	bl	800574a <f_write>
 800599c:	9b01      	ldr	r3, [sp, #4]
 800599e:	429e      	cmp	r6, r3
 80059a0:	d002      	beq.n	80059a8 <putc_bfd+0x4a>
 80059a2:	f04f 36ff 	mov.w	r6, #4294967295	; 0xffffffff
 80059a6:	e7e8      	b.n	800597a <putc_bfd+0x1c>
 80059a8:	2600      	movs	r6, #0
 80059aa:	e7e6      	b.n	800597a <putc_bfd+0x1c>

080059ac <putc_flush>:
 80059ac:	6842      	ldr	r2, [r0, #4]
 80059ae:	2a00      	cmp	r2, #0
 80059b0:	db10      	blt.n	80059d4 <putc_flush+0x28>
 80059b2:	b510      	push	{r4, lr}
 80059b4:	b082      	sub	sp, #8
 80059b6:	4604      	mov	r4, r0
 80059b8:	4601      	mov	r1, r0
 80059ba:	f851 0b0c 	ldr.w	r0, [r1], #12
 80059be:	ab01      	add	r3, sp, #4
 80059c0:	f7ff fec3 	bl	800574a <f_write>
 80059c4:	b948      	cbnz	r0, 80059da <putc_flush+0x2e>
 80059c6:	6862      	ldr	r2, [r4, #4]
 80059c8:	9b01      	ldr	r3, [sp, #4]
 80059ca:	429a      	cmp	r2, r3
 80059cc:	d108      	bne.n	80059e0 <putc_flush+0x34>
 80059ce:	68a0      	ldr	r0, [r4, #8]
 80059d0:	b002      	add	sp, #8
 80059d2:	bd10      	pop	{r4, pc}
 80059d4:	f04f 30ff 	mov.w	r0, #4294967295	; 0xffffffff
 80059d8:	4770      	bx	lr
 80059da:	f04f 30ff 	mov.w	r0, #4294967295	; 0xffffffff
 80059de:	e7f7      	b.n	80059d0 <putc_flush+0x24>
 80059e0:	f04f 30ff 	mov.w	r0, #4294967295	; 0xffffffff
 80059e4:	e7f4      	b.n	80059d0 <putc_flush+0x24>

080059e6 <f_sync>:
 80059e6:	b570      	push	{r4, r5, r6, lr}
 80059e8:	b082      	sub	sp, #8
 80059ea:	4604      	mov	r4, r0
 80059ec:	a901      	add	r1, sp, #4
 80059ee:	f7fe fe7e 	bl	80046ee <validate>
 80059f2:	b970      	cbnz	r0, 8005a12 <f_sync+0x2c>
 80059f4:	7d23      	ldrb	r3, [r4, #20]
 80059f6:	f013 0f40 	tst.w	r3, #64	; 0x40
 80059fa:	d00a      	beq.n	8005a12 <f_sync+0x2c>
 80059fc:	f013 0f80 	tst.w	r3, #128	; 0x80
 8005a00:	d109      	bne.n	8005a16 <f_sync+0x30>
 8005a02:	f7fb ff71 	bl	80018e8 <get_fattime>
 8005a06:	4605      	mov	r5, r0
 8005a08:	6a61      	ldr	r1, [r4, #36]	; 0x24
 8005a0a:	9801      	ldr	r0, [sp, #4]
 8005a0c:	f7fe febb 	bl	8004786 <move_window>
 8005a10:	b178      	cbz	r0, 8005a32 <f_sync+0x4c>
 8005a12:	b002      	add	sp, #8
 8005a14:	bd70      	pop	{r4, r5, r6, pc}
 8005a16:	2301      	movs	r3, #1
 8005a18:	6a22      	ldr	r2, [r4, #32]
 8005a1a:	f104 0130 	add.w	r1, r4, #48	; 0x30
 8005a1e:	9801      	ldr	r0, [sp, #4]
 8005a20:	7840      	ldrb	r0, [r0, #1]
 8005a22:	f7fe fc51 	bl	80042c8 <disk_write>
 8005a26:	bb40      	cbnz	r0, 8005a7a <f_sync+0x94>
 8005a28:	7d23      	ldrb	r3, [r4, #20]
 8005a2a:	f003 037f 	and.w	r3, r3, #127	; 0x7f
 8005a2e:	7523      	strb	r3, [r4, #20]
 8005a30:	e7e7      	b.n	8005a02 <f_sync+0x1c>
 8005a32:	6aa6      	ldr	r6, [r4, #40]	; 0x28
 8005a34:	7af3      	ldrb	r3, [r6, #11]
 8005a36:	f043 0320 	orr.w	r3, r3, #32
 8005a3a:	72f3      	strb	r3, [r6, #11]
 8005a3c:	68a2      	ldr	r2, [r4, #8]
 8005a3e:	4631      	mov	r1, r6
 8005a40:	6820      	ldr	r0, [r4, #0]
 8005a42:	f7fe fdab 	bl	800459c <st_clust>
 8005a46:	68e1      	ldr	r1, [r4, #12]
 8005a48:	f106 001c 	add.w	r0, r6, #28
 8005a4c:	f7fe fc68 	bl	8004320 <st_dword>
 8005a50:	4629      	mov	r1, r5
 8005a52:	f106 0016 	add.w	r0, r6, #22
 8005a56:	f7fe fc63 	bl	8004320 <st_dword>
 8005a5a:	2100      	movs	r1, #0
 8005a5c:	f106 0012 	add.w	r0, r6, #18
 8005a60:	f7fe fc5a 	bl	8004318 <st_word>
 8005a64:	9b01      	ldr	r3, [sp, #4]
 8005a66:	2201      	movs	r2, #1
 8005a68:	70da      	strb	r2, [r3, #3]
 8005a6a:	9801      	ldr	r0, [sp, #4]
 8005a6c:	f7ff fbf4 	bl	8005258 <sync_fs>
 8005a70:	7d23      	ldrb	r3, [r4, #20]
 8005a72:	f023 0340 	bic.w	r3, r3, #64	; 0x40
 8005a76:	7523      	strb	r3, [r4, #20]
 8005a78:	e7cb      	b.n	8005a12 <f_sync+0x2c>
 8005a7a:	2001      	movs	r0, #1
 8005a7c:	e7c9      	b.n	8005a12 <f_sync+0x2c>

08005a7e <f_close>:
 8005a7e:	b510      	push	{r4, lr}
 8005a80:	b082      	sub	sp, #8
 8005a82:	4604      	mov	r4, r0
 8005a84:	f7ff ffaf 	bl	80059e6 <f_sync>
 8005a88:	b108      	cbz	r0, 8005a8e <f_close+0x10>
 8005a8a:	b002      	add	sp, #8
 8005a8c:	bd10      	pop	{r4, pc}
 8005a8e:	a901      	add	r1, sp, #4
 8005a90:	4620      	mov	r0, r4
 8005a92:	f7fe fe2c 	bl	80046ee <validate>
 8005a96:	2800      	cmp	r0, #0
 8005a98:	d1f7      	bne.n	8005a8a <f_close+0xc>
 8005a9a:	6920      	ldr	r0, [r4, #16]
 8005a9c:	f7fe fd0e 	bl	80044bc <dec_lock>
 8005aa0:	2800      	cmp	r0, #0
 8005aa2:	d1f2      	bne.n	8005a8a <f_close+0xc>
 8005aa4:	6020      	str	r0, [r4, #0]
 8005aa6:	e7f0      	b.n	8005a8a <f_close+0xc>

08005aa8 <f_lseek>:
 8005aa8:	e92d 4ff0 	stmdb	sp!, {r4, r5, r6, r7, r8, r9, sl, fp, lr}
 8005aac:	b085      	sub	sp, #20
 8005aae:	4604      	mov	r4, r0
 8005ab0:	460e      	mov	r6, r1
 8005ab2:	4607      	mov	r7, r0
 8005ab4:	a903      	add	r1, sp, #12
 8005ab6:	f7fe fe1a 	bl	80046ee <validate>
 8005aba:	4605      	mov	r5, r0
 8005abc:	b900      	cbnz	r0, 8005ac0 <f_lseek+0x18>
 8005abe:	7d65      	ldrb	r5, [r4, #21]
 8005ac0:	b96d      	cbnz	r5, 8005ade <f_lseek+0x36>
 8005ac2:	6ae3      	ldr	r3, [r4, #44]	; 0x2c
 8005ac4:	2b00      	cmp	r3, #0
 8005ac6:	f000 8093 	beq.w	8005bf0 <f_lseek+0x148>
 8005aca:	f1b6 3fff 	cmp.w	r6, #4294967295	; 0xffffffff
 8005ace:	d00a      	beq.n	8005ae6 <f_lseek+0x3e>
 8005ad0:	68e7      	ldr	r7, [r4, #12]
 8005ad2:	42b7      	cmp	r7, r6
 8005ad4:	d300      	bcc.n	8005ad8 <f_lseek+0x30>
 8005ad6:	4637      	mov	r7, r6
 8005ad8:	61a7      	str	r7, [r4, #24]
 8005ada:	2f00      	cmp	r7, #0
 8005adc:	d144      	bne.n	8005b68 <f_lseek+0xc0>
 8005ade:	4628      	mov	r0, r5
 8005ae0:	b005      	add	sp, #20
 8005ae2:	e8bd 8ff0 	ldmia.w	sp!, {r4, r5, r6, r7, r8, r9, sl, fp, pc}
 8005ae6:	4699      	mov	r9, r3
 8005ae8:	f859 3b04 	ldr.w	r3, [r9], #4
 8005aec:	9301      	str	r3, [sp, #4]
 8005aee:	f8d4 b008 	ldr.w	fp, [r4, #8]
 8005af2:	f1bb 0f00 	cmp.w	fp, #0
 8005af6:	d02a      	beq.n	8005b4e <f_lseek+0xa6>
 8005af8:	f04f 0a02 	mov.w	sl, #2
 8005afc:	f10a 0a02 	add.w	sl, sl, #2
 8005b00:	4659      	mov	r1, fp
 8005b02:	f04f 0800 	mov.w	r8, #0
 8005b06:	f108 0801 	add.w	r8, r8, #1
 8005b0a:	460e      	mov	r6, r1
 8005b0c:	4638      	mov	r0, r7
 8005b0e:	f7ff f8d6 	bl	8004cbe <get_fat>
 8005b12:	4601      	mov	r1, r0
 8005b14:	2801      	cmp	r0, #1
 8005b16:	d914      	bls.n	8005b42 <f_lseek+0x9a>
 8005b18:	f1b0 3fff 	cmp.w	r0, #4294967295	; 0xffffffff
 8005b1c:	d014      	beq.n	8005b48 <f_lseek+0xa0>
 8005b1e:	3601      	adds	r6, #1
 8005b20:	4286      	cmp	r6, r0
 8005b22:	d0f0      	beq.n	8005b06 <f_lseek+0x5e>
 8005b24:	9b01      	ldr	r3, [sp, #4]
 8005b26:	4553      	cmp	r3, sl
 8005b28:	d305      	bcc.n	8005b36 <f_lseek+0x8e>
 8005b2a:	464b      	mov	r3, r9
 8005b2c:	f843 8b08 	str.w	r8, [r3], #8
 8005b30:	f8c9 b004 	str.w	fp, [r9, #4]
 8005b34:	4699      	mov	r9, r3
 8005b36:	9b03      	ldr	r3, [sp, #12]
 8005b38:	699b      	ldr	r3, [r3, #24]
 8005b3a:	428b      	cmp	r3, r1
 8005b3c:	d909      	bls.n	8005b52 <f_lseek+0xaa>
 8005b3e:	468b      	mov	fp, r1
 8005b40:	e7dc      	b.n	8005afc <f_lseek+0x54>
 8005b42:	2502      	movs	r5, #2
 8005b44:	7565      	strb	r5, [r4, #21]
 8005b46:	e7ca      	b.n	8005ade <f_lseek+0x36>
 8005b48:	2501      	movs	r5, #1
 8005b4a:	7565      	strb	r5, [r4, #21]
 8005b4c:	e7c7      	b.n	8005ade <f_lseek+0x36>
 8005b4e:	f04f 0a02 	mov.w	sl, #2
 8005b52:	6ae3      	ldr	r3, [r4, #44]	; 0x2c
 8005b54:	f8c3 a000 	str.w	sl, [r3]
 8005b58:	9b01      	ldr	r3, [sp, #4]
 8005b5a:	459a      	cmp	sl, r3
 8005b5c:	f200 80fc 	bhi.w	8005d58 <f_lseek+0x2b0>
 8005b60:	2300      	movs	r3, #0
 8005b62:	f8c9 3000 	str.w	r3, [r9]
 8005b66:	e7ba      	b.n	8005ade <f_lseek+0x36>
 8005b68:	1e7e      	subs	r6, r7, #1
 8005b6a:	4631      	mov	r1, r6
 8005b6c:	4620      	mov	r0, r4
 8005b6e:	f7fe fcef 	bl	8004550 <clmt_clust>
 8005b72:	4601      	mov	r1, r0
 8005b74:	61e0      	str	r0, [r4, #28]
 8005b76:	f8dd 800c 	ldr.w	r8, [sp, #12]
 8005b7a:	4640      	mov	r0, r8
 8005b7c:	f7fe fcdc 	bl	8004538 <clust2sect>
 8005b80:	b300      	cbz	r0, 8005bc4 <f_lseek+0x11c>
 8005b82:	f8b8 200c 	ldrh.w	r2, [r8, #12]
 8005b86:	fbb6 f6f2 	udiv	r6, r6, r2
 8005b8a:	f8b8 300a 	ldrh.w	r3, [r8, #10]
 8005b8e:	3b01      	subs	r3, #1
 8005b90:	401e      	ands	r6, r3
 8005b92:	4406      	add	r6, r0
 8005b94:	fbb7 f3f2 	udiv	r3, r7, r2
 8005b98:	fb02 7713 	mls	r7, r2, r3, r7
 8005b9c:	2f00      	cmp	r7, #0
 8005b9e:	d09e      	beq.n	8005ade <f_lseek+0x36>
 8005ba0:	6a22      	ldr	r2, [r4, #32]
 8005ba2:	42b2      	cmp	r2, r6
 8005ba4:	d09b      	beq.n	8005ade <f_lseek+0x36>
 8005ba6:	f994 3014 	ldrsb.w	r3, [r4, #20]
 8005baa:	2b00      	cmp	r3, #0
 8005bac:	db0d      	blt.n	8005bca <f_lseek+0x122>
 8005bae:	2301      	movs	r3, #1
 8005bb0:	4632      	mov	r2, r6
 8005bb2:	f104 0130 	add.w	r1, r4, #48	; 0x30
 8005bb6:	9803      	ldr	r0, [sp, #12]
 8005bb8:	7840      	ldrb	r0, [r0, #1]
 8005bba:	f7fe fb79 	bl	80042b0 <disk_read>
 8005bbe:	b9a0      	cbnz	r0, 8005bea <f_lseek+0x142>
 8005bc0:	6226      	str	r6, [r4, #32]
 8005bc2:	e78c      	b.n	8005ade <f_lseek+0x36>
 8005bc4:	2502      	movs	r5, #2
 8005bc6:	7565      	strb	r5, [r4, #21]
 8005bc8:	e789      	b.n	8005ade <f_lseek+0x36>
 8005bca:	2301      	movs	r3, #1
 8005bcc:	f104 0130 	add.w	r1, r4, #48	; 0x30
 8005bd0:	f898 0001 	ldrb.w	r0, [r8, #1]
 8005bd4:	f7fe fb78 	bl	80042c8 <disk_write>
 8005bd8:	b920      	cbnz	r0, 8005be4 <f_lseek+0x13c>
 8005bda:	7d23      	ldrb	r3, [r4, #20]
 8005bdc:	f003 037f 	and.w	r3, r3, #127	; 0x7f
 8005be0:	7523      	strb	r3, [r4, #20]
 8005be2:	e7e4      	b.n	8005bae <f_lseek+0x106>
 8005be4:	2501      	movs	r5, #1
 8005be6:	7565      	strb	r5, [r4, #21]
 8005be8:	e779      	b.n	8005ade <f_lseek+0x36>
 8005bea:	2501      	movs	r5, #1
 8005bec:	7565      	strb	r5, [r4, #21]
 8005bee:	e776      	b.n	8005ade <f_lseek+0x36>
 8005bf0:	68e3      	ldr	r3, [r4, #12]
 8005bf2:	42b3      	cmp	r3, r6
 8005bf4:	d204      	bcs.n	8005c00 <f_lseek+0x158>
 8005bf6:	7d22      	ldrb	r2, [r4, #20]
 8005bf8:	f012 0f02 	tst.w	r2, #2
 8005bfc:	d100      	bne.n	8005c00 <f_lseek+0x158>
 8005bfe:	461e      	mov	r6, r3
 8005c00:	69a3      	ldr	r3, [r4, #24]
 8005c02:	2200      	movs	r2, #0
 8005c04:	61a2      	str	r2, [r4, #24]
 8005c06:	b1f6      	cbz	r6, 8005c46 <f_lseek+0x19e>
 8005c08:	9a03      	ldr	r2, [sp, #12]
 8005c0a:	8951      	ldrh	r1, [r2, #10]
 8005c0c:	f8b2 900c 	ldrh.w	r9, [r2, #12]
 8005c10:	fb09 f901 	mul.w	r9, r9, r1
 8005c14:	b183      	cbz	r3, 8005c38 <f_lseek+0x190>
 8005c16:	1e72      	subs	r2, r6, #1
 8005c18:	fbb2 f2f9 	udiv	r2, r2, r9
 8005c1c:	3b01      	subs	r3, #1
 8005c1e:	fbb3 f1f9 	udiv	r1, r3, r9
 8005c22:	428a      	cmp	r2, r1
 8005c24:	d308      	bcc.n	8005c38 <f_lseek+0x190>
 8005c26:	f1c9 0800 	rsb	r8, r9, #0
 8005c2a:	ea03 0308 	and.w	r3, r3, r8
 8005c2e:	61a3      	str	r3, [r4, #24]
 8005c30:	eba6 0803 	sub.w	r8, r6, r3
 8005c34:	69e6      	ldr	r6, [r4, #28]
 8005c36:	e004      	b.n	8005c42 <f_lseek+0x19a>
 8005c38:	68a0      	ldr	r0, [r4, #8]
 8005c3a:	b350      	cbz	r0, 8005c92 <f_lseek+0x1ea>
 8005c3c:	61e0      	str	r0, [r4, #28]
 8005c3e:	46b0      	mov	r8, r6
 8005c40:	4606      	mov	r6, r0
 8005c42:	2e00      	cmp	r6, #0
 8005c44:	d145      	bne.n	8005cd2 <f_lseek+0x22a>
 8005c46:	69a3      	ldr	r3, [r4, #24]
 8005c48:	68e2      	ldr	r2, [r4, #12]
 8005c4a:	4293      	cmp	r3, r2
 8005c4c:	d904      	bls.n	8005c58 <f_lseek+0x1b0>
 8005c4e:	60e3      	str	r3, [r4, #12]
 8005c50:	7d22      	ldrb	r2, [r4, #20]
 8005c52:	f042 0240 	orr.w	r2, r2, #64	; 0x40
 8005c56:	7522      	strb	r2, [r4, #20]
 8005c58:	9803      	ldr	r0, [sp, #12]
 8005c5a:	8981      	ldrh	r1, [r0, #12]
 8005c5c:	fbb3 f2f1 	udiv	r2, r3, r1
 8005c60:	fb01 3312 	mls	r3, r1, r2, r3
 8005c64:	2b00      	cmp	r3, #0
 8005c66:	f43f af3a 	beq.w	8005ade <f_lseek+0x36>
 8005c6a:	6a22      	ldr	r2, [r4, #32]
 8005c6c:	42b2      	cmp	r2, r6
 8005c6e:	f43f af36 	beq.w	8005ade <f_lseek+0x36>
 8005c72:	f994 3014 	ldrsb.w	r3, [r4, #20]
 8005c76:	2b00      	cmp	r3, #0
 8005c78:	db5c      	blt.n	8005d34 <f_lseek+0x28c>
 8005c7a:	2301      	movs	r3, #1
 8005c7c:	4632      	mov	r2, r6
 8005c7e:	f104 0130 	add.w	r1, r4, #48	; 0x30
 8005c82:	9803      	ldr	r0, [sp, #12]
 8005c84:	7840      	ldrb	r0, [r0, #1]
 8005c86:	f7fe fb13 	bl	80042b0 <disk_read>
 8005c8a:	2800      	cmp	r0, #0
 8005c8c:	d161      	bne.n	8005d52 <f_lseek+0x2aa>
 8005c8e:	6226      	str	r6, [r4, #32]
 8005c90:	e725      	b.n	8005ade <f_lseek+0x36>
 8005c92:	2100      	movs	r1, #0
 8005c94:	4620      	mov	r0, r4
 8005c96:	f7ff f8f0 	bl	8004e7a <create_chain>
 8005c9a:	2801      	cmp	r0, #1
 8005c9c:	d004      	beq.n	8005ca8 <f_lseek+0x200>
 8005c9e:	f1b0 3fff 	cmp.w	r0, #4294967295	; 0xffffffff
 8005ca2:	d004      	beq.n	8005cae <f_lseek+0x206>
 8005ca4:	60a0      	str	r0, [r4, #8]
 8005ca6:	e7c9      	b.n	8005c3c <f_lseek+0x194>
 8005ca8:	2502      	movs	r5, #2
 8005caa:	7565      	strb	r5, [r4, #21]
 8005cac:	e717      	b.n	8005ade <f_lseek+0x36>
 8005cae:	2501      	movs	r5, #1
 8005cb0:	7565      	strb	r5, [r4, #21]
 8005cb2:	e714      	b.n	8005ade <f_lseek+0x36>
 8005cb4:	4631      	mov	r1, r6
 8005cb6:	4638      	mov	r0, r7
 8005cb8:	f7ff f801 	bl	8004cbe <get_fat>
 8005cbc:	4606      	mov	r6, r0
 8005cbe:	f1b6 3fff 	cmp.w	r6, #4294967295	; 0xffffffff
 8005cc2:	d02c      	beq.n	8005d1e <f_lseek+0x276>
 8005cc4:	2e01      	cmp	r6, #1
 8005cc6:	d92d      	bls.n	8005d24 <f_lseek+0x27c>
 8005cc8:	9b03      	ldr	r3, [sp, #12]
 8005cca:	699b      	ldr	r3, [r3, #24]
 8005ccc:	42b3      	cmp	r3, r6
 8005cce:	d929      	bls.n	8005d24 <f_lseek+0x27c>
 8005cd0:	61e6      	str	r6, [r4, #28]
 8005cd2:	45c8      	cmp	r8, r9
 8005cd4:	d910      	bls.n	8005cf8 <f_lseek+0x250>
 8005cd6:	eba8 0809 	sub.w	r8, r8, r9
 8005cda:	69a3      	ldr	r3, [r4, #24]
 8005cdc:	444b      	add	r3, r9
 8005cde:	61a3      	str	r3, [r4, #24]
 8005ce0:	7d23      	ldrb	r3, [r4, #20]
 8005ce2:	f013 0f02 	tst.w	r3, #2
 8005ce6:	d0e5      	beq.n	8005cb4 <f_lseek+0x20c>
 8005ce8:	4631      	mov	r1, r6
 8005cea:	4638      	mov	r0, r7
 8005cec:	f7ff f8c5 	bl	8004e7a <create_chain>
 8005cf0:	4606      	mov	r6, r0
 8005cf2:	2800      	cmp	r0, #0
 8005cf4:	d1e3      	bne.n	8005cbe <f_lseek+0x216>
 8005cf6:	4680      	mov	r8, r0
 8005cf8:	69a3      	ldr	r3, [r4, #24]
 8005cfa:	4443      	add	r3, r8
 8005cfc:	61a3      	str	r3, [r4, #24]
 8005cfe:	9803      	ldr	r0, [sp, #12]
 8005d00:	8987      	ldrh	r7, [r0, #12]
 8005d02:	fbb8 f3f7 	udiv	r3, r8, r7
 8005d06:	fb07 8313 	mls	r3, r7, r3, r8
 8005d0a:	b18b      	cbz	r3, 8005d30 <f_lseek+0x288>
 8005d0c:	4631      	mov	r1, r6
 8005d0e:	f7fe fc13 	bl	8004538 <clust2sect>
 8005d12:	4606      	mov	r6, r0
 8005d14:	b148      	cbz	r0, 8005d2a <f_lseek+0x282>
 8005d16:	fbb8 f8f7 	udiv	r8, r8, r7
 8005d1a:	4446      	add	r6, r8
 8005d1c:	e793      	b.n	8005c46 <f_lseek+0x19e>
 8005d1e:	2501      	movs	r5, #1
 8005d20:	7565      	strb	r5, [r4, #21]
 8005d22:	e6dc      	b.n	8005ade <f_lseek+0x36>
 8005d24:	2502      	movs	r5, #2
 8005d26:	7565      	strb	r5, [r4, #21]
 8005d28:	e6d9      	b.n	8005ade <f_lseek+0x36>
 8005d2a:	2502      	movs	r5, #2
 8005d2c:	7565      	strb	r5, [r4, #21]
 8005d2e:	e6d6      	b.n	8005ade <f_lseek+0x36>
 8005d30:	461e      	mov	r6, r3
 8005d32:	e788      	b.n	8005c46 <f_lseek+0x19e>
 8005d34:	2301      	movs	r3, #1
 8005d36:	f104 0130 	add.w	r1, r4, #48	; 0x30
 8005d3a:	7840      	ldrb	r0, [r0, #1]
 8005d3c:	f7fe fac4 	bl	80042c8 <disk_write>
 8005d40:	b920      	cbnz	r0, 8005d4c <f_lseek+0x2a4>
 8005d42:	7d23      	ldrb	r3, [r4, #20]
 8005d44:	f003 037f 	and.w	r3, r3, #127	; 0x7f
 8005d48:	7523      	strb	r3, [r4, #20]
 8005d4a:	e796      	b.n	8005c7a <f_lseek+0x1d2>
 8005d4c:	2501      	movs	r5, #1
 8005d4e:	7565      	strb	r5, [r4, #21]
 8005d50:	e6c5      	b.n	8005ade <f_lseek+0x36>
 8005d52:	2501      	movs	r5, #1
 8005d54:	7565      	strb	r5, [r4, #21]
 8005d56:	e6c2      	b.n	8005ade <f_lseek+0x36>
 8005d58:	2511      	movs	r5, #17
 8005d5a:	e6c0      	b.n	8005ade <f_lseek+0x36>

08005d5c <f_printf>:
 8005d5c:	b40e      	push	{r1, r2, r3}
 8005d5e:	e92d 47f0 	stmdb	sp!, {r4, r5, r6, r7, r8, r9, sl, lr}
 8005d62:	b09d      	sub	sp, #116	; 0x74
 8005d64:	4601      	mov	r1, r0
 8005d66:	ac25      	add	r4, sp, #148	; 0x94
 8005d68:	f854 5b04 	ldr.w	r5, [r4], #4
 8005d6c:	a808      	add	r0, sp, #32
 8005d6e:	f7fe fcb9 	bl	80046e4 <putc_init>
 8005d72:	941b      	str	r4, [sp, #108]	; 0x6c
 8005d74:	e003      	b.n	8005d7e <f_printf+0x22>
 8005d76:	a808      	add	r0, sp, #32
 8005d78:	f7ff fdf1 	bl	800595e <putc_bfd>
 8005d7c:	4625      	mov	r5, r4
 8005d7e:	462c      	mov	r4, r5
 8005d80:	f814 1b01 	ldrb.w	r1, [r4], #1
 8005d84:	2900      	cmp	r1, #0
 8005d86:	f000 80fa 	beq.w	8005f7e <f_printf+0x222>
 8005d8a:	2925      	cmp	r1, #37	; 0x25
 8005d8c:	d1f3      	bne.n	8005d76 <f_printf+0x1a>
 8005d8e:	3502      	adds	r5, #2
 8005d90:	7821      	ldrb	r1, [r4, #0]
 8005d92:	2930      	cmp	r1, #48	; 0x30
 8005d94:	d004      	beq.n	8005da0 <f_printf+0x44>
 8005d96:	292d      	cmp	r1, #45	; 0x2d
 8005d98:	d006      	beq.n	8005da8 <f_printf+0x4c>
 8005d9a:	2700      	movs	r7, #0
 8005d9c:	2400      	movs	r4, #0
 8005d9e:	e00e      	b.n	8005dbe <f_printf+0x62>
 8005da0:	1ca5      	adds	r5, r4, #2
 8005da2:	7861      	ldrb	r1, [r4, #1]
 8005da4:	2701      	movs	r7, #1
 8005da6:	e7f9      	b.n	8005d9c <f_printf+0x40>
 8005da8:	1ca5      	adds	r5, r4, #2
 8005daa:	7861      	ldrb	r1, [r4, #1]
 8005dac:	2702      	movs	r7, #2
 8005dae:	e7f5      	b.n	8005d9c <f_printf+0x40>
 8005db0:	eb04 0484 	add.w	r4, r4, r4, lsl #2
 8005db4:	eb01 0444 	add.w	r4, r1, r4, lsl #1
 8005db8:	3c30      	subs	r4, #48	; 0x30
 8005dba:	f815 1b01 	ldrb.w	r1, [r5], #1
 8005dbe:	f1a1 0330 	sub.w	r3, r1, #48	; 0x30
 8005dc2:	b2db      	uxtb	r3, r3
 8005dc4:	2b09      	cmp	r3, #9
 8005dc6:	d9f3      	bls.n	8005db0 <f_printf+0x54>
 8005dc8:	296c      	cmp	r1, #108	; 0x6c
 8005dca:	d001      	beq.n	8005dd0 <f_printf+0x74>
 8005dcc:	294c      	cmp	r1, #76	; 0x4c
 8005dce:	d103      	bne.n	8005dd8 <f_printf+0x7c>
 8005dd0:	f047 0704 	orr.w	r7, r7, #4
 8005dd4:	f815 1b01 	ldrb.w	r1, [r5], #1
 8005dd8:	2900      	cmp	r1, #0
 8005dda:	f000 80d0 	beq.w	8005f7e <f_printf+0x222>
 8005dde:	f1a1 0361 	sub.w	r3, r1, #97	; 0x61
 8005de2:	b2db      	uxtb	r3, r3
 8005de4:	2b19      	cmp	r3, #25
 8005de6:	d803      	bhi.n	8005df0 <f_printf+0x94>
 8005de8:	f1a1 0320 	sub.w	r3, r1, #32
 8005dec:	b2db      	uxtb	r3, r3
 8005dee:	e000      	b.n	8005df2 <f_printf+0x96>
 8005df0:	460b      	mov	r3, r1
 8005df2:	f1a3 0242 	sub.w	r2, r3, #66	; 0x42
 8005df6:	2a16      	cmp	r2, #22
 8005df8:	d853      	bhi.n	8005ea2 <f_printf+0x146>
 8005dfa:	e8df f002 	tbb	[pc, r2]
 8005dfe:	3b56      	.short	0x3b56
 8005e00:	52525243 	.word	0x52525243
 8005e04:	52525252 	.word	0x52525252
 8005e08:	58525252 	.word	0x58525252
 8005e0c:	0c525252 	.word	0x0c525252
 8005e10:	52524352 	.word	0x52524352
 8005e14:	50          	.byte	0x50
 8005e15:	00          	.byte	0x00
 8005e16:	9b1b      	ldr	r3, [sp, #108]	; 0x6c
 8005e18:	1d1a      	adds	r2, r3, #4
 8005e1a:	921b      	str	r2, [sp, #108]	; 0x6c
 8005e1c:	f8d3 8000 	ldr.w	r8, [r3]
 8005e20:	2600      	movs	r6, #0
 8005e22:	e000      	b.n	8005e26 <f_printf+0xca>
 8005e24:	3601      	adds	r6, #1
 8005e26:	f818 3006 	ldrb.w	r3, [r8, r6]
 8005e2a:	2b00      	cmp	r3, #0
 8005e2c:	d1fa      	bne.n	8005e24 <f_printf+0xc8>
 8005e2e:	f017 0f02 	tst.w	r7, #2
 8005e32:	d110      	bne.n	8005e56 <f_printf+0xfa>
 8005e34:	e005      	b.n	8005e42 <f_printf+0xe6>
 8005e36:	2120      	movs	r1, #32
 8005e38:	eb0d 0001 	add.w	r0, sp, r1
 8005e3c:	f7ff fd8f 	bl	800595e <putc_bfd>
 8005e40:	463e      	mov	r6, r7
 8005e42:	1c77      	adds	r7, r6, #1
 8005e44:	42a6      	cmp	r6, r4
 8005e46:	d3f6      	bcc.n	8005e36 <f_printf+0xda>
 8005e48:	463e      	mov	r6, r7
 8005e4a:	e004      	b.n	8005e56 <f_printf+0xfa>
 8005e4c:	f108 0801 	add.w	r8, r8, #1
 8005e50:	a808      	add	r0, sp, #32
 8005e52:	f7ff fd84 	bl	800595e <putc_bfd>
 8005e56:	f898 1000 	ldrb.w	r1, [r8]
 8005e5a:	2900      	cmp	r1, #0
 8005e5c:	d1f6      	bne.n	8005e4c <f_printf+0xf0>
 8005e5e:	e005      	b.n	8005e6c <f_printf+0x110>
 8005e60:	2120      	movs	r1, #32
 8005e62:	eb0d 0001 	add.w	r0, sp, r1
 8005e66:	f7ff fd7a 	bl	800595e <putc_bfd>
 8005e6a:	463e      	mov	r6, r7
 8005e6c:	1c77      	adds	r7, r6, #1
 8005e6e:	42a6      	cmp	r6, r4
 8005e70:	d3f6      	bcc.n	8005e60 <f_printf+0x104>
 8005e72:	e784      	b.n	8005d7e <f_printf+0x22>
 8005e74:	9b1b      	ldr	r3, [sp, #108]	; 0x6c
 8005e76:	1d1a      	adds	r2, r3, #4
 8005e78:	921b      	str	r2, [sp, #108]	; 0x6c
 8005e7a:	7819      	ldrb	r1, [r3, #0]
 8005e7c:	a808      	add	r0, sp, #32
 8005e7e:	f7ff fd6e 	bl	800595e <putc_bfd>
 8005e82:	e77c      	b.n	8005d7e <f_printf+0x22>
 8005e84:	200a      	movs	r0, #10
 8005e86:	f017 0f04 	tst.w	r7, #4
 8005e8a:	d012      	beq.n	8005eb2 <f_printf+0x156>
 8005e8c:	9a1b      	ldr	r2, [sp, #108]	; 0x6c
 8005e8e:	1d16      	adds	r6, r2, #4
 8005e90:	961b      	str	r6, [sp, #108]	; 0x6c
 8005e92:	6812      	ldr	r2, [r2, #0]
 8005e94:	2b44      	cmp	r3, #68	; 0x44
 8005e96:	d018      	beq.n	8005eca <f_printf+0x16e>
 8005e98:	f04f 0c00 	mov.w	ip, #0
 8005e9c:	e02b      	b.n	8005ef6 <f_printf+0x19a>
 8005e9e:	2010      	movs	r0, #16
 8005ea0:	e7f1      	b.n	8005e86 <f_printf+0x12a>
 8005ea2:	a808      	add	r0, sp, #32
 8005ea4:	f7ff fd5b 	bl	800595e <putc_bfd>
 8005ea8:	e769      	b.n	8005d7e <f_printf+0x22>
 8005eaa:	2002      	movs	r0, #2
 8005eac:	e7eb      	b.n	8005e86 <f_printf+0x12a>
 8005eae:	2008      	movs	r0, #8
 8005eb0:	e7e9      	b.n	8005e86 <f_printf+0x12a>
 8005eb2:	2b44      	cmp	r3, #68	; 0x44
 8005eb4:	d004      	beq.n	8005ec0 <f_printf+0x164>
 8005eb6:	9a1b      	ldr	r2, [sp, #108]	; 0x6c
 8005eb8:	1d16      	adds	r6, r2, #4
 8005eba:	961b      	str	r6, [sp, #108]	; 0x6c
 8005ebc:	6812      	ldr	r2, [r2, #0]
 8005ebe:	e7e9      	b.n	8005e94 <f_printf+0x138>
 8005ec0:	9a1b      	ldr	r2, [sp, #108]	; 0x6c
 8005ec2:	1d16      	adds	r6, r2, #4
 8005ec4:	961b      	str	r6, [sp, #108]	; 0x6c
 8005ec6:	6812      	ldr	r2, [r2, #0]
 8005ec8:	e7e4      	b.n	8005e94 <f_printf+0x138>
 8005eca:	2a00      	cmp	r2, #0
 8005ecc:	dae4      	bge.n	8005e98 <f_printf+0x13c>
 8005ece:	4252      	negs	r2, r2
 8005ed0:	f047 0708 	orr.w	r7, r7, #8
 8005ed4:	e7e0      	b.n	8005e98 <f_printf+0x13c>
 8005ed6:	2627      	movs	r6, #39	; 0x27
 8005ed8:	4433      	add	r3, r6
 8005eda:	b2db      	uxtb	r3, r3
 8005edc:	f10c 0601 	add.w	r6, ip, #1
 8005ee0:	3330      	adds	r3, #48	; 0x30
 8005ee2:	f10d 0970 	add.w	r9, sp, #112	; 0x70
 8005ee6:	44e1      	add	r9, ip
 8005ee8:	f809 3c70 	strb.w	r3, [r9, #-112]
 8005eec:	45c6      	cmp	lr, r8
 8005eee:	d810      	bhi.n	8005f12 <f_printf+0x1b6>
 8005ef0:	2e1f      	cmp	r6, #31
 8005ef2:	d80e      	bhi.n	8005f12 <f_printf+0x1b6>
 8005ef4:	46b4      	mov	ip, r6
 8005ef6:	4686      	mov	lr, r0
 8005ef8:	fbb2 f6f0 	udiv	r6, r2, r0
 8005efc:	fb00 2316 	mls	r3, r0, r6, r2
 8005f00:	b2db      	uxtb	r3, r3
 8005f02:	4690      	mov	r8, r2
 8005f04:	4632      	mov	r2, r6
 8005f06:	2b09      	cmp	r3, #9
 8005f08:	d9e8      	bls.n	8005edc <f_printf+0x180>
 8005f0a:	2978      	cmp	r1, #120	; 0x78
 8005f0c:	d0e3      	beq.n	8005ed6 <f_printf+0x17a>
 8005f0e:	2607      	movs	r6, #7
 8005f10:	e7e2      	b.n	8005ed8 <f_printf+0x17c>
 8005f12:	f017 0f08 	tst.w	r7, #8
 8005f16:	d006      	beq.n	8005f26 <f_printf+0x1ca>
 8005f18:	ab1c      	add	r3, sp, #112	; 0x70
 8005f1a:	441e      	add	r6, r3
 8005f1c:	232d      	movs	r3, #45	; 0x2d
 8005f1e:	f806 3c70 	strb.w	r3, [r6, #-112]
 8005f22:	f10c 0602 	add.w	r6, ip, #2
 8005f26:	f017 0f01 	tst.w	r7, #1
 8005f2a:	d003      	beq.n	8005f34 <f_printf+0x1d8>
 8005f2c:	f04f 0a30 	mov.w	sl, #48	; 0x30
 8005f30:	46b0      	mov	r8, r6
 8005f32:	e007      	b.n	8005f44 <f_printf+0x1e8>
 8005f34:	f04f 0a20 	mov.w	sl, #32
 8005f38:	e7fa      	b.n	8005f30 <f_printf+0x1d4>
 8005f3a:	4651      	mov	r1, sl
 8005f3c:	a808      	add	r0, sp, #32
 8005f3e:	f7ff fd0e 	bl	800595e <putc_bfd>
 8005f42:	46c8      	mov	r8, r9
 8005f44:	f017 0f02 	tst.w	r7, #2
 8005f48:	d104      	bne.n	8005f54 <f_printf+0x1f8>
 8005f4a:	f108 0901 	add.w	r9, r8, #1
 8005f4e:	45a0      	cmp	r8, r4
 8005f50:	d3f3      	bcc.n	8005f3a <f_printf+0x1de>
 8005f52:	46c8      	mov	r8, r9
 8005f54:	3e01      	subs	r6, #1
 8005f56:	ab1c      	add	r3, sp, #112	; 0x70
 8005f58:	4433      	add	r3, r6
 8005f5a:	f813 1c70 	ldrb.w	r1, [r3, #-112]
 8005f5e:	a808      	add	r0, sp, #32
 8005f60:	f7ff fcfd 	bl	800595e <putc_bfd>
 8005f64:	2e00      	cmp	r6, #0
 8005f66:	d1f5      	bne.n	8005f54 <f_printf+0x1f8>
 8005f68:	f108 0601 	add.w	r6, r8, #1
 8005f6c:	45a0      	cmp	r8, r4
 8005f6e:	f4bf af06 	bcs.w	8005d7e <f_printf+0x22>
 8005f72:	4651      	mov	r1, sl
 8005f74:	a808      	add	r0, sp, #32
 8005f76:	f7ff fcf2 	bl	800595e <putc_bfd>
 8005f7a:	46b0      	mov	r8, r6
 8005f7c:	e7f4      	b.n	8005f68 <f_printf+0x20c>
 8005f7e:	a808      	add	r0, sp, #32
 8005f80:	f7ff fd14 	bl	80059ac <putc_flush>
 8005f84:	b01d      	add	sp, #116	; 0x74
 8005f86:	e8bd 47f0 	ldmia.w	sp!, {r4, r5, r6, r7, r8, r9, sl, lr}
 8005f8a:	b003      	add	sp, #12
 8005f8c:	4770      	bx	lr
	...

08005f90 <FATFS_LinkDriverEx>:
 8005f90:	4b10      	ldr	r3, [pc, #64]	; (8005fd4 <FATFS_LinkDriverEx+0x44>)
 8005f92:	7a5b      	ldrb	r3, [r3, #9]
 8005f94:	b9e3      	cbnz	r3, 8005fd0 <FATFS_LinkDriverEx+0x40>
 8005f96:	b470      	push	{r4, r5, r6}
 8005f98:	4604      	mov	r4, r0
 8005f9a:	f003 00ff 	and.w	r0, r3, #255	; 0xff
 8005f9e:	4b0d      	ldr	r3, [pc, #52]	; (8005fd4 <FATFS_LinkDriverEx+0x44>)
 8005fa0:	7a5d      	ldrb	r5, [r3, #9]
 8005fa2:	b2ed      	uxtb	r5, r5
 8005fa4:	2600      	movs	r6, #0
 8005fa6:	555e      	strb	r6, [r3, r5]
 8005fa8:	7a5d      	ldrb	r5, [r3, #9]
 8005faa:	eb03 0585 	add.w	r5, r3, r5, lsl #2
 8005fae:	606c      	str	r4, [r5, #4]
 8005fb0:	7a5c      	ldrb	r4, [r3, #9]
 8005fb2:	441c      	add	r4, r3
 8005fb4:	7222      	strb	r2, [r4, #8]
 8005fb6:	7a5a      	ldrb	r2, [r3, #9]
 8005fb8:	1c54      	adds	r4, r2, #1
 8005fba:	b2e4      	uxtb	r4, r4
 8005fbc:	725c      	strb	r4, [r3, #9]
 8005fbe:	3230      	adds	r2, #48	; 0x30
 8005fc0:	700a      	strb	r2, [r1, #0]
 8005fc2:	233a      	movs	r3, #58	; 0x3a
 8005fc4:	704b      	strb	r3, [r1, #1]
 8005fc6:	232f      	movs	r3, #47	; 0x2f
 8005fc8:	708b      	strb	r3, [r1, #2]
 8005fca:	70ce      	strb	r6, [r1, #3]
 8005fcc:	bc70      	pop	{r4, r5, r6}
 8005fce:	4770      	bx	lr
 8005fd0:	2001      	movs	r0, #1
 8005fd2:	4770      	bx	lr
 8005fd4:	200000ec 	.word	0x200000ec

08005fd8 <FATFS_LinkDriver>:
 8005fd8:	b508      	push	{r3, lr}
 8005fda:	2200      	movs	r2, #0
 8005fdc:	f7ff ffd8 	bl	8005f90 <FATFS_LinkDriverEx>
 8005fe0:	bd08      	pop	{r3, pc}
	...

08005fe4 <Reset_Handler>:
 8005fe4:	f8df d034 	ldr.w	sp, [pc, #52]	; 800601c <LoopFillZerobss+0x12>
 8005fe8:	480d      	ldr	r0, [pc, #52]	; (8006020 <LoopFillZerobss+0x16>)
 8005fea:	490e      	ldr	r1, [pc, #56]	; (8006024 <LoopFillZerobss+0x1a>)
 8005fec:	4a0e      	ldr	r2, [pc, #56]	; (8006028 <LoopFillZerobss+0x1e>)
 8005fee:	2300      	movs	r3, #0
 8005ff0:	e002      	b.n	8005ff8 <LoopCopyDataInit>

08005ff2 <CopyDataInit>:
 8005ff2:	58d4      	ldr	r4, [r2, r3]
 8005ff4:	50c4      	str	r4, [r0, r3]
 8005ff6:	3304      	adds	r3, #4

08005ff8 <LoopCopyDataInit>:
 8005ff8:	18c4      	adds	r4, r0, r3
 8005ffa:	428c      	cmp	r4, r1
 8005ffc:	d3f9      	bcc.n	8005ff2 <CopyDataInit>
 8005ffe:	4a0b      	ldr	r2, [pc, #44]	; (800602c <LoopFillZerobss+0x22>)
 8006000:	4c0b      	ldr	r4, [pc, #44]	; (8006030 <LoopFillZerobss+0x26>)
 8006002:	2300      	movs	r3, #0
 8006004:	e001      	b.n	800600a <LoopFillZerobss>

08006006 <FillZerobss>:
 8006006:	6013      	str	r3, [r2, #0]
 8006008:	3204      	adds	r2, #4

0800600a <LoopFillZerobss>:
 800600a:	42a2      	cmp	r2, r4
 800600c:	d3fb      	bcc.n	8006006 <FillZerobss>
 800600e:	f7fe f925 	bl	800425c <SystemInit>
 8006012:	f000 f811 	bl	8006038 <__libc_init_array>
 8006016:	f7fb f887 	bl	8001128 <main>
 800601a:	4770      	bx	lr
 800601c:	20020000 	.word	0x20020000
 8006020:	20000000 	.word	0x20000000
 8006024:	200000a8 	.word	0x200000a8
 8006028:	080083a4 	.word	0x080083a4
 800602c:	200000a8 	.word	0x200000a8
 8006030:	200022d8 	.word	0x200022d8

08006034 <ADC_IRQHandler>:
 8006034:	e7fe      	b.n	8006034 <ADC_IRQHandler>
	...

08006038 <__libc_init_array>:
 8006038:	b570      	push	{r4, r5, r6, lr}
 800603a:	4b0e      	ldr	r3, [pc, #56]	; (8006074 <__libc_init_array+0x3c>)
 800603c:	4c0e      	ldr	r4, [pc, #56]	; (8006078 <__libc_init_array+0x40>)
 800603e:	1ae4      	subs	r4, r4, r3
 8006040:	10a4      	asrs	r4, r4, #2
 8006042:	2500      	movs	r5, #0
 8006044:	461e      	mov	r6, r3
 8006046:	42a5      	cmp	r5, r4
 8006048:	d004      	beq.n	8006054 <__libc_init_array+0x1c>
 800604a:	f856 3025 	ldr.w	r3, [r6, r5, lsl #2]
 800604e:	4798      	blx	r3
 8006050:	3501      	adds	r5, #1
 8006052:	e7f8      	b.n	8006046 <__libc_init_array+0xe>
 8006054:	f001 fd60 	bl	8007b18 <_init>
 8006058:	4c08      	ldr	r4, [pc, #32]	; (800607c <__libc_init_array+0x44>)
 800605a:	4b09      	ldr	r3, [pc, #36]	; (8006080 <__libc_init_array+0x48>)
 800605c:	1ae4      	subs	r4, r4, r3
 800605e:	10a4      	asrs	r4, r4, #2
 8006060:	2500      	movs	r5, #0
 8006062:	461e      	mov	r6, r3
 8006064:	42a5      	cmp	r5, r4
 8006066:	d004      	beq.n	8006072 <__libc_init_array+0x3a>
 8006068:	f856 3025 	ldr.w	r3, [r6, r5, lsl #2]
 800606c:	4798      	blx	r3
 800606e:	3501      	adds	r5, #1
 8006070:	e7f8      	b.n	8006064 <__libc_init_array+0x2c>
 8006072:	bd70      	pop	{r4, r5, r6, pc}
 8006074:	0800839c 	.word	0x0800839c
 8006078:	0800839c 	.word	0x0800839c
 800607c:	080083a0 	.word	0x080083a0
 8006080:	0800839c 	.word	0x0800839c

08006084 <memset>:
 8006084:	4402      	add	r2, r0
 8006086:	4603      	mov	r3, r0
 8006088:	4293      	cmp	r3, r2
 800608a:	d002      	beq.n	8006092 <memset+0xe>
 800608c:	f803 1b01 	strb.w	r1, [r3], #1
 8006090:	e7fa      	b.n	8006088 <memset+0x4>
 8006092:	4770      	bx	lr

08006094 <__cvt>:
 8006094:	e92d 47ff 	stmdb	sp!, {r0, r1, r2, r3, r4, r5, r6, r7, r8, r9, sl, lr}
 8006098:	ec55 4b10 	vmov	r4, r5, d0
 800609c:	9f0d      	ldr	r7, [sp, #52]	; 0x34
 800609e:	f8dd a030 	ldr.w	sl, [sp, #48]	; 0x30
 80060a2:	2d00      	cmp	r5, #0
 80060a4:	460e      	mov	r6, r1
 80060a6:	4691      	mov	r9, r2
 80060a8:	4619      	mov	r1, r3
 80060aa:	bfb8      	it	lt
 80060ac:	4622      	movlt	r2, r4
 80060ae:	462b      	mov	r3, r5
 80060b0:	f027 0720 	bic.w	r7, r7, #32
 80060b4:	bfbb      	ittet	lt
 80060b6:	f105 4300 	addlt.w	r3, r5, #2147483648	; 0x80000000
 80060ba:	461d      	movlt	r5, r3
 80060bc:	2300      	movge	r3, #0
 80060be:	232d      	movlt	r3, #45	; 0x2d
 80060c0:	bfb8      	it	lt
 80060c2:	4614      	movlt	r4, r2
 80060c4:	2f46      	cmp	r7, #70	; 0x46
 80060c6:	700b      	strb	r3, [r1, #0]
 80060c8:	d003      	beq.n	80060d2 <__cvt+0x3e>
 80060ca:	2f45      	cmp	r7, #69	; 0x45
 80060cc:	d103      	bne.n	80060d6 <__cvt+0x42>
 80060ce:	3601      	adds	r6, #1
 80060d0:	e001      	b.n	80060d6 <__cvt+0x42>
 80060d2:	2103      	movs	r1, #3
 80060d4:	e000      	b.n	80060d8 <__cvt+0x44>
 80060d6:	2102      	movs	r1, #2
 80060d8:	ab02      	add	r3, sp, #8
 80060da:	9300      	str	r3, [sp, #0]
 80060dc:	ab03      	add	r3, sp, #12
 80060de:	9301      	str	r3, [sp, #4]
 80060e0:	ec45 4b10 	vmov	d0, r4, r5
 80060e4:	4632      	mov	r2, r6
 80060e6:	4653      	mov	r3, sl
 80060e8:	f000 fbde 	bl	80068a8 <_dtoa_r>
 80060ec:	2f47      	cmp	r7, #71	; 0x47
 80060ee:	4680      	mov	r8, r0
 80060f0:	d102      	bne.n	80060f8 <__cvt+0x64>
 80060f2:	f019 0f01 	tst.w	r9, #1
 80060f6:	d026      	beq.n	8006146 <__cvt+0xb2>
 80060f8:	2f46      	cmp	r7, #70	; 0x46
 80060fa:	eb08 0906 	add.w	r9, r8, r6
 80060fe:	d111      	bne.n	8006124 <__cvt+0x90>
 8006100:	f898 3000 	ldrb.w	r3, [r8]
 8006104:	2b30      	cmp	r3, #48	; 0x30
 8006106:	d10a      	bne.n	800611e <__cvt+0x8a>
 8006108:	4620      	mov	r0, r4
 800610a:	4629      	mov	r1, r5
 800610c:	2200      	movs	r2, #0
 800610e:	2300      	movs	r3, #0
 8006110:	f7fa fc88 	bl	8000a24 <__aeabi_dcmpeq>
 8006114:	b918      	cbnz	r0, 800611e <__cvt+0x8a>
 8006116:	f1c6 0601 	rsb	r6, r6, #1
 800611a:	f8ca 6000 	str.w	r6, [sl]
 800611e:	f8da 3000 	ldr.w	r3, [sl]
 8006122:	4499      	add	r9, r3
 8006124:	4620      	mov	r0, r4
 8006126:	4629      	mov	r1, r5
 8006128:	2200      	movs	r2, #0
 800612a:	2300      	movs	r3, #0
 800612c:	f7fa fc7a 	bl	8000a24 <__aeabi_dcmpeq>
 8006130:	b108      	cbz	r0, 8006136 <__cvt+0xa2>
 8006132:	f8cd 900c 	str.w	r9, [sp, #12]
 8006136:	9b03      	ldr	r3, [sp, #12]
 8006138:	454b      	cmp	r3, r9
 800613a:	d204      	bcs.n	8006146 <__cvt+0xb2>
 800613c:	1c5a      	adds	r2, r3, #1
 800613e:	9203      	str	r2, [sp, #12]
 8006140:	2230      	movs	r2, #48	; 0x30
 8006142:	701a      	strb	r2, [r3, #0]
 8006144:	e7f7      	b.n	8006136 <__cvt+0xa2>
 8006146:	9b03      	ldr	r3, [sp, #12]
 8006148:	9a0e      	ldr	r2, [sp, #56]	; 0x38
 800614a:	ebc8 0303 	rsb	r3, r8, r3
 800614e:	4640      	mov	r0, r8
 8006150:	6013      	str	r3, [r2, #0]
 8006152:	b004      	add	sp, #16
 8006154:	e8bd 87f0 	ldmia.w	sp!, {r4, r5, r6, r7, r8, r9, sl, pc}

08006158 <__exponent>:
 8006158:	b573      	push	{r0, r1, r4, r5, r6, lr}
 800615a:	4603      	mov	r3, r0
 800615c:	2900      	cmp	r1, #0
 800615e:	bfb8      	it	lt
 8006160:	4249      	neglt	r1, r1
 8006162:	f803 2b02 	strb.w	r2, [r3], #2
 8006166:	bfb4      	ite	lt
 8006168:	222d      	movlt	r2, #45	; 0x2d
 800616a:	222b      	movge	r2, #43	; 0x2b
 800616c:	2909      	cmp	r1, #9
 800616e:	7042      	strb	r2, [r0, #1]
 8006170:	dd19      	ble.n	80061a6 <__exponent+0x4e>
 8006172:	f10d 0407 	add.w	r4, sp, #7
 8006176:	4626      	mov	r6, r4
 8006178:	220a      	movs	r2, #10
 800617a:	fb91 f5f2 	sdiv	r5, r1, r2
 800617e:	fb02 1115 	mls	r1, r2, r5, r1
 8006182:	3130      	adds	r1, #48	; 0x30
 8006184:	2d09      	cmp	r5, #9
 8006186:	f804 1d01 	strb.w	r1, [r4, #-1]!
 800618a:	4629      	mov	r1, r5
 800618c:	dcf4      	bgt.n	8006178 <__exponent+0x20>
 800618e:	3130      	adds	r1, #48	; 0x30
 8006190:	1e65      	subs	r5, r4, #1
 8006192:	f804 1c01 	strb.w	r1, [r4, #-1]
 8006196:	42b5      	cmp	r5, r6
 8006198:	461a      	mov	r2, r3
 800619a:	d20a      	bcs.n	80061b2 <__exponent+0x5a>
 800619c:	f815 2b01 	ldrb.w	r2, [r5], #1
 80061a0:	f803 2b01 	strb.w	r2, [r3], #1
 80061a4:	e7f7      	b.n	8006196 <__exponent+0x3e>
 80061a6:	2430      	movs	r4, #48	; 0x30
 80061a8:	461a      	mov	r2, r3
 80061aa:	4421      	add	r1, r4
 80061ac:	f802 4b02 	strb.w	r4, [r2], #2
 80061b0:	7059      	strb	r1, [r3, #1]
 80061b2:	1a10      	subs	r0, r2, r0
 80061b4:	b002      	add	sp, #8
 80061b6:	bd70      	pop	{r4, r5, r6, pc}

080061b8 <_printf_float>:
 80061b8:	e92d 4ff0 	stmdb	sp!, {r4, r5, r6, r7, r8, r9, sl, fp, lr}
 80061bc:	b08b      	sub	sp, #44	; 0x2c
 80061be:	468b      	mov	fp, r1
 80061c0:	4615      	mov	r5, r2
 80061c2:	461e      	mov	r6, r3
 80061c4:	9f14      	ldr	r7, [sp, #80]	; 0x50
 80061c6:	4604      	mov	r4, r0
 80061c8:	f001 f92e 	bl	8007428 <_localeconv_r>
 80061cc:	f8d0 a000 	ldr.w	sl, [r0]
 80061d0:	4650      	mov	r0, sl
 80061d2:	f000 fad1 	bl	8006778 <strlen>
 80061d6:	2300      	movs	r3, #0
 80061d8:	9308      	str	r3, [sp, #32]
 80061da:	683b      	ldr	r3, [r7, #0]
 80061dc:	9005      	str	r0, [sp, #20]
 80061de:	3307      	adds	r3, #7
 80061e0:	f023 0307 	bic.w	r3, r3, #7
 80061e4:	f103 0208 	add.w	r2, r3, #8
 80061e8:	f89b 8018 	ldrb.w	r8, [fp, #24]
 80061ec:	603a      	str	r2, [r7, #0]
 80061ee:	e9d3 2300 	ldrd	r2, r3, [r3]
 80061f2:	e9cb 2312 	strd	r2, r3, [fp, #72]	; 0x48
 80061f6:	ed9b 0b12 	vldr	d0, [fp, #72]	; 0x48
 80061fa:	f000 fa91 	bl	8006720 <__fpclassifyd>
 80061fe:	2801      	cmp	r0, #1
 8006200:	d11b      	bne.n	800623a <_printf_float+0x82>
 8006202:	e9db 0112 	ldrd	r0, r1, [fp, #72]	; 0x48
 8006206:	2200      	movs	r2, #0
 8006208:	2300      	movs	r3, #0
 800620a:	f7fa fc15 	bl	8000a38 <__aeabi_dcmplt>
 800620e:	b110      	cbz	r0, 8006216 <_printf_float+0x5e>
 8006210:	232d      	movs	r3, #45	; 0x2d
 8006212:	f88b 3043 	strb.w	r3, [fp, #67]	; 0x43
 8006216:	4bb5      	ldr	r3, [pc, #724]	; (80064ec <_printf_float+0x334>)
 8006218:	4fb5      	ldr	r7, [pc, #724]	; (80064f0 <_printf_float+0x338>)
 800621a:	f1b8 0f47 	cmp.w	r8, #71	; 0x47
 800621e:	bf88      	it	hi
 8006220:	461f      	movhi	r7, r3
 8006222:	2303      	movs	r3, #3
 8006224:	f8cb 3010 	str.w	r3, [fp, #16]
 8006228:	f8db 3000 	ldr.w	r3, [fp]
 800622c:	f023 0304 	bic.w	r3, r3, #4
 8006230:	f8cb 3000 	str.w	r3, [fp]
 8006234:	f04f 0900 	mov.w	r9, #0
 8006238:	e09f      	b.n	800637a <_printf_float+0x1c2>
 800623a:	ed9b 0b12 	vldr	d0, [fp, #72]	; 0x48
 800623e:	f000 fa6f 	bl	8006720 <__fpclassifyd>
 8006242:	f8db 2000 	ldr.w	r2, [fp]
 8006246:	b968      	cbnz	r0, 8006264 <_printf_float+0xac>
 8006248:	4baa      	ldr	r3, [pc, #680]	; (80064f4 <_printf_float+0x33c>)
 800624a:	4fab      	ldr	r7, [pc, #684]	; (80064f8 <_printf_float+0x340>)
 800624c:	f022 0204 	bic.w	r2, r2, #4
 8006250:	f1b8 0f47 	cmp.w	r8, #71	; 0x47
 8006254:	bf88      	it	hi
 8006256:	461f      	movhi	r7, r3
 8006258:	2303      	movs	r3, #3
 800625a:	f8cb 3010 	str.w	r3, [fp, #16]
 800625e:	f8cb 2000 	str.w	r2, [fp]
 8006262:	e7e7      	b.n	8006234 <_printf_float+0x7c>
 8006264:	f8db 1004 	ldr.w	r1, [fp, #4]
 8006268:	1c4f      	adds	r7, r1, #1
 800626a:	ed9b 0b12 	vldr	d0, [fp, #72]	; 0x48
 800626e:	d101      	bne.n	8006274 <_printf_float+0xbc>
 8006270:	2306      	movs	r3, #6
 8006272:	e009      	b.n	8006288 <_printf_float+0xd0>
 8006274:	f1b8 0f67 	cmp.w	r8, #103	; 0x67
 8006278:	d002      	beq.n	8006280 <_printf_float+0xc8>
 800627a:	f1b8 0f47 	cmp.w	r8, #71	; 0x47
 800627e:	d105      	bne.n	800628c <_printf_float+0xd4>
 8006280:	2900      	cmp	r1, #0
 8006282:	f040 81c1 	bne.w	8006608 <_printf_float+0x450>
 8006286:	2301      	movs	r3, #1
 8006288:	f8cb 3004 	str.w	r3, [fp, #4]
 800628c:	ab07      	add	r3, sp, #28
 800628e:	e88d 0108 	stmia.w	sp, {r3, r8}
 8006292:	ab08      	add	r3, sp, #32
 8006294:	f442 6280 	orr.w	r2, r2, #1024	; 0x400
 8006298:	9302      	str	r3, [sp, #8]
 800629a:	2300      	movs	r3, #0
 800629c:	9303      	str	r3, [sp, #12]
 800629e:	f8cb 2000 	str.w	r2, [fp]
 80062a2:	f10d 031b 	add.w	r3, sp, #27
 80062a6:	4620      	mov	r0, r4
 80062a8:	f8db 1004 	ldr.w	r1, [fp, #4]
 80062ac:	f7ff fef2 	bl	8006094 <__cvt>
 80062b0:	f008 03df 	and.w	r3, r8, #223	; 0xdf
 80062b4:	2b47      	cmp	r3, #71	; 0x47
 80062b6:	4607      	mov	r7, r0
 80062b8:	d10a      	bne.n	80062d0 <_printf_float+0x118>
 80062ba:	9b07      	ldr	r3, [sp, #28]
 80062bc:	1cd8      	adds	r0, r3, #3
 80062be:	db03      	blt.n	80062c8 <_printf_float+0x110>
 80062c0:	f8db 2004 	ldr.w	r2, [fp, #4]
 80062c4:	4293      	cmp	r3, r2
 80062c6:	dd37      	ble.n	8006338 <_printf_float+0x180>
 80062c8:	f1a8 0802 	sub.w	r8, r8, #2
 80062cc:	fa5f f888 	uxtb.w	r8, r8
 80062d0:	f1b8 0f65 	cmp.w	r8, #101	; 0x65
 80062d4:	9907      	ldr	r1, [sp, #28]
 80062d6:	d815      	bhi.n	8006304 <_printf_float+0x14c>
 80062d8:	3901      	subs	r1, #1
 80062da:	4642      	mov	r2, r8
 80062dc:	f10b 0050 	add.w	r0, fp, #80	; 0x50
 80062e0:	9107      	str	r1, [sp, #28]
 80062e2:	f7ff ff39 	bl	8006158 <__exponent>
 80062e6:	9a08      	ldr	r2, [sp, #32]
 80062e8:	1883      	adds	r3, r0, r2
 80062ea:	2a01      	cmp	r2, #1
 80062ec:	4681      	mov	r9, r0
 80062ee:	f8cb 3010 	str.w	r3, [fp, #16]
 80062f2:	dc03      	bgt.n	80062fc <_printf_float+0x144>
 80062f4:	f8db 2000 	ldr.w	r2, [fp]
 80062f8:	07d1      	lsls	r1, r2, #31
 80062fa:	d538      	bpl.n	800636e <_printf_float+0x1b6>
 80062fc:	3301      	adds	r3, #1
 80062fe:	f8cb 3010 	str.w	r3, [fp, #16]
 8006302:	e034      	b.n	800636e <_printf_float+0x1b6>
 8006304:	f1b8 0f66 	cmp.w	r8, #102	; 0x66
 8006308:	d118      	bne.n	800633c <_printf_float+0x184>
 800630a:	2900      	cmp	r1, #0
 800630c:	f8db 3004 	ldr.w	r3, [fp, #4]
 8006310:	dd09      	ble.n	8006326 <_printf_float+0x16e>
 8006312:	f8cb 1010 	str.w	r1, [fp, #16]
 8006316:	b91b      	cbnz	r3, 8006320 <_printf_float+0x168>
 8006318:	f8db 2000 	ldr.w	r2, [fp]
 800631c:	07d2      	lsls	r2, r2, #31
 800631e:	d521      	bpl.n	8006364 <_printf_float+0x1ac>
 8006320:	3301      	adds	r3, #1
 8006322:	440b      	add	r3, r1
 8006324:	e01c      	b.n	8006360 <_printf_float+0x1a8>
 8006326:	b91b      	cbnz	r3, 8006330 <_printf_float+0x178>
 8006328:	f8db 2000 	ldr.w	r2, [fp]
 800632c:	07d0      	lsls	r0, r2, #31
 800632e:	d501      	bpl.n	8006334 <_printf_float+0x17c>
 8006330:	3302      	adds	r3, #2
 8006332:	e015      	b.n	8006360 <_printf_float+0x1a8>
 8006334:	2301      	movs	r3, #1
 8006336:	e013      	b.n	8006360 <_printf_float+0x1a8>
 8006338:	f04f 0867 	mov.w	r8, #103	; 0x67
 800633c:	9b07      	ldr	r3, [sp, #28]
 800633e:	9a08      	ldr	r2, [sp, #32]
 8006340:	4293      	cmp	r3, r2
 8006342:	db07      	blt.n	8006354 <_printf_float+0x19c>
 8006344:	f8db 2000 	ldr.w	r2, [fp]
 8006348:	f8cb 3010 	str.w	r3, [fp, #16]
 800634c:	07d1      	lsls	r1, r2, #31
 800634e:	d509      	bpl.n	8006364 <_printf_float+0x1ac>
 8006350:	3301      	adds	r3, #1
 8006352:	e005      	b.n	8006360 <_printf_float+0x1a8>
 8006354:	2b00      	cmp	r3, #0
 8006356:	bfd4      	ite	le
 8006358:	f1c3 0302 	rsble	r3, r3, #2
 800635c:	2301      	movgt	r3, #1
 800635e:	4413      	add	r3, r2
 8006360:	f8cb 3010 	str.w	r3, [fp, #16]
 8006364:	9b07      	ldr	r3, [sp, #28]
 8006366:	f8cb 3058 	str.w	r3, [fp, #88]	; 0x58
 800636a:	f04f 0900 	mov.w	r9, #0
 800636e:	f89d 301b 	ldrb.w	r3, [sp, #27]
 8006372:	b113      	cbz	r3, 800637a <_printf_float+0x1c2>
 8006374:	232d      	movs	r3, #45	; 0x2d
 8006376:	f88b 3043 	strb.w	r3, [fp, #67]	; 0x43
 800637a:	9600      	str	r6, [sp, #0]
 800637c:	4620      	mov	r0, r4
 800637e:	4659      	mov	r1, fp
 8006380:	aa09      	add	r2, sp, #36	; 0x24
 8006382:	462b      	mov	r3, r5
 8006384:	f000 f956 	bl	8006634 <_printf_common>
 8006388:	3001      	adds	r0, #1
 800638a:	d102      	bne.n	8006392 <_printf_float+0x1da>
 800638c:	f04f 30ff 	mov.w	r0, #4294967295	; 0xffffffff
 8006390:	e14c      	b.n	800662c <_printf_float+0x474>
 8006392:	f8db 3000 	ldr.w	r3, [fp]
 8006396:	055a      	lsls	r2, r3, #21
 8006398:	d405      	bmi.n	80063a6 <_printf_float+0x1ee>
 800639a:	4620      	mov	r0, r4
 800639c:	4629      	mov	r1, r5
 800639e:	463a      	mov	r2, r7
 80063a0:	f8db 3010 	ldr.w	r3, [fp, #16]
 80063a4:	e108      	b.n	80065b8 <_printf_float+0x400>
 80063a6:	f1b8 0f65 	cmp.w	r8, #101	; 0x65
 80063aa:	f240 80d0 	bls.w	800654e <_printf_float+0x396>
 80063ae:	e9db 0112 	ldrd	r0, r1, [fp, #72]	; 0x48
 80063b2:	2200      	movs	r2, #0
 80063b4:	2300      	movs	r3, #0
 80063b6:	f7fa fb35 	bl	8000a24 <__aeabi_dcmpeq>
 80063ba:	b350      	cbz	r0, 8006412 <_printf_float+0x25a>
 80063bc:	4620      	mov	r0, r4
 80063be:	4629      	mov	r1, r5
 80063c0:	4a4e      	ldr	r2, [pc, #312]	; (80064fc <_printf_float+0x344>)
 80063c2:	2301      	movs	r3, #1
 80063c4:	47b0      	blx	r6
 80063c6:	3001      	adds	r0, #1
 80063c8:	d0e0      	beq.n	800638c <_printf_float+0x1d4>
 80063ca:	9b08      	ldr	r3, [sp, #32]
 80063cc:	9a07      	ldr	r2, [sp, #28]
 80063ce:	429a      	cmp	r2, r3
 80063d0:	db09      	blt.n	80063e6 <_printf_float+0x22e>
 80063d2:	f8db 3000 	ldr.w	r3, [fp]
 80063d6:	07d8      	lsls	r0, r3, #31
 80063d8:	d405      	bmi.n	80063e6 <_printf_float+0x22e>
 80063da:	f8db 3000 	ldr.w	r3, [fp]
 80063de:	079f      	lsls	r7, r3, #30
 80063e0:	f100 8110 	bmi.w	8006604 <_printf_float+0x44c>
 80063e4:	e107      	b.n	80065f6 <_printf_float+0x43e>
 80063e6:	4620      	mov	r0, r4
 80063e8:	4629      	mov	r1, r5
 80063ea:	4652      	mov	r2, sl
 80063ec:	9b05      	ldr	r3, [sp, #20]
 80063ee:	47b0      	blx	r6
 80063f0:	3001      	adds	r0, #1
 80063f2:	d0cb      	beq.n	800638c <_printf_float+0x1d4>
 80063f4:	2700      	movs	r7, #0
 80063f6:	9b08      	ldr	r3, [sp, #32]
 80063f8:	3b01      	subs	r3, #1
 80063fa:	429f      	cmp	r7, r3
 80063fc:	daed      	bge.n	80063da <_printf_float+0x222>
 80063fe:	4620      	mov	r0, r4
 8006400:	4629      	mov	r1, r5
 8006402:	f10b 021a 	add.w	r2, fp, #26
 8006406:	2301      	movs	r3, #1
 8006408:	47b0      	blx	r6
 800640a:	3001      	adds	r0, #1
 800640c:	d0be      	beq.n	800638c <_printf_float+0x1d4>
 800640e:	3701      	adds	r7, #1
 8006410:	e7f1      	b.n	80063f6 <_printf_float+0x23e>
 8006412:	9b07      	ldr	r3, [sp, #28]
 8006414:	2b00      	cmp	r3, #0
 8006416:	dc29      	bgt.n	800646c <_printf_float+0x2b4>
 8006418:	4620      	mov	r0, r4
 800641a:	4629      	mov	r1, r5
 800641c:	4a37      	ldr	r2, [pc, #220]	; (80064fc <_printf_float+0x344>)
 800641e:	2301      	movs	r3, #1
 8006420:	47b0      	blx	r6
 8006422:	3001      	adds	r0, #1
 8006424:	d0b2      	beq.n	800638c <_printf_float+0x1d4>
 8006426:	9b07      	ldr	r3, [sp, #28]
 8006428:	b92b      	cbnz	r3, 8006436 <_printf_float+0x27e>
 800642a:	9b08      	ldr	r3, [sp, #32]
 800642c:	b91b      	cbnz	r3, 8006436 <_printf_float+0x27e>
 800642e:	f8db 3000 	ldr.w	r3, [fp]
 8006432:	07d9      	lsls	r1, r3, #31
 8006434:	d5d1      	bpl.n	80063da <_printf_float+0x222>
 8006436:	4620      	mov	r0, r4
 8006438:	4629      	mov	r1, r5
 800643a:	4652      	mov	r2, sl
 800643c:	9b05      	ldr	r3, [sp, #20]
 800643e:	47b0      	blx	r6
 8006440:	3001      	adds	r0, #1
 8006442:	d0a3      	beq.n	800638c <_printf_float+0x1d4>
 8006444:	f04f 0800 	mov.w	r8, #0
 8006448:	9b07      	ldr	r3, [sp, #28]
 800644a:	425b      	negs	r3, r3
 800644c:	4598      	cmp	r8, r3
 800644e:	4620      	mov	r0, r4
 8006450:	4629      	mov	r1, r5
 8006452:	da08      	bge.n	8006466 <_printf_float+0x2ae>
 8006454:	f10b 021a 	add.w	r2, fp, #26
 8006458:	2301      	movs	r3, #1
 800645a:	47b0      	blx	r6
 800645c:	3001      	adds	r0, #1
 800645e:	d095      	beq.n	800638c <_printf_float+0x1d4>
 8006460:	f108 0801 	add.w	r8, r8, #1
 8006464:	e7f0      	b.n	8006448 <_printf_float+0x290>
 8006466:	463a      	mov	r2, r7
 8006468:	9b08      	ldr	r3, [sp, #32]
 800646a:	e0a5      	b.n	80065b8 <_printf_float+0x400>
 800646c:	f8db 2058 	ldr.w	r2, [fp, #88]	; 0x58
 8006470:	9b08      	ldr	r3, [sp, #32]
 8006472:	429a      	cmp	r2, r3
 8006474:	bfa8      	it	ge
 8006476:	461a      	movge	r2, r3
 8006478:	2a00      	cmp	r2, #0
 800647a:	4691      	mov	r9, r2
 800647c:	dc02      	bgt.n	8006484 <_printf_float+0x2cc>
 800647e:	f04f 0800 	mov.w	r8, #0
 8006482:	e012      	b.n	80064aa <_printf_float+0x2f2>
 8006484:	4620      	mov	r0, r4
 8006486:	4629      	mov	r1, r5
 8006488:	463a      	mov	r2, r7
 800648a:	464b      	mov	r3, r9
 800648c:	47b0      	blx	r6
 800648e:	3001      	adds	r0, #1
 8006490:	d1f5      	bne.n	800647e <_printf_float+0x2c6>
 8006492:	e77b      	b.n	800638c <_printf_float+0x1d4>
 8006494:	4620      	mov	r0, r4
 8006496:	4629      	mov	r1, r5
 8006498:	f10b 021a 	add.w	r2, fp, #26
 800649c:	2301      	movs	r3, #1
 800649e:	47b0      	blx	r6
 80064a0:	3001      	adds	r0, #1
 80064a2:	f43f af73 	beq.w	800638c <_printf_float+0x1d4>
 80064a6:	f108 0801 	add.w	r8, r8, #1
 80064aa:	f8db 3058 	ldr.w	r3, [fp, #88]	; 0x58
 80064ae:	f1b9 0f00 	cmp.w	r9, #0
 80064b2:	bfac      	ite	ge
 80064b4:	ebc9 0203 	rsbge	r2, r9, r3
 80064b8:	461a      	movlt	r2, r3
 80064ba:	4590      	cmp	r8, r2
 80064bc:	dbea      	blt.n	8006494 <_printf_float+0x2dc>
 80064be:	eb07 0803 	add.w	r8, r7, r3
 80064c2:	9a07      	ldr	r2, [sp, #28]
 80064c4:	9b08      	ldr	r3, [sp, #32]
 80064c6:	429a      	cmp	r2, r3
 80064c8:	db1a      	blt.n	8006500 <_printf_float+0x348>
 80064ca:	f8db 3000 	ldr.w	r3, [fp]
 80064ce:	07da      	lsls	r2, r3, #31
 80064d0:	d416      	bmi.n	8006500 <_printf_float+0x348>
 80064d2:	9a08      	ldr	r2, [sp, #32]
 80064d4:	4417      	add	r7, r2
 80064d6:	ebc8 0307 	rsb	r3, r8, r7
 80064da:	9f07      	ldr	r7, [sp, #28]
 80064dc:	1bd2      	subs	r2, r2, r7
 80064de:	4293      	cmp	r3, r2
 80064e0:	bfa8      	it	ge
 80064e2:	4613      	movge	r3, r2
 80064e4:	2b00      	cmp	r3, #0
 80064e6:	461f      	mov	r7, r3
 80064e8:	dc12      	bgt.n	8006510 <_printf_float+0x358>
 80064ea:	e018      	b.n	800651e <_printf_float+0x366>
 80064ec:	08008272 	.word	0x08008272
 80064f0:	0800826e 	.word	0x0800826e
 80064f4:	0800827a 	.word	0x0800827a
 80064f8:	08008276 	.word	0x08008276
 80064fc:	0800827e 	.word	0x0800827e
 8006500:	4620      	mov	r0, r4
 8006502:	4629      	mov	r1, r5
 8006504:	4652      	mov	r2, sl
 8006506:	9b05      	ldr	r3, [sp, #20]
 8006508:	47b0      	blx	r6
 800650a:	3001      	adds	r0, #1
 800650c:	d1e1      	bne.n	80064d2 <_printf_float+0x31a>
 800650e:	e73d      	b.n	800638c <_printf_float+0x1d4>
 8006510:	4620      	mov	r0, r4
 8006512:	4629      	mov	r1, r5
 8006514:	4642      	mov	r2, r8
 8006516:	47b0      	blx	r6
 8006518:	3001      	adds	r0, #1
 800651a:	f43f af37 	beq.w	800638c <_printf_float+0x1d4>
 800651e:	f04f 0800 	mov.w	r8, #0
 8006522:	e00a      	b.n	800653a <_printf_float+0x382>
 8006524:	4620      	mov	r0, r4
 8006526:	4629      	mov	r1, r5
 8006528:	f10b 021a 	add.w	r2, fp, #26
 800652c:	2301      	movs	r3, #1
 800652e:	47b0      	blx	r6
 8006530:	3001      	adds	r0, #1
 8006532:	f43f af2b 	beq.w	800638c <_printf_float+0x1d4>
 8006536:	f108 0801 	add.w	r8, r8, #1
 800653a:	9a07      	ldr	r2, [sp, #28]
 800653c:	9b08      	ldr	r3, [sp, #32]
 800653e:	2f00      	cmp	r7, #0
 8006540:	eba3 0302 	sub.w	r3, r3, r2
 8006544:	bfa8      	it	ge
 8006546:	1bdb      	subge	r3, r3, r7
 8006548:	4598      	cmp	r8, r3
 800654a:	dbeb      	blt.n	8006524 <_printf_float+0x36c>
 800654c:	e745      	b.n	80063da <_printf_float+0x222>
 800654e:	9a08      	ldr	r2, [sp, #32]
 8006550:	2a01      	cmp	r2, #1
 8006552:	dc01      	bgt.n	8006558 <_printf_float+0x3a0>
 8006554:	07db      	lsls	r3, r3, #31
 8006556:	d536      	bpl.n	80065c6 <_printf_float+0x40e>
 8006558:	4620      	mov	r0, r4
 800655a:	4629      	mov	r1, r5
 800655c:	463a      	mov	r2, r7
 800655e:	2301      	movs	r3, #1
 8006560:	47b0      	blx	r6
 8006562:	3001      	adds	r0, #1
 8006564:	f43f af12 	beq.w	800638c <_printf_float+0x1d4>
 8006568:	4620      	mov	r0, r4
 800656a:	4629      	mov	r1, r5
 800656c:	4652      	mov	r2, sl
 800656e:	9b05      	ldr	r3, [sp, #20]
 8006570:	47b0      	blx	r6
 8006572:	3001      	adds	r0, #1
 8006574:	f43f af0a 	beq.w	800638c <_printf_float+0x1d4>
 8006578:	e9db 0112 	ldrd	r0, r1, [fp, #72]	; 0x48
 800657c:	2200      	movs	r2, #0
 800657e:	2300      	movs	r3, #0
 8006580:	f7fa fa50 	bl	8000a24 <__aeabi_dcmpeq>
 8006584:	b9e8      	cbnz	r0, 80065c2 <_printf_float+0x40a>
 8006586:	9b08      	ldr	r3, [sp, #32]
 8006588:	4620      	mov	r0, r4
 800658a:	4629      	mov	r1, r5
 800658c:	1c7a      	adds	r2, r7, #1
 800658e:	3b01      	subs	r3, #1
 8006590:	e01d      	b.n	80065ce <_printf_float+0x416>
 8006592:	4620      	mov	r0, r4
 8006594:	4629      	mov	r1, r5
 8006596:	f10b 021a 	add.w	r2, fp, #26
 800659a:	2301      	movs	r3, #1
 800659c:	47b0      	blx	r6
 800659e:	3001      	adds	r0, #1
 80065a0:	f43f aef4 	beq.w	800638c <_printf_float+0x1d4>
 80065a4:	3701      	adds	r7, #1
 80065a6:	9b08      	ldr	r3, [sp, #32]
 80065a8:	3b01      	subs	r3, #1
 80065aa:	429f      	cmp	r7, r3
 80065ac:	dbf1      	blt.n	8006592 <_printf_float+0x3da>
 80065ae:	4620      	mov	r0, r4
 80065b0:	4629      	mov	r1, r5
 80065b2:	f10b 0250 	add.w	r2, fp, #80	; 0x50
 80065b6:	464b      	mov	r3, r9
 80065b8:	47b0      	blx	r6
 80065ba:	3001      	adds	r0, #1
 80065bc:	f47f af0d 	bne.w	80063da <_printf_float+0x222>
 80065c0:	e6e4      	b.n	800638c <_printf_float+0x1d4>
 80065c2:	2700      	movs	r7, #0
 80065c4:	e7ef      	b.n	80065a6 <_printf_float+0x3ee>
 80065c6:	4620      	mov	r0, r4
 80065c8:	4629      	mov	r1, r5
 80065ca:	463a      	mov	r2, r7
 80065cc:	2301      	movs	r3, #1
 80065ce:	47b0      	blx	r6
 80065d0:	3001      	adds	r0, #1
 80065d2:	d1ec      	bne.n	80065ae <_printf_float+0x3f6>
 80065d4:	e6da      	b.n	800638c <_printf_float+0x1d4>
 80065d6:	4620      	mov	r0, r4
 80065d8:	4629      	mov	r1, r5
 80065da:	f10b 0219 	add.w	r2, fp, #25
 80065de:	2301      	movs	r3, #1
 80065e0:	47b0      	blx	r6
 80065e2:	3001      	adds	r0, #1
 80065e4:	f43f aed2 	beq.w	800638c <_printf_float+0x1d4>
 80065e8:	3701      	adds	r7, #1
 80065ea:	f8db 300c 	ldr.w	r3, [fp, #12]
 80065ee:	9a09      	ldr	r2, [sp, #36]	; 0x24
 80065f0:	1a9b      	subs	r3, r3, r2
 80065f2:	429f      	cmp	r7, r3
 80065f4:	dbef      	blt.n	80065d6 <_printf_float+0x41e>
 80065f6:	f8db 000c 	ldr.w	r0, [fp, #12]
 80065fa:	9b09      	ldr	r3, [sp, #36]	; 0x24
 80065fc:	4298      	cmp	r0, r3
 80065fe:	bfb8      	it	lt
 8006600:	4618      	movlt	r0, r3
 8006602:	e013      	b.n	800662c <_printf_float+0x474>
 8006604:	2700      	movs	r7, #0
 8006606:	e7f0      	b.n	80065ea <_printf_float+0x432>
 8006608:	ab07      	add	r3, sp, #28
 800660a:	e88d 0108 	stmia.w	sp, {r3, r8}
 800660e:	ab08      	add	r3, sp, #32
 8006610:	f442 6280 	orr.w	r2, r2, #1024	; 0x400
 8006614:	9302      	str	r3, [sp, #8]
 8006616:	2300      	movs	r3, #0
 8006618:	9303      	str	r3, [sp, #12]
 800661a:	f8cb 2000 	str.w	r2, [fp]
 800661e:	4620      	mov	r0, r4
 8006620:	f10d 031b 	add.w	r3, sp, #27
 8006624:	f7ff fd36 	bl	8006094 <__cvt>
 8006628:	4607      	mov	r7, r0
 800662a:	e646      	b.n	80062ba <_printf_float+0x102>
 800662c:	b00b      	add	sp, #44	; 0x2c
 800662e:	e8bd 8ff0 	ldmia.w	sp!, {r4, r5, r6, r7, r8, r9, sl, fp, pc}
 8006632:	bf00      	nop

08006634 <_printf_common>:
 8006634:	e92d 43f8 	stmdb	sp!, {r3, r4, r5, r6, r7, r8, r9, lr}
 8006638:	4691      	mov	r9, r2
 800663a:	461f      	mov	r7, r3
 800663c:	688a      	ldr	r2, [r1, #8]
 800663e:	690b      	ldr	r3, [r1, #16]
 8006640:	f8dd 8020 	ldr.w	r8, [sp, #32]
 8006644:	4293      	cmp	r3, r2
 8006646:	bfb8      	it	lt
 8006648:	4613      	movlt	r3, r2
 800664a:	f8c9 3000 	str.w	r3, [r9]
 800664e:	f891 2043 	ldrb.w	r2, [r1, #67]	; 0x43
 8006652:	4606      	mov	r6, r0
 8006654:	460c      	mov	r4, r1
 8006656:	b112      	cbz	r2, 800665e <_printf_common+0x2a>
 8006658:	3301      	adds	r3, #1
 800665a:	f8c9 3000 	str.w	r3, [r9]
 800665e:	6823      	ldr	r3, [r4, #0]
 8006660:	0699      	lsls	r1, r3, #26
 8006662:	bf42      	ittt	mi
 8006664:	f8d9 3000 	ldrmi.w	r3, [r9]
 8006668:	3302      	addmi	r3, #2
 800666a:	f8c9 3000 	strmi.w	r3, [r9]
 800666e:	6825      	ldr	r5, [r4, #0]
 8006670:	f015 0506 	ands.w	r5, r5, #6
 8006674:	d01c      	beq.n	80066b0 <_printf_common+0x7c>
 8006676:	f894 3043 	ldrb.w	r3, [r4, #67]	; 0x43
 800667a:	6822      	ldr	r2, [r4, #0]
 800667c:	3300      	adds	r3, #0
 800667e:	bf18      	it	ne
 8006680:	2301      	movne	r3, #1
 8006682:	0692      	lsls	r2, r2, #26
 8006684:	d51f      	bpl.n	80066c6 <_printf_common+0x92>
 8006686:	18e1      	adds	r1, r4, r3
 8006688:	1c5a      	adds	r2, r3, #1
 800668a:	2030      	movs	r0, #48	; 0x30
 800668c:	f881 0043 	strb.w	r0, [r1, #67]	; 0x43
 8006690:	4422      	add	r2, r4
 8006692:	f894 1045 	ldrb.w	r1, [r4, #69]	; 0x45
 8006696:	f882 1043 	strb.w	r1, [r2, #67]	; 0x43
 800669a:	3302      	adds	r3, #2
 800669c:	e013      	b.n	80066c6 <_printf_common+0x92>
 800669e:	4630      	mov	r0, r6
 80066a0:	4639      	mov	r1, r7
 80066a2:	f104 0219 	add.w	r2, r4, #25
 80066a6:	2301      	movs	r3, #1
 80066a8:	47c0      	blx	r8
 80066aa:	3001      	adds	r0, #1
 80066ac:	d007      	beq.n	80066be <_printf_common+0x8a>
 80066ae:	3501      	adds	r5, #1
 80066b0:	68e3      	ldr	r3, [r4, #12]
 80066b2:	f8d9 2000 	ldr.w	r2, [r9]
 80066b6:	1a9b      	subs	r3, r3, r2
 80066b8:	429d      	cmp	r5, r3
 80066ba:	dbf0      	blt.n	800669e <_printf_common+0x6a>
 80066bc:	e7db      	b.n	8006676 <_printf_common+0x42>
 80066be:	f04f 30ff 	mov.w	r0, #4294967295	; 0xffffffff
 80066c2:	e8bd 83f8 	ldmia.w	sp!, {r3, r4, r5, r6, r7, r8, r9, pc}
 80066c6:	4630      	mov	r0, r6
 80066c8:	4639      	mov	r1, r7
 80066ca:	f104 0243 	add.w	r2, r4, #67	; 0x43
 80066ce:	47c0      	blx	r8
 80066d0:	3001      	adds	r0, #1
 80066d2:	d0f4      	beq.n	80066be <_printf_common+0x8a>
 80066d4:	6822      	ldr	r2, [r4, #0]
 80066d6:	f8d9 5000 	ldr.w	r5, [r9]
 80066da:	68e3      	ldr	r3, [r4, #12]
 80066dc:	f002 0206 	and.w	r2, r2, #6
 80066e0:	2a04      	cmp	r2, #4
 80066e2:	bf08      	it	eq
 80066e4:	1b5d      	subeq	r5, r3, r5
 80066e6:	6922      	ldr	r2, [r4, #16]
 80066e8:	68a3      	ldr	r3, [r4, #8]
 80066ea:	bf0c      	ite	eq
 80066ec:	ea25 75e5 	biceq.w	r5, r5, r5, asr #31
 80066f0:	2500      	movne	r5, #0
 80066f2:	4293      	cmp	r3, r2
 80066f4:	bfc4      	itt	gt
 80066f6:	1a9b      	subgt	r3, r3, r2
 80066f8:	18ed      	addgt	r5, r5, r3
 80066fa:	f04f 0900 	mov.w	r9, #0
 80066fe:	45a9      	cmp	r9, r5
 8006700:	da0a      	bge.n	8006718 <_printf_common+0xe4>
 8006702:	4630      	mov	r0, r6
 8006704:	4639      	mov	r1, r7
 8006706:	f104 021a 	add.w	r2, r4, #26
 800670a:	2301      	movs	r3, #1
 800670c:	47c0      	blx	r8
 800670e:	3001      	adds	r0, #1
 8006710:	d0d5      	beq.n	80066be <_printf_common+0x8a>
 8006712:	f109 0901 	add.w	r9, r9, #1
 8006716:	e7f2      	b.n	80066fe <_printf_common+0xca>
 8006718:	2000      	movs	r0, #0
 800671a:	e8bd 83f8 	ldmia.w	sp!, {r3, r4, r5, r6, r7, r8, r9, pc}
	...

08006720 <__fpclassifyd>:
 8006720:	ec53 2b10 	vmov	r2, r3, d0
 8006724:	f033 4200 	bics.w	r2, r3, #2147483648	; 0x80000000
 8006728:	b510      	push	{r4, lr}
 800672a:	ee10 0a10 	vmov	r0, s0
 800672e:	d01b      	beq.n	8006768 <__fpclassifyd+0x48>
 8006730:	490f      	ldr	r1, [pc, #60]	; (8006770 <__fpclassifyd+0x50>)
 8006732:	f5a3 1480 	sub.w	r4, r3, #1048576	; 0x100000
 8006736:	428c      	cmp	r4, r1
 8006738:	d910      	bls.n	800675c <__fpclassifyd+0x3c>
 800673a:	f103 43ff 	add.w	r3, r3, #2139095040	; 0x7f800000
 800673e:	490c      	ldr	r1, [pc, #48]	; (8006770 <__fpclassifyd+0x50>)
 8006740:	f503 03e0 	add.w	r3, r3, #7340032	; 0x700000
 8006744:	428b      	cmp	r3, r1
 8006746:	d909      	bls.n	800675c <__fpclassifyd+0x3c>
 8006748:	f5b2 1f80 	cmp.w	r2, #1048576	; 0x100000
 800674c:	d308      	bcc.n	8006760 <__fpclassifyd+0x40>
 800674e:	4b09      	ldr	r3, [pc, #36]	; (8006774 <__fpclassifyd+0x54>)
 8006750:	429a      	cmp	r2, r3
 8006752:	d107      	bne.n	8006764 <__fpclassifyd+0x44>
 8006754:	fab0 f080 	clz	r0, r0
 8006758:	0940      	lsrs	r0, r0, #5
 800675a:	bd10      	pop	{r4, pc}
 800675c:	2004      	movs	r0, #4
 800675e:	bd10      	pop	{r4, pc}
 8006760:	2003      	movs	r0, #3
 8006762:	bd10      	pop	{r4, pc}
 8006764:	2000      	movs	r0, #0
 8006766:	bd10      	pop	{r4, pc}
 8006768:	2800      	cmp	r0, #0
 800676a:	d1e6      	bne.n	800673a <__fpclassifyd+0x1a>
 800676c:	2002      	movs	r0, #2
 800676e:	bd10      	pop	{r4, pc}
 8006770:	7fdfffff 	.word	0x7fdfffff
 8006774:	7ff00000 	.word	0x7ff00000

08006778 <strlen>:
 8006778:	4603      	mov	r3, r0
 800677a:	f813 2b01 	ldrb.w	r2, [r3], #1
 800677e:	2a00      	cmp	r2, #0
 8006780:	d1fb      	bne.n	800677a <strlen+0x2>
 8006782:	1a18      	subs	r0, r3, r0
 8006784:	3801      	subs	r0, #1
 8006786:	4770      	bx	lr

08006788 <quorem>:
 8006788:	e92d 4ff7 	stmdb	sp!, {r0, r1, r2, r4, r5, r6, r7, r8, r9, sl, fp, lr}
 800678c:	6903      	ldr	r3, [r0, #16]
 800678e:	690c      	ldr	r4, [r1, #16]
 8006790:	42a3      	cmp	r3, r4
 8006792:	4680      	mov	r8, r0
 8006794:	f2c0 8081 	blt.w	800689a <quorem+0x112>
 8006798:	3c01      	subs	r4, #1
 800679a:	f101 0714 	add.w	r7, r1, #20
 800679e:	ea4f 0e84 	mov.w	lr, r4, lsl #2
 80067a2:	f100 0614 	add.w	r6, r0, #20
 80067a6:	f857 5024 	ldr.w	r5, [r7, r4, lsl #2]
 80067aa:	eb06 030e 	add.w	r3, r6, lr
 80067ae:	9301      	str	r3, [sp, #4]
 80067b0:	3501      	adds	r5, #1
 80067b2:	f856 3024 	ldr.w	r3, [r6, r4, lsl #2]
 80067b6:	fbb3 f5f5 	udiv	r5, r3, r5
 80067ba:	eb07 090e 	add.w	r9, r7, lr
 80067be:	b3c5      	cbz	r5, 8006832 <quorem+0xaa>
 80067c0:	f04f 0a00 	mov.w	sl, #0
 80067c4:	4638      	mov	r0, r7
 80067c6:	46b4      	mov	ip, r6
 80067c8:	46d3      	mov	fp, sl
 80067ca:	f850 3b04 	ldr.w	r3, [r0], #4
 80067ce:	b29a      	uxth	r2, r3
 80067d0:	0c1b      	lsrs	r3, r3, #16
 80067d2:	fb02 a205 	mla	r2, r2, r5, sl
 80067d6:	436b      	muls	r3, r5
 80067d8:	eb03 4312 	add.w	r3, r3, r2, lsr #16
 80067dc:	b292      	uxth	r2, r2
 80067de:	ebc2 020b 	rsb	r2, r2, fp
 80067e2:	f8bc b000 	ldrh.w	fp, [ip]
 80067e6:	ea4f 4a13 	mov.w	sl, r3, lsr #16
 80067ea:	fa12 f28b 	uxtah	r2, r2, fp
 80067ee:	fa1f fb83 	uxth.w	fp, r3
 80067f2:	f8dc 3000 	ldr.w	r3, [ip]
 80067f6:	ebcb 4313 	rsb	r3, fp, r3, lsr #16
 80067fa:	eb03 4322 	add.w	r3, r3, r2, asr #16
 80067fe:	b292      	uxth	r2, r2
 8006800:	ea42 4203 	orr.w	r2, r2, r3, lsl #16
 8006804:	4548      	cmp	r0, r9
 8006806:	ea4f 4b23 	mov.w	fp, r3, asr #16
 800680a:	f84c 2b04 	str.w	r2, [ip], #4
 800680e:	d9dc      	bls.n	80067ca <quorem+0x42>
 8006810:	f856 300e 	ldr.w	r3, [r6, lr]
 8006814:	b96b      	cbnz	r3, 8006832 <quorem+0xaa>
 8006816:	9b01      	ldr	r3, [sp, #4]
 8006818:	3b04      	subs	r3, #4
 800681a:	42b3      	cmp	r3, r6
 800681c:	461a      	mov	r2, r3
 800681e:	d802      	bhi.n	8006826 <quorem+0x9e>
 8006820:	f8c8 4010 	str.w	r4, [r8, #16]
 8006824:	e005      	b.n	8006832 <quorem+0xaa>
 8006826:	6812      	ldr	r2, [r2, #0]
 8006828:	3b04      	subs	r3, #4
 800682a:	2a00      	cmp	r2, #0
 800682c:	d1f8      	bne.n	8006820 <quorem+0x98>
 800682e:	3c01      	subs	r4, #1
 8006830:	e7f3      	b.n	800681a <quorem+0x92>
 8006832:	4640      	mov	r0, r8
 8006834:	f001 f821 	bl	800787a <__mcmp>
 8006838:	2800      	cmp	r0, #0
 800683a:	db2c      	blt.n	8006896 <quorem+0x10e>
 800683c:	3501      	adds	r5, #1
 800683e:	4630      	mov	r0, r6
 8006840:	f04f 0e00 	mov.w	lr, #0
 8006844:	f857 1b04 	ldr.w	r1, [r7], #4
 8006848:	f8d0 c000 	ldr.w	ip, [r0]
 800684c:	b28a      	uxth	r2, r1
 800684e:	ebc2 030e 	rsb	r3, r2, lr
 8006852:	0c09      	lsrs	r1, r1, #16
 8006854:	fa13 f38c 	uxtah	r3, r3, ip
 8006858:	ebc1 421c 	rsb	r2, r1, ip, lsr #16
 800685c:	eb02 4223 	add.w	r2, r2, r3, asr #16
 8006860:	b29b      	uxth	r3, r3
 8006862:	ea43 4302 	orr.w	r3, r3, r2, lsl #16
 8006866:	454f      	cmp	r7, r9
 8006868:	ea4f 4e22 	mov.w	lr, r2, asr #16
 800686c:	f840 3b04 	str.w	r3, [r0], #4
 8006870:	d9e8      	bls.n	8006844 <quorem+0xbc>
 8006872:	f856 2024 	ldr.w	r2, [r6, r4, lsl #2]
 8006876:	eb06 0384 	add.w	r3, r6, r4, lsl #2
 800687a:	b962      	cbnz	r2, 8006896 <quorem+0x10e>
 800687c:	3b04      	subs	r3, #4
 800687e:	42b3      	cmp	r3, r6
 8006880:	461a      	mov	r2, r3
 8006882:	d802      	bhi.n	800688a <quorem+0x102>
 8006884:	f8c8 4010 	str.w	r4, [r8, #16]
 8006888:	e005      	b.n	8006896 <quorem+0x10e>
 800688a:	6812      	ldr	r2, [r2, #0]
 800688c:	3b04      	subs	r3, #4
 800688e:	2a00      	cmp	r2, #0
 8006890:	d1f8      	bne.n	8006884 <quorem+0xfc>
 8006892:	3c01      	subs	r4, #1
 8006894:	e7f3      	b.n	800687e <quorem+0xf6>
 8006896:	4628      	mov	r0, r5
 8006898:	e000      	b.n	800689c <quorem+0x114>
 800689a:	2000      	movs	r0, #0
 800689c:	b003      	add	sp, #12
 800689e:	e8bd 8ff0 	ldmia.w	sp!, {r4, r5, r6, r7, r8, r9, sl, fp, pc}
 80068a2:	0000      	movs	r0, r0
 80068a4:	0000      	movs	r0, r0
	...

080068a8 <_dtoa_r>:
 80068a8:	e92d 4ff0 	stmdb	sp!, {r4, r5, r6, r7, r8, r9, sl, fp, lr}
 80068ac:	6a45      	ldr	r5, [r0, #36]	; 0x24
 80068ae:	b097      	sub	sp, #92	; 0x5c
 80068b0:	4682      	mov	sl, r0
 80068b2:	9108      	str	r1, [sp, #32]
 80068b4:	920b      	str	r2, [sp, #44]	; 0x2c
 80068b6:	9312      	str	r3, [sp, #72]	; 0x48
 80068b8:	9c20      	ldr	r4, [sp, #128]	; 0x80
 80068ba:	ed8d 0b00 	vstr	d0, [sp]
 80068be:	b945      	cbnz	r5, 80068d2 <_dtoa_r+0x2a>
 80068c0:	2010      	movs	r0, #16
 80068c2:	f000 fdb5 	bl	8007430 <malloc>
 80068c6:	f8ca 0024 	str.w	r0, [sl, #36]	; 0x24
 80068ca:	6045      	str	r5, [r0, #4]
 80068cc:	6085      	str	r5, [r0, #8]
 80068ce:	6005      	str	r5, [r0, #0]
 80068d0:	60c5      	str	r5, [r0, #12]
 80068d2:	f8da 3024 	ldr.w	r3, [sl, #36]	; 0x24
 80068d6:	6819      	ldr	r1, [r3, #0]
 80068d8:	b159      	cbz	r1, 80068f2 <_dtoa_r+0x4a>
 80068da:	685a      	ldr	r2, [r3, #4]
 80068dc:	604a      	str	r2, [r1, #4]
 80068de:	2301      	movs	r3, #1
 80068e0:	4093      	lsls	r3, r2
 80068e2:	608b      	str	r3, [r1, #8]
 80068e4:	4650      	mov	r0, sl
 80068e6:	f000 fdeb 	bl	80074c0 <_Bfree>
 80068ea:	f8da 3024 	ldr.w	r3, [sl, #36]	; 0x24
 80068ee:	2200      	movs	r2, #0
 80068f0:	601a      	str	r2, [r3, #0]
 80068f2:	9b01      	ldr	r3, [sp, #4]
 80068f4:	4a9e      	ldr	r2, [pc, #632]	; (8006b70 <_dtoa_r+0x2c8>)
 80068f6:	2b00      	cmp	r3, #0
 80068f8:	bfbf      	itttt	lt
 80068fa:	2301      	movlt	r3, #1
 80068fc:	6023      	strlt	r3, [r4, #0]
 80068fe:	9b01      	ldrlt	r3, [sp, #4]
 8006900:	f023 4300 	biclt.w	r3, r3, #2147483648	; 0x80000000
 8006904:	bfb2      	itee	lt
 8006906:	9301      	strlt	r3, [sp, #4]
 8006908:	2300      	movge	r3, #0
 800690a:	6023      	strge	r3, [r4, #0]
 800690c:	9c01      	ldr	r4, [sp, #4]
 800690e:	f024 4300 	bic.w	r3, r4, #2147483648	; 0x80000000
 8006912:	0d1b      	lsrs	r3, r3, #20
 8006914:	051b      	lsls	r3, r3, #20
 8006916:	4293      	cmp	r3, r2
 8006918:	d11d      	bne.n	8006956 <_dtoa_r+0xae>
 800691a:	9a12      	ldr	r2, [sp, #72]	; 0x48
 800691c:	f242 730f 	movw	r3, #9999	; 0x270f
 8006920:	6013      	str	r3, [r2, #0]
 8006922:	9b00      	ldr	r3, [sp, #0]
 8006924:	b943      	cbnz	r3, 8006938 <_dtoa_r+0x90>
 8006926:	4a93      	ldr	r2, [pc, #588]	; (8006b74 <_dtoa_r+0x2cc>)
 8006928:	4b93      	ldr	r3, [pc, #588]	; (8006b78 <_dtoa_r+0x2d0>)
 800692a:	f3c4 0013 	ubfx	r0, r4, #0, #20
 800692e:	2800      	cmp	r0, #0
 8006930:	bf14      	ite	ne
 8006932:	4618      	movne	r0, r3
 8006934:	4610      	moveq	r0, r2
 8006936:	e000      	b.n	800693a <_dtoa_r+0x92>
 8006938:	488f      	ldr	r0, [pc, #572]	; (8006b78 <_dtoa_r+0x2d0>)
 800693a:	9b21      	ldr	r3, [sp, #132]	; 0x84
 800693c:	2b00      	cmp	r3, #0
 800693e:	f000 856d 	beq.w	800741c <_dtoa_r+0xb74>
 8006942:	78c3      	ldrb	r3, [r0, #3]
 8006944:	b113      	cbz	r3, 800694c <_dtoa_r+0xa4>
 8006946:	f100 0308 	add.w	r3, r0, #8
 800694a:	e000      	b.n	800694e <_dtoa_r+0xa6>
 800694c:	1cc3      	adds	r3, r0, #3
 800694e:	9a21      	ldr	r2, [sp, #132]	; 0x84
 8006950:	6013      	str	r3, [r2, #0]
 8006952:	f000 bd63 	b.w	800741c <_dtoa_r+0xb74>
 8006956:	e9dd 8900 	ldrd	r8, r9, [sp]
 800695a:	2200      	movs	r2, #0
 800695c:	4640      	mov	r0, r8
 800695e:	4649      	mov	r1, r9
 8006960:	2300      	movs	r3, #0
 8006962:	f7fa f85f 	bl	8000a24 <__aeabi_dcmpeq>
 8006966:	4605      	mov	r5, r0
 8006968:	b158      	cbz	r0, 8006982 <_dtoa_r+0xda>
 800696a:	9a12      	ldr	r2, [sp, #72]	; 0x48
 800696c:	2301      	movs	r3, #1
 800696e:	6013      	str	r3, [r2, #0]
 8006970:	9b21      	ldr	r3, [sp, #132]	; 0x84
 8006972:	2b00      	cmp	r3, #0
 8006974:	f000 8540 	beq.w	80073f8 <_dtoa_r+0xb50>
 8006978:	4880      	ldr	r0, [pc, #512]	; (8006b7c <_dtoa_r+0x2d4>)
 800697a:	6018      	str	r0, [r3, #0]
 800697c:	3801      	subs	r0, #1
 800697e:	f000 bd4d 	b.w	800741c <_dtoa_r+0xb74>
 8006982:	4650      	mov	r0, sl
 8006984:	ec49 8b10 	vmov	d0, r8, r9
 8006988:	a915      	add	r1, sp, #84	; 0x54
 800698a:	aa14      	add	r2, sp, #80	; 0x50
 800698c:	f000 fff0 	bl	8007970 <__d2b>
 8006990:	f3c4 560a 	ubfx	r6, r4, #20, #11
 8006994:	9004      	str	r0, [sp, #16]
 8006996:	b156      	cbz	r6, 80069ae <_dtoa_r+0x106>
 8006998:	f3c9 0313 	ubfx	r3, r9, #0, #20
 800699c:	f043 517f 	orr.w	r1, r3, #1069547520	; 0x3fc00000
 80069a0:	4640      	mov	r0, r8
 80069a2:	f441 1140 	orr.w	r1, r1, #3145728	; 0x300000
 80069a6:	f2a6 36ff 	subw	r6, r6, #1023	; 0x3ff
 80069aa:	9513      	str	r5, [sp, #76]	; 0x4c
 80069ac:	e01d      	b.n	80069ea <_dtoa_r+0x142>
 80069ae:	9b15      	ldr	r3, [sp, #84]	; 0x54
 80069b0:	9e14      	ldr	r6, [sp, #80]	; 0x50
 80069b2:	441e      	add	r6, r3
 80069b4:	f46f 6382 	mvn.w	r3, #1040	; 0x410
 80069b8:	429e      	cmp	r6, r3
 80069ba:	bfad      	iteet	ge
 80069bc:	9a00      	ldrge	r2, [sp, #0]
 80069be:	4b70      	ldrlt	r3, [pc, #448]	; (8006b80 <_dtoa_r+0x2d8>)
 80069c0:	9a00      	ldrlt	r2, [sp, #0]
 80069c2:	f206 4312 	addwge	r3, r6, #1042	; 0x412
 80069c6:	bfa3      	ittte	ge
 80069c8:	fa22 f003 	lsrge.w	r0, r2, r3
 80069cc:	4b6d      	ldrge	r3, [pc, #436]	; (8006b84 <_dtoa_r+0x2dc>)
 80069ce:	1b9b      	subge	r3, r3, r6
 80069d0:	1b9b      	sublt	r3, r3, r6
 80069d2:	bfaa      	itet	ge
 80069d4:	409c      	lslge	r4, r3
 80069d6:	fa02 f003 	lsllt.w	r0, r2, r3
 80069da:	4320      	orrge	r0, r4
 80069dc:	f7f9 fd44 	bl	8000468 <__aeabi_ui2d>
 80069e0:	2301      	movs	r3, #1
 80069e2:	f1a1 71f8 	sub.w	r1, r1, #32505856	; 0x1f00000
 80069e6:	3e01      	subs	r6, #1
 80069e8:	9313      	str	r3, [sp, #76]	; 0x4c
 80069ea:	2200      	movs	r2, #0
 80069ec:	4b66      	ldr	r3, [pc, #408]	; (8006b88 <_dtoa_r+0x2e0>)
 80069ee:	f7f9 fbfd 	bl	80001ec <__aeabi_dsub>
 80069f2:	a359      	add	r3, pc, #356	; (adr r3, 8006b58 <_dtoa_r+0x2b0>)
 80069f4:	e9d3 2300 	ldrd	r2, r3, [r3]
 80069f8:	f7f9 fdac 	bl	8000554 <__aeabi_dmul>
 80069fc:	a358      	add	r3, pc, #352	; (adr r3, 8006b60 <_dtoa_r+0x2b8>)
 80069fe:	e9d3 2300 	ldrd	r2, r3, [r3]
 8006a02:	f7f9 fbf5 	bl	80001f0 <__adddf3>
 8006a06:	4604      	mov	r4, r0
 8006a08:	4630      	mov	r0, r6
 8006a0a:	460d      	mov	r5, r1
 8006a0c:	f7f9 fd3c 	bl	8000488 <__aeabi_i2d>
 8006a10:	a355      	add	r3, pc, #340	; (adr r3, 8006b68 <_dtoa_r+0x2c0>)
 8006a12:	e9d3 2300 	ldrd	r2, r3, [r3]
 8006a16:	f7f9 fd9d 	bl	8000554 <__aeabi_dmul>
 8006a1a:	4602      	mov	r2, r0
 8006a1c:	460b      	mov	r3, r1
 8006a1e:	4620      	mov	r0, r4
 8006a20:	4629      	mov	r1, r5
 8006a22:	f7f9 fbe5 	bl	80001f0 <__adddf3>
 8006a26:	4604      	mov	r4, r0
 8006a28:	460d      	mov	r5, r1
 8006a2a:	f7fa f82d 	bl	8000a88 <__aeabi_d2iz>
 8006a2e:	4629      	mov	r1, r5
 8006a30:	4683      	mov	fp, r0
 8006a32:	2200      	movs	r2, #0
 8006a34:	4620      	mov	r0, r4
 8006a36:	2300      	movs	r3, #0
 8006a38:	f7f9 fffe 	bl	8000a38 <__aeabi_dcmplt>
 8006a3c:	b158      	cbz	r0, 8006a56 <_dtoa_r+0x1ae>
 8006a3e:	4658      	mov	r0, fp
 8006a40:	f7f9 fd22 	bl	8000488 <__aeabi_i2d>
 8006a44:	4602      	mov	r2, r0
 8006a46:	460b      	mov	r3, r1
 8006a48:	4620      	mov	r0, r4
 8006a4a:	4629      	mov	r1, r5
 8006a4c:	f7f9 ffea 	bl	8000a24 <__aeabi_dcmpeq>
 8006a50:	b908      	cbnz	r0, 8006a56 <_dtoa_r+0x1ae>
 8006a52:	f10b 3bff 	add.w	fp, fp, #4294967295	; 0xffffffff
 8006a56:	f1bb 0f16 	cmp.w	fp, #22
 8006a5a:	d80d      	bhi.n	8006a78 <_dtoa_r+0x1d0>
 8006a5c:	4b4b      	ldr	r3, [pc, #300]	; (8006b8c <_dtoa_r+0x2e4>)
 8006a5e:	eb03 03cb 	add.w	r3, r3, fp, lsl #3
 8006a62:	e9d3 0100 	ldrd	r0, r1, [r3]
 8006a66:	e9dd 2300 	ldrd	r2, r3, [sp]
 8006a6a:	f7fa f803 	bl	8000a74 <__aeabi_dcmpgt>
 8006a6e:	b130      	cbz	r0, 8006a7e <_dtoa_r+0x1d6>
 8006a70:	f10b 3bff 	add.w	fp, fp, #4294967295	; 0xffffffff
 8006a74:	2300      	movs	r3, #0
 8006a76:	e000      	b.n	8006a7a <_dtoa_r+0x1d2>
 8006a78:	2301      	movs	r3, #1
 8006a7a:	930d      	str	r3, [sp, #52]	; 0x34
 8006a7c:	e000      	b.n	8006a80 <_dtoa_r+0x1d8>
 8006a7e:	900d      	str	r0, [sp, #52]	; 0x34
 8006a80:	9b14      	ldr	r3, [sp, #80]	; 0x50
 8006a82:	1b9e      	subs	r6, r3, r6
 8006a84:	1e73      	subs	r3, r6, #1
 8006a86:	9307      	str	r3, [sp, #28]
 8006a88:	bf45      	ittet	mi
 8006a8a:	425b      	negmi	r3, r3
 8006a8c:	9306      	strmi	r3, [sp, #24]
 8006a8e:	2300      	movpl	r3, #0
 8006a90:	2300      	movmi	r3, #0
 8006a92:	bf4c      	ite	mi
 8006a94:	9307      	strmi	r3, [sp, #28]
 8006a96:	9306      	strpl	r3, [sp, #24]
 8006a98:	f1bb 0f00 	cmp.w	fp, #0
 8006a9c:	db07      	blt.n	8006aae <_dtoa_r+0x206>
 8006a9e:	9b07      	ldr	r3, [sp, #28]
 8006aa0:	f8cd b030 	str.w	fp, [sp, #48]	; 0x30
 8006aa4:	445b      	add	r3, fp
 8006aa6:	9307      	str	r3, [sp, #28]
 8006aa8:	2300      	movs	r3, #0
 8006aaa:	9309      	str	r3, [sp, #36]	; 0x24
 8006aac:	e008      	b.n	8006ac0 <_dtoa_r+0x218>
 8006aae:	9b06      	ldr	r3, [sp, #24]
 8006ab0:	ebcb 0303 	rsb	r3, fp, r3
 8006ab4:	9306      	str	r3, [sp, #24]
 8006ab6:	f1cb 0300 	rsb	r3, fp, #0
 8006aba:	9309      	str	r3, [sp, #36]	; 0x24
 8006abc:	2300      	movs	r3, #0
 8006abe:	930c      	str	r3, [sp, #48]	; 0x30
 8006ac0:	9b08      	ldr	r3, [sp, #32]
 8006ac2:	2b09      	cmp	r3, #9
 8006ac4:	d828      	bhi.n	8006b18 <_dtoa_r+0x270>
 8006ac6:	2b05      	cmp	r3, #5
 8006ac8:	bfc4      	itt	gt
 8006aca:	3b04      	subgt	r3, #4
 8006acc:	9308      	strgt	r3, [sp, #32]
 8006ace:	9b08      	ldr	r3, [sp, #32]
 8006ad0:	f1a3 0302 	sub.w	r3, r3, #2
 8006ad4:	bfcc      	ite	gt
 8006ad6:	2500      	movgt	r5, #0
 8006ad8:	2501      	movle	r5, #1
 8006ada:	2b03      	cmp	r3, #3
 8006adc:	d821      	bhi.n	8006b22 <_dtoa_r+0x27a>
 8006ade:	e8df f003 	tbb	[pc, r3]
 8006ae2:	0e02      	.short	0x0e02
 8006ae4:	1004      	.short	0x1004
 8006ae6:	2300      	movs	r3, #0
 8006ae8:	e000      	b.n	8006aec <_dtoa_r+0x244>
 8006aea:	2301      	movs	r3, #1
 8006aec:	930a      	str	r3, [sp, #40]	; 0x28
 8006aee:	9b0b      	ldr	r3, [sp, #44]	; 0x2c
 8006af0:	2b00      	cmp	r3, #0
 8006af2:	dc20      	bgt.n	8006b36 <_dtoa_r+0x28e>
 8006af4:	2301      	movs	r3, #1
 8006af6:	9303      	str	r3, [sp, #12]
 8006af8:	9302      	str	r3, [sp, #8]
 8006afa:	461a      	mov	r2, r3
 8006afc:	e019      	b.n	8006b32 <_dtoa_r+0x28a>
 8006afe:	2300      	movs	r3, #0
 8006b00:	e000      	b.n	8006b04 <_dtoa_r+0x25c>
 8006b02:	2301      	movs	r3, #1
 8006b04:	930a      	str	r3, [sp, #40]	; 0x28
 8006b06:	9b0b      	ldr	r3, [sp, #44]	; 0x2c
 8006b08:	445b      	add	r3, fp
 8006b0a:	9303      	str	r3, [sp, #12]
 8006b0c:	3301      	adds	r3, #1
 8006b0e:	2b01      	cmp	r3, #1
 8006b10:	9302      	str	r3, [sp, #8]
 8006b12:	bfb8      	it	lt
 8006b14:	2301      	movlt	r3, #1
 8006b16:	e011      	b.n	8006b3c <_dtoa_r+0x294>
 8006b18:	2501      	movs	r5, #1
 8006b1a:	2300      	movs	r3, #0
 8006b1c:	9308      	str	r3, [sp, #32]
 8006b1e:	950a      	str	r5, [sp, #40]	; 0x28
 8006b20:	e001      	b.n	8006b26 <_dtoa_r+0x27e>
 8006b22:	2301      	movs	r3, #1
 8006b24:	930a      	str	r3, [sp, #40]	; 0x28
 8006b26:	f04f 33ff 	mov.w	r3, #4294967295	; 0xffffffff
 8006b2a:	9303      	str	r3, [sp, #12]
 8006b2c:	9302      	str	r3, [sp, #8]
 8006b2e:	2200      	movs	r2, #0
 8006b30:	2312      	movs	r3, #18
 8006b32:	920b      	str	r2, [sp, #44]	; 0x2c
 8006b34:	e002      	b.n	8006b3c <_dtoa_r+0x294>
 8006b36:	9b0b      	ldr	r3, [sp, #44]	; 0x2c
 8006b38:	9303      	str	r3, [sp, #12]
 8006b3a:	9302      	str	r3, [sp, #8]
 8006b3c:	f8da 4024 	ldr.w	r4, [sl, #36]	; 0x24
 8006b40:	2200      	movs	r2, #0
 8006b42:	6062      	str	r2, [r4, #4]
 8006b44:	2104      	movs	r1, #4
 8006b46:	f101 0214 	add.w	r2, r1, #20
 8006b4a:	429a      	cmp	r2, r3
 8006b4c:	d820      	bhi.n	8006b90 <_dtoa_r+0x2e8>
 8006b4e:	6862      	ldr	r2, [r4, #4]
 8006b50:	3201      	adds	r2, #1
 8006b52:	6062      	str	r2, [r4, #4]
 8006b54:	0049      	lsls	r1, r1, #1
 8006b56:	e7f6      	b.n	8006b46 <_dtoa_r+0x29e>
 8006b58:	636f4361 	.word	0x636f4361
 8006b5c:	3fd287a7 	.word	0x3fd287a7
 8006b60:	8b60c8b3 	.word	0x8b60c8b3
 8006b64:	3fc68a28 	.word	0x3fc68a28
 8006b68:	509f79fb 	.word	0x509f79fb
 8006b6c:	3fd34413 	.word	0x3fd34413
 8006b70:	7ff00000 	.word	0x7ff00000
 8006b74:	08008280 	.word	0x08008280
 8006b78:	08008289 	.word	0x08008289
 8006b7c:	0800827f 	.word	0x0800827f
 8006b80:	fffffbee 	.word	0xfffffbee
 8006b84:	fffffc0e 	.word	0xfffffc0e
 8006b88:	3ff80000 	.word	0x3ff80000
 8006b8c:	08008298 	.word	0x08008298
 8006b90:	4650      	mov	r0, sl
 8006b92:	6861      	ldr	r1, [r4, #4]
 8006b94:	f000 fc5f 	bl	8007456 <_Balloc>
 8006b98:	f8da 3024 	ldr.w	r3, [sl, #36]	; 0x24
 8006b9c:	6020      	str	r0, [r4, #0]
 8006b9e:	681b      	ldr	r3, [r3, #0]
 8006ba0:	9305      	str	r3, [sp, #20]
 8006ba2:	9b02      	ldr	r3, [sp, #8]
 8006ba4:	2b0e      	cmp	r3, #14
 8006ba6:	f200 814b 	bhi.w	8006e40 <_dtoa_r+0x598>
 8006baa:	2d00      	cmp	r5, #0
 8006bac:	f000 8148 	beq.w	8006e40 <_dtoa_r+0x598>
 8006bb0:	ed9d 7b00 	vldr	d7, [sp]
 8006bb4:	f1bb 0f00 	cmp.w	fp, #0
 8006bb8:	ed8d 7b10 	vstr	d7, [sp, #64]	; 0x40
 8006bbc:	dd31      	ble.n	8006c22 <_dtoa_r+0x37a>
 8006bbe:	4ab3      	ldr	r2, [pc, #716]	; (8006e8c <_dtoa_r+0x5e4>)
 8006bc0:	f00b 030f 	and.w	r3, fp, #15
 8006bc4:	ea4f 172b 	mov.w	r7, fp, asr #4
 8006bc8:	eb02 03c3 	add.w	r3, r2, r3, lsl #3
 8006bcc:	06f8      	lsls	r0, r7, #27
 8006bce:	e9d3 4500 	ldrd	r4, r5, [r3]
 8006bd2:	d50c      	bpl.n	8006bee <_dtoa_r+0x346>
 8006bd4:	4bae      	ldr	r3, [pc, #696]	; (8006e90 <_dtoa_r+0x5e8>)
 8006bd6:	ec51 0b17 	vmov	r0, r1, d7
 8006bda:	e9d3 2308 	ldrd	r2, r3, [r3, #32]
 8006bde:	f7f9 fde3 	bl	80007a8 <__aeabi_ddiv>
 8006be2:	f007 070f 	and.w	r7, r7, #15
 8006be6:	e9cd 0100 	strd	r0, r1, [sp]
 8006bea:	2603      	movs	r6, #3
 8006bec:	e000      	b.n	8006bf0 <_dtoa_r+0x348>
 8006bee:	2602      	movs	r6, #2
 8006bf0:	f8df 829c 	ldr.w	r8, [pc, #668]	; 8006e90 <_dtoa_r+0x5e8>
 8006bf4:	b177      	cbz	r7, 8006c14 <_dtoa_r+0x36c>
 8006bf6:	07f9      	lsls	r1, r7, #31
 8006bf8:	d508      	bpl.n	8006c0c <_dtoa_r+0x364>
 8006bfa:	4620      	mov	r0, r4
 8006bfc:	4629      	mov	r1, r5
 8006bfe:	e9d8 2300 	ldrd	r2, r3, [r8]
 8006c02:	f7f9 fca7 	bl	8000554 <__aeabi_dmul>
 8006c06:	3601      	adds	r6, #1
 8006c08:	4604      	mov	r4, r0
 8006c0a:	460d      	mov	r5, r1
 8006c0c:	107f      	asrs	r7, r7, #1
 8006c0e:	f108 0808 	add.w	r8, r8, #8
 8006c12:	e7ef      	b.n	8006bf4 <_dtoa_r+0x34c>
 8006c14:	e9dd 0100 	ldrd	r0, r1, [sp]
 8006c18:	4622      	mov	r2, r4
 8006c1a:	462b      	mov	r3, r5
 8006c1c:	f7f9 fdc4 	bl	80007a8 <__aeabi_ddiv>
 8006c20:	e01b      	b.n	8006c5a <_dtoa_r+0x3b2>
 8006c22:	f1cb 0400 	rsb	r4, fp, #0
 8006c26:	b1dc      	cbz	r4, 8006c60 <_dtoa_r+0x3b8>
 8006c28:	4b98      	ldr	r3, [pc, #608]	; (8006e8c <_dtoa_r+0x5e4>)
 8006c2a:	4d99      	ldr	r5, [pc, #612]	; (8006e90 <_dtoa_r+0x5e8>)
 8006c2c:	f004 020f 	and.w	r2, r4, #15
 8006c30:	eb03 03c2 	add.w	r3, r3, r2, lsl #3
 8006c34:	e9dd 0110 	ldrd	r0, r1, [sp, #64]	; 0x40
 8006c38:	e9d3 2300 	ldrd	r2, r3, [r3]
 8006c3c:	f7f9 fc8a 	bl	8000554 <__aeabi_dmul>
 8006c40:	1124      	asrs	r4, r4, #4
 8006c42:	2602      	movs	r6, #2
 8006c44:	b14c      	cbz	r4, 8006c5a <_dtoa_r+0x3b2>
 8006c46:	07e2      	lsls	r2, r4, #31
 8006c48:	d504      	bpl.n	8006c54 <_dtoa_r+0x3ac>
 8006c4a:	e9d5 2300 	ldrd	r2, r3, [r5]
 8006c4e:	3601      	adds	r6, #1
 8006c50:	f7f9 fc80 	bl	8000554 <__aeabi_dmul>
 8006c54:	1064      	asrs	r4, r4, #1
 8006c56:	3508      	adds	r5, #8
 8006c58:	e7f4      	b.n	8006c44 <_dtoa_r+0x39c>
 8006c5a:	e9cd 0100 	strd	r0, r1, [sp]
 8006c5e:	e000      	b.n	8006c62 <_dtoa_r+0x3ba>
 8006c60:	2602      	movs	r6, #2
 8006c62:	9b0d      	ldr	r3, [sp, #52]	; 0x34
 8006c64:	b1db      	cbz	r3, 8006c9e <_dtoa_r+0x3f6>
 8006c66:	e9dd 4500 	ldrd	r4, r5, [sp]
 8006c6a:	2200      	movs	r2, #0
 8006c6c:	4620      	mov	r0, r4
 8006c6e:	4629      	mov	r1, r5
 8006c70:	4b88      	ldr	r3, [pc, #544]	; (8006e94 <_dtoa_r+0x5ec>)
 8006c72:	f7f9 fee1 	bl	8000a38 <__aeabi_dcmplt>
 8006c76:	b190      	cbz	r0, 8006c9e <_dtoa_r+0x3f6>
 8006c78:	9b02      	ldr	r3, [sp, #8]
 8006c7a:	b183      	cbz	r3, 8006c9e <_dtoa_r+0x3f6>
 8006c7c:	9b03      	ldr	r3, [sp, #12]
 8006c7e:	2b00      	cmp	r3, #0
 8006c80:	f340 80da 	ble.w	8006e38 <_dtoa_r+0x590>
 8006c84:	4629      	mov	r1, r5
 8006c86:	4620      	mov	r0, r4
 8006c88:	2200      	movs	r2, #0
 8006c8a:	4b83      	ldr	r3, [pc, #524]	; (8006e98 <_dtoa_r+0x5f0>)
 8006c8c:	f7f9 fc62 	bl	8000554 <__aeabi_dmul>
 8006c90:	f10b 37ff 	add.w	r7, fp, #4294967295	; 0xffffffff
 8006c94:	e9cd 0100 	strd	r0, r1, [sp]
 8006c98:	3601      	adds	r6, #1
 8006c9a:	9d03      	ldr	r5, [sp, #12]
 8006c9c:	e001      	b.n	8006ca2 <_dtoa_r+0x3fa>
 8006c9e:	9d02      	ldr	r5, [sp, #8]
 8006ca0:	465f      	mov	r7, fp
 8006ca2:	ed9d 7b00 	vldr	d7, [sp]
 8006ca6:	4630      	mov	r0, r6
 8006ca8:	ed8d 7b0e 	vstr	d7, [sp, #56]	; 0x38
 8006cac:	f7f9 fbec 	bl	8000488 <__aeabi_i2d>
 8006cb0:	e9dd 230e 	ldrd	r2, r3, [sp, #56]	; 0x38
 8006cb4:	f7f9 fc4e 	bl	8000554 <__aeabi_dmul>
 8006cb8:	2200      	movs	r2, #0
 8006cba:	4b78      	ldr	r3, [pc, #480]	; (8006e9c <_dtoa_r+0x5f4>)
 8006cbc:	f7f9 fa98 	bl	80001f0 <__adddf3>
 8006cc0:	4680      	mov	r8, r0
 8006cc2:	f1a1 7950 	sub.w	r9, r1, #54525952	; 0x3400000
 8006cc6:	b9cd      	cbnz	r5, 8006cfc <_dtoa_r+0x454>
 8006cc8:	2200      	movs	r2, #0
 8006cca:	4b75      	ldr	r3, [pc, #468]	; (8006ea0 <_dtoa_r+0x5f8>)
 8006ccc:	e9dd 010e 	ldrd	r0, r1, [sp, #56]	; 0x38
 8006cd0:	f7f9 fa8c 	bl	80001ec <__aeabi_dsub>
 8006cd4:	4642      	mov	r2, r8
 8006cd6:	464b      	mov	r3, r9
 8006cd8:	e9cd 0100 	strd	r0, r1, [sp]
 8006cdc:	f7f9 feca 	bl	8000a74 <__aeabi_dcmpgt>
 8006ce0:	2800      	cmp	r0, #0
 8006ce2:	f040 8246 	bne.w	8007172 <_dtoa_r+0x8ca>
 8006ce6:	4642      	mov	r2, r8
 8006ce8:	f109 4300 	add.w	r3, r9, #2147483648	; 0x80000000
 8006cec:	e9dd 0100 	ldrd	r0, r1, [sp]
 8006cf0:	f7f9 fea2 	bl	8000a38 <__aeabi_dcmplt>
 8006cf4:	2800      	cmp	r0, #0
 8006cf6:	f040 8236 	bne.w	8007166 <_dtoa_r+0x8be>
 8006cfa:	e09d      	b.n	8006e38 <_dtoa_r+0x590>
 8006cfc:	4b63      	ldr	r3, [pc, #396]	; (8006e8c <_dtoa_r+0x5e4>)
 8006cfe:	990a      	ldr	r1, [sp, #40]	; 0x28
 8006d00:	1e6a      	subs	r2, r5, #1
 8006d02:	eb03 03c2 	add.w	r3, r3, r2, lsl #3
 8006d06:	2900      	cmp	r1, #0
 8006d08:	d049      	beq.n	8006d9e <_dtoa_r+0x4f6>
 8006d0a:	e9d3 2300 	ldrd	r2, r3, [r3]
 8006d0e:	2000      	movs	r0, #0
 8006d10:	4964      	ldr	r1, [pc, #400]	; (8006ea4 <_dtoa_r+0x5fc>)
 8006d12:	f7f9 fd49 	bl	80007a8 <__aeabi_ddiv>
 8006d16:	4642      	mov	r2, r8
 8006d18:	464b      	mov	r3, r9
 8006d1a:	f7f9 fa67 	bl	80001ec <__aeabi_dsub>
 8006d1e:	e9dd 890e 	ldrd	r8, r9, [sp, #56]	; 0x38
 8006d22:	e9cd 0100 	strd	r0, r1, [sp]
 8006d26:	9c05      	ldr	r4, [sp, #20]
 8006d28:	4649      	mov	r1, r9
 8006d2a:	4640      	mov	r0, r8
 8006d2c:	f7f9 feac 	bl	8000a88 <__aeabi_d2iz>
 8006d30:	4606      	mov	r6, r0
 8006d32:	f7f9 fba9 	bl	8000488 <__aeabi_i2d>
 8006d36:	4602      	mov	r2, r0
 8006d38:	460b      	mov	r3, r1
 8006d3a:	4640      	mov	r0, r8
 8006d3c:	4649      	mov	r1, r9
 8006d3e:	f7f9 fa55 	bl	80001ec <__aeabi_dsub>
 8006d42:	3630      	adds	r6, #48	; 0x30
 8006d44:	f804 6b01 	strb.w	r6, [r4], #1
 8006d48:	e9dd 2300 	ldrd	r2, r3, [sp]
 8006d4c:	4680      	mov	r8, r0
 8006d4e:	4689      	mov	r9, r1
 8006d50:	f7f9 fe72 	bl	8000a38 <__aeabi_dcmplt>
 8006d54:	2800      	cmp	r0, #0
 8006d56:	f040 8340 	bne.w	80073da <_dtoa_r+0xb32>
 8006d5a:	4642      	mov	r2, r8
 8006d5c:	464b      	mov	r3, r9
 8006d5e:	2000      	movs	r0, #0
 8006d60:	494c      	ldr	r1, [pc, #304]	; (8006e94 <_dtoa_r+0x5ec>)
 8006d62:	f7f9 fa43 	bl	80001ec <__aeabi_dsub>
 8006d66:	e9dd 2300 	ldrd	r2, r3, [sp]
 8006d6a:	f7f9 fe65 	bl	8000a38 <__aeabi_dcmplt>
 8006d6e:	2800      	cmp	r0, #0
 8006d70:	f040 80d3 	bne.w	8006f1a <_dtoa_r+0x672>
 8006d74:	9b05      	ldr	r3, [sp, #20]
 8006d76:	1ae3      	subs	r3, r4, r3
 8006d78:	42ab      	cmp	r3, r5
 8006d7a:	da5d      	bge.n	8006e38 <_dtoa_r+0x590>
 8006d7c:	e9dd 0100 	ldrd	r0, r1, [sp]
 8006d80:	2200      	movs	r2, #0
 8006d82:	4b45      	ldr	r3, [pc, #276]	; (8006e98 <_dtoa_r+0x5f0>)
 8006d84:	f7f9 fbe6 	bl	8000554 <__aeabi_dmul>
 8006d88:	2200      	movs	r2, #0
 8006d8a:	e9cd 0100 	strd	r0, r1, [sp]
 8006d8e:	4b42      	ldr	r3, [pc, #264]	; (8006e98 <_dtoa_r+0x5f0>)
 8006d90:	4640      	mov	r0, r8
 8006d92:	4649      	mov	r1, r9
 8006d94:	f7f9 fbde 	bl	8000554 <__aeabi_dmul>
 8006d98:	4680      	mov	r8, r0
 8006d9a:	4689      	mov	r9, r1
 8006d9c:	e7c4      	b.n	8006d28 <_dtoa_r+0x480>
 8006d9e:	e9d3 0100 	ldrd	r0, r1, [r3]
 8006da2:	4642      	mov	r2, r8
 8006da4:	464b      	mov	r3, r9
 8006da6:	f7f9 fbd5 	bl	8000554 <__aeabi_dmul>
 8006daa:	9b05      	ldr	r3, [sp, #20]
 8006dac:	e9cd 0100 	strd	r0, r1, [sp]
 8006db0:	e9dd 890e 	ldrd	r8, r9, [sp, #56]	; 0x38
 8006db4:	195c      	adds	r4, r3, r5
 8006db6:	461d      	mov	r5, r3
 8006db8:	4649      	mov	r1, r9
 8006dba:	4640      	mov	r0, r8
 8006dbc:	f7f9 fe64 	bl	8000a88 <__aeabi_d2iz>
 8006dc0:	4606      	mov	r6, r0
 8006dc2:	f7f9 fb61 	bl	8000488 <__aeabi_i2d>
 8006dc6:	3630      	adds	r6, #48	; 0x30
 8006dc8:	4602      	mov	r2, r0
 8006dca:	460b      	mov	r3, r1
 8006dcc:	4640      	mov	r0, r8
 8006dce:	4649      	mov	r1, r9
 8006dd0:	f7f9 fa0c 	bl	80001ec <__aeabi_dsub>
 8006dd4:	f805 6b01 	strb.w	r6, [r5], #1
 8006dd8:	42a5      	cmp	r5, r4
 8006dda:	4680      	mov	r8, r0
 8006ddc:	4689      	mov	r9, r1
 8006dde:	d124      	bne.n	8006e2a <_dtoa_r+0x582>
 8006de0:	2200      	movs	r2, #0
 8006de2:	4b30      	ldr	r3, [pc, #192]	; (8006ea4 <_dtoa_r+0x5fc>)
 8006de4:	e9dd 0100 	ldrd	r0, r1, [sp]
 8006de8:	f7f9 fa02 	bl	80001f0 <__adddf3>
 8006dec:	4602      	mov	r2, r0
 8006dee:	460b      	mov	r3, r1
 8006df0:	4640      	mov	r0, r8
 8006df2:	4649      	mov	r1, r9
 8006df4:	f7f9 fe3e 	bl	8000a74 <__aeabi_dcmpgt>
 8006df8:	2800      	cmp	r0, #0
 8006dfa:	f040 808e 	bne.w	8006f1a <_dtoa_r+0x672>
 8006dfe:	e9dd 2300 	ldrd	r2, r3, [sp]
 8006e02:	2000      	movs	r0, #0
 8006e04:	4927      	ldr	r1, [pc, #156]	; (8006ea4 <_dtoa_r+0x5fc>)
 8006e06:	f7f9 f9f1 	bl	80001ec <__aeabi_dsub>
 8006e0a:	4602      	mov	r2, r0
 8006e0c:	460b      	mov	r3, r1
 8006e0e:	4640      	mov	r0, r8
 8006e10:	4649      	mov	r1, r9
 8006e12:	f7f9 fe11 	bl	8000a38 <__aeabi_dcmplt>
 8006e16:	b178      	cbz	r0, 8006e38 <_dtoa_r+0x590>
 8006e18:	f814 3c01 	ldrb.w	r3, [r4, #-1]
 8006e1c:	2b30      	cmp	r3, #48	; 0x30
 8006e1e:	f104 32ff 	add.w	r2, r4, #4294967295	; 0xffffffff
 8006e22:	f040 82da 	bne.w	80073da <_dtoa_r+0xb32>
 8006e26:	4614      	mov	r4, r2
 8006e28:	e7f6      	b.n	8006e18 <_dtoa_r+0x570>
 8006e2a:	2200      	movs	r2, #0
 8006e2c:	4b1a      	ldr	r3, [pc, #104]	; (8006e98 <_dtoa_r+0x5f0>)
 8006e2e:	f7f9 fb91 	bl	8000554 <__aeabi_dmul>
 8006e32:	4680      	mov	r8, r0
 8006e34:	4689      	mov	r9, r1
 8006e36:	e7bf      	b.n	8006db8 <_dtoa_r+0x510>
 8006e38:	e9dd 2310 	ldrd	r2, r3, [sp, #64]	; 0x40
 8006e3c:	e9cd 2300 	strd	r2, r3, [sp]
 8006e40:	9b15      	ldr	r3, [sp, #84]	; 0x54
 8006e42:	2b00      	cmp	r3, #0
 8006e44:	f2c0 808b 	blt.w	8006f5e <_dtoa_r+0x6b6>
 8006e48:	f1bb 0f0e 	cmp.w	fp, #14
 8006e4c:	f300 8087 	bgt.w	8006f5e <_dtoa_r+0x6b6>
 8006e50:	4b0e      	ldr	r3, [pc, #56]	; (8006e8c <_dtoa_r+0x5e4>)
 8006e52:	eb03 03cb 	add.w	r3, r3, fp, lsl #3
 8006e56:	e9d3 6700 	ldrd	r6, r7, [r3]
 8006e5a:	9b0b      	ldr	r3, [sp, #44]	; 0x2c
 8006e5c:	2b00      	cmp	r3, #0
 8006e5e:	da23      	bge.n	8006ea8 <_dtoa_r+0x600>
 8006e60:	9b02      	ldr	r3, [sp, #8]
 8006e62:	2b00      	cmp	r3, #0
 8006e64:	dc20      	bgt.n	8006ea8 <_dtoa_r+0x600>
 8006e66:	f040 817d 	bne.w	8007164 <_dtoa_r+0x8bc>
 8006e6a:	4630      	mov	r0, r6
 8006e6c:	2200      	movs	r2, #0
 8006e6e:	4b0c      	ldr	r3, [pc, #48]	; (8006ea0 <_dtoa_r+0x5f8>)
 8006e70:	4639      	mov	r1, r7
 8006e72:	f7f9 fb6f 	bl	8000554 <__aeabi_dmul>
 8006e76:	e9dd 2300 	ldrd	r2, r3, [sp]
 8006e7a:	f7f9 fdf1 	bl	8000a60 <__aeabi_dcmpge>
 8006e7e:	9d02      	ldr	r5, [sp, #8]
 8006e80:	462e      	mov	r6, r5
 8006e82:	2800      	cmp	r0, #0
 8006e84:	f040 8170 	bne.w	8007168 <_dtoa_r+0x8c0>
 8006e88:	e175      	b.n	8007176 <_dtoa_r+0x8ce>
 8006e8a:	bf00      	nop
 8006e8c:	08008298 	.word	0x08008298
 8006e90:	08008360 	.word	0x08008360
 8006e94:	3ff00000 	.word	0x3ff00000
 8006e98:	40240000 	.word	0x40240000
 8006e9c:	401c0000 	.word	0x401c0000
 8006ea0:	40140000 	.word	0x40140000
 8006ea4:	3fe00000 	.word	0x3fe00000
 8006ea8:	e9dd 8900 	ldrd	r8, r9, [sp]
 8006eac:	9c05      	ldr	r4, [sp, #20]
 8006eae:	4632      	mov	r2, r6
 8006eb0:	463b      	mov	r3, r7
 8006eb2:	4640      	mov	r0, r8
 8006eb4:	4649      	mov	r1, r9
 8006eb6:	f7f9 fc77 	bl	80007a8 <__aeabi_ddiv>
 8006eba:	f7f9 fde5 	bl	8000a88 <__aeabi_d2iz>
 8006ebe:	4605      	mov	r5, r0
 8006ec0:	f7f9 fae2 	bl	8000488 <__aeabi_i2d>
 8006ec4:	4632      	mov	r2, r6
 8006ec6:	463b      	mov	r3, r7
 8006ec8:	f7f9 fb44 	bl	8000554 <__aeabi_dmul>
 8006ecc:	460b      	mov	r3, r1
 8006ece:	4602      	mov	r2, r0
 8006ed0:	4649      	mov	r1, r9
 8006ed2:	4640      	mov	r0, r8
 8006ed4:	f7f9 f98a 	bl	80001ec <__aeabi_dsub>
 8006ed8:	f105 0e30 	add.w	lr, r5, #48	; 0x30
 8006edc:	9b05      	ldr	r3, [sp, #20]
 8006ede:	f804 eb01 	strb.w	lr, [r4], #1
 8006ee2:	ebc3 0e04 	rsb	lr, r3, r4
 8006ee6:	9b02      	ldr	r3, [sp, #8]
 8006ee8:	459e      	cmp	lr, r3
 8006eea:	d12b      	bne.n	8006f44 <_dtoa_r+0x69c>
 8006eec:	4602      	mov	r2, r0
 8006eee:	460b      	mov	r3, r1
 8006ef0:	f7f9 f97e 	bl	80001f0 <__adddf3>
 8006ef4:	4632      	mov	r2, r6
 8006ef6:	463b      	mov	r3, r7
 8006ef8:	4680      	mov	r8, r0
 8006efa:	4689      	mov	r9, r1
 8006efc:	f7f9 fdba 	bl	8000a74 <__aeabi_dcmpgt>
 8006f00:	b970      	cbnz	r0, 8006f20 <_dtoa_r+0x678>
 8006f02:	4640      	mov	r0, r8
 8006f04:	4649      	mov	r1, r9
 8006f06:	4632      	mov	r2, r6
 8006f08:	463b      	mov	r3, r7
 8006f0a:	f7f9 fd8b 	bl	8000a24 <__aeabi_dcmpeq>
 8006f0e:	2800      	cmp	r0, #0
 8006f10:	f000 8264 	beq.w	80073dc <_dtoa_r+0xb34>
 8006f14:	07eb      	lsls	r3, r5, #31
 8006f16:	d403      	bmi.n	8006f20 <_dtoa_r+0x678>
 8006f18:	e260      	b.n	80073dc <_dtoa_r+0xb34>
 8006f1a:	46bb      	mov	fp, r7
 8006f1c:	e000      	b.n	8006f20 <_dtoa_r+0x678>
 8006f1e:	461c      	mov	r4, r3
 8006f20:	f814 2c01 	ldrb.w	r2, [r4, #-1]
 8006f24:	2a39      	cmp	r2, #57	; 0x39
 8006f26:	f104 33ff 	add.w	r3, r4, #4294967295	; 0xffffffff
 8006f2a:	d107      	bne.n	8006f3c <_dtoa_r+0x694>
 8006f2c:	9a05      	ldr	r2, [sp, #20]
 8006f2e:	4293      	cmp	r3, r2
 8006f30:	d1f5      	bne.n	8006f1e <_dtoa_r+0x676>
 8006f32:	2330      	movs	r3, #48	; 0x30
 8006f34:	7013      	strb	r3, [r2, #0]
 8006f36:	f10b 0b01 	add.w	fp, fp, #1
 8006f3a:	4613      	mov	r3, r2
 8006f3c:	781a      	ldrb	r2, [r3, #0]
 8006f3e:	3201      	adds	r2, #1
 8006f40:	701a      	strb	r2, [r3, #0]
 8006f42:	e24b      	b.n	80073dc <_dtoa_r+0xb34>
 8006f44:	2200      	movs	r2, #0
 8006f46:	4ba4      	ldr	r3, [pc, #656]	; (80071d8 <_dtoa_r+0x930>)
 8006f48:	f7f9 fb04 	bl	8000554 <__aeabi_dmul>
 8006f4c:	2200      	movs	r2, #0
 8006f4e:	2300      	movs	r3, #0
 8006f50:	4680      	mov	r8, r0
 8006f52:	4689      	mov	r9, r1
 8006f54:	f7f9 fd66 	bl	8000a24 <__aeabi_dcmpeq>
 8006f58:	2800      	cmp	r0, #0
 8006f5a:	d0a8      	beq.n	8006eae <_dtoa_r+0x606>
 8006f5c:	e23e      	b.n	80073dc <_dtoa_r+0xb34>
 8006f5e:	9a0a      	ldr	r2, [sp, #40]	; 0x28
 8006f60:	2a00      	cmp	r2, #0
 8006f62:	d032      	beq.n	8006fca <_dtoa_r+0x722>
 8006f64:	9a08      	ldr	r2, [sp, #32]
 8006f66:	2a01      	cmp	r2, #1
 8006f68:	dc0a      	bgt.n	8006f80 <_dtoa_r+0x6d8>
 8006f6a:	9a13      	ldr	r2, [sp, #76]	; 0x4c
 8006f6c:	b112      	cbz	r2, 8006f74 <_dtoa_r+0x6cc>
 8006f6e:	f203 4333 	addw	r3, r3, #1075	; 0x433
 8006f72:	e002      	b.n	8006f7a <_dtoa_r+0x6d2>
 8006f74:	9b14      	ldr	r3, [sp, #80]	; 0x50
 8006f76:	f1c3 0336 	rsb	r3, r3, #54	; 0x36
 8006f7a:	9d09      	ldr	r5, [sp, #36]	; 0x24
 8006f7c:	9c06      	ldr	r4, [sp, #24]
 8006f7e:	e018      	b.n	8006fb2 <_dtoa_r+0x70a>
 8006f80:	9b02      	ldr	r3, [sp, #8]
 8006f82:	1e5d      	subs	r5, r3, #1
 8006f84:	9b09      	ldr	r3, [sp, #36]	; 0x24
 8006f86:	42ab      	cmp	r3, r5
 8006f88:	bfbf      	itttt	lt
 8006f8a:	9b09      	ldrlt	r3, [sp, #36]	; 0x24
 8006f8c:	9509      	strlt	r5, [sp, #36]	; 0x24
 8006f8e:	1aea      	sublt	r2, r5, r3
 8006f90:	9b0c      	ldrlt	r3, [sp, #48]	; 0x30
 8006f92:	bfb6      	itet	lt
 8006f94:	189b      	addlt	r3, r3, r2
 8006f96:	1b5d      	subge	r5, r3, r5
 8006f98:	930c      	strlt	r3, [sp, #48]	; 0x30
 8006f9a:	9b02      	ldr	r3, [sp, #8]
 8006f9c:	bfb8      	it	lt
 8006f9e:	2500      	movlt	r5, #0
 8006fa0:	2b00      	cmp	r3, #0
 8006fa2:	bfb9      	ittee	lt
 8006fa4:	9b06      	ldrlt	r3, [sp, #24]
 8006fa6:	9a02      	ldrlt	r2, [sp, #8]
 8006fa8:	9c06      	ldrge	r4, [sp, #24]
 8006faa:	9b02      	ldrge	r3, [sp, #8]
 8006fac:	bfbc      	itt	lt
 8006fae:	1a9c      	sublt	r4, r3, r2
 8006fb0:	2300      	movlt	r3, #0
 8006fb2:	9a06      	ldr	r2, [sp, #24]
 8006fb4:	441a      	add	r2, r3
 8006fb6:	9206      	str	r2, [sp, #24]
 8006fb8:	9a07      	ldr	r2, [sp, #28]
 8006fba:	4650      	mov	r0, sl
 8006fbc:	441a      	add	r2, r3
 8006fbe:	2101      	movs	r1, #1
 8006fc0:	9207      	str	r2, [sp, #28]
 8006fc2:	f000 fb1f 	bl	8007604 <__i2b>
 8006fc6:	4606      	mov	r6, r0
 8006fc8:	e002      	b.n	8006fd0 <_dtoa_r+0x728>
 8006fca:	9d09      	ldr	r5, [sp, #36]	; 0x24
 8006fcc:	9c06      	ldr	r4, [sp, #24]
 8006fce:	9e0a      	ldr	r6, [sp, #40]	; 0x28
 8006fd0:	b164      	cbz	r4, 8006fec <_dtoa_r+0x744>
 8006fd2:	9b07      	ldr	r3, [sp, #28]
 8006fd4:	2b00      	cmp	r3, #0
 8006fd6:	dd09      	ble.n	8006fec <_dtoa_r+0x744>
 8006fd8:	42a3      	cmp	r3, r4
 8006fda:	9a06      	ldr	r2, [sp, #24]
 8006fdc:	bfa8      	it	ge
 8006fde:	4623      	movge	r3, r4
 8006fe0:	1ad2      	subs	r2, r2, r3
 8006fe2:	9206      	str	r2, [sp, #24]
 8006fe4:	9a07      	ldr	r2, [sp, #28]
 8006fe6:	1ae4      	subs	r4, r4, r3
 8006fe8:	1ad3      	subs	r3, r2, r3
 8006fea:	9307      	str	r3, [sp, #28]
 8006fec:	9b09      	ldr	r3, [sp, #36]	; 0x24
 8006fee:	2b00      	cmp	r3, #0
 8006ff0:	dd20      	ble.n	8007034 <_dtoa_r+0x78c>
 8006ff2:	9b0a      	ldr	r3, [sp, #40]	; 0x28
 8006ff4:	b1c3      	cbz	r3, 8007028 <_dtoa_r+0x780>
 8006ff6:	2d00      	cmp	r5, #0
 8006ff8:	dd10      	ble.n	800701c <_dtoa_r+0x774>
 8006ffa:	4631      	mov	r1, r6
 8006ffc:	462a      	mov	r2, r5
 8006ffe:	4650      	mov	r0, sl
 8007000:	f000 fb9a 	bl	8007738 <__pow5mult>
 8007004:	4606      	mov	r6, r0
 8007006:	4631      	mov	r1, r6
 8007008:	9a04      	ldr	r2, [sp, #16]
 800700a:	4650      	mov	r0, sl
 800700c:	f000 fb03 	bl	8007616 <__multiply>
 8007010:	9904      	ldr	r1, [sp, #16]
 8007012:	4607      	mov	r7, r0
 8007014:	4650      	mov	r0, sl
 8007016:	f000 fa53 	bl	80074c0 <_Bfree>
 800701a:	9704      	str	r7, [sp, #16]
 800701c:	9b09      	ldr	r3, [sp, #36]	; 0x24
 800701e:	1b5a      	subs	r2, r3, r5
 8007020:	d008      	beq.n	8007034 <_dtoa_r+0x78c>
 8007022:	4650      	mov	r0, sl
 8007024:	9904      	ldr	r1, [sp, #16]
 8007026:	e002      	b.n	800702e <_dtoa_r+0x786>
 8007028:	9904      	ldr	r1, [sp, #16]
 800702a:	9a09      	ldr	r2, [sp, #36]	; 0x24
 800702c:	4650      	mov	r0, sl
 800702e:	f000 fb83 	bl	8007738 <__pow5mult>
 8007032:	9004      	str	r0, [sp, #16]
 8007034:	4650      	mov	r0, sl
 8007036:	2101      	movs	r1, #1
 8007038:	f000 fae4 	bl	8007604 <__i2b>
 800703c:	9b0c      	ldr	r3, [sp, #48]	; 0x30
 800703e:	2b00      	cmp	r3, #0
 8007040:	4605      	mov	r5, r0
 8007042:	dd0a      	ble.n	800705a <_dtoa_r+0x7b2>
 8007044:	4629      	mov	r1, r5
 8007046:	461a      	mov	r2, r3
 8007048:	4650      	mov	r0, sl
 800704a:	f000 fb75 	bl	8007738 <__pow5mult>
 800704e:	9b08      	ldr	r3, [sp, #32]
 8007050:	2b01      	cmp	r3, #1
 8007052:	4605      	mov	r5, r0
 8007054:	dd04      	ble.n	8007060 <_dtoa_r+0x7b8>
 8007056:	2700      	movs	r7, #0
 8007058:	e01b      	b.n	8007092 <_dtoa_r+0x7ea>
 800705a:	9b08      	ldr	r3, [sp, #32]
 800705c:	2b01      	cmp	r3, #1
 800705e:	dc13      	bgt.n	8007088 <_dtoa_r+0x7e0>
 8007060:	9b00      	ldr	r3, [sp, #0]
 8007062:	b98b      	cbnz	r3, 8007088 <_dtoa_r+0x7e0>
 8007064:	9b01      	ldr	r3, [sp, #4]
 8007066:	f3c3 0313 	ubfx	r3, r3, #0, #20
 800706a:	b97b      	cbnz	r3, 800708c <_dtoa_r+0x7e4>
 800706c:	9b01      	ldr	r3, [sp, #4]
 800706e:	f023 4700 	bic.w	r7, r3, #2147483648	; 0x80000000
 8007072:	0d3f      	lsrs	r7, r7, #20
 8007074:	053f      	lsls	r7, r7, #20
 8007076:	b157      	cbz	r7, 800708e <_dtoa_r+0x7e6>
 8007078:	9b06      	ldr	r3, [sp, #24]
 800707a:	3301      	adds	r3, #1
 800707c:	9306      	str	r3, [sp, #24]
 800707e:	9b07      	ldr	r3, [sp, #28]
 8007080:	3301      	adds	r3, #1
 8007082:	9307      	str	r3, [sp, #28]
 8007084:	2701      	movs	r7, #1
 8007086:	e002      	b.n	800708e <_dtoa_r+0x7e6>
 8007088:	2700      	movs	r7, #0
 800708a:	e000      	b.n	800708e <_dtoa_r+0x7e6>
 800708c:	9f00      	ldr	r7, [sp, #0]
 800708e:	9b0c      	ldr	r3, [sp, #48]	; 0x30
 8007090:	b143      	cbz	r3, 80070a4 <_dtoa_r+0x7fc>
 8007092:	692b      	ldr	r3, [r5, #16]
 8007094:	eb05 0383 	add.w	r3, r5, r3, lsl #2
 8007098:	6918      	ldr	r0, [r3, #16]
 800709a:	f000 fa66 	bl	800756a <__hi0bits>
 800709e:	f1c0 0020 	rsb	r0, r0, #32
 80070a2:	e000      	b.n	80070a6 <_dtoa_r+0x7fe>
 80070a4:	2001      	movs	r0, #1
 80070a6:	9b07      	ldr	r3, [sp, #28]
 80070a8:	4418      	add	r0, r3
 80070aa:	f010 001f 	ands.w	r0, r0, #31
 80070ae:	d008      	beq.n	80070c2 <_dtoa_r+0x81a>
 80070b0:	f1c0 0320 	rsb	r3, r0, #32
 80070b4:	2b04      	cmp	r3, #4
 80070b6:	dd02      	ble.n	80070be <_dtoa_r+0x816>
 80070b8:	f1c0 001c 	rsb	r0, r0, #28
 80070bc:	e002      	b.n	80070c4 <_dtoa_r+0x81c>
 80070be:	d008      	beq.n	80070d2 <_dtoa_r+0x82a>
 80070c0:	4618      	mov	r0, r3
 80070c2:	301c      	adds	r0, #28
 80070c4:	9b06      	ldr	r3, [sp, #24]
 80070c6:	4403      	add	r3, r0
 80070c8:	9306      	str	r3, [sp, #24]
 80070ca:	9b07      	ldr	r3, [sp, #28]
 80070cc:	4403      	add	r3, r0
 80070ce:	4404      	add	r4, r0
 80070d0:	9307      	str	r3, [sp, #28]
 80070d2:	9b06      	ldr	r3, [sp, #24]
 80070d4:	2b00      	cmp	r3, #0
 80070d6:	dd05      	ble.n	80070e4 <_dtoa_r+0x83c>
 80070d8:	4650      	mov	r0, sl
 80070da:	9904      	ldr	r1, [sp, #16]
 80070dc:	461a      	mov	r2, r3
 80070de:	f000 fb79 	bl	80077d4 <__lshift>
 80070e2:	9004      	str	r0, [sp, #16]
 80070e4:	9b07      	ldr	r3, [sp, #28]
 80070e6:	2b00      	cmp	r3, #0
 80070e8:	dd05      	ble.n	80070f6 <_dtoa_r+0x84e>
 80070ea:	4629      	mov	r1, r5
 80070ec:	4650      	mov	r0, sl
 80070ee:	461a      	mov	r2, r3
 80070f0:	f000 fb70 	bl	80077d4 <__lshift>
 80070f4:	4605      	mov	r5, r0
 80070f6:	9b0d      	ldr	r3, [sp, #52]	; 0x34
 80070f8:	b1eb      	cbz	r3, 8007136 <_dtoa_r+0x88e>
 80070fa:	9804      	ldr	r0, [sp, #16]
 80070fc:	4629      	mov	r1, r5
 80070fe:	f000 fbbc 	bl	800787a <__mcmp>
 8007102:	2800      	cmp	r0, #0
 8007104:	da17      	bge.n	8007136 <_dtoa_r+0x88e>
 8007106:	2300      	movs	r3, #0
 8007108:	4650      	mov	r0, sl
 800710a:	9904      	ldr	r1, [sp, #16]
 800710c:	220a      	movs	r2, #10
 800710e:	f000 f9ee 	bl	80074ee <__multadd>
 8007112:	9b0a      	ldr	r3, [sp, #40]	; 0x28
 8007114:	9004      	str	r0, [sp, #16]
 8007116:	f10b 3bff 	add.w	fp, fp, #4294967295	; 0xffffffff
 800711a:	2b00      	cmp	r3, #0
 800711c:	f000 8170 	beq.w	8007400 <_dtoa_r+0xb58>
 8007120:	4631      	mov	r1, r6
 8007122:	2300      	movs	r3, #0
 8007124:	4650      	mov	r0, sl
 8007126:	220a      	movs	r2, #10
 8007128:	f000 f9e1 	bl	80074ee <__multadd>
 800712c:	9b03      	ldr	r3, [sp, #12]
 800712e:	2b00      	cmp	r3, #0
 8007130:	4606      	mov	r6, r0
 8007132:	dc33      	bgt.n	800719c <_dtoa_r+0x8f4>
 8007134:	e16d      	b.n	8007412 <_dtoa_r+0xb6a>
 8007136:	9b02      	ldr	r3, [sp, #8]
 8007138:	2b00      	cmp	r3, #0
 800713a:	dc26      	bgt.n	800718a <_dtoa_r+0x8e2>
 800713c:	9b08      	ldr	r3, [sp, #32]
 800713e:	2b02      	cmp	r3, #2
 8007140:	dd23      	ble.n	800718a <_dtoa_r+0x8e2>
 8007142:	9b02      	ldr	r3, [sp, #8]
 8007144:	9303      	str	r3, [sp, #12]
 8007146:	9b03      	ldr	r3, [sp, #12]
 8007148:	b973      	cbnz	r3, 8007168 <_dtoa_r+0x8c0>
 800714a:	4629      	mov	r1, r5
 800714c:	2205      	movs	r2, #5
 800714e:	4650      	mov	r0, sl
 8007150:	f000 f9cd 	bl	80074ee <__multadd>
 8007154:	4605      	mov	r5, r0
 8007156:	4629      	mov	r1, r5
 8007158:	9804      	ldr	r0, [sp, #16]
 800715a:	f000 fb8e 	bl	800787a <__mcmp>
 800715e:	2800      	cmp	r0, #0
 8007160:	dc09      	bgt.n	8007176 <_dtoa_r+0x8ce>
 8007162:	e001      	b.n	8007168 <_dtoa_r+0x8c0>
 8007164:	2500      	movs	r5, #0
 8007166:	462e      	mov	r6, r5
 8007168:	9b0b      	ldr	r3, [sp, #44]	; 0x2c
 800716a:	9c05      	ldr	r4, [sp, #20]
 800716c:	ea6f 0b03 	mvn.w	fp, r3
 8007170:	e008      	b.n	8007184 <_dtoa_r+0x8dc>
 8007172:	46bb      	mov	fp, r7
 8007174:	462e      	mov	r6, r5
 8007176:	9b05      	ldr	r3, [sp, #20]
 8007178:	9a05      	ldr	r2, [sp, #20]
 800717a:	1c5c      	adds	r4, r3, #1
 800717c:	2331      	movs	r3, #49	; 0x31
 800717e:	7013      	strb	r3, [r2, #0]
 8007180:	f10b 0b01 	add.w	fp, fp, #1
 8007184:	46b1      	mov	r9, r6
 8007186:	2600      	movs	r6, #0
 8007188:	e114      	b.n	80073b4 <_dtoa_r+0xb0c>
 800718a:	9b0a      	ldr	r3, [sp, #40]	; 0x28
 800718c:	b923      	cbnz	r3, 8007198 <_dtoa_r+0x8f0>
 800718e:	9b02      	ldr	r3, [sp, #8]
 8007190:	9303      	str	r3, [sp, #12]
 8007192:	9f05      	ldr	r7, [sp, #20]
 8007194:	9c04      	ldr	r4, [sp, #16]
 8007196:	e0cc      	b.n	8007332 <_dtoa_r+0xa8a>
 8007198:	9b02      	ldr	r3, [sp, #8]
 800719a:	9303      	str	r3, [sp, #12]
 800719c:	2c00      	cmp	r4, #0
 800719e:	dd05      	ble.n	80071ac <_dtoa_r+0x904>
 80071a0:	4631      	mov	r1, r6
 80071a2:	4650      	mov	r0, sl
 80071a4:	4622      	mov	r2, r4
 80071a6:	f000 fb15 	bl	80077d4 <__lshift>
 80071aa:	4606      	mov	r6, r0
 80071ac:	b1b7      	cbz	r7, 80071dc <_dtoa_r+0x934>
 80071ae:	6871      	ldr	r1, [r6, #4]
 80071b0:	4650      	mov	r0, sl
 80071b2:	f000 f950 	bl	8007456 <_Balloc>
 80071b6:	6932      	ldr	r2, [r6, #16]
 80071b8:	3202      	adds	r2, #2
 80071ba:	4604      	mov	r4, r0
 80071bc:	f106 010c 	add.w	r1, r6, #12
 80071c0:	0092      	lsls	r2, r2, #2
 80071c2:	300c      	adds	r0, #12
 80071c4:	f000 f93c 	bl	8007440 <memcpy>
 80071c8:	4650      	mov	r0, sl
 80071ca:	4621      	mov	r1, r4
 80071cc:	2201      	movs	r2, #1
 80071ce:	f000 fb01 	bl	80077d4 <__lshift>
 80071d2:	4681      	mov	r9, r0
 80071d4:	e003      	b.n	80071de <_dtoa_r+0x936>
 80071d6:	bf00      	nop
 80071d8:	40240000 	.word	0x40240000
 80071dc:	46b1      	mov	r9, r6
 80071de:	9f05      	ldr	r7, [sp, #20]
 80071e0:	9c04      	ldr	r4, [sp, #16]
 80071e2:	4629      	mov	r1, r5
 80071e4:	4620      	mov	r0, r4
 80071e6:	f7ff facf 	bl	8006788 <quorem>
 80071ea:	4631      	mov	r1, r6
 80071ec:	9006      	str	r0, [sp, #24]
 80071ee:	f100 0830 	add.w	r8, r0, #48	; 0x30
 80071f2:	4620      	mov	r0, r4
 80071f4:	f000 fb41 	bl	800787a <__mcmp>
 80071f8:	464a      	mov	r2, r9
 80071fa:	9002      	str	r0, [sp, #8]
 80071fc:	4629      	mov	r1, r5
 80071fe:	4650      	mov	r0, sl
 8007200:	f000 fb57 	bl	80078b2 <__mdiff>
 8007204:	68c2      	ldr	r2, [r0, #12]
 8007206:	4603      	mov	r3, r0
 8007208:	b93a      	cbnz	r2, 800721a <_dtoa_r+0x972>
 800720a:	4619      	mov	r1, r3
 800720c:	4620      	mov	r0, r4
 800720e:	9304      	str	r3, [sp, #16]
 8007210:	f000 fb33 	bl	800787a <__mcmp>
 8007214:	9b04      	ldr	r3, [sp, #16]
 8007216:	4602      	mov	r2, r0
 8007218:	e000      	b.n	800721c <_dtoa_r+0x974>
 800721a:	2201      	movs	r2, #1
 800721c:	4650      	mov	r0, sl
 800721e:	4619      	mov	r1, r3
 8007220:	9204      	str	r2, [sp, #16]
 8007222:	f000 f94d 	bl	80074c0 <_Bfree>
 8007226:	9a04      	ldr	r2, [sp, #16]
 8007228:	b9a2      	cbnz	r2, 8007254 <_dtoa_r+0x9ac>
 800722a:	9b08      	ldr	r3, [sp, #32]
 800722c:	b993      	cbnz	r3, 8007254 <_dtoa_r+0x9ac>
 800722e:	9b00      	ldr	r3, [sp, #0]
 8007230:	f003 0301 	and.w	r3, r3, #1
 8007234:	b973      	cbnz	r3, 8007254 <_dtoa_r+0x9ac>
 8007236:	f1b8 0f39 	cmp.w	r8, #57	; 0x39
 800723a:	463b      	mov	r3, r7
 800723c:	9404      	str	r4, [sp, #16]
 800723e:	d040      	beq.n	80072c2 <_dtoa_r+0xa1a>
 8007240:	9b02      	ldr	r3, [sp, #8]
 8007242:	2b00      	cmp	r3, #0
 8007244:	bfc8      	it	gt
 8007246:	9b06      	ldrgt	r3, [sp, #24]
 8007248:	f107 0401 	add.w	r4, r7, #1
 800724c:	bfc8      	it	gt
 800724e:	f103 0831 	addgt.w	r8, r3, #49	; 0x31
 8007252:	e03d      	b.n	80072d0 <_dtoa_r+0xa28>
 8007254:	9b02      	ldr	r3, [sp, #8]
 8007256:	2b00      	cmp	r3, #0
 8007258:	da04      	bge.n	8007264 <_dtoa_r+0x9bc>
 800725a:	2a00      	cmp	r2, #0
 800725c:	46c4      	mov	ip, r8
 800725e:	9404      	str	r4, [sp, #16]
 8007260:	dc08      	bgt.n	8007274 <_dtoa_r+0x9cc>
 8007262:	e021      	b.n	80072a8 <_dtoa_r+0xa00>
 8007264:	d124      	bne.n	80072b0 <_dtoa_r+0xa08>
 8007266:	9b08      	ldr	r3, [sp, #32]
 8007268:	bb13      	cbnz	r3, 80072b0 <_dtoa_r+0xa08>
 800726a:	9b00      	ldr	r3, [sp, #0]
 800726c:	f003 0301 	and.w	r3, r3, #1
 8007270:	b9f3      	cbnz	r3, 80072b0 <_dtoa_r+0xa08>
 8007272:	e7f2      	b.n	800725a <_dtoa_r+0x9b2>
 8007274:	4621      	mov	r1, r4
 8007276:	2201      	movs	r2, #1
 8007278:	4650      	mov	r0, sl
 800727a:	9702      	str	r7, [sp, #8]
 800727c:	f8cd 8000 	str.w	r8, [sp]
 8007280:	f000 faa8 	bl	80077d4 <__lshift>
 8007284:	4629      	mov	r1, r5
 8007286:	9004      	str	r0, [sp, #16]
 8007288:	f000 faf7 	bl	800787a <__mcmp>
 800728c:	2800      	cmp	r0, #0
 800728e:	f8dd c000 	ldr.w	ip, [sp]
 8007292:	9b02      	ldr	r3, [sp, #8]
 8007294:	dc03      	bgt.n	800729e <_dtoa_r+0x9f6>
 8007296:	d107      	bne.n	80072a8 <_dtoa_r+0xa00>
 8007298:	f018 0f01 	tst.w	r8, #1
 800729c:	d004      	beq.n	80072a8 <_dtoa_r+0xa00>
 800729e:	f1b8 0f39 	cmp.w	r8, #57	; 0x39
 80072a2:	d00e      	beq.n	80072c2 <_dtoa_r+0xa1a>
 80072a4:	f108 0c01 	add.w	ip, r8, #1
 80072a8:	1c7c      	adds	r4, r7, #1
 80072aa:	f887 c000 	strb.w	ip, [r7]
 80072ae:	e081      	b.n	80073b4 <_dtoa_r+0xb0c>
 80072b0:	2a00      	cmp	r2, #0
 80072b2:	f107 0201 	add.w	r2, r7, #1
 80072b6:	dd0e      	ble.n	80072d6 <_dtoa_r+0xa2e>
 80072b8:	f1b8 0f39 	cmp.w	r8, #57	; 0x39
 80072bc:	463b      	mov	r3, r7
 80072be:	9404      	str	r4, [sp, #16]
 80072c0:	d103      	bne.n	80072ca <_dtoa_r+0xa22>
 80072c2:	2239      	movs	r2, #57	; 0x39
 80072c4:	3701      	adds	r7, #1
 80072c6:	701a      	strb	r2, [r3, #0]
 80072c8:	e057      	b.n	800737a <_dtoa_r+0xad2>
 80072ca:	4614      	mov	r4, r2
 80072cc:	f108 0801 	add.w	r8, r8, #1
 80072d0:	f887 8000 	strb.w	r8, [r7]
 80072d4:	e06e      	b.n	80073b4 <_dtoa_r+0xb0c>
 80072d6:	9b05      	ldr	r3, [sp, #20]
 80072d8:	f802 8c01 	strb.w	r8, [r2, #-1]
 80072dc:	1ad3      	subs	r3, r2, r3
 80072de:	4617      	mov	r7, r2
 80072e0:	9a03      	ldr	r2, [sp, #12]
 80072e2:	4293      	cmp	r3, r2
 80072e4:	d03a      	beq.n	800735c <_dtoa_r+0xab4>
 80072e6:	4621      	mov	r1, r4
 80072e8:	220a      	movs	r2, #10
 80072ea:	2300      	movs	r3, #0
 80072ec:	4650      	mov	r0, sl
 80072ee:	f000 f8fe 	bl	80074ee <__multadd>
 80072f2:	454e      	cmp	r6, r9
 80072f4:	4604      	mov	r4, r0
 80072f6:	4631      	mov	r1, r6
 80072f8:	4650      	mov	r0, sl
 80072fa:	f04f 020a 	mov.w	r2, #10
 80072fe:	f04f 0300 	mov.w	r3, #0
 8007302:	d104      	bne.n	800730e <_dtoa_r+0xa66>
 8007304:	f000 f8f3 	bl	80074ee <__multadd>
 8007308:	4606      	mov	r6, r0
 800730a:	4681      	mov	r9, r0
 800730c:	e769      	b.n	80071e2 <_dtoa_r+0x93a>
 800730e:	f000 f8ee 	bl	80074ee <__multadd>
 8007312:	4649      	mov	r1, r9
 8007314:	4606      	mov	r6, r0
 8007316:	220a      	movs	r2, #10
 8007318:	4650      	mov	r0, sl
 800731a:	2300      	movs	r3, #0
 800731c:	f000 f8e7 	bl	80074ee <__multadd>
 8007320:	4681      	mov	r9, r0
 8007322:	e75e      	b.n	80071e2 <_dtoa_r+0x93a>
 8007324:	4621      	mov	r1, r4
 8007326:	4650      	mov	r0, sl
 8007328:	220a      	movs	r2, #10
 800732a:	2300      	movs	r3, #0
 800732c:	f000 f8df 	bl	80074ee <__multadd>
 8007330:	4604      	mov	r4, r0
 8007332:	4620      	mov	r0, r4
 8007334:	4629      	mov	r1, r5
 8007336:	f7ff fa27 	bl	8006788 <quorem>
 800733a:	f100 0830 	add.w	r8, r0, #48	; 0x30
 800733e:	f807 8b01 	strb.w	r8, [r7], #1
 8007342:	9b05      	ldr	r3, [sp, #20]
 8007344:	9a03      	ldr	r2, [sp, #12]
 8007346:	1afb      	subs	r3, r7, r3
 8007348:	4293      	cmp	r3, r2
 800734a:	dbeb      	blt.n	8007324 <_dtoa_r+0xa7c>
 800734c:	9b05      	ldr	r3, [sp, #20]
 800734e:	2a01      	cmp	r2, #1
 8007350:	bfac      	ite	ge
 8007352:	189b      	addge	r3, r3, r2
 8007354:	3301      	addlt	r3, #1
 8007356:	46b1      	mov	r9, r6
 8007358:	461f      	mov	r7, r3
 800735a:	2600      	movs	r6, #0
 800735c:	4621      	mov	r1, r4
 800735e:	2201      	movs	r2, #1
 8007360:	4650      	mov	r0, sl
 8007362:	f000 fa37 	bl	80077d4 <__lshift>
 8007366:	4629      	mov	r1, r5
 8007368:	9004      	str	r0, [sp, #16]
 800736a:	f000 fa86 	bl	800787a <__mcmp>
 800736e:	2800      	cmp	r0, #0
 8007370:	dc03      	bgt.n	800737a <_dtoa_r+0xad2>
 8007372:	d116      	bne.n	80073a2 <_dtoa_r+0xafa>
 8007374:	f018 0f01 	tst.w	r8, #1
 8007378:	d013      	beq.n	80073a2 <_dtoa_r+0xafa>
 800737a:	463c      	mov	r4, r7
 800737c:	f814 3c01 	ldrb.w	r3, [r4, #-1]
 8007380:	2b39      	cmp	r3, #57	; 0x39
 8007382:	f104 32ff 	add.w	r2, r4, #4294967295	; 0xffffffff
 8007386:	d109      	bne.n	800739c <_dtoa_r+0xaf4>
 8007388:	9b05      	ldr	r3, [sp, #20]
 800738a:	429a      	cmp	r2, r3
 800738c:	d104      	bne.n	8007398 <_dtoa_r+0xaf0>
 800738e:	f10b 0b01 	add.w	fp, fp, #1
 8007392:	2331      	movs	r3, #49	; 0x31
 8007394:	9a05      	ldr	r2, [sp, #20]
 8007396:	e002      	b.n	800739e <_dtoa_r+0xaf6>
 8007398:	4614      	mov	r4, r2
 800739a:	e7ef      	b.n	800737c <_dtoa_r+0xad4>
 800739c:	3301      	adds	r3, #1
 800739e:	7013      	strb	r3, [r2, #0]
 80073a0:	e008      	b.n	80073b4 <_dtoa_r+0xb0c>
 80073a2:	463c      	mov	r4, r7
 80073a4:	f814 3c01 	ldrb.w	r3, [r4, #-1]
 80073a8:	2b30      	cmp	r3, #48	; 0x30
 80073aa:	f104 32ff 	add.w	r2, r4, #4294967295	; 0xffffffff
 80073ae:	d101      	bne.n	80073b4 <_dtoa_r+0xb0c>
 80073b0:	4614      	mov	r4, r2
 80073b2:	e7f7      	b.n	80073a4 <_dtoa_r+0xafc>
 80073b4:	4650      	mov	r0, sl
 80073b6:	4629      	mov	r1, r5
 80073b8:	f000 f882 	bl	80074c0 <_Bfree>
 80073bc:	f1b9 0f00 	cmp.w	r9, #0
 80073c0:	d00c      	beq.n	80073dc <_dtoa_r+0xb34>
 80073c2:	b12e      	cbz	r6, 80073d0 <_dtoa_r+0xb28>
 80073c4:	454e      	cmp	r6, r9
 80073c6:	d003      	beq.n	80073d0 <_dtoa_r+0xb28>
 80073c8:	4650      	mov	r0, sl
 80073ca:	4631      	mov	r1, r6
 80073cc:	f000 f878 	bl	80074c0 <_Bfree>
 80073d0:	4650      	mov	r0, sl
 80073d2:	4649      	mov	r1, r9
 80073d4:	f000 f874 	bl	80074c0 <_Bfree>
 80073d8:	e000      	b.n	80073dc <_dtoa_r+0xb34>
 80073da:	46bb      	mov	fp, r7
 80073dc:	4650      	mov	r0, sl
 80073de:	9904      	ldr	r1, [sp, #16]
 80073e0:	f000 f86e 	bl	80074c0 <_Bfree>
 80073e4:	2300      	movs	r3, #0
 80073e6:	9a12      	ldr	r2, [sp, #72]	; 0x48
 80073e8:	7023      	strb	r3, [r4, #0]
 80073ea:	f10b 0301 	add.w	r3, fp, #1
 80073ee:	6013      	str	r3, [r2, #0]
 80073f0:	9b21      	ldr	r3, [sp, #132]	; 0x84
 80073f2:	b11b      	cbz	r3, 80073fc <_dtoa_r+0xb54>
 80073f4:	601c      	str	r4, [r3, #0]
 80073f6:	e001      	b.n	80073fc <_dtoa_r+0xb54>
 80073f8:	480a      	ldr	r0, [pc, #40]	; (8007424 <_dtoa_r+0xb7c>)
 80073fa:	e00f      	b.n	800741c <_dtoa_r+0xb74>
 80073fc:	9805      	ldr	r0, [sp, #20]
 80073fe:	e00d      	b.n	800741c <_dtoa_r+0xb74>
 8007400:	9b03      	ldr	r3, [sp, #12]
 8007402:	2b00      	cmp	r3, #0
 8007404:	f73f aec5 	bgt.w	8007192 <_dtoa_r+0x8ea>
 8007408:	9b08      	ldr	r3, [sp, #32]
 800740a:	2b02      	cmp	r3, #2
 800740c:	f73f ae9b 	bgt.w	8007146 <_dtoa_r+0x89e>
 8007410:	e6bf      	b.n	8007192 <_dtoa_r+0x8ea>
 8007412:	9b08      	ldr	r3, [sp, #32]
 8007414:	2b02      	cmp	r3, #2
 8007416:	f73f ae96 	bgt.w	8007146 <_dtoa_r+0x89e>
 800741a:	e6bf      	b.n	800719c <_dtoa_r+0x8f4>
 800741c:	b017      	add	sp, #92	; 0x5c
 800741e:	e8bd 8ff0 	ldmia.w	sp!, {r4, r5, r6, r7, r8, r9, sl, fp, pc}
 8007422:	bf00      	nop
 8007424:	0800827e 	.word	0x0800827e

08007428 <_localeconv_r>:
 8007428:	4800      	ldr	r0, [pc, #0]	; (800742c <_localeconv_r+0x4>)
 800742a:	4770      	bx	lr
 800742c:	20000070 	.word	0x20000070

08007430 <malloc>:
 8007430:	4b02      	ldr	r3, [pc, #8]	; (800743c <malloc+0xc>)
 8007432:	4601      	mov	r1, r0
 8007434:	6818      	ldr	r0, [r3, #0]
 8007436:	f000 bafb 	b.w	8007a30 <_malloc_r>
 800743a:	bf00      	nop
 800743c:	2000006c 	.word	0x2000006c

08007440 <memcpy>:
 8007440:	b510      	push	{r4, lr}
 8007442:	1e43      	subs	r3, r0, #1
 8007444:	440a      	add	r2, r1
 8007446:	4291      	cmp	r1, r2
 8007448:	d004      	beq.n	8007454 <memcpy+0x14>
 800744a:	f811 4b01 	ldrb.w	r4, [r1], #1
 800744e:	f803 4f01 	strb.w	r4, [r3, #1]!
 8007452:	e7f8      	b.n	8007446 <memcpy+0x6>
 8007454:	bd10      	pop	{r4, pc}

08007456 <_Balloc>:
 8007456:	b570      	push	{r4, r5, r6, lr}
 8007458:	6a45      	ldr	r5, [r0, #36]	; 0x24
 800745a:	4604      	mov	r4, r0
 800745c:	460e      	mov	r6, r1
 800745e:	b93d      	cbnz	r5, 8007470 <_Balloc+0x1a>
 8007460:	2010      	movs	r0, #16
 8007462:	f7ff ffe5 	bl	8007430 <malloc>
 8007466:	6260      	str	r0, [r4, #36]	; 0x24
 8007468:	6045      	str	r5, [r0, #4]
 800746a:	6085      	str	r5, [r0, #8]
 800746c:	6005      	str	r5, [r0, #0]
 800746e:	60c5      	str	r5, [r0, #12]
 8007470:	6a65      	ldr	r5, [r4, #36]	; 0x24
 8007472:	68eb      	ldr	r3, [r5, #12]
 8007474:	b143      	cbz	r3, 8007488 <_Balloc+0x32>
 8007476:	6a63      	ldr	r3, [r4, #36]	; 0x24
 8007478:	68db      	ldr	r3, [r3, #12]
 800747a:	f853 0026 	ldr.w	r0, [r3, r6, lsl #2]
 800747e:	b178      	cbz	r0, 80074a0 <_Balloc+0x4a>
 8007480:	6802      	ldr	r2, [r0, #0]
 8007482:	f843 2026 	str.w	r2, [r3, r6, lsl #2]
 8007486:	e017      	b.n	80074b8 <_Balloc+0x62>
 8007488:	4620      	mov	r0, r4
 800748a:	2104      	movs	r1, #4
 800748c:	2221      	movs	r2, #33	; 0x21
 800748e:	f000 fac1 	bl	8007a14 <_calloc_r>
 8007492:	6a63      	ldr	r3, [r4, #36]	; 0x24
 8007494:	60e8      	str	r0, [r5, #12]
 8007496:	68db      	ldr	r3, [r3, #12]
 8007498:	2b00      	cmp	r3, #0
 800749a:	d1ec      	bne.n	8007476 <_Balloc+0x20>
 800749c:	2000      	movs	r0, #0
 800749e:	bd70      	pop	{r4, r5, r6, pc}
 80074a0:	2101      	movs	r1, #1
 80074a2:	fa01 f506 	lsl.w	r5, r1, r6
 80074a6:	1d6a      	adds	r2, r5, #5
 80074a8:	4620      	mov	r0, r4
 80074aa:	0092      	lsls	r2, r2, #2
 80074ac:	f000 fab2 	bl	8007a14 <_calloc_r>
 80074b0:	2800      	cmp	r0, #0
 80074b2:	d0f3      	beq.n	800749c <_Balloc+0x46>
 80074b4:	6046      	str	r6, [r0, #4]
 80074b6:	6085      	str	r5, [r0, #8]
 80074b8:	2300      	movs	r3, #0
 80074ba:	6103      	str	r3, [r0, #16]
 80074bc:	60c3      	str	r3, [r0, #12]
 80074be:	bd70      	pop	{r4, r5, r6, pc}

080074c0 <_Bfree>:
 80074c0:	b570      	push	{r4, r5, r6, lr}
 80074c2:	6a44      	ldr	r4, [r0, #36]	; 0x24
 80074c4:	4606      	mov	r6, r0
 80074c6:	460d      	mov	r5, r1
 80074c8:	b93c      	cbnz	r4, 80074da <_Bfree+0x1a>
 80074ca:	2010      	movs	r0, #16
 80074cc:	f7ff ffb0 	bl	8007430 <malloc>
 80074d0:	6270      	str	r0, [r6, #36]	; 0x24
 80074d2:	6044      	str	r4, [r0, #4]
 80074d4:	6084      	str	r4, [r0, #8]
 80074d6:	6004      	str	r4, [r0, #0]
 80074d8:	60c4      	str	r4, [r0, #12]
 80074da:	b13d      	cbz	r5, 80074ec <_Bfree+0x2c>
 80074dc:	6a73      	ldr	r3, [r6, #36]	; 0x24
 80074de:	686a      	ldr	r2, [r5, #4]
 80074e0:	68db      	ldr	r3, [r3, #12]
 80074e2:	f853 1022 	ldr.w	r1, [r3, r2, lsl #2]
 80074e6:	6029      	str	r1, [r5, #0]
 80074e8:	f843 5022 	str.w	r5, [r3, r2, lsl #2]
 80074ec:	bd70      	pop	{r4, r5, r6, pc}

080074ee <__multadd>:
 80074ee:	e92d 41f0 	stmdb	sp!, {r4, r5, r6, r7, r8, lr}
 80074f2:	690f      	ldr	r7, [r1, #16]
 80074f4:	4698      	mov	r8, r3
 80074f6:	4606      	mov	r6, r0
 80074f8:	460c      	mov	r4, r1
 80074fa:	f101 0e14 	add.w	lr, r1, #20
 80074fe:	2300      	movs	r3, #0
 8007500:	f8de 0000 	ldr.w	r0, [lr]
 8007504:	b285      	uxth	r5, r0
 8007506:	0c01      	lsrs	r1, r0, #16
 8007508:	fb02 8505 	mla	r5, r2, r5, r8
 800750c:	4351      	muls	r1, r2
 800750e:	eb01 4115 	add.w	r1, r1, r5, lsr #16
 8007512:	3301      	adds	r3, #1
 8007514:	b2ad      	uxth	r5, r5
 8007516:	ea4f 4811 	mov.w	r8, r1, lsr #16
 800751a:	42bb      	cmp	r3, r7
 800751c:	eb05 4101 	add.w	r1, r5, r1, lsl #16
 8007520:	f84e 1b04 	str.w	r1, [lr], #4
 8007524:	dbec      	blt.n	8007500 <__multadd+0x12>
 8007526:	f1b8 0f00 	cmp.w	r8, #0
 800752a:	d01b      	beq.n	8007564 <__multadd+0x76>
 800752c:	68a3      	ldr	r3, [r4, #8]
 800752e:	429f      	cmp	r7, r3
 8007530:	db12      	blt.n	8007558 <__multadd+0x6a>
 8007532:	6861      	ldr	r1, [r4, #4]
 8007534:	4630      	mov	r0, r6
 8007536:	3101      	adds	r1, #1
 8007538:	f7ff ff8d 	bl	8007456 <_Balloc>
 800753c:	6922      	ldr	r2, [r4, #16]
 800753e:	3202      	adds	r2, #2
 8007540:	f104 010c 	add.w	r1, r4, #12
 8007544:	4605      	mov	r5, r0
 8007546:	0092      	lsls	r2, r2, #2
 8007548:	300c      	adds	r0, #12
 800754a:	f7ff ff79 	bl	8007440 <memcpy>
 800754e:	4621      	mov	r1, r4
 8007550:	4630      	mov	r0, r6
 8007552:	f7ff ffb5 	bl	80074c0 <_Bfree>
 8007556:	462c      	mov	r4, r5
 8007558:	eb04 0387 	add.w	r3, r4, r7, lsl #2
 800755c:	3701      	adds	r7, #1
 800755e:	f8c3 8014 	str.w	r8, [r3, #20]
 8007562:	6127      	str	r7, [r4, #16]
 8007564:	4620      	mov	r0, r4
 8007566:	e8bd 81f0 	ldmia.w	sp!, {r4, r5, r6, r7, r8, pc}

0800756a <__hi0bits>:
 800756a:	0c03      	lsrs	r3, r0, #16
 800756c:	041b      	lsls	r3, r3, #16
 800756e:	b913      	cbnz	r3, 8007576 <__hi0bits+0xc>
 8007570:	0400      	lsls	r0, r0, #16
 8007572:	2310      	movs	r3, #16
 8007574:	e000      	b.n	8007578 <__hi0bits+0xe>
 8007576:	2300      	movs	r3, #0
 8007578:	f010 4f7f 	tst.w	r0, #4278190080	; 0xff000000
 800757c:	bf04      	itt	eq
 800757e:	0200      	lsleq	r0, r0, #8
 8007580:	3308      	addeq	r3, #8
 8007582:	f010 4f70 	tst.w	r0, #4026531840	; 0xf0000000
 8007586:	bf04      	itt	eq
 8007588:	0100      	lsleq	r0, r0, #4
 800758a:	3304      	addeq	r3, #4
 800758c:	f010 4f40 	tst.w	r0, #3221225472	; 0xc0000000
 8007590:	bf04      	itt	eq
 8007592:	0080      	lsleq	r0, r0, #2
 8007594:	3302      	addeq	r3, #2
 8007596:	2800      	cmp	r0, #0
 8007598:	db03      	blt.n	80075a2 <__hi0bits+0x38>
 800759a:	0042      	lsls	r2, r0, #1
 800759c:	d503      	bpl.n	80075a6 <__hi0bits+0x3c>
 800759e:	1c58      	adds	r0, r3, #1
 80075a0:	4770      	bx	lr
 80075a2:	4618      	mov	r0, r3
 80075a4:	4770      	bx	lr
 80075a6:	2020      	movs	r0, #32
 80075a8:	4770      	bx	lr

080075aa <__lo0bits>:
 80075aa:	6803      	ldr	r3, [r0, #0]
 80075ac:	f013 0207 	ands.w	r2, r3, #7
 80075b0:	d00b      	beq.n	80075ca <__lo0bits+0x20>
 80075b2:	07d9      	lsls	r1, r3, #31
 80075b4:	d422      	bmi.n	80075fc <__lo0bits+0x52>
 80075b6:	079a      	lsls	r2, r3, #30
 80075b8:	bf4b      	itete	mi
 80075ba:	085b      	lsrmi	r3, r3, #1
 80075bc:	089b      	lsrpl	r3, r3, #2
 80075be:	6003      	strmi	r3, [r0, #0]
 80075c0:	6003      	strpl	r3, [r0, #0]
 80075c2:	bf4c      	ite	mi
 80075c4:	2001      	movmi	r0, #1
 80075c6:	2002      	movpl	r0, #2
 80075c8:	4770      	bx	lr
 80075ca:	b299      	uxth	r1, r3
 80075cc:	b909      	cbnz	r1, 80075d2 <__lo0bits+0x28>
 80075ce:	0c1b      	lsrs	r3, r3, #16
 80075d0:	2210      	movs	r2, #16
 80075d2:	f013 0fff 	tst.w	r3, #255	; 0xff
 80075d6:	bf04      	itt	eq
 80075d8:	0a1b      	lsreq	r3, r3, #8
 80075da:	3208      	addeq	r2, #8
 80075dc:	0719      	lsls	r1, r3, #28
 80075de:	bf04      	itt	eq
 80075e0:	091b      	lsreq	r3, r3, #4
 80075e2:	3204      	addeq	r2, #4
 80075e4:	0799      	lsls	r1, r3, #30
 80075e6:	bf04      	itt	eq
 80075e8:	089b      	lsreq	r3, r3, #2
 80075ea:	3202      	addeq	r2, #2
 80075ec:	07d9      	lsls	r1, r3, #31
 80075ee:	d402      	bmi.n	80075f6 <__lo0bits+0x4c>
 80075f0:	085b      	lsrs	r3, r3, #1
 80075f2:	d005      	beq.n	8007600 <__lo0bits+0x56>
 80075f4:	3201      	adds	r2, #1
 80075f6:	6003      	str	r3, [r0, #0]
 80075f8:	4610      	mov	r0, r2
 80075fa:	4770      	bx	lr
 80075fc:	2000      	movs	r0, #0
 80075fe:	4770      	bx	lr
 8007600:	2020      	movs	r0, #32
 8007602:	4770      	bx	lr

08007604 <__i2b>:
 8007604:	b510      	push	{r4, lr}
 8007606:	460c      	mov	r4, r1
 8007608:	2101      	movs	r1, #1
 800760a:	f7ff ff24 	bl	8007456 <_Balloc>
 800760e:	2201      	movs	r2, #1
 8007610:	6144      	str	r4, [r0, #20]
 8007612:	6102      	str	r2, [r0, #16]
 8007614:	bd10      	pop	{r4, pc}

08007616 <__multiply>:
 8007616:	e92d 4ff7 	stmdb	sp!, {r0, r1, r2, r4, r5, r6, r7, r8, r9, sl, fp, lr}
 800761a:	4614      	mov	r4, r2
 800761c:	690a      	ldr	r2, [r1, #16]
 800761e:	6923      	ldr	r3, [r4, #16]
 8007620:	429a      	cmp	r2, r3
 8007622:	bfb8      	it	lt
 8007624:	460b      	movlt	r3, r1
 8007626:	4688      	mov	r8, r1
 8007628:	bfbc      	itt	lt
 800762a:	46a0      	movlt	r8, r4
 800762c:	461c      	movlt	r4, r3
 800762e:	f8d8 7010 	ldr.w	r7, [r8, #16]
 8007632:	f8d4 9010 	ldr.w	r9, [r4, #16]
 8007636:	f8d8 3008 	ldr.w	r3, [r8, #8]
 800763a:	f8d8 1004 	ldr.w	r1, [r8, #4]
 800763e:	eb07 0609 	add.w	r6, r7, r9
 8007642:	429e      	cmp	r6, r3
 8007644:	bfc8      	it	gt
 8007646:	3101      	addgt	r1, #1
 8007648:	f7ff ff05 	bl	8007456 <_Balloc>
 800764c:	f100 0514 	add.w	r5, r0, #20
 8007650:	eb05 0c86 	add.w	ip, r5, r6, lsl #2
 8007654:	462b      	mov	r3, r5
 8007656:	4563      	cmp	r3, ip
 8007658:	d203      	bcs.n	8007662 <__multiply+0x4c>
 800765a:	2200      	movs	r2, #0
 800765c:	f843 2b04 	str.w	r2, [r3], #4
 8007660:	e7f9      	b.n	8007656 <__multiply+0x40>
 8007662:	f104 0214 	add.w	r2, r4, #20
 8007666:	f108 0114 	add.w	r1, r8, #20
 800766a:	eb02 0389 	add.w	r3, r2, r9, lsl #2
 800766e:	eb01 0787 	add.w	r7, r1, r7, lsl #2
 8007672:	9300      	str	r3, [sp, #0]
 8007674:	9b00      	ldr	r3, [sp, #0]
 8007676:	9201      	str	r2, [sp, #4]
 8007678:	429a      	cmp	r2, r3
 800767a:	d257      	bcs.n	800772c <__multiply+0x116>
 800767c:	f8b2 b000 	ldrh.w	fp, [r2]
 8007680:	f1bb 0f00 	cmp.w	fp, #0
 8007684:	d023      	beq.n	80076ce <__multiply+0xb8>
 8007686:	4689      	mov	r9, r1
 8007688:	46ae      	mov	lr, r5
 800768a:	f04f 0800 	mov.w	r8, #0
 800768e:	f859 4b04 	ldr.w	r4, [r9], #4
 8007692:	f8be a000 	ldrh.w	sl, [lr]
 8007696:	b2a3      	uxth	r3, r4
 8007698:	fb0b a303 	mla	r3, fp, r3, sl
 800769c:	ea4f 4a14 	mov.w	sl, r4, lsr #16
 80076a0:	f8de 4000 	ldr.w	r4, [lr]
 80076a4:	4443      	add	r3, r8
 80076a6:	ea4f 4814 	mov.w	r8, r4, lsr #16
 80076aa:	fb0b 840a 	mla	r4, fp, sl, r8
 80076ae:	eb04 4413 	add.w	r4, r4, r3, lsr #16
 80076b2:	46f2      	mov	sl, lr
 80076b4:	b29b      	uxth	r3, r3
 80076b6:	ea43 4304 	orr.w	r3, r3, r4, lsl #16
 80076ba:	454f      	cmp	r7, r9
 80076bc:	ea4f 4814 	mov.w	r8, r4, lsr #16
 80076c0:	f84a 3b04 	str.w	r3, [sl], #4
 80076c4:	d901      	bls.n	80076ca <__multiply+0xb4>
 80076c6:	46d6      	mov	lr, sl
 80076c8:	e7e1      	b.n	800768e <__multiply+0x78>
 80076ca:	f8ce 8004 	str.w	r8, [lr, #4]
 80076ce:	9b01      	ldr	r3, [sp, #4]
 80076d0:	f8b3 a002 	ldrh.w	sl, [r3, #2]
 80076d4:	3204      	adds	r2, #4
 80076d6:	f1ba 0f00 	cmp.w	sl, #0
 80076da:	d021      	beq.n	8007720 <__multiply+0x10a>
 80076dc:	682b      	ldr	r3, [r5, #0]
 80076de:	462c      	mov	r4, r5
 80076e0:	4689      	mov	r9, r1
 80076e2:	f04f 0800 	mov.w	r8, #0
 80076e6:	f8b9 e000 	ldrh.w	lr, [r9]
 80076ea:	f8b4 b002 	ldrh.w	fp, [r4, #2]
 80076ee:	fb0a be0e 	mla	lr, sl, lr, fp
 80076f2:	44f0      	add	r8, lr
 80076f4:	46a3      	mov	fp, r4
 80076f6:	b29b      	uxth	r3, r3
 80076f8:	ea43 4308 	orr.w	r3, r3, r8, lsl #16
 80076fc:	f84b 3b04 	str.w	r3, [fp], #4
 8007700:	f859 3b04 	ldr.w	r3, [r9], #4
 8007704:	f8b4 e004 	ldrh.w	lr, [r4, #4]
 8007708:	0c1b      	lsrs	r3, r3, #16
 800770a:	fb0a e303 	mla	r3, sl, r3, lr
 800770e:	eb03 4318 	add.w	r3, r3, r8, lsr #16
 8007712:	45b9      	cmp	r9, r7
 8007714:	ea4f 4813 	mov.w	r8, r3, lsr #16
 8007718:	d201      	bcs.n	800771e <__multiply+0x108>
 800771a:	465c      	mov	r4, fp
 800771c:	e7e3      	b.n	80076e6 <__multiply+0xd0>
 800771e:	6063      	str	r3, [r4, #4]
 8007720:	3504      	adds	r5, #4
 8007722:	e7a7      	b.n	8007674 <__multiply+0x5e>
 8007724:	f85c 3d04 	ldr.w	r3, [ip, #-4]!
 8007728:	b913      	cbnz	r3, 8007730 <__multiply+0x11a>
 800772a:	3e01      	subs	r6, #1
 800772c:	2e00      	cmp	r6, #0
 800772e:	dcf9      	bgt.n	8007724 <__multiply+0x10e>
 8007730:	6106      	str	r6, [r0, #16]
 8007732:	b003      	add	sp, #12
 8007734:	e8bd 8ff0 	ldmia.w	sp!, {r4, r5, r6, r7, r8, r9, sl, fp, pc}

08007738 <__pow5mult>:
 8007738:	f012 0303 	ands.w	r3, r2, #3
 800773c:	e92d 41f0 	stmdb	sp!, {r4, r5, r6, r7, r8, lr}
 8007740:	4606      	mov	r6, r0
 8007742:	460f      	mov	r7, r1
 8007744:	4615      	mov	r5, r2
 8007746:	d007      	beq.n	8007758 <__pow5mult+0x20>
 8007748:	3b01      	subs	r3, #1
 800774a:	4a21      	ldr	r2, [pc, #132]	; (80077d0 <__pow5mult+0x98>)
 800774c:	f852 2023 	ldr.w	r2, [r2, r3, lsl #2]
 8007750:	2300      	movs	r3, #0
 8007752:	f7ff fecc 	bl	80074ee <__multadd>
 8007756:	4607      	mov	r7, r0
 8007758:	10ad      	asrs	r5, r5, #2
 800775a:	d035      	beq.n	80077c8 <__pow5mult+0x90>
 800775c:	6a74      	ldr	r4, [r6, #36]	; 0x24
 800775e:	b93c      	cbnz	r4, 8007770 <__pow5mult+0x38>
 8007760:	2010      	movs	r0, #16
 8007762:	f7ff fe65 	bl	8007430 <malloc>
 8007766:	6270      	str	r0, [r6, #36]	; 0x24
 8007768:	6044      	str	r4, [r0, #4]
 800776a:	6084      	str	r4, [r0, #8]
 800776c:	6004      	str	r4, [r0, #0]
 800776e:	60c4      	str	r4, [r0, #12]
 8007770:	f8d6 8024 	ldr.w	r8, [r6, #36]	; 0x24
 8007774:	f8d8 4008 	ldr.w	r4, [r8, #8]
 8007778:	b97c      	cbnz	r4, 800779a <__pow5mult+0x62>
 800777a:	4630      	mov	r0, r6
 800777c:	f240 2171 	movw	r1, #625	; 0x271
 8007780:	f7ff ff40 	bl	8007604 <__i2b>
 8007784:	2300      	movs	r3, #0
 8007786:	f8c8 0008 	str.w	r0, [r8, #8]
 800778a:	4604      	mov	r4, r0
 800778c:	6003      	str	r3, [r0, #0]
 800778e:	e004      	b.n	800779a <__pow5mult+0x62>
 8007790:	106d      	asrs	r5, r5, #1
 8007792:	d019      	beq.n	80077c8 <__pow5mult+0x90>
 8007794:	6820      	ldr	r0, [r4, #0]
 8007796:	b170      	cbz	r0, 80077b6 <__pow5mult+0x7e>
 8007798:	4604      	mov	r4, r0
 800779a:	07eb      	lsls	r3, r5, #31
 800779c:	d5f8      	bpl.n	8007790 <__pow5mult+0x58>
 800779e:	4639      	mov	r1, r7
 80077a0:	4622      	mov	r2, r4
 80077a2:	4630      	mov	r0, r6
 80077a4:	f7ff ff37 	bl	8007616 <__multiply>
 80077a8:	4639      	mov	r1, r7
 80077aa:	4680      	mov	r8, r0
 80077ac:	4630      	mov	r0, r6
 80077ae:	f7ff fe87 	bl	80074c0 <_Bfree>
 80077b2:	4647      	mov	r7, r8
 80077b4:	e7ec      	b.n	8007790 <__pow5mult+0x58>
 80077b6:	4630      	mov	r0, r6
 80077b8:	4621      	mov	r1, r4
 80077ba:	4622      	mov	r2, r4
 80077bc:	f7ff ff2b 	bl	8007616 <__multiply>
 80077c0:	2300      	movs	r3, #0
 80077c2:	6020      	str	r0, [r4, #0]
 80077c4:	6003      	str	r3, [r0, #0]
 80077c6:	e7e7      	b.n	8007798 <__pow5mult+0x60>
 80077c8:	4638      	mov	r0, r7
 80077ca:	e8bd 81f0 	ldmia.w	sp!, {r4, r5, r6, r7, r8, pc}
 80077ce:	bf00      	nop
 80077d0:	08008388 	.word	0x08008388

080077d4 <__lshift>:
 80077d4:	e92d 47f0 	stmdb	sp!, {r4, r5, r6, r7, r8, r9, sl, lr}
 80077d8:	460c      	mov	r4, r1
 80077da:	ea4f 1a62 	mov.w	sl, r2, asr #5
 80077de:	6923      	ldr	r3, [r4, #16]
 80077e0:	6849      	ldr	r1, [r1, #4]
 80077e2:	eb0a 0903 	add.w	r9, sl, r3
 80077e6:	68a3      	ldr	r3, [r4, #8]
 80077e8:	4607      	mov	r7, r0
 80077ea:	4616      	mov	r6, r2
 80077ec:	f109 0501 	add.w	r5, r9, #1
 80077f0:	429d      	cmp	r5, r3
 80077f2:	dd02      	ble.n	80077fa <__lshift+0x26>
 80077f4:	3101      	adds	r1, #1
 80077f6:	005b      	lsls	r3, r3, #1
 80077f8:	e7fa      	b.n	80077f0 <__lshift+0x1c>
 80077fa:	4638      	mov	r0, r7
 80077fc:	f7ff fe2b 	bl	8007456 <_Balloc>
 8007800:	2300      	movs	r3, #0
 8007802:	4680      	mov	r8, r0
 8007804:	f100 0114 	add.w	r1, r0, #20
 8007808:	4553      	cmp	r3, sl
 800780a:	da04      	bge.n	8007816 <__lshift+0x42>
 800780c:	2200      	movs	r2, #0
 800780e:	f841 2023 	str.w	r2, [r1, r3, lsl #2]
 8007812:	3301      	adds	r3, #1
 8007814:	e7f8      	b.n	8007808 <__lshift+0x34>
 8007816:	ea2a 73ea 	bic.w	r3, sl, sl, asr #31
 800781a:	6920      	ldr	r0, [r4, #16]
 800781c:	eb01 0383 	add.w	r3, r1, r3, lsl #2
 8007820:	f016 021f 	ands.w	r2, r6, #31
 8007824:	f104 0114 	add.w	r1, r4, #20
 8007828:	eb01 0e80 	add.w	lr, r1, r0, lsl #2
 800782c:	d014      	beq.n	8007858 <__lshift+0x84>
 800782e:	f1c2 0c20 	rsb	ip, r2, #32
 8007832:	2000      	movs	r0, #0
 8007834:	680e      	ldr	r6, [r1, #0]
 8007836:	4096      	lsls	r6, r2
 8007838:	4330      	orrs	r0, r6
 800783a:	469a      	mov	sl, r3
 800783c:	f843 0b04 	str.w	r0, [r3], #4
 8007840:	f851 0b04 	ldr.w	r0, [r1], #4
 8007844:	4571      	cmp	r1, lr
 8007846:	fa20 f00c 	lsr.w	r0, r0, ip
 800784a:	d3f3      	bcc.n	8007834 <__lshift+0x60>
 800784c:	f8ca 0004 	str.w	r0, [sl, #4]
 8007850:	b148      	cbz	r0, 8007866 <__lshift+0x92>
 8007852:	f109 0502 	add.w	r5, r9, #2
 8007856:	e006      	b.n	8007866 <__lshift+0x92>
 8007858:	3b04      	subs	r3, #4
 800785a:	f851 2b04 	ldr.w	r2, [r1], #4
 800785e:	f843 2f04 	str.w	r2, [r3, #4]!
 8007862:	4571      	cmp	r1, lr
 8007864:	d3f9      	bcc.n	800785a <__lshift+0x86>
 8007866:	3d01      	subs	r5, #1
 8007868:	4638      	mov	r0, r7
 800786a:	f8c8 5010 	str.w	r5, [r8, #16]
 800786e:	4621      	mov	r1, r4
 8007870:	f7ff fe26 	bl	80074c0 <_Bfree>
 8007874:	4640      	mov	r0, r8
 8007876:	e8bd 87f0 	ldmia.w	sp!, {r4, r5, r6, r7, r8, r9, sl, pc}

0800787a <__mcmp>:
 800787a:	6903      	ldr	r3, [r0, #16]
 800787c:	690a      	ldr	r2, [r1, #16]
 800787e:	1a9b      	subs	r3, r3, r2
 8007880:	b510      	push	{r4, lr}
 8007882:	d111      	bne.n	80078a8 <__mcmp+0x2e>
 8007884:	0092      	lsls	r2, r2, #2
 8007886:	3014      	adds	r0, #20
 8007888:	3114      	adds	r1, #20
 800788a:	1883      	adds	r3, r0, r2
 800788c:	440a      	add	r2, r1
 800788e:	f853 4d04 	ldr.w	r4, [r3, #-4]!
 8007892:	f852 1d04 	ldr.w	r1, [r2, #-4]!
 8007896:	428c      	cmp	r4, r1
 8007898:	d002      	beq.n	80078a0 <__mcmp+0x26>
 800789a:	d307      	bcc.n	80078ac <__mcmp+0x32>
 800789c:	2001      	movs	r0, #1
 800789e:	bd10      	pop	{r4, pc}
 80078a0:	4283      	cmp	r3, r0
 80078a2:	d8f4      	bhi.n	800788e <__mcmp+0x14>
 80078a4:	2000      	movs	r0, #0
 80078a6:	bd10      	pop	{r4, pc}
 80078a8:	4618      	mov	r0, r3
 80078aa:	bd10      	pop	{r4, pc}
 80078ac:	f04f 30ff 	mov.w	r0, #4294967295	; 0xffffffff
 80078b0:	bd10      	pop	{r4, pc}

080078b2 <__mdiff>:
 80078b2:	e92d 43f8 	stmdb	sp!, {r3, r4, r5, r6, r7, r8, r9, lr}
 80078b6:	4607      	mov	r7, r0
 80078b8:	460c      	mov	r4, r1
 80078ba:	4608      	mov	r0, r1
 80078bc:	4611      	mov	r1, r2
 80078be:	4615      	mov	r5, r2
 80078c0:	f7ff ffdb 	bl	800787a <__mcmp>
 80078c4:	1e06      	subs	r6, r0, #0
 80078c6:	d108      	bne.n	80078da <__mdiff+0x28>
 80078c8:	4638      	mov	r0, r7
 80078ca:	4631      	mov	r1, r6
 80078cc:	f7ff fdc3 	bl	8007456 <_Balloc>
 80078d0:	2301      	movs	r3, #1
 80078d2:	6103      	str	r3, [r0, #16]
 80078d4:	6146      	str	r6, [r0, #20]
 80078d6:	e8bd 83f8 	ldmia.w	sp!, {r3, r4, r5, r6, r7, r8, r9, pc}
 80078da:	bfbc      	itt	lt
 80078dc:	4623      	movlt	r3, r4
 80078de:	462c      	movlt	r4, r5
 80078e0:	4638      	mov	r0, r7
 80078e2:	6861      	ldr	r1, [r4, #4]
 80078e4:	bfba      	itte	lt
 80078e6:	461d      	movlt	r5, r3
 80078e8:	2601      	movlt	r6, #1
 80078ea:	2600      	movge	r6, #0
 80078ec:	f7ff fdb3 	bl	8007456 <_Balloc>
 80078f0:	692b      	ldr	r3, [r5, #16]
 80078f2:	60c6      	str	r6, [r0, #12]
 80078f4:	6926      	ldr	r6, [r4, #16]
 80078f6:	f105 0914 	add.w	r9, r5, #20
 80078fa:	3414      	adds	r4, #20
 80078fc:	eb04 0786 	add.w	r7, r4, r6, lsl #2
 8007900:	eb09 0883 	add.w	r8, r9, r3, lsl #2
 8007904:	f100 0514 	add.w	r5, r0, #20
 8007908:	f04f 0c00 	mov.w	ip, #0
 800790c:	f854 3b04 	ldr.w	r3, [r4], #4
 8007910:	f859 2b04 	ldr.w	r2, [r9], #4
 8007914:	fa1c f183 	uxtah	r1, ip, r3
 8007918:	fa1f fe82 	uxth.w	lr, r2
 800791c:	0c12      	lsrs	r2, r2, #16
 800791e:	ebce 0101 	rsb	r1, lr, r1
 8007922:	ebc2 4313 	rsb	r3, r2, r3, lsr #16
 8007926:	eb03 4321 	add.w	r3, r3, r1, asr #16
 800792a:	b289      	uxth	r1, r1
 800792c:	ea4f 4c23 	mov.w	ip, r3, asr #16
 8007930:	45c8      	cmp	r8, r9
 8007932:	ea41 4303 	orr.w	r3, r1, r3, lsl #16
 8007936:	46a6      	mov	lr, r4
 8007938:	f845 3b04 	str.w	r3, [r5], #4
 800793c:	d8e6      	bhi.n	800790c <__mdiff+0x5a>
 800793e:	45be      	cmp	lr, r7
 8007940:	d20e      	bcs.n	8007960 <__mdiff+0xae>
 8007942:	f85e 2b04 	ldr.w	r2, [lr], #4
 8007946:	fa1c f482 	uxtah	r4, ip, r2
 800794a:	0c12      	lsrs	r2, r2, #16
 800794c:	eb02 4224 	add.w	r2, r2, r4, asr #16
 8007950:	b2a4      	uxth	r4, r4
 8007952:	ea4f 4c22 	mov.w	ip, r2, asr #16
 8007956:	ea44 4202 	orr.w	r2, r4, r2, lsl #16
 800795a:	f845 2b04 	str.w	r2, [r5], #4
 800795e:	e7ee      	b.n	800793e <__mdiff+0x8c>
 8007960:	f855 3d04 	ldr.w	r3, [r5, #-4]!
 8007964:	b90b      	cbnz	r3, 800796a <__mdiff+0xb8>
 8007966:	3e01      	subs	r6, #1
 8007968:	e7fa      	b.n	8007960 <__mdiff+0xae>
 800796a:	6106      	str	r6, [r0, #16]
 800796c:	e8bd 83f8 	ldmia.w	sp!, {r3, r4, r5, r6, r7, r8, r9, pc}

08007970 <__d2b>:
 8007970:	e92d 41f3 	stmdb	sp!, {r0, r1, r4, r5, r6, r7, r8, lr}
 8007974:	460f      	mov	r7, r1
 8007976:	2101      	movs	r1, #1
 8007978:	ec55 4b10 	vmov	r4, r5, d0
 800797c:	4616      	mov	r6, r2
 800797e:	f7ff fd6a 	bl	8007456 <_Balloc>
 8007982:	f3c5 0313 	ubfx	r3, r5, #0, #20
 8007986:	f3c5 550a 	ubfx	r5, r5, #20, #11
 800798a:	4680      	mov	r8, r0
 800798c:	b10d      	cbz	r5, 8007992 <__d2b+0x22>
 800798e:	f443 1380 	orr.w	r3, r3, #1048576	; 0x100000
 8007992:	9301      	str	r3, [sp, #4]
 8007994:	b1ec      	cbz	r4, 80079d2 <__d2b+0x62>
 8007996:	a802      	add	r0, sp, #8
 8007998:	f840 4d08 	str.w	r4, [r0, #-8]!
 800799c:	f7ff fe05 	bl	80075aa <__lo0bits>
 80079a0:	9b00      	ldr	r3, [sp, #0]
 80079a2:	b150      	cbz	r0, 80079ba <__d2b+0x4a>
 80079a4:	9a01      	ldr	r2, [sp, #4]
 80079a6:	f1c0 0120 	rsb	r1, r0, #32
 80079aa:	fa02 f101 	lsl.w	r1, r2, r1
 80079ae:	430b      	orrs	r3, r1
 80079b0:	40c2      	lsrs	r2, r0
 80079b2:	f8c8 3014 	str.w	r3, [r8, #20]
 80079b6:	9201      	str	r2, [sp, #4]
 80079b8:	e001      	b.n	80079be <__d2b+0x4e>
 80079ba:	f8c8 3014 	str.w	r3, [r8, #20]
 80079be:	9b01      	ldr	r3, [sp, #4]
 80079c0:	f8c8 3018 	str.w	r3, [r8, #24]
 80079c4:	2b00      	cmp	r3, #0
 80079c6:	bf14      	ite	ne
 80079c8:	2402      	movne	r4, #2
 80079ca:	2401      	moveq	r4, #1
 80079cc:	f8c8 4010 	str.w	r4, [r8, #16]
 80079d0:	e009      	b.n	80079e6 <__d2b+0x76>
 80079d2:	a801      	add	r0, sp, #4
 80079d4:	f7ff fde9 	bl	80075aa <__lo0bits>
 80079d8:	2401      	movs	r4, #1
 80079da:	9b01      	ldr	r3, [sp, #4]
 80079dc:	f8c8 3014 	str.w	r3, [r8, #20]
 80079e0:	f8c8 4010 	str.w	r4, [r8, #16]
 80079e4:	3020      	adds	r0, #32
 80079e6:	b135      	cbz	r5, 80079f6 <__d2b+0x86>
 80079e8:	f2a5 4533 	subw	r5, r5, #1075	; 0x433
 80079ec:	4405      	add	r5, r0
 80079ee:	603d      	str	r5, [r7, #0]
 80079f0:	f1c0 0035 	rsb	r0, r0, #53	; 0x35
 80079f4:	e009      	b.n	8007a0a <__d2b+0x9a>
 80079f6:	eb08 0384 	add.w	r3, r8, r4, lsl #2
 80079fa:	f2a0 4032 	subw	r0, r0, #1074	; 0x432
 80079fe:	6038      	str	r0, [r7, #0]
 8007a00:	6918      	ldr	r0, [r3, #16]
 8007a02:	f7ff fdb2 	bl	800756a <__hi0bits>
 8007a06:	ebc0 1044 	rsb	r0, r0, r4, lsl #5
 8007a0a:	6030      	str	r0, [r6, #0]
 8007a0c:	4640      	mov	r0, r8
 8007a0e:	b002      	add	sp, #8
 8007a10:	e8bd 81f0 	ldmia.w	sp!, {r4, r5, r6, r7, r8, pc}

08007a14 <_calloc_r>:
 8007a14:	b538      	push	{r3, r4, r5, lr}
 8007a16:	fb02 f401 	mul.w	r4, r2, r1
 8007a1a:	4621      	mov	r1, r4
 8007a1c:	f000 f808 	bl	8007a30 <_malloc_r>
 8007a20:	4605      	mov	r5, r0
 8007a22:	b118      	cbz	r0, 8007a2c <_calloc_r+0x18>
 8007a24:	2100      	movs	r1, #0
 8007a26:	4622      	mov	r2, r4
 8007a28:	f7fe fb2c 	bl	8006084 <memset>
 8007a2c:	4628      	mov	r0, r5
 8007a2e:	bd38      	pop	{r3, r4, r5, pc}

08007a30 <_malloc_r>:
 8007a30:	b570      	push	{r4, r5, r6, lr}
 8007a32:	1ccc      	adds	r4, r1, #3
 8007a34:	f024 0403 	bic.w	r4, r4, #3
 8007a38:	3408      	adds	r4, #8
 8007a3a:	2c0c      	cmp	r4, #12
 8007a3c:	bf38      	it	cc
 8007a3e:	240c      	movcc	r4, #12
 8007a40:	2c00      	cmp	r4, #0
 8007a42:	4606      	mov	r6, r0
 8007a44:	da03      	bge.n	8007a4e <_malloc_r+0x1e>
 8007a46:	230c      	movs	r3, #12
 8007a48:	6033      	str	r3, [r6, #0]
 8007a4a:	2000      	movs	r0, #0
 8007a4c:	bd70      	pop	{r4, r5, r6, pc}
 8007a4e:	428c      	cmp	r4, r1
 8007a50:	d3f9      	bcc.n	8007a46 <_malloc_r+0x16>
 8007a52:	4a20      	ldr	r2, [pc, #128]	; (8007ad4 <_malloc_r+0xa4>)
 8007a54:	6813      	ldr	r3, [r2, #0]
 8007a56:	4610      	mov	r0, r2
 8007a58:	4619      	mov	r1, r3
 8007a5a:	b1a1      	cbz	r1, 8007a86 <_malloc_r+0x56>
 8007a5c:	680a      	ldr	r2, [r1, #0]
 8007a5e:	1b12      	subs	r2, r2, r4
 8007a60:	d40e      	bmi.n	8007a80 <_malloc_r+0x50>
 8007a62:	2a0b      	cmp	r2, #11
 8007a64:	d903      	bls.n	8007a6e <_malloc_r+0x3e>
 8007a66:	600a      	str	r2, [r1, #0]
 8007a68:	188b      	adds	r3, r1, r2
 8007a6a:	508c      	str	r4, [r1, r2]
 8007a6c:	e01f      	b.n	8007aae <_malloc_r+0x7e>
 8007a6e:	428b      	cmp	r3, r1
 8007a70:	bf0d      	iteet	eq
 8007a72:	685a      	ldreq	r2, [r3, #4]
 8007a74:	684a      	ldrne	r2, [r1, #4]
 8007a76:	605a      	strne	r2, [r3, #4]
 8007a78:	6002      	streq	r2, [r0, #0]
 8007a7a:	bf18      	it	ne
 8007a7c:	460b      	movne	r3, r1
 8007a7e:	e016      	b.n	8007aae <_malloc_r+0x7e>
 8007a80:	460b      	mov	r3, r1
 8007a82:	6849      	ldr	r1, [r1, #4]
 8007a84:	e7e9      	b.n	8007a5a <_malloc_r+0x2a>
 8007a86:	4d14      	ldr	r5, [pc, #80]	; (8007ad8 <_malloc_r+0xa8>)
 8007a88:	682b      	ldr	r3, [r5, #0]
 8007a8a:	b91b      	cbnz	r3, 8007a94 <_malloc_r+0x64>
 8007a8c:	4630      	mov	r0, r6
 8007a8e:	f000 f825 	bl	8007adc <_sbrk_r>
 8007a92:	6028      	str	r0, [r5, #0]
 8007a94:	4630      	mov	r0, r6
 8007a96:	4621      	mov	r1, r4
 8007a98:	f000 f820 	bl	8007adc <_sbrk_r>
 8007a9c:	1c42      	adds	r2, r0, #1
 8007a9e:	4603      	mov	r3, r0
 8007aa0:	d0d1      	beq.n	8007a46 <_malloc_r+0x16>
 8007aa2:	1cc5      	adds	r5, r0, #3
 8007aa4:	f025 0503 	bic.w	r5, r5, #3
 8007aa8:	4285      	cmp	r5, r0
 8007aaa:	d10a      	bne.n	8007ac2 <_malloc_r+0x92>
 8007aac:	601c      	str	r4, [r3, #0]
 8007aae:	f103 000b 	add.w	r0, r3, #11
 8007ab2:	1d1a      	adds	r2, r3, #4
 8007ab4:	f020 0007 	bic.w	r0, r0, #7
 8007ab8:	1a82      	subs	r2, r0, r2
 8007aba:	d00a      	beq.n	8007ad2 <_malloc_r+0xa2>
 8007abc:	4251      	negs	r1, r2
 8007abe:	5099      	str	r1, [r3, r2]
 8007ac0:	bd70      	pop	{r4, r5, r6, pc}
 8007ac2:	4630      	mov	r0, r6
 8007ac4:	1ae9      	subs	r1, r5, r3
 8007ac6:	f000 f809 	bl	8007adc <_sbrk_r>
 8007aca:	3001      	adds	r0, #1
 8007acc:	d0bb      	beq.n	8007a46 <_malloc_r+0x16>
 8007ace:	462b      	mov	r3, r5
 8007ad0:	e7ec      	b.n	8007aac <_malloc_r+0x7c>
 8007ad2:	bd70      	pop	{r4, r5, r6, pc}
 8007ad4:	200000fc 	.word	0x200000fc
 8007ad8:	200000f8 	.word	0x200000f8

08007adc <_sbrk_r>:
 8007adc:	b538      	push	{r3, r4, r5, lr}
 8007ade:	4c06      	ldr	r4, [pc, #24]	; (8007af8 <_sbrk_r+0x1c>)
 8007ae0:	2300      	movs	r3, #0
 8007ae2:	4605      	mov	r5, r0
 8007ae4:	4608      	mov	r0, r1
 8007ae6:	6023      	str	r3, [r4, #0]
 8007ae8:	f000 f808 	bl	8007afc <_sbrk>
 8007aec:	1c43      	adds	r3, r0, #1
 8007aee:	d102      	bne.n	8007af6 <_sbrk_r+0x1a>
 8007af0:	6823      	ldr	r3, [r4, #0]
 8007af2:	b103      	cbz	r3, 8007af6 <_sbrk_r+0x1a>
 8007af4:	602b      	str	r3, [r5, #0]
 8007af6:	bd38      	pop	{r3, r4, r5, pc}
 8007af8:	200022d4 	.word	0x200022d4

08007afc <_sbrk>:
 8007afc:	4a04      	ldr	r2, [pc, #16]	; (8007b10 <_sbrk+0x14>)
 8007afe:	4905      	ldr	r1, [pc, #20]	; (8007b14 <_sbrk+0x18>)
 8007b00:	6813      	ldr	r3, [r2, #0]
 8007b02:	2b00      	cmp	r3, #0
 8007b04:	bf08      	it	eq
 8007b06:	460b      	moveq	r3, r1
 8007b08:	4418      	add	r0, r3
 8007b0a:	6010      	str	r0, [r2, #0]
 8007b0c:	4618      	mov	r0, r3
 8007b0e:	4770      	bx	lr
 8007b10:	20000100 	.word	0x20000100
 8007b14:	200022d8 	.word	0x200022d8

08007b18 <_init>:
 8007b18:	b5f8      	push	{r3, r4, r5, r6, r7, lr}
 8007b1a:	bf00      	nop
 8007b1c:	bcf8      	pop	{r3, r4, r5, r6, r7}
 8007b1e:	bc08      	pop	{r3}
 8007b20:	469e      	mov	lr, r3
 8007b22:	4770      	bx	lr

08007b24 <_fini>:
 8007b24:	b5f8      	push	{r3, r4, r5, r6, r7, lr}
 8007b26:	bf00      	nop
 8007b28:	bcf8      	pop	{r3, r4, r5, r6, r7}
 8007b2a:	bc08      	pop	{r3}
 8007b2c:	469e      	mov	lr, r3
 8007b2e:	4770      	bx	lr
