
build/filesystem.elf:     file format elf32-littlearm


Disassembly of section .text:

08000188 <__do_global_dtors_aux>:
 8000188:	b510      	push	{r4, lr}
 800018a:	4c05      	ldr	r4, [pc, #20]	; (80001a0 <__do_global_dtors_aux+0x18>)
 800018c:	7823      	ldrb	r3, [r4, #0]
 800018e:	b933      	cbnz	r3, 800019e <__do_global_dtors_aux+0x16>
 8000190:	4b04      	ldr	r3, [pc, #16]	; (80001a4 <__do_global_dtors_aux+0x1c>)
 8000192:	b113      	cbz	r3, 800019a <__do_global_dtors_aux+0x12>
 8000194:	4804      	ldr	r0, [pc, #16]	; (80001a8 <__do_global_dtors_aux+0x20>)
 8000196:	f3af 8000 	nop.w
 800019a:	2301      	movs	r3, #1
 800019c:	7023      	strb	r3, [r4, #0]
 800019e:	bd10      	pop	{r4, pc}
 80001a0:	200000a8 	.word	0x200000a8
 80001a4:	00000000 	.word	0x00000000
 80001a8:	08007b18 	.word	0x08007b18

080001ac <frame_dummy>:
 80001ac:	4b08      	ldr	r3, [pc, #32]	; (80001d0 <frame_dummy+0x24>)
 80001ae:	b510      	push	{r4, lr}
 80001b0:	b11b      	cbz	r3, 80001ba <frame_dummy+0xe>
 80001b2:	4808      	ldr	r0, [pc, #32]	; (80001d4 <frame_dummy+0x28>)
 80001b4:	4908      	ldr	r1, [pc, #32]	; (80001d8 <frame_dummy+0x2c>)
 80001b6:	f3af 8000 	nop.w
 80001ba:	4808      	ldr	r0, [pc, #32]	; (80001dc <frame_dummy+0x30>)
 80001bc:	6803      	ldr	r3, [r0, #0]
 80001be:	b903      	cbnz	r3, 80001c2 <frame_dummy+0x16>
 80001c0:	bd10      	pop	{r4, pc}
 80001c2:	4b07      	ldr	r3, [pc, #28]	; (80001e0 <frame_dummy+0x34>)
 80001c4:	2b00      	cmp	r3, #0
 80001c6:	d0fb      	beq.n	80001c0 <frame_dummy+0x14>
 80001c8:	e8bd 4010 	ldmia.w	sp!, {r4, lr}
 80001cc:	4718      	bx	r3
 80001ce:	bf00      	nop
 80001d0:	00000000 	.word	0x00000000
 80001d4:	08007b18 	.word	0x08007b18
 80001d8:	200000ac 	.word	0x200000ac
 80001dc:	200000a8 	.word	0x200000a8
 80001e0:	00000000 	.word	0x00000000

080001e4 <__aeabi_drsub>:
 80001e4:	f081 4100 	eor.w	r1, r1, #2147483648	; 0x80000000
 80001e8:	e002      	b.n	80001f0 <__adddf3>
 80001ea:	bf00      	nop

080001ec <__aeabi_dsub>:
 80001ec:	f083 4300 	eor.w	r3, r3, #2147483648	; 0x80000000

080001f0 <__adddf3>:
 80001f0:	b530      	push	{r4, r5, lr}
 80001f2:	ea4f 0441 	mov.w	r4, r1, lsl #1
 80001f6:	ea4f 0543 	mov.w	r5, r3, lsl #1
 80001fa:	ea94 0f05 	teq	r4, r5
 80001fe:	bf08      	it	eq
 8000200:	ea90 0f02 	teqeq	r0, r2
 8000204:	bf1f      	itttt	ne
 8000206:	ea54 0c00 	orrsne.w	ip, r4, r0
 800020a:	ea55 0c02 	orrsne.w	ip, r5, r2
 800020e:	ea7f 5c64 	mvnsne.w	ip, r4, asr #21
 8000212:	ea7f 5c65 	mvnsne.w	ip, r5, asr #21
 8000216:	f000 80e2 	beq.w	80003de <__adddf3+0x1ee>
 800021a:	ea4f 5454 	mov.w	r4, r4, lsr #21
 800021e:	ebd4 5555 	rsbs	r5, r4, r5, lsr #21
 8000222:	bfb8      	it	lt
 8000224:	426d      	neglt	r5, r5
 8000226:	dd0c      	ble.n	8000242 <__adddf3+0x52>
 8000228:	442c      	add	r4, r5
 800022a:	ea80 0202 	eor.w	r2, r0, r2
 800022e:	ea81 0303 	eor.w	r3, r1, r3
 8000232:	ea82 0000 	eor.w	r0, r2, r0
 8000236:	ea83 0101 	eor.w	r1, r3, r1
 800023a:	ea80 0202 	eor.w	r2, r0, r2
 800023e:	ea81 0303 	eor.w	r3, r1, r3
 8000242:	2d36      	cmp	r5, #54	; 0x36
 8000244:	bf88      	it	hi
 8000246:	bd30      	pophi	{r4, r5, pc}
 8000248:	f011 4f00 	tst.w	r1, #2147483648	; 0x80000000
 800024c:	ea4f 3101 	mov.w	r1, r1, lsl #12
 8000250:	f44f 1c80 	mov.w	ip, #1048576	; 0x100000
 8000254:	ea4c 3111 	orr.w	r1, ip, r1, lsr #12
 8000258:	d002      	beq.n	8000260 <__adddf3+0x70>
 800025a:	4240      	negs	r0, r0
 800025c:	eb61 0141 	sbc.w	r1, r1, r1, lsl #1
 8000260:	f013 4f00 	tst.w	r3, #2147483648	; 0x80000000
 8000264:	ea4f 3303 	mov.w	r3, r3, lsl #12
 8000268:	ea4c 3313 	orr.w	r3, ip, r3, lsr #12
 800026c:	d002      	beq.n	8000274 <__adddf3+0x84>
 800026e:	4252      	negs	r2, r2
 8000270:	eb63 0343 	sbc.w	r3, r3, r3, lsl #1
 8000274:	ea94 0f05 	teq	r4, r5
 8000278:	f000 80a7 	beq.w	80003ca <__adddf3+0x1da>
 800027c:	f1a4 0401 	sub.w	r4, r4, #1
 8000280:	f1d5 0e20 	rsbs	lr, r5, #32
 8000284:	db0d      	blt.n	80002a2 <__adddf3+0xb2>
 8000286:	fa02 fc0e 	lsl.w	ip, r2, lr
 800028a:	fa22 f205 	lsr.w	r2, r2, r5
 800028e:	1880      	adds	r0, r0, r2
 8000290:	f141 0100 	adc.w	r1, r1, #0
 8000294:	fa03 f20e 	lsl.w	r2, r3, lr
 8000298:	1880      	adds	r0, r0, r2
 800029a:	fa43 f305 	asr.w	r3, r3, r5
 800029e:	4159      	adcs	r1, r3
 80002a0:	e00e      	b.n	80002c0 <__adddf3+0xd0>
 80002a2:	f1a5 0520 	sub.w	r5, r5, #32
 80002a6:	f10e 0e20 	add.w	lr, lr, #32
 80002aa:	2a01      	cmp	r2, #1
 80002ac:	fa03 fc0e 	lsl.w	ip, r3, lr
 80002b0:	bf28      	it	cs
 80002b2:	f04c 0c02 	orrcs.w	ip, ip, #2
 80002b6:	fa43 f305 	asr.w	r3, r3, r5
 80002ba:	18c0      	adds	r0, r0, r3
 80002bc:	eb51 71e3 	adcs.w	r1, r1, r3, asr #31
 80002c0:	f001 4500 	and.w	r5, r1, #2147483648	; 0x80000000
 80002c4:	d507      	bpl.n	80002d6 <__adddf3+0xe6>
 80002c6:	f04f 0e00 	mov.w	lr, #0
 80002ca:	f1dc 0c00 	rsbs	ip, ip, #0
 80002ce:	eb7e 0000 	sbcs.w	r0, lr, r0
 80002d2:	eb6e 0101 	sbc.w	r1, lr, r1
 80002d6:	f5b1 1f80 	cmp.w	r1, #1048576	; 0x100000
 80002da:	d31b      	bcc.n	8000314 <__adddf3+0x124>
 80002dc:	f5b1 1f00 	cmp.w	r1, #2097152	; 0x200000
 80002e0:	d30c      	bcc.n	80002fc <__adddf3+0x10c>
 80002e2:	0849      	lsrs	r1, r1, #1
 80002e4:	ea5f 0030 	movs.w	r0, r0, rrx
 80002e8:	ea4f 0c3c 	mov.w	ip, ip, rrx
 80002ec:	f104 0401 	add.w	r4, r4, #1
 80002f0:	ea4f 5244 	mov.w	r2, r4, lsl #21
 80002f4:	f512 0f80 	cmn.w	r2, #4194304	; 0x400000
 80002f8:	f080 809a 	bcs.w	8000430 <__adddf3+0x240>
 80002fc:	f1bc 4f00 	cmp.w	ip, #2147483648	; 0x80000000
 8000300:	bf08      	it	eq
 8000302:	ea5f 0c50 	movseq.w	ip, r0, lsr #1
 8000306:	f150 0000 	adcs.w	r0, r0, #0
 800030a:	eb41 5104 	adc.w	r1, r1, r4, lsl #20
 800030e:	ea41 0105 	orr.w	r1, r1, r5
 8000312:	bd30      	pop	{r4, r5, pc}
 8000314:	ea5f 0c4c 	movs.w	ip, ip, lsl #1
 8000318:	4140      	adcs	r0, r0
 800031a:	eb41 0101 	adc.w	r1, r1, r1
 800031e:	f411 1f80 	tst.w	r1, #1048576	; 0x100000
 8000322:	f1a4 0401 	sub.w	r4, r4, #1
 8000326:	d1e9      	bne.n	80002fc <__adddf3+0x10c>
 8000328:	f091 0f00 	teq	r1, #0
 800032c:	bf04      	itt	eq
 800032e:	4601      	moveq	r1, r0
 8000330:	2000      	moveq	r0, #0
 8000332:	fab1 f381 	clz	r3, r1
 8000336:	bf08      	it	eq
 8000338:	3320      	addeq	r3, #32
 800033a:	f1a3 030b 	sub.w	r3, r3, #11
 800033e:	f1b3 0220 	subs.w	r2, r3, #32
 8000342:	da0c      	bge.n	800035e <__adddf3+0x16e>
 8000344:	320c      	adds	r2, #12
 8000346:	dd08      	ble.n	800035a <__adddf3+0x16a>
 8000348:	f102 0c14 	add.w	ip, r2, #20
 800034c:	f1c2 020c 	rsb	r2, r2, #12
 8000350:	fa01 f00c 	lsl.w	r0, r1, ip
 8000354:	fa21 f102 	lsr.w	r1, r1, r2
 8000358:	e00c      	b.n	8000374 <__adddf3+0x184>
 800035a:	f102 0214 	add.w	r2, r2, #20
 800035e:	bfd8      	it	le
 8000360:	f1c2 0c20 	rsble	ip, r2, #32
 8000364:	fa01 f102 	lsl.w	r1, r1, r2
 8000368:	fa20 fc0c 	lsr.w	ip, r0, ip
 800036c:	bfdc      	itt	le
 800036e:	ea41 010c 	orrle.w	r1, r1, ip
 8000372:	4090      	lslle	r0, r2
 8000374:	1ae4      	subs	r4, r4, r3
 8000376:	bfa2      	ittt	ge
 8000378:	eb01 5104 	addge.w	r1, r1, r4, lsl #20
 800037c:	4329      	orrge	r1, r5
 800037e:	bd30      	popge	{r4, r5, pc}
 8000380:	ea6f 0404 	mvn.w	r4, r4
 8000384:	3c1f      	subs	r4, #31
 8000386:	da1c      	bge.n	80003c2 <__adddf3+0x1d2>
 8000388:	340c      	adds	r4, #12
 800038a:	dc0e      	bgt.n	80003aa <__adddf3+0x1ba>
 800038c:	f104 0414 	add.w	r4, r4, #20
 8000390:	f1c4 0220 	rsb	r2, r4, #32
 8000394:	fa20 f004 	lsr.w	r0, r0, r4
 8000398:	fa01 f302 	lsl.w	r3, r1, r2
 800039c:	ea40 0003 	orr.w	r0, r0, r3
 80003a0:	fa21 f304 	lsr.w	r3, r1, r4
 80003a4:	ea45 0103 	orr.w	r1, r5, r3
 80003a8:	bd30      	pop	{r4, r5, pc}
 80003aa:	f1c4 040c 	rsb	r4, r4, #12
 80003ae:	f1c4 0220 	rsb	r2, r4, #32
 80003b2:	fa20 f002 	lsr.w	r0, r0, r2
 80003b6:	fa01 f304 	lsl.w	r3, r1, r4
 80003ba:	ea40 0003 	orr.w	r0, r0, r3
 80003be:	4629      	mov	r1, r5
 80003c0:	bd30      	pop	{r4, r5, pc}
 80003c2:	fa21 f004 	lsr.w	r0, r1, r4
 80003c6:	4629      	mov	r1, r5
 80003c8:	bd30      	pop	{r4, r5, pc}
 80003ca:	f094 0f00 	teq	r4, #0
 80003ce:	f483 1380 	eor.w	r3, r3, #1048576	; 0x100000
 80003d2:	bf06      	itte	eq
 80003d4:	f481 1180 	eoreq.w	r1, r1, #1048576	; 0x100000
 80003d8:	3401      	addeq	r4, #1
 80003da:	3d01      	subne	r5, #1
 80003dc:	e74e      	b.n	800027c <__adddf3+0x8c>
 80003de:	ea7f 5c64 	mvns.w	ip, r4, asr #21
 80003e2:	bf18      	it	ne
 80003e4:	ea7f 5c65 	mvnsne.w	ip, r5, asr #21
 80003e8:	d029      	beq.n	800043e <__adddf3+0x24e>
 80003ea:	ea94 0f05 	teq	r4, r5
 80003ee:	bf08      	it	eq
 80003f0:	ea90 0f02 	teqeq	r0, r2
 80003f4:	d005      	beq.n	8000402 <__adddf3+0x212>
 80003f6:	ea54 0c00 	orrs.w	ip, r4, r0
 80003fa:	bf04      	itt	eq
 80003fc:	4619      	moveq	r1, r3
 80003fe:	4610      	moveq	r0, r2
 8000400:	bd30      	pop	{r4, r5, pc}
 8000402:	ea91 0f03 	teq	r1, r3
 8000406:	bf1e      	ittt	ne
 8000408:	2100      	movne	r1, #0
 800040a:	2000      	movne	r0, #0
 800040c:	bd30      	popne	{r4, r5, pc}
 800040e:	ea5f 5c54 	movs.w	ip, r4, lsr #21
 8000412:	d105      	bne.n	8000420 <__adddf3+0x230>
 8000414:	0040      	lsls	r0, r0, #1
 8000416:	4149      	adcs	r1, r1
 8000418:	bf28      	it	cs
 800041a:	f041 4100 	orrcs.w	r1, r1, #2147483648	; 0x80000000
 800041e:	bd30      	pop	{r4, r5, pc}
 8000420:	f514 0480 	adds.w	r4, r4, #4194304	; 0x400000
 8000424:	bf3c      	itt	cc
 8000426:	f501 1180 	addcc.w	r1, r1, #1048576	; 0x100000
 800042a:	bd30      	popcc	{r4, r5, pc}
 800042c:	f001 4500 	and.w	r5, r1, #2147483648	; 0x80000000
 8000430:	f045 41fe 	orr.w	r1, r5, #2130706432	; 0x7f000000
 8000434:	f441 0170 	orr.w	r1, r1, #15728640	; 0xf00000
 8000438:	f04f 0000 	mov.w	r0, #0
 800043c:	bd30      	pop	{r4, r5, pc}
 800043e:	ea7f 5c64 	mvns.w	ip, r4, asr #21
 8000442:	bf1a      	itte	ne
 8000444:	4619      	movne	r1, r3
 8000446:	4610      	movne	r0, r2
 8000448:	ea7f 5c65 	mvnseq.w	ip, r5, asr #21
 800044c:	bf1c      	itt	ne
 800044e:	460b      	movne	r3, r1
 8000450:	4602      	movne	r2, r0
 8000452:	ea50 3401 	orrs.w	r4, r0, r1, lsl #12
 8000456:	bf06      	itte	eq
 8000458:	ea52 3503 	orrseq.w	r5, r2, r3, lsl #12
 800045c:	ea91 0f03 	teqeq	r1, r3
 8000460:	f441 2100 	orrne.w	r1, r1, #524288	; 0x80000
 8000464:	bd30      	pop	{r4, r5, pc}
 8000466:	bf00      	nop

08000468 <__aeabi_ui2d>:
 8000468:	f090 0f00 	teq	r0, #0
 800046c:	bf04      	itt	eq
 800046e:	2100      	moveq	r1, #0
 8000470:	4770      	bxeq	lr
 8000472:	b530      	push	{r4, r5, lr}
 8000474:	f44f 6480 	mov.w	r4, #1024	; 0x400
 8000478:	f104 0432 	add.w	r4, r4, #50	; 0x32
 800047c:	f04f 0500 	mov.w	r5, #0
 8000480:	f04f 0100 	mov.w	r1, #0
 8000484:	e750      	b.n	8000328 <__adddf3+0x138>
 8000486:	bf00      	nop

08000488 <__aeabi_i2d>:
 8000488:	f090 0f00 	teq	r0, #0
 800048c:	bf04      	itt	eq
 800048e:	2100      	moveq	r1, #0
 8000490:	4770      	bxeq	lr
 8000492:	b530      	push	{r4, r5, lr}
 8000494:	f44f 6480 	mov.w	r4, #1024	; 0x400
 8000498:	f104 0432 	add.w	r4, r4, #50	; 0x32
 800049c:	f010 4500 	ands.w	r5, r0, #2147483648	; 0x80000000
 80004a0:	bf48      	it	mi
 80004a2:	4240      	negmi	r0, r0
 80004a4:	f04f 0100 	mov.w	r1, #0
 80004a8:	e73e      	b.n	8000328 <__adddf3+0x138>
 80004aa:	bf00      	nop

080004ac <__aeabi_f2d>:
 80004ac:	0042      	lsls	r2, r0, #1
 80004ae:	ea4f 01e2 	mov.w	r1, r2, asr #3
 80004b2:	ea4f 0131 	mov.w	r1, r1, rrx
 80004b6:	ea4f 7002 	mov.w	r0, r2, lsl #28
 80004ba:	bf1f      	itttt	ne
 80004bc:	f012 437f 	andsne.w	r3, r2, #4278190080	; 0xff000000
 80004c0:	f093 4f7f 	teqne	r3, #4278190080	; 0xff000000
 80004c4:	f081 5160 	eorne.w	r1, r1, #939524096	; 0x38000000
 80004c8:	4770      	bxne	lr
 80004ca:	f092 0f00 	teq	r2, #0
 80004ce:	bf14      	ite	ne
 80004d0:	f093 4f7f 	teqne	r3, #4278190080	; 0xff000000
 80004d4:	4770      	bxeq	lr
 80004d6:	b530      	push	{r4, r5, lr}
 80004d8:	f44f 7460 	mov.w	r4, #896	; 0x380
 80004dc:	f001 4500 	and.w	r5, r1, #2147483648	; 0x80000000
 80004e0:	f021 4100 	bic.w	r1, r1, #2147483648	; 0x80000000
 80004e4:	e720      	b.n	8000328 <__adddf3+0x138>
 80004e6:	bf00      	nop

080004e8 <__aeabi_ul2d>:
 80004e8:	ea50 0201 	orrs.w	r2, r0, r1
 80004ec:	bf08      	it	eq
 80004ee:	4770      	bxeq	lr
 80004f0:	b530      	push	{r4, r5, lr}
 80004f2:	f04f 0500 	mov.w	r5, #0
 80004f6:	e00a      	b.n	800050e <__aeabi_l2d+0x16>

080004f8 <__aeabi_l2d>:
 80004f8:	ea50 0201 	orrs.w	r2, r0, r1
 80004fc:	bf08      	it	eq
 80004fe:	4770      	bxeq	lr
 8000500:	b530      	push	{r4, r5, lr}
 8000502:	f011 4500 	ands.w	r5, r1, #2147483648	; 0x80000000
 8000506:	d502      	bpl.n	800050e <__aeabi_l2d+0x16>
 8000508:	4240      	negs	r0, r0
 800050a:	eb61 0141 	sbc.w	r1, r1, r1, lsl #1
 800050e:	f44f 6480 	mov.w	r4, #1024	; 0x400
 8000512:	f104 0432 	add.w	r4, r4, #50	; 0x32
 8000516:	ea5f 5c91 	movs.w	ip, r1, lsr #22
 800051a:	f43f aedc 	beq.w	80002d6 <__adddf3+0xe6>
 800051e:	f04f 0203 	mov.w	r2, #3
 8000522:	ea5f 0cdc 	movs.w	ip, ip, lsr #3
 8000526:	bf18      	it	ne
 8000528:	3203      	addne	r2, #3
 800052a:	ea5f 0cdc 	movs.w	ip, ip, lsr #3
 800052e:	bf18      	it	ne
 8000530:	3203      	addne	r2, #3
 8000532:	eb02 02dc 	add.w	r2, r2, ip, lsr #3
 8000536:	f1c2 0320 	rsb	r3, r2, #32
 800053a:	fa00 fc03 	lsl.w	ip, r0, r3
 800053e:	fa20 f002 	lsr.w	r0, r0, r2
 8000542:	fa01 fe03 	lsl.w	lr, r1, r3
 8000546:	ea40 000e 	orr.w	r0, r0, lr
 800054a:	fa21 f102 	lsr.w	r1, r1, r2
 800054e:	4414      	add	r4, r2
 8000550:	e6c1      	b.n	80002d6 <__adddf3+0xe6>
 8000552:	bf00      	nop

08000554 <__aeabi_dmul>:
 8000554:	b570      	push	{r4, r5, r6, lr}
 8000556:	f04f 0cff 	mov.w	ip, #255	; 0xff
 800055a:	f44c 6ce0 	orr.w	ip, ip, #1792	; 0x700
 800055e:	ea1c 5411 	ands.w	r4, ip, r1, lsr #20
 8000562:	bf1d      	ittte	ne
 8000564:	ea1c 5513 	andsne.w	r5, ip, r3, lsr #20
 8000568:	ea94 0f0c 	teqne	r4, ip
 800056c:	ea95 0f0c 	teqne	r5, ip
 8000570:	f000 f8de 	bleq	8000730 <__aeabi_dmul+0x1dc>
 8000574:	442c      	add	r4, r5
 8000576:	ea81 0603 	eor.w	r6, r1, r3
 800057a:	ea21 514c 	bic.w	r1, r1, ip, lsl #21
 800057e:	ea23 534c 	bic.w	r3, r3, ip, lsl #21
 8000582:	ea50 3501 	orrs.w	r5, r0, r1, lsl #12
 8000586:	bf18      	it	ne
 8000588:	ea52 3503 	orrsne.w	r5, r2, r3, lsl #12
 800058c:	f441 1180 	orr.w	r1, r1, #1048576	; 0x100000
 8000590:	f443 1380 	orr.w	r3, r3, #1048576	; 0x100000
 8000594:	d038      	beq.n	8000608 <__aeabi_dmul+0xb4>
 8000596:	fba0 ce02 	umull	ip, lr, r0, r2
 800059a:	f04f 0500 	mov.w	r5, #0
 800059e:	fbe1 e502 	umlal	lr, r5, r1, r2
 80005a2:	f006 4200 	and.w	r2, r6, #2147483648	; 0x80000000
 80005a6:	fbe0 e503 	umlal	lr, r5, r0, r3
 80005aa:	f04f 0600 	mov.w	r6, #0
 80005ae:	fbe1 5603 	umlal	r5, r6, r1, r3
 80005b2:	f09c 0f00 	teq	ip, #0
 80005b6:	bf18      	it	ne
 80005b8:	f04e 0e01 	orrne.w	lr, lr, #1
 80005bc:	f1a4 04ff 	sub.w	r4, r4, #255	; 0xff
 80005c0:	f5b6 7f00 	cmp.w	r6, #512	; 0x200
 80005c4:	f564 7440 	sbc.w	r4, r4, #768	; 0x300
 80005c8:	d204      	bcs.n	80005d4 <__aeabi_dmul+0x80>
 80005ca:	ea5f 0e4e 	movs.w	lr, lr, lsl #1
 80005ce:	416d      	adcs	r5, r5
 80005d0:	eb46 0606 	adc.w	r6, r6, r6
 80005d4:	ea42 21c6 	orr.w	r1, r2, r6, lsl #11
 80005d8:	ea41 5155 	orr.w	r1, r1, r5, lsr #21
 80005dc:	ea4f 20c5 	mov.w	r0, r5, lsl #11
 80005e0:	ea40 505e 	orr.w	r0, r0, lr, lsr #21
 80005e4:	ea4f 2ece 	mov.w	lr, lr, lsl #11
 80005e8:	f1b4 0cfd 	subs.w	ip, r4, #253	; 0xfd
 80005ec:	bf88      	it	hi
 80005ee:	f5bc 6fe0 	cmphi.w	ip, #1792	; 0x700
 80005f2:	d81e      	bhi.n	8000632 <__aeabi_dmul+0xde>
 80005f4:	f1be 4f00 	cmp.w	lr, #2147483648	; 0x80000000
 80005f8:	bf08      	it	eq
 80005fa:	ea5f 0e50 	movseq.w	lr, r0, lsr #1
 80005fe:	f150 0000 	adcs.w	r0, r0, #0
 8000602:	eb41 5104 	adc.w	r1, r1, r4, lsl #20
 8000606:	bd70      	pop	{r4, r5, r6, pc}
 8000608:	f006 4600 	and.w	r6, r6, #2147483648	; 0x80000000
 800060c:	ea46 0101 	orr.w	r1, r6, r1
 8000610:	ea40 0002 	orr.w	r0, r0, r2
 8000614:	ea81 0103 	eor.w	r1, r1, r3
 8000618:	ebb4 045c 	subs.w	r4, r4, ip, lsr #1
 800061c:	bfc2      	ittt	gt
 800061e:	ebd4 050c 	rsbsgt	r5, r4, ip
 8000622:	ea41 5104 	orrgt.w	r1, r1, r4, lsl #20
 8000626:	bd70      	popgt	{r4, r5, r6, pc}
 8000628:	f441 1180 	orr.w	r1, r1, #1048576	; 0x100000
 800062c:	f04f 0e00 	mov.w	lr, #0
 8000630:	3c01      	subs	r4, #1
 8000632:	f300 80ab 	bgt.w	800078c <__aeabi_dmul+0x238>
 8000636:	f114 0f36 	cmn.w	r4, #54	; 0x36
 800063a:	bfde      	ittt	le
 800063c:	2000      	movle	r0, #0
 800063e:	f001 4100 	andle.w	r1, r1, #2147483648	; 0x80000000
 8000642:	bd70      	pople	{r4, r5, r6, pc}
 8000644:	f1c4 0400 	rsb	r4, r4, #0
 8000648:	3c20      	subs	r4, #32
 800064a:	da35      	bge.n	80006b8 <__aeabi_dmul+0x164>
 800064c:	340c      	adds	r4, #12
 800064e:	dc1b      	bgt.n	8000688 <__aeabi_dmul+0x134>
 8000650:	f104 0414 	add.w	r4, r4, #20
 8000654:	f1c4 0520 	rsb	r5, r4, #32
 8000658:	fa00 f305 	lsl.w	r3, r0, r5
 800065c:	fa20 f004 	lsr.w	r0, r0, r4
 8000660:	fa01 f205 	lsl.w	r2, r1, r5
 8000664:	ea40 0002 	orr.w	r0, r0, r2
 8000668:	f001 4200 	and.w	r2, r1, #2147483648	; 0x80000000
 800066c:	f021 4100 	bic.w	r1, r1, #2147483648	; 0x80000000
 8000670:	eb10 70d3 	adds.w	r0, r0, r3, lsr #31
 8000674:	fa21 f604 	lsr.w	r6, r1, r4
 8000678:	eb42 0106 	adc.w	r1, r2, r6
 800067c:	ea5e 0e43 	orrs.w	lr, lr, r3, lsl #1
 8000680:	bf08      	it	eq
 8000682:	ea20 70d3 	biceq.w	r0, r0, r3, lsr #31
 8000686:	bd70      	pop	{r4, r5, r6, pc}
 8000688:	f1c4 040c 	rsb	r4, r4, #12
 800068c:	f1c4 0520 	rsb	r5, r4, #32
 8000690:	fa00 f304 	lsl.w	r3, r0, r4
 8000694:	fa20 f005 	lsr.w	r0, r0, r5
 8000698:	fa01 f204 	lsl.w	r2, r1, r4
 800069c:	ea40 0002 	orr.w	r0, r0, r2
 80006a0:	f001 4100 	and.w	r1, r1, #2147483648	; 0x80000000
 80006a4:	eb10 70d3 	adds.w	r0, r0, r3, lsr #31
 80006a8:	f141 0100 	adc.w	r1, r1, #0
 80006ac:	ea5e 0e43 	orrs.w	lr, lr, r3, lsl #1
 80006b0:	bf08      	it	eq
 80006b2:	ea20 70d3 	biceq.w	r0, r0, r3, lsr #31
 80006b6:	bd70      	pop	{r4, r5, r6, pc}
 80006b8:	f1c4 0520 	rsb	r5, r4, #32
 80006bc:	fa00 f205 	lsl.w	r2, r0, r5
 80006c0:	ea4e 0e02 	orr.w	lr, lr, r2
 80006c4:	fa20 f304 	lsr.w	r3, r0, r4
 80006c8:	fa01 f205 	lsl.w	r2, r1, r5
 80006cc:	ea43 0302 	orr.w	r3, r3, r2
 80006d0:	fa21 f004 	lsr.w	r0, r1, r4
 80006d4:	f001 4100 	and.w	r1, r1, #2147483648	; 0x80000000
 80006d8:	fa21 f204 	lsr.w	r2, r1, r4
 80006dc:	ea20 0002 	bic.w	r0, r0, r2
 80006e0:	eb00 70d3 	add.w	r0, r0, r3, lsr #31
 80006e4:	ea5e 0e43 	orrs.w	lr, lr, r3, lsl #1
 80006e8:	bf08      	it	eq
 80006ea:	ea20 70d3 	biceq.w	r0, r0, r3, lsr #31
 80006ee:	bd70      	pop	{r4, r5, r6, pc}
 80006f0:	f094 0f00 	teq	r4, #0
 80006f4:	d10f      	bne.n	8000716 <__aeabi_dmul+0x1c2>
 80006f6:	f001 4600 	and.w	r6, r1, #2147483648	; 0x80000000
 80006fa:	0040      	lsls	r0, r0, #1
 80006fc:	eb41 0101 	adc.w	r1, r1, r1
 8000700:	f411 1f80 	tst.w	r1, #1048576	; 0x100000
 8000704:	bf08      	it	eq
 8000706:	3c01      	subeq	r4, #1
 8000708:	d0f7      	beq.n	80006fa <__aeabi_dmul+0x1a6>
 800070a:	ea41 0106 	orr.w	r1, r1, r6
 800070e:	f095 0f00 	teq	r5, #0
 8000712:	bf18      	it	ne
 8000714:	4770      	bxne	lr
 8000716:	f003 4600 	and.w	r6, r3, #2147483648	; 0x80000000
 800071a:	0052      	lsls	r2, r2, #1
 800071c:	eb43 0303 	adc.w	r3, r3, r3
 8000720:	f413 1f80 	tst.w	r3, #1048576	; 0x100000
 8000724:	bf08      	it	eq
 8000726:	3d01      	subeq	r5, #1
 8000728:	d0f7      	beq.n	800071a <__aeabi_dmul+0x1c6>
 800072a:	ea43 0306 	orr.w	r3, r3, r6
 800072e:	4770      	bx	lr
 8000730:	ea94 0f0c 	teq	r4, ip
 8000734:	ea0c 5513 	and.w	r5, ip, r3, lsr #20
 8000738:	bf18      	it	ne
 800073a:	ea95 0f0c 	teqne	r5, ip
 800073e:	d00c      	beq.n	800075a <__aeabi_dmul+0x206>
 8000740:	ea50 0641 	orrs.w	r6, r0, r1, lsl #1
 8000744:	bf18      	it	ne
 8000746:	ea52 0643 	orrsne.w	r6, r2, r3, lsl #1
 800074a:	d1d1      	bne.n	80006f0 <__aeabi_dmul+0x19c>
 800074c:	ea81 0103 	eor.w	r1, r1, r3
 8000750:	f001 4100 	and.w	r1, r1, #2147483648	; 0x80000000
 8000754:	f04f 0000 	mov.w	r0, #0
 8000758:	bd70      	pop	{r4, r5, r6, pc}
 800075a:	ea50 0641 	orrs.w	r6, r0, r1, lsl #1
 800075e:	bf06      	itte	eq
 8000760:	4610      	moveq	r0, r2
 8000762:	4619      	moveq	r1, r3
 8000764:	ea52 0643 	orrsne.w	r6, r2, r3, lsl #1
 8000768:	d019      	beq.n	800079e <__aeabi_dmul+0x24a>
 800076a:	ea94 0f0c 	teq	r4, ip
 800076e:	d102      	bne.n	8000776 <__aeabi_dmul+0x222>
 8000770:	ea50 3601 	orrs.w	r6, r0, r1, lsl #12
 8000774:	d113      	bne.n	800079e <__aeabi_dmul+0x24a>
 8000776:	ea95 0f0c 	teq	r5, ip
 800077a:	d105      	bne.n	8000788 <__aeabi_dmul+0x234>
 800077c:	ea52 3603 	orrs.w	r6, r2, r3, lsl #12
 8000780:	bf1c      	itt	ne
 8000782:	4610      	movne	r0, r2
 8000784:	4619      	movne	r1, r3
 8000786:	d10a      	bne.n	800079e <__aeabi_dmul+0x24a>
 8000788:	ea81 0103 	eor.w	r1, r1, r3
 800078c:	f001 4100 	and.w	r1, r1, #2147483648	; 0x80000000
 8000790:	f041 41fe 	orr.w	r1, r1, #2130706432	; 0x7f000000
 8000794:	f441 0170 	orr.w	r1, r1, #15728640	; 0xf00000
 8000798:	f04f 0000 	mov.w	r0, #0
 800079c:	bd70      	pop	{r4, r5, r6, pc}
 800079e:	f041 41fe 	orr.w	r1, r1, #2130706432	; 0x7f000000
 80007a2:	f441 0178 	orr.w	r1, r1, #16252928	; 0xf80000
 80007a6:	bd70      	pop	{r4, r5, r6, pc}

080007a8 <__aeabi_ddiv>:
 80007a8:	b570      	push	{r4, r5, r6, lr}
 80007aa:	f04f 0cff 	mov.w	ip, #255	; 0xff
 80007ae:	f44c 6ce0 	orr.w	ip, ip, #1792	; 0x700
 80007b2:	ea1c 5411 	ands.w	r4, ip, r1, lsr #20
 80007b6:	bf1d      	ittte	ne
 80007b8:	ea1c 5513 	andsne.w	r5, ip, r3, lsr #20
 80007bc:	ea94 0f0c 	teqne	r4, ip
 80007c0:	ea95 0f0c 	teqne	r5, ip
 80007c4:	f000 f8a7 	bleq	8000916 <__aeabi_ddiv+0x16e>
 80007c8:	eba4 0405 	sub.w	r4, r4, r5
 80007cc:	ea81 0e03 	eor.w	lr, r1, r3
 80007d0:	ea52 3503 	orrs.w	r5, r2, r3, lsl #12
 80007d4:	ea4f 3101 	mov.w	r1, r1, lsl #12
 80007d8:	f000 8088 	beq.w	80008ec <__aeabi_ddiv+0x144>
 80007dc:	ea4f 3303 	mov.w	r3, r3, lsl #12
 80007e0:	f04f 5580 	mov.w	r5, #268435456	; 0x10000000
 80007e4:	ea45 1313 	orr.w	r3, r5, r3, lsr #4
 80007e8:	ea43 6312 	orr.w	r3, r3, r2, lsr #24
 80007ec:	ea4f 2202 	mov.w	r2, r2, lsl #8
 80007f0:	ea45 1511 	orr.w	r5, r5, r1, lsr #4
 80007f4:	ea45 6510 	orr.w	r5, r5, r0, lsr #24
 80007f8:	ea4f 2600 	mov.w	r6, r0, lsl #8
 80007fc:	f00e 4100 	and.w	r1, lr, #2147483648	; 0x80000000
 8000800:	429d      	cmp	r5, r3
 8000802:	bf08      	it	eq
 8000804:	4296      	cmpeq	r6, r2
 8000806:	f144 04fd 	adc.w	r4, r4, #253	; 0xfd
 800080a:	f504 7440 	add.w	r4, r4, #768	; 0x300
 800080e:	d202      	bcs.n	8000816 <__aeabi_ddiv+0x6e>
 8000810:	085b      	lsrs	r3, r3, #1
 8000812:	ea4f 0232 	mov.w	r2, r2, rrx
 8000816:	1ab6      	subs	r6, r6, r2
 8000818:	eb65 0503 	sbc.w	r5, r5, r3
 800081c:	085b      	lsrs	r3, r3, #1
 800081e:	ea4f 0232 	mov.w	r2, r2, rrx
 8000822:	f44f 1080 	mov.w	r0, #1048576	; 0x100000
 8000826:	f44f 2c00 	mov.w	ip, #524288	; 0x80000
 800082a:	ebb6 0e02 	subs.w	lr, r6, r2
 800082e:	eb75 0e03 	sbcs.w	lr, r5, r3
 8000832:	bf22      	ittt	cs
 8000834:	1ab6      	subcs	r6, r6, r2
 8000836:	4675      	movcs	r5, lr
 8000838:	ea40 000c 	orrcs.w	r0, r0, ip
 800083c:	085b      	lsrs	r3, r3, #1
 800083e:	ea4f 0232 	mov.w	r2, r2, rrx
 8000842:	ebb6 0e02 	subs.w	lr, r6, r2
 8000846:	eb75 0e03 	sbcs.w	lr, r5, r3
 800084a:	bf22      	ittt	cs
 800084c:	1ab6      	subcs	r6, r6, r2
 800084e:	4675      	movcs	r5, lr
 8000850:	ea40 005c 	orrcs.w	r0, r0, ip, lsr #1
 8000854:	085b      	lsrs	r3, r3, #1
 8000856:	ea4f 0232 	mov.w	r2, r2, rrx
 800085a:	ebb6 0e02 	subs.w	lr, r6, r2
 800085e:	eb75 0e03 	sbcs.w	lr, r5, r3
 8000862:	bf22      	ittt	cs
 8000864:	1ab6      	subcs	r6, r6, r2
 8000866:	4675      	movcs	r5, lr
 8000868:	ea40 009c 	orrcs.w	r0, r0, ip, lsr #2
 800086c:	085b      	lsrs	r3, r3, #1
 800086e:	ea4f 0232 	mov.w	r2, r2, rrx
 8000872:	ebb6 0e02 	subs.w	lr, r6, r2
 8000876:	eb75 0e03 	sbcs.w	lr, r5, r3
 800087a:	bf22      	ittt	cs
 800087c:	1ab6      	subcs	r6, r6, r2
 800087e:	4675      	movcs	r5, lr
 8000880:	ea40 00dc 	orrcs.w	r0, r0, ip, lsr #3
 8000884:	ea55 0e06 	orrs.w	lr, r5, r6
 8000888:	d018      	beq.n	80008bc <__aeabi_ddiv+0x114>
 800088a:	ea4f 1505 	mov.w	r5, r5, lsl #4
 800088e:	ea45 7516 	orr.w	r5, r5, r6, lsr #28
 8000892:	ea4f 1606 	mov.w	r6, r6, lsl #4
 8000896:	ea4f 03c3 	mov.w	r3, r3, lsl #3
 800089a:	ea43 7352 	orr.w	r3, r3, r2, lsr #29
 800089e:	ea4f 02c2 	mov.w	r2, r2, lsl #3
 80008a2:	ea5f 1c1c 	movs.w	ip, ip, lsr #4
 80008a6:	d1c0      	bne.n	800082a <__aeabi_ddiv+0x82>
 80008a8:	f411 1f80 	tst.w	r1, #1048576	; 0x100000
 80008ac:	d10b      	bne.n	80008c6 <__aeabi_ddiv+0x11e>
 80008ae:	ea41 0100 	orr.w	r1, r1, r0
 80008b2:	f04f 0000 	mov.w	r0, #0
 80008b6:	f04f 4c00 	mov.w	ip, #2147483648	; 0x80000000
 80008ba:	e7b6      	b.n	800082a <__aeabi_ddiv+0x82>
 80008bc:	f411 1f80 	tst.w	r1, #1048576	; 0x100000
 80008c0:	bf04      	itt	eq
 80008c2:	4301      	orreq	r1, r0
 80008c4:	2000      	moveq	r0, #0
 80008c6:	f1b4 0cfd 	subs.w	ip, r4, #253	; 0xfd
 80008ca:	bf88      	it	hi
 80008cc:	f5bc 6fe0 	cmphi.w	ip, #1792	; 0x700
 80008d0:	f63f aeaf 	bhi.w	8000632 <__aeabi_dmul+0xde>
 80008d4:	ebb5 0c03 	subs.w	ip, r5, r3
 80008d8:	bf04      	itt	eq
 80008da:	ebb6 0c02 	subseq.w	ip, r6, r2
 80008de:	ea5f 0c50 	movseq.w	ip, r0, lsr #1
 80008e2:	f150 0000 	adcs.w	r0, r0, #0
 80008e6:	eb41 5104 	adc.w	r1, r1, r4, lsl #20
 80008ea:	bd70      	pop	{r4, r5, r6, pc}
 80008ec:	f00e 4e00 	and.w	lr, lr, #2147483648	; 0x80000000
 80008f0:	ea4e 3111 	orr.w	r1, lr, r1, lsr #12
 80008f4:	eb14 045c 	adds.w	r4, r4, ip, lsr #1
 80008f8:	bfc2      	ittt	gt
 80008fa:	ebd4 050c 	rsbsgt	r5, r4, ip
 80008fe:	ea41 5104 	orrgt.w	r1, r1, r4, lsl #20
 8000902:	bd70      	popgt	{r4, r5, r6, pc}
 8000904:	f441 1180 	orr.w	r1, r1, #1048576	; 0x100000
 8000908:	f04f 0e00 	mov.w	lr, #0
 800090c:	3c01      	subs	r4, #1
 800090e:	e690      	b.n	8000632 <__aeabi_dmul+0xde>
 8000910:	ea45 0e06 	orr.w	lr, r5, r6
 8000914:	e68d      	b.n	8000632 <__aeabi_dmul+0xde>
 8000916:	ea0c 5513 	and.w	r5, ip, r3, lsr #20
 800091a:	ea94 0f0c 	teq	r4, ip
 800091e:	bf08      	it	eq
 8000920:	ea95 0f0c 	teqeq	r5, ip
 8000924:	f43f af3b 	beq.w	800079e <__aeabi_dmul+0x24a>
 8000928:	ea94 0f0c 	teq	r4, ip
 800092c:	d10a      	bne.n	8000944 <__aeabi_ddiv+0x19c>
 800092e:	ea50 3401 	orrs.w	r4, r0, r1, lsl #12
 8000932:	f47f af34 	bne.w	800079e <__aeabi_dmul+0x24a>
 8000936:	ea95 0f0c 	teq	r5, ip
 800093a:	f47f af25 	bne.w	8000788 <__aeabi_dmul+0x234>
 800093e:	4610      	mov	r0, r2
 8000940:	4619      	mov	r1, r3
 8000942:	e72c      	b.n	800079e <__aeabi_dmul+0x24a>
 8000944:	ea95 0f0c 	teq	r5, ip
 8000948:	d106      	bne.n	8000958 <__aeabi_ddiv+0x1b0>
 800094a:	ea52 3503 	orrs.w	r5, r2, r3, lsl #12
 800094e:	f43f aefd 	beq.w	800074c <__aeabi_dmul+0x1f8>
 8000952:	4610      	mov	r0, r2
 8000954:	4619      	mov	r1, r3
 8000956:	e722      	b.n	800079e <__aeabi_dmul+0x24a>
 8000958:	ea50 0641 	orrs.w	r6, r0, r1, lsl #1
 800095c:	bf18      	it	ne
 800095e:	ea52 0643 	orrsne.w	r6, r2, r3, lsl #1
 8000962:	f47f aec5 	bne.w	80006f0 <__aeabi_dmul+0x19c>
 8000966:	ea50 0441 	orrs.w	r4, r0, r1, lsl #1
 800096a:	f47f af0d 	bne.w	8000788 <__aeabi_dmul+0x234>
 800096e:	ea52 0543 	orrs.w	r5, r2, r3, lsl #1
 8000972:	f47f aeeb 	bne.w	800074c <__aeabi_dmul+0x1f8>
 8000976:	e712      	b.n	800079e <__aeabi_dmul+0x24a>

08000978 <__gedf2>:
 8000978:	f04f 3cff 	mov.w	ip, #4294967295	; 0xffffffff
 800097c:	e006      	b.n	800098c <__cmpdf2+0x4>
 800097e:	bf00      	nop

08000980 <__ledf2>:
 8000980:	f04f 0c01 	mov.w	ip, #1
 8000984:	e002      	b.n	800098c <__cmpdf2+0x4>
 8000986:	bf00      	nop

08000988 <__cmpdf2>:
 8000988:	f04f 0c01 	mov.w	ip, #1
 800098c:	f84d cd04 	str.w	ip, [sp, #-4]!
 8000990:	ea4f 0c41 	mov.w	ip, r1, lsl #1
 8000994:	ea7f 5c6c 	mvns.w	ip, ip, asr #21
 8000998:	ea4f 0c43 	mov.w	ip, r3, lsl #1
 800099c:	bf18      	it	ne
 800099e:	ea7f 5c6c 	mvnsne.w	ip, ip, asr #21
 80009a2:	d01b      	beq.n	80009dc <__cmpdf2+0x54>
 80009a4:	b001      	add	sp, #4
 80009a6:	ea50 0c41 	orrs.w	ip, r0, r1, lsl #1
 80009aa:	bf0c      	ite	eq
 80009ac:	ea52 0c43 	orrseq.w	ip, r2, r3, lsl #1
 80009b0:	ea91 0f03 	teqne	r1, r3
 80009b4:	bf02      	ittt	eq
 80009b6:	ea90 0f02 	teqeq	r0, r2
 80009ba:	2000      	moveq	r0, #0
 80009bc:	4770      	bxeq	lr
 80009be:	f110 0f00 	cmn.w	r0, #0
 80009c2:	ea91 0f03 	teq	r1, r3
 80009c6:	bf58      	it	pl
 80009c8:	4299      	cmppl	r1, r3
 80009ca:	bf08      	it	eq
 80009cc:	4290      	cmpeq	r0, r2
 80009ce:	bf2c      	ite	cs
 80009d0:	17d8      	asrcs	r0, r3, #31
 80009d2:	ea6f 70e3 	mvncc.w	r0, r3, asr #31
 80009d6:	f040 0001 	orr.w	r0, r0, #1
 80009da:	4770      	bx	lr
 80009dc:	ea4f 0c41 	mov.w	ip, r1, lsl #1
 80009e0:	ea7f 5c6c 	mvns.w	ip, ip, asr #21
 80009e4:	d102      	bne.n	80009ec <__cmpdf2+0x64>
 80009e6:	ea50 3c01 	orrs.w	ip, r0, r1, lsl #12
 80009ea:	d107      	bne.n	80009fc <__cmpdf2+0x74>
 80009ec:	ea4f 0c43 	mov.w	ip, r3, lsl #1
 80009f0:	ea7f 5c6c 	mvns.w	ip, ip, asr #21
 80009f4:	d1d6      	bne.n	80009a4 <__cmpdf2+0x1c>
 80009f6:	ea52 3c03 	orrs.w	ip, r2, r3, lsl #12
 80009fa:	d0d3      	beq.n	80009a4 <__cmpdf2+0x1c>
 80009fc:	f85d 0b04 	ldr.w	r0, [sp], #4
 8000a00:	4770      	bx	lr
 8000a02:	bf00      	nop

08000a04 <__aeabi_cdrcmple>:
 8000a04:	4684      	mov	ip, r0
 8000a06:	4610      	mov	r0, r2
 8000a08:	4662      	mov	r2, ip
 8000a0a:	468c      	mov	ip, r1
 8000a0c:	4619      	mov	r1, r3
 8000a0e:	4663      	mov	r3, ip
 8000a10:	e000      	b.n	8000a14 <__aeabi_cdcmpeq>
 8000a12:	bf00      	nop

08000a14 <__aeabi_cdcmpeq>:
 8000a14:	b501      	push	{r0, lr}
 8000a16:	f7ff ffb7 	bl	8000988 <__cmpdf2>
 8000a1a:	2800      	cmp	r0, #0
 8000a1c:	bf48      	it	mi
 8000a1e:	f110 0f00 	cmnmi.w	r0, #0
 8000a22:	bd01      	pop	{r0, pc}

08000a24 <__aeabi_dcmpeq>:
 8000a24:	f84d ed08 	str.w	lr, [sp, #-8]!
 8000a28:	f7ff fff4 	bl	8000a14 <__aeabi_cdcmpeq>
 8000a2c:	bf0c      	ite	eq
 8000a2e:	2001      	moveq	r0, #1
 8000a30:	2000      	movne	r0, #0
 8000a32:	f85d fb08 	ldr.w	pc, [sp], #8
 8000a36:	bf00      	nop

08000a38 <__aeabi_dcmplt>:
 8000a38:	f84d ed08 	str.w	lr, [sp, #-8]!
 8000a3c:	f7ff ffea 	bl	8000a14 <__aeabi_cdcmpeq>
 8000a40:	bf34      	ite	cc
 8000a42:	2001      	movcc	r0, #1
 8000a44:	2000      	movcs	r0, #0
 8000a46:	f85d fb08 	ldr.w	pc, [sp], #8
 8000a4a:	bf00      	nop

08000a4c <__aeabi_dcmple>:
 8000a4c:	f84d ed08 	str.w	lr, [sp, #-8]!
 8000a50:	f7ff ffe0 	bl	8000a14 <__aeabi_cdcmpeq>
 8000a54:	bf94      	ite	ls
 8000a56:	2001      	movls	r0, #1
 8000a58:	2000      	movhi	r0, #0
 8000a5a:	f85d fb08 	ldr.w	pc, [sp], #8
 8000a5e:	bf00      	nop

08000a60 <__aeabi_dcmpge>:
 8000a60:	f84d ed08 	str.w	lr, [sp, #-8]!
 8000a64:	f7ff ffce 	bl	8000a04 <__aeabi_cdrcmple>
 8000a68:	bf94      	ite	ls
 8000a6a:	2001      	movls	r0, #1
 8000a6c:	2000      	movhi	r0, #0
 8000a6e:	f85d fb08 	ldr.w	pc, [sp], #8
 8000a72:	bf00      	nop

08000a74 <__aeabi_dcmpgt>:
 8000a74:	f84d ed08 	str.w	lr, [sp, #-8]!
 8000a78:	f7ff ffc4 	bl	8000a04 <__aeabi_cdrcmple>
 8000a7c:	bf34      	ite	cc
 8000a7e:	2001      	movcc	r0, #1
 8000a80:	2000      	movcs	r0, #0
 8000a82:	f85d fb08 	ldr.w	pc, [sp], #8
 8000a86:	bf00      	nop

08000a88 <__aeabi_d2iz>:
 8000a88:	ea4f 0241 	mov.w	r2, r1, lsl #1
 8000a8c:	f512 1200 	adds.w	r2, r2, #2097152	; 0x200000
 8000a90:	d215      	bcs.n	8000abe <__aeabi_d2iz+0x36>
 8000a92:	d511      	bpl.n	8000ab8 <__aeabi_d2iz+0x30>
 8000a94:	f46f 7378 	mvn.w	r3, #992	; 0x3e0
 8000a98:	ebb3 5262 	subs.w	r2, r3, r2, asr #21
 8000a9c:	d912      	bls.n	8000ac4 <__aeabi_d2iz+0x3c>
 8000a9e:	ea4f 23c1 	mov.w	r3, r1, lsl #11
 8000aa2:	f043 4300 	orr.w	r3, r3, #2147483648	; 0x80000000
 8000aa6:	ea43 5350 	orr.w	r3, r3, r0, lsr #21
 8000aaa:	f011 4f00 	tst.w	r1, #2147483648	; 0x80000000
 8000aae:	fa23 f002 	lsr.w	r0, r3, r2
 8000ab2:	bf18      	it	ne
 8000ab4:	4240      	negne	r0, r0
 8000ab6:	4770      	bx	lr
 8000ab8:	f04f 0000 	mov.w	r0, #0
 8000abc:	4770      	bx	lr
 8000abe:	ea50 3001 	orrs.w	r0, r0, r1, lsl #12
 8000ac2:	d105      	bne.n	8000ad0 <__aeabi_d2iz+0x48>
 8000ac4:	f011 4000 	ands.w	r0, r1, #2147483648	; 0x80000000
 8000ac8:	bf08      	it	eq
 8000aca:	f06f 4000 	mvneq.w	r0, #2147483648	; 0x80000000
 8000ace:	4770      	bx	lr
 8000ad0:	f04f 0000 	mov.w	r0, #0
 8000ad4:	4770      	bx	lr
 8000ad6:	bf00      	nop

08000ad8 <__aeabi_uldivmod>:
 8000ad8:	b953      	cbnz	r3, 8000af0 <__aeabi_uldivmod+0x18>
 8000ada:	b94a      	cbnz	r2, 8000af0 <__aeabi_uldivmod+0x18>
 8000adc:	2900      	cmp	r1, #0
 8000ade:	bf08      	it	eq
 8000ae0:	2800      	cmpeq	r0, #0
 8000ae2:	bf1c      	itt	ne
 8000ae4:	f04f 31ff 	movne.w	r1, #4294967295	; 0xffffffff
 8000ae8:	f04f 30ff 	movne.w	r0, #4294967295	; 0xffffffff
 8000aec:	f000 b83c 	b.w	8000b68 <__aeabi_idiv0>
 8000af0:	b082      	sub	sp, #8
 8000af2:	46ec      	mov	ip, sp
 8000af4:	e92d 5000 	stmdb	sp!, {ip, lr}
 8000af8:	f000 f81e 	bl	8000b38 <__gnu_uldivmod_helper>
 8000afc:	f8dd e004 	ldr.w	lr, [sp, #4]
 8000b00:	b002      	add	sp, #8
 8000b02:	bc0c      	pop	{r2, r3}
 8000b04:	4770      	bx	lr
 8000b06:	bf00      	nop

08000b08 <__gnu_ldivmod_helper>:
 8000b08:	e92d 41f0 	stmdb	sp!, {r4, r5, r6, r7, r8, lr}
 8000b0c:	9c06      	ldr	r4, [sp, #24]
 8000b0e:	4615      	mov	r5, r2
 8000b10:	4606      	mov	r6, r0
 8000b12:	460f      	mov	r7, r1
 8000b14:	4698      	mov	r8, r3
 8000b16:	f000 f829 	bl	8000b6c <__divdi3>
 8000b1a:	fb05 f301 	mul.w	r3, r5, r1
 8000b1e:	fb00 3808 	mla	r8, r0, r8, r3
 8000b22:	fba5 2300 	umull	r2, r3, r5, r0
 8000b26:	1ab2      	subs	r2, r6, r2
 8000b28:	4443      	add	r3, r8
 8000b2a:	eb67 0303 	sbc.w	r3, r7, r3
 8000b2e:	e9c4 2300 	strd	r2, r3, [r4]
 8000b32:	e8bd 81f0 	ldmia.w	sp!, {r4, r5, r6, r7, r8, pc}
 8000b36:	bf00      	nop

08000b38 <__gnu_uldivmod_helper>:
 8000b38:	e92d 41f0 	stmdb	sp!, {r4, r5, r6, r7, r8, lr}
 8000b3c:	9c06      	ldr	r4, [sp, #24]
 8000b3e:	4690      	mov	r8, r2
 8000b40:	4606      	mov	r6, r0
 8000b42:	460f      	mov	r7, r1
 8000b44:	461d      	mov	r5, r3
 8000b46:	f000 f95f 	bl	8000e08 <__udivdi3>
 8000b4a:	fb00 f505 	mul.w	r5, r0, r5
 8000b4e:	fba0 2308 	umull	r2, r3, r0, r8
 8000b52:	fb08 5501 	mla	r5, r8, r1, r5
 8000b56:	1ab2      	subs	r2, r6, r2
 8000b58:	442b      	add	r3, r5
 8000b5a:	eb67 0303 	sbc.w	r3, r7, r3
 8000b5e:	e9c4 2300 	strd	r2, r3, [r4]
 8000b62:	e8bd 81f0 	ldmia.w	sp!, {r4, r5, r6, r7, r8, pc}
 8000b66:	bf00      	nop

08000b68 <__aeabi_idiv0>:
 8000b68:	4770      	bx	lr
 8000b6a:	bf00      	nop

08000b6c <__divdi3>:
 8000b6c:	2900      	cmp	r1, #0
 8000b6e:	e92d 43f0 	stmdb	sp!, {r4, r5, r6, r7, r8, r9, lr}
 8000b72:	f2c0 80a6 	blt.w	8000cc2 <__divdi3+0x156>
 8000b76:	2600      	movs	r6, #0
 8000b78:	2b00      	cmp	r3, #0
 8000b7a:	f2c0 809c 	blt.w	8000cb6 <__divdi3+0x14a>
 8000b7e:	4688      	mov	r8, r1
 8000b80:	4694      	mov	ip, r2
 8000b82:	469e      	mov	lr, r3
 8000b84:	4615      	mov	r5, r2
 8000b86:	4604      	mov	r4, r0
 8000b88:	460f      	mov	r7, r1
 8000b8a:	2b00      	cmp	r3, #0
 8000b8c:	d13d      	bne.n	8000c0a <__divdi3+0x9e>
 8000b8e:	428a      	cmp	r2, r1
 8000b90:	d959      	bls.n	8000c46 <__divdi3+0xda>
 8000b92:	fab2 f382 	clz	r3, r2
 8000b96:	b13b      	cbz	r3, 8000ba8 <__divdi3+0x3c>
 8000b98:	f1c3 0220 	rsb	r2, r3, #32
 8000b9c:	409f      	lsls	r7, r3
 8000b9e:	fa20 f202 	lsr.w	r2, r0, r2
 8000ba2:	409d      	lsls	r5, r3
 8000ba4:	4317      	orrs	r7, r2
 8000ba6:	409c      	lsls	r4, r3
 8000ba8:	0c29      	lsrs	r1, r5, #16
 8000baa:	0c22      	lsrs	r2, r4, #16
 8000bac:	fbb7 fef1 	udiv	lr, r7, r1
 8000bb0:	b2a8      	uxth	r0, r5
 8000bb2:	fb01 771e 	mls	r7, r1, lr, r7
 8000bb6:	ea42 4707 	orr.w	r7, r2, r7, lsl #16
 8000bba:	fb00 f30e 	mul.w	r3, r0, lr
 8000bbe:	42bb      	cmp	r3, r7
 8000bc0:	d90a      	bls.n	8000bd8 <__divdi3+0x6c>
 8000bc2:	197f      	adds	r7, r7, r5
 8000bc4:	f10e 32ff 	add.w	r2, lr, #4294967295	; 0xffffffff
 8000bc8:	f080 8105 	bcs.w	8000dd6 <__divdi3+0x26a>
 8000bcc:	42bb      	cmp	r3, r7
 8000bce:	f240 8102 	bls.w	8000dd6 <__divdi3+0x26a>
 8000bd2:	f1ae 0e02 	sub.w	lr, lr, #2
 8000bd6:	442f      	add	r7, r5
 8000bd8:	1aff      	subs	r7, r7, r3
 8000bda:	b2a4      	uxth	r4, r4
 8000bdc:	fbb7 f3f1 	udiv	r3, r7, r1
 8000be0:	fb01 7713 	mls	r7, r1, r3, r7
 8000be4:	ea44 4707 	orr.w	r7, r4, r7, lsl #16
 8000be8:	fb00 f003 	mul.w	r0, r0, r3
 8000bec:	42b8      	cmp	r0, r7
 8000bee:	d908      	bls.n	8000c02 <__divdi3+0x96>
 8000bf0:	197f      	adds	r7, r7, r5
 8000bf2:	f103 32ff 	add.w	r2, r3, #4294967295	; 0xffffffff
 8000bf6:	f080 80f0 	bcs.w	8000dda <__divdi3+0x26e>
 8000bfa:	42b8      	cmp	r0, r7
 8000bfc:	f240 80ed 	bls.w	8000dda <__divdi3+0x26e>
 8000c00:	3b02      	subs	r3, #2
 8000c02:	ea43 430e 	orr.w	r3, r3, lr, lsl #16
 8000c06:	2200      	movs	r2, #0
 8000c08:	e003      	b.n	8000c12 <__divdi3+0xa6>
 8000c0a:	428b      	cmp	r3, r1
 8000c0c:	d90f      	bls.n	8000c2e <__divdi3+0xc2>
 8000c0e:	2200      	movs	r2, #0
 8000c10:	4613      	mov	r3, r2
 8000c12:	1c34      	adds	r4, r6, #0
 8000c14:	bf18      	it	ne
 8000c16:	2401      	movne	r4, #1
 8000c18:	4260      	negs	r0, r4
 8000c1a:	f04f 0500 	mov.w	r5, #0
 8000c1e:	eb65 0145 	sbc.w	r1, r5, r5, lsl #1
 8000c22:	4058      	eors	r0, r3
 8000c24:	4051      	eors	r1, r2
 8000c26:	1900      	adds	r0, r0, r4
 8000c28:	4169      	adcs	r1, r5
 8000c2a:	e8bd 83f0 	ldmia.w	sp!, {r4, r5, r6, r7, r8, r9, pc}
 8000c2e:	fab3 f283 	clz	r2, r3
 8000c32:	2a00      	cmp	r2, #0
 8000c34:	f040 8086 	bne.w	8000d44 <__divdi3+0x1d8>
 8000c38:	428b      	cmp	r3, r1
 8000c3a:	d302      	bcc.n	8000c42 <__divdi3+0xd6>
 8000c3c:	4584      	cmp	ip, r0
 8000c3e:	f200 80db 	bhi.w	8000df8 <__divdi3+0x28c>
 8000c42:	2301      	movs	r3, #1
 8000c44:	e7e5      	b.n	8000c12 <__divdi3+0xa6>
 8000c46:	b912      	cbnz	r2, 8000c4e <__divdi3+0xe2>
 8000c48:	2301      	movs	r3, #1
 8000c4a:	fbb3 f5f2 	udiv	r5, r3, r2
 8000c4e:	fab5 f085 	clz	r0, r5
 8000c52:	2800      	cmp	r0, #0
 8000c54:	d13b      	bne.n	8000cce <__divdi3+0x162>
 8000c56:	1b78      	subs	r0, r7, r5
 8000c58:	ea4f 4e15 	mov.w	lr, r5, lsr #16
 8000c5c:	fa1f fc85 	uxth.w	ip, r5
 8000c60:	2201      	movs	r2, #1
 8000c62:	fbb0 f8fe 	udiv	r8, r0, lr
 8000c66:	0c21      	lsrs	r1, r4, #16
 8000c68:	fb0e 0718 	mls	r7, lr, r8, r0
 8000c6c:	ea41 4707 	orr.w	r7, r1, r7, lsl #16
 8000c70:	fb0c f308 	mul.w	r3, ip, r8
 8000c74:	42bb      	cmp	r3, r7
 8000c76:	d907      	bls.n	8000c88 <__divdi3+0x11c>
 8000c78:	197f      	adds	r7, r7, r5
 8000c7a:	f108 31ff 	add.w	r1, r8, #4294967295	; 0xffffffff
 8000c7e:	d202      	bcs.n	8000c86 <__divdi3+0x11a>
 8000c80:	42bb      	cmp	r3, r7
 8000c82:	f200 80bd 	bhi.w	8000e00 <__divdi3+0x294>
 8000c86:	4688      	mov	r8, r1
 8000c88:	1aff      	subs	r7, r7, r3
 8000c8a:	b2a4      	uxth	r4, r4
 8000c8c:	fbb7 f3fe 	udiv	r3, r7, lr
 8000c90:	fb0e 7713 	mls	r7, lr, r3, r7
 8000c94:	ea44 4707 	orr.w	r7, r4, r7, lsl #16
 8000c98:	fb0c fc03 	mul.w	ip, ip, r3
 8000c9c:	45bc      	cmp	ip, r7
 8000c9e:	d907      	bls.n	8000cb0 <__divdi3+0x144>
 8000ca0:	197f      	adds	r7, r7, r5
 8000ca2:	f103 31ff 	add.w	r1, r3, #4294967295	; 0xffffffff
 8000ca6:	d202      	bcs.n	8000cae <__divdi3+0x142>
 8000ca8:	45bc      	cmp	ip, r7
 8000caa:	f200 80a7 	bhi.w	8000dfc <__divdi3+0x290>
 8000cae:	460b      	mov	r3, r1
 8000cb0:	ea43 4308 	orr.w	r3, r3, r8, lsl #16
 8000cb4:	e7ad      	b.n	8000c12 <__divdi3+0xa6>
 8000cb6:	4252      	negs	r2, r2
 8000cb8:	ea6f 0606 	mvn.w	r6, r6
 8000cbc:	eb63 0343 	sbc.w	r3, r3, r3, lsl #1
 8000cc0:	e75d      	b.n	8000b7e <__divdi3+0x12>
 8000cc2:	4240      	negs	r0, r0
 8000cc4:	eb61 0141 	sbc.w	r1, r1, r1, lsl #1
 8000cc8:	f04f 36ff 	mov.w	r6, #4294967295	; 0xffffffff
 8000ccc:	e754      	b.n	8000b78 <__divdi3+0xc>
 8000cce:	f1c0 0220 	rsb	r2, r0, #32
 8000cd2:	fa24 f102 	lsr.w	r1, r4, r2
 8000cd6:	fa07 f300 	lsl.w	r3, r7, r0
 8000cda:	4085      	lsls	r5, r0
 8000cdc:	ea4f 4e15 	mov.w	lr, r5, lsr #16
 8000ce0:	40d7      	lsrs	r7, r2
 8000ce2:	4319      	orrs	r1, r3
 8000ce4:	fbb7 f2fe 	udiv	r2, r7, lr
 8000ce8:	0c0b      	lsrs	r3, r1, #16
 8000cea:	fb0e 7712 	mls	r7, lr, r2, r7
 8000cee:	fa1f fc85 	uxth.w	ip, r5
 8000cf2:	ea43 4307 	orr.w	r3, r3, r7, lsl #16
 8000cf6:	fb0c f702 	mul.w	r7, ip, r2
 8000cfa:	429f      	cmp	r7, r3
 8000cfc:	fa04 f400 	lsl.w	r4, r4, r0
 8000d00:	d907      	bls.n	8000d12 <__divdi3+0x1a6>
 8000d02:	195b      	adds	r3, r3, r5
 8000d04:	f102 30ff 	add.w	r0, r2, #4294967295	; 0xffffffff
 8000d08:	d274      	bcs.n	8000df4 <__divdi3+0x288>
 8000d0a:	429f      	cmp	r7, r3
 8000d0c:	d972      	bls.n	8000df4 <__divdi3+0x288>
 8000d0e:	3a02      	subs	r2, #2
 8000d10:	442b      	add	r3, r5
 8000d12:	1bdf      	subs	r7, r3, r7
 8000d14:	b289      	uxth	r1, r1
 8000d16:	fbb7 f8fe 	udiv	r8, r7, lr
 8000d1a:	fb0e 7318 	mls	r3, lr, r8, r7
 8000d1e:	ea41 4303 	orr.w	r3, r1, r3, lsl #16
 8000d22:	fb0c f708 	mul.w	r7, ip, r8
 8000d26:	429f      	cmp	r7, r3
 8000d28:	d908      	bls.n	8000d3c <__divdi3+0x1d0>
 8000d2a:	195b      	adds	r3, r3, r5
 8000d2c:	f108 31ff 	add.w	r1, r8, #4294967295	; 0xffffffff
 8000d30:	d25c      	bcs.n	8000dec <__divdi3+0x280>
 8000d32:	429f      	cmp	r7, r3
 8000d34:	d95a      	bls.n	8000dec <__divdi3+0x280>
 8000d36:	f1a8 0802 	sub.w	r8, r8, #2
 8000d3a:	442b      	add	r3, r5
 8000d3c:	1bd8      	subs	r0, r3, r7
 8000d3e:	ea48 4202 	orr.w	r2, r8, r2, lsl #16
 8000d42:	e78e      	b.n	8000c62 <__divdi3+0xf6>
 8000d44:	f1c2 0320 	rsb	r3, r2, #32
 8000d48:	fa2c f103 	lsr.w	r1, ip, r3
 8000d4c:	fa0e fe02 	lsl.w	lr, lr, r2
 8000d50:	fa20 f703 	lsr.w	r7, r0, r3
 8000d54:	ea41 0e0e 	orr.w	lr, r1, lr
 8000d58:	fa08 f002 	lsl.w	r0, r8, r2
 8000d5c:	fa28 f103 	lsr.w	r1, r8, r3
 8000d60:	ea4f 451e 	mov.w	r5, lr, lsr #16
 8000d64:	4338      	orrs	r0, r7
 8000d66:	fbb1 f8f5 	udiv	r8, r1, r5
 8000d6a:	0c03      	lsrs	r3, r0, #16
 8000d6c:	fb05 1118 	mls	r1, r5, r8, r1
 8000d70:	fa1f f78e 	uxth.w	r7, lr
 8000d74:	ea43 4101 	orr.w	r1, r3, r1, lsl #16
 8000d78:	fb07 f308 	mul.w	r3, r7, r8
 8000d7c:	428b      	cmp	r3, r1
 8000d7e:	fa0c fc02 	lsl.w	ip, ip, r2
 8000d82:	d909      	bls.n	8000d98 <__divdi3+0x22c>
 8000d84:	eb11 010e 	adds.w	r1, r1, lr
 8000d88:	f108 39ff 	add.w	r9, r8, #4294967295	; 0xffffffff
 8000d8c:	d230      	bcs.n	8000df0 <__divdi3+0x284>
 8000d8e:	428b      	cmp	r3, r1
 8000d90:	d92e      	bls.n	8000df0 <__divdi3+0x284>
 8000d92:	f1a8 0802 	sub.w	r8, r8, #2
 8000d96:	4471      	add	r1, lr
 8000d98:	1ac9      	subs	r1, r1, r3
 8000d9a:	b280      	uxth	r0, r0
 8000d9c:	fbb1 f3f5 	udiv	r3, r1, r5
 8000da0:	fb05 1113 	mls	r1, r5, r3, r1
 8000da4:	ea40 4101 	orr.w	r1, r0, r1, lsl #16
 8000da8:	fb07 f703 	mul.w	r7, r7, r3
 8000dac:	428f      	cmp	r7, r1
 8000dae:	d908      	bls.n	8000dc2 <__divdi3+0x256>
 8000db0:	eb11 010e 	adds.w	r1, r1, lr
 8000db4:	f103 30ff 	add.w	r0, r3, #4294967295	; 0xffffffff
 8000db8:	d216      	bcs.n	8000de8 <__divdi3+0x27c>
 8000dba:	428f      	cmp	r7, r1
 8000dbc:	d914      	bls.n	8000de8 <__divdi3+0x27c>
 8000dbe:	3b02      	subs	r3, #2
 8000dc0:	4471      	add	r1, lr
 8000dc2:	ea43 4308 	orr.w	r3, r3, r8, lsl #16
 8000dc6:	1bc9      	subs	r1, r1, r7
 8000dc8:	fba3 890c 	umull	r8, r9, r3, ip
 8000dcc:	4549      	cmp	r1, r9
 8000dce:	d309      	bcc.n	8000de4 <__divdi3+0x278>
 8000dd0:	d005      	beq.n	8000dde <__divdi3+0x272>
 8000dd2:	2200      	movs	r2, #0
 8000dd4:	e71d      	b.n	8000c12 <__divdi3+0xa6>
 8000dd6:	4696      	mov	lr, r2
 8000dd8:	e6fe      	b.n	8000bd8 <__divdi3+0x6c>
 8000dda:	4613      	mov	r3, r2
 8000ddc:	e711      	b.n	8000c02 <__divdi3+0x96>
 8000dde:	4094      	lsls	r4, r2
 8000de0:	4544      	cmp	r4, r8
 8000de2:	d2f6      	bcs.n	8000dd2 <__divdi3+0x266>
 8000de4:	3b01      	subs	r3, #1
 8000de6:	e7f4      	b.n	8000dd2 <__divdi3+0x266>
 8000de8:	4603      	mov	r3, r0
 8000dea:	e7ea      	b.n	8000dc2 <__divdi3+0x256>
 8000dec:	4688      	mov	r8, r1
 8000dee:	e7a5      	b.n	8000d3c <__divdi3+0x1d0>
 8000df0:	46c8      	mov	r8, r9
 8000df2:	e7d1      	b.n	8000d98 <__divdi3+0x22c>
 8000df4:	4602      	mov	r2, r0
 8000df6:	e78c      	b.n	8000d12 <__divdi3+0x1a6>
 8000df8:	4613      	mov	r3, r2
 8000dfa:	e70a      	b.n	8000c12 <__divdi3+0xa6>
 8000dfc:	3b02      	subs	r3, #2
 8000dfe:	e757      	b.n	8000cb0 <__divdi3+0x144>
 8000e00:	f1a8 0802 	sub.w	r8, r8, #2
 8000e04:	442f      	add	r7, r5
 8000e06:	e73f      	b.n	8000c88 <__divdi3+0x11c>

08000e08 <__udivdi3>:
 8000e08:	e92d 41f0 	stmdb	sp!, {r4, r5, r6, r7, r8, lr}
 8000e0c:	2b00      	cmp	r3, #0
 8000e0e:	d144      	bne.n	8000e9a <__udivdi3+0x92>
 8000e10:	428a      	cmp	r2, r1
 8000e12:	4615      	mov	r5, r2
 8000e14:	4604      	mov	r4, r0
 8000e16:	d94f      	bls.n	8000eb8 <__udivdi3+0xb0>
 8000e18:	fab2 f782 	clz	r7, r2
 8000e1c:	460e      	mov	r6, r1
 8000e1e:	b14f      	cbz	r7, 8000e34 <__udivdi3+0x2c>
 8000e20:	f1c7 0320 	rsb	r3, r7, #32
 8000e24:	40b9      	lsls	r1, r7
 8000e26:	fa20 f603 	lsr.w	r6, r0, r3
 8000e2a:	fa02 f507 	lsl.w	r5, r2, r7
 8000e2e:	430e      	orrs	r6, r1
 8000e30:	fa00 f407 	lsl.w	r4, r0, r7
 8000e34:	ea4f 4e15 	mov.w	lr, r5, lsr #16
 8000e38:	0c23      	lsrs	r3, r4, #16
 8000e3a:	fbb6 f0fe 	udiv	r0, r6, lr
 8000e3e:	b2af      	uxth	r7, r5
 8000e40:	fb0e 6110 	mls	r1, lr, r0, r6
 8000e44:	ea43 4301 	orr.w	r3, r3, r1, lsl #16
 8000e48:	fb07 f100 	mul.w	r1, r7, r0
 8000e4c:	4299      	cmp	r1, r3
 8000e4e:	d909      	bls.n	8000e64 <__udivdi3+0x5c>
 8000e50:	195b      	adds	r3, r3, r5
 8000e52:	f100 32ff 	add.w	r2, r0, #4294967295	; 0xffffffff
 8000e56:	f080 80ec 	bcs.w	8001032 <__udivdi3+0x22a>
 8000e5a:	4299      	cmp	r1, r3
 8000e5c:	f240 80e9 	bls.w	8001032 <__udivdi3+0x22a>
 8000e60:	3802      	subs	r0, #2
 8000e62:	442b      	add	r3, r5
 8000e64:	1a5a      	subs	r2, r3, r1
 8000e66:	b2a4      	uxth	r4, r4
 8000e68:	fbb2 f3fe 	udiv	r3, r2, lr
 8000e6c:	fb0e 2213 	mls	r2, lr, r3, r2
 8000e70:	ea44 4202 	orr.w	r2, r4, r2, lsl #16
 8000e74:	fb07 f703 	mul.w	r7, r7, r3
 8000e78:	4297      	cmp	r7, r2
 8000e7a:	d908      	bls.n	8000e8e <__udivdi3+0x86>
 8000e7c:	1952      	adds	r2, r2, r5
 8000e7e:	f103 31ff 	add.w	r1, r3, #4294967295	; 0xffffffff
 8000e82:	f080 80d8 	bcs.w	8001036 <__udivdi3+0x22e>
 8000e86:	4297      	cmp	r7, r2
 8000e88:	f240 80d5 	bls.w	8001036 <__udivdi3+0x22e>
 8000e8c:	3b02      	subs	r3, #2
 8000e8e:	ea43 4000 	orr.w	r0, r3, r0, lsl #16
 8000e92:	2600      	movs	r6, #0
 8000e94:	4631      	mov	r1, r6
 8000e96:	e8bd 81f0 	ldmia.w	sp!, {r4, r5, r6, r7, r8, pc}
 8000e9a:	428b      	cmp	r3, r1
 8000e9c:	d847      	bhi.n	8000f2e <__udivdi3+0x126>
 8000e9e:	fab3 f683 	clz	r6, r3
 8000ea2:	2e00      	cmp	r6, #0
 8000ea4:	d148      	bne.n	8000f38 <__udivdi3+0x130>
 8000ea6:	428b      	cmp	r3, r1
 8000ea8:	d302      	bcc.n	8000eb0 <__udivdi3+0xa8>
 8000eaa:	4282      	cmp	r2, r0
 8000eac:	f200 80cd 	bhi.w	800104a <__udivdi3+0x242>
 8000eb0:	2001      	movs	r0, #1
 8000eb2:	4631      	mov	r1, r6
 8000eb4:	e8bd 81f0 	ldmia.w	sp!, {r4, r5, r6, r7, r8, pc}
 8000eb8:	b912      	cbnz	r2, 8000ec0 <__udivdi3+0xb8>
 8000eba:	2501      	movs	r5, #1
 8000ebc:	fbb5 f5f2 	udiv	r5, r5, r2
 8000ec0:	fab5 f885 	clz	r8, r5
 8000ec4:	f1b8 0f00 	cmp.w	r8, #0
 8000ec8:	d177      	bne.n	8000fba <__udivdi3+0x1b2>
 8000eca:	1b4a      	subs	r2, r1, r5
 8000ecc:	ea4f 4e15 	mov.w	lr, r5, lsr #16
 8000ed0:	b2af      	uxth	r7, r5
 8000ed2:	2601      	movs	r6, #1
 8000ed4:	fbb2 f0fe 	udiv	r0, r2, lr
 8000ed8:	0c23      	lsrs	r3, r4, #16
 8000eda:	fb0e 2110 	mls	r1, lr, r0, r2
 8000ede:	ea43 4101 	orr.w	r1, r3, r1, lsl #16
 8000ee2:	fb07 f300 	mul.w	r3, r7, r0
 8000ee6:	428b      	cmp	r3, r1
 8000ee8:	d907      	bls.n	8000efa <__udivdi3+0xf2>
 8000eea:	1949      	adds	r1, r1, r5
 8000eec:	f100 32ff 	add.w	r2, r0, #4294967295	; 0xffffffff
 8000ef0:	d202      	bcs.n	8000ef8 <__udivdi3+0xf0>
 8000ef2:	428b      	cmp	r3, r1
 8000ef4:	f200 80ba 	bhi.w	800106c <__udivdi3+0x264>
 8000ef8:	4610      	mov	r0, r2
 8000efa:	1ac9      	subs	r1, r1, r3
 8000efc:	b2a4      	uxth	r4, r4
 8000efe:	fbb1 f3fe 	udiv	r3, r1, lr
 8000f02:	fb0e 1113 	mls	r1, lr, r3, r1
 8000f06:	ea44 4401 	orr.w	r4, r4, r1, lsl #16
 8000f0a:	fb07 f703 	mul.w	r7, r7, r3
 8000f0e:	42a7      	cmp	r7, r4
 8000f10:	d908      	bls.n	8000f24 <__udivdi3+0x11c>
 8000f12:	1964      	adds	r4, r4, r5
 8000f14:	f103 32ff 	add.w	r2, r3, #4294967295	; 0xffffffff
 8000f18:	f080 808f 	bcs.w	800103a <__udivdi3+0x232>
 8000f1c:	42a7      	cmp	r7, r4
 8000f1e:	f240 808c 	bls.w	800103a <__udivdi3+0x232>
 8000f22:	3b02      	subs	r3, #2
 8000f24:	ea43 4000 	orr.w	r0, r3, r0, lsl #16
 8000f28:	4631      	mov	r1, r6
 8000f2a:	e8bd 81f0 	ldmia.w	sp!, {r4, r5, r6, r7, r8, pc}
 8000f2e:	2600      	movs	r6, #0
 8000f30:	4630      	mov	r0, r6
 8000f32:	4631      	mov	r1, r6
 8000f34:	e8bd 81f0 	ldmia.w	sp!, {r4, r5, r6, r7, r8, pc}
 8000f38:	f1c6 0420 	rsb	r4, r6, #32
 8000f3c:	fa22 f504 	lsr.w	r5, r2, r4
 8000f40:	40b3      	lsls	r3, r6
 8000f42:	432b      	orrs	r3, r5
 8000f44:	fa20 fc04 	lsr.w	ip, r0, r4
 8000f48:	fa01 f706 	lsl.w	r7, r1, r6
 8000f4c:	fa21 f504 	lsr.w	r5, r1, r4
 8000f50:	ea4f 4e13 	mov.w	lr, r3, lsr #16
 8000f54:	ea4c 0707 	orr.w	r7, ip, r7
 8000f58:	fbb5 f8fe 	udiv	r8, r5, lr
 8000f5c:	0c39      	lsrs	r1, r7, #16
 8000f5e:	fb0e 5518 	mls	r5, lr, r8, r5
 8000f62:	fa1f fc83 	uxth.w	ip, r3
 8000f66:	ea41 4505 	orr.w	r5, r1, r5, lsl #16
 8000f6a:	fb0c f108 	mul.w	r1, ip, r8
 8000f6e:	42a9      	cmp	r1, r5
 8000f70:	fa02 f206 	lsl.w	r2, r2, r6
 8000f74:	d904      	bls.n	8000f80 <__udivdi3+0x178>
 8000f76:	18ed      	adds	r5, r5, r3
 8000f78:	f108 34ff 	add.w	r4, r8, #4294967295	; 0xffffffff
 8000f7c:	d367      	bcc.n	800104e <__udivdi3+0x246>
 8000f7e:	46a0      	mov	r8, r4
 8000f80:	1a6d      	subs	r5, r5, r1
 8000f82:	b2bf      	uxth	r7, r7
 8000f84:	fbb5 f4fe 	udiv	r4, r5, lr
 8000f88:	fb0e 5514 	mls	r5, lr, r4, r5
 8000f8c:	ea47 4105 	orr.w	r1, r7, r5, lsl #16
 8000f90:	fb0c fc04 	mul.w	ip, ip, r4
 8000f94:	458c      	cmp	ip, r1
 8000f96:	d904      	bls.n	8000fa2 <__udivdi3+0x19a>
 8000f98:	18c9      	adds	r1, r1, r3
 8000f9a:	f104 35ff 	add.w	r5, r4, #4294967295	; 0xffffffff
 8000f9e:	d35c      	bcc.n	800105a <__udivdi3+0x252>
 8000fa0:	462c      	mov	r4, r5
 8000fa2:	ea44 4408 	orr.w	r4, r4, r8, lsl #16
 8000fa6:	ebcc 0101 	rsb	r1, ip, r1
 8000faa:	fba4 2302 	umull	r2, r3, r4, r2
 8000fae:	4299      	cmp	r1, r3
 8000fb0:	d348      	bcc.n	8001044 <__udivdi3+0x23c>
 8000fb2:	d044      	beq.n	800103e <__udivdi3+0x236>
 8000fb4:	4620      	mov	r0, r4
 8000fb6:	2600      	movs	r6, #0
 8000fb8:	e76c      	b.n	8000e94 <__udivdi3+0x8c>
 8000fba:	f1c8 0420 	rsb	r4, r8, #32
 8000fbe:	fa01 f308 	lsl.w	r3, r1, r8
 8000fc2:	fa05 f508 	lsl.w	r5, r5, r8
 8000fc6:	fa20 f704 	lsr.w	r7, r0, r4
 8000fca:	40e1      	lsrs	r1, r4
 8000fcc:	ea4f 4e15 	mov.w	lr, r5, lsr #16
 8000fd0:	431f      	orrs	r7, r3
 8000fd2:	fbb1 f6fe 	udiv	r6, r1, lr
 8000fd6:	0c3a      	lsrs	r2, r7, #16
 8000fd8:	fb0e 1116 	mls	r1, lr, r6, r1
 8000fdc:	fa1f fc85 	uxth.w	ip, r5
 8000fe0:	ea42 4301 	orr.w	r3, r2, r1, lsl #16
 8000fe4:	fb0c f206 	mul.w	r2, ip, r6
 8000fe8:	429a      	cmp	r2, r3
 8000fea:	fa00 f408 	lsl.w	r4, r0, r8
 8000fee:	d907      	bls.n	8001000 <__udivdi3+0x1f8>
 8000ff0:	195b      	adds	r3, r3, r5
 8000ff2:	f106 31ff 	add.w	r1, r6, #4294967295	; 0xffffffff
 8000ff6:	d237      	bcs.n	8001068 <__udivdi3+0x260>
 8000ff8:	429a      	cmp	r2, r3
 8000ffa:	d935      	bls.n	8001068 <__udivdi3+0x260>
 8000ffc:	3e02      	subs	r6, #2
 8000ffe:	442b      	add	r3, r5
 8001000:	1a9b      	subs	r3, r3, r2
 8001002:	b2bf      	uxth	r7, r7
 8001004:	fbb3 f0fe 	udiv	r0, r3, lr
 8001008:	fb0e 3310 	mls	r3, lr, r0, r3
 800100c:	ea47 4303 	orr.w	r3, r7, r3, lsl #16
 8001010:	fb0c f100 	mul.w	r1, ip, r0
 8001014:	4299      	cmp	r1, r3
 8001016:	d907      	bls.n	8001028 <__udivdi3+0x220>
 8001018:	195b      	adds	r3, r3, r5
 800101a:	f100 32ff 	add.w	r2, r0, #4294967295	; 0xffffffff
 800101e:	d221      	bcs.n	8001064 <__udivdi3+0x25c>
 8001020:	4299      	cmp	r1, r3
 8001022:	d91f      	bls.n	8001064 <__udivdi3+0x25c>
 8001024:	3802      	subs	r0, #2
 8001026:	442b      	add	r3, r5
 8001028:	1a5a      	subs	r2, r3, r1
 800102a:	ea40 4606 	orr.w	r6, r0, r6, lsl #16
 800102e:	4667      	mov	r7, ip
 8001030:	e750      	b.n	8000ed4 <__udivdi3+0xcc>
 8001032:	4610      	mov	r0, r2
 8001034:	e716      	b.n	8000e64 <__udivdi3+0x5c>
 8001036:	460b      	mov	r3, r1
 8001038:	e729      	b.n	8000e8e <__udivdi3+0x86>
 800103a:	4613      	mov	r3, r2
 800103c:	e772      	b.n	8000f24 <__udivdi3+0x11c>
 800103e:	40b0      	lsls	r0, r6
 8001040:	4290      	cmp	r0, r2
 8001042:	d2b7      	bcs.n	8000fb4 <__udivdi3+0x1ac>
 8001044:	1e60      	subs	r0, r4, #1
 8001046:	2600      	movs	r6, #0
 8001048:	e724      	b.n	8000e94 <__udivdi3+0x8c>
 800104a:	4630      	mov	r0, r6
 800104c:	e722      	b.n	8000e94 <__udivdi3+0x8c>
 800104e:	42a9      	cmp	r1, r5
 8001050:	d995      	bls.n	8000f7e <__udivdi3+0x176>
 8001052:	f1a8 0802 	sub.w	r8, r8, #2
 8001056:	441d      	add	r5, r3
 8001058:	e792      	b.n	8000f80 <__udivdi3+0x178>
 800105a:	458c      	cmp	ip, r1
 800105c:	d9a0      	bls.n	8000fa0 <__udivdi3+0x198>
 800105e:	3c02      	subs	r4, #2
 8001060:	4419      	add	r1, r3
 8001062:	e79e      	b.n	8000fa2 <__udivdi3+0x19a>
 8001064:	4610      	mov	r0, r2
 8001066:	e7df      	b.n	8001028 <__udivdi3+0x220>
 8001068:	460e      	mov	r6, r1
 800106a:	e7c9      	b.n	8001000 <__udivdi3+0x1f8>
 800106c:	3802      	subs	r0, #2
 800106e:	4429      	add	r1, r5
 8001070:	e743      	b.n	8000efa <__udivdi3+0xf2>
 8001072:	bf00      	nop

08001074 <Error_Handler>:
 8001074:	b672      	cpsid	i
 8001076:	e7fe      	b.n	8001076 <Error_Handler+0x2>

08001078 <SystemClock_Config>:
 8001078:	b500      	push	{lr}
 800107a:	b095      	sub	sp, #84	; 0x54
 800107c:	2300      	movs	r3, #0
 800107e:	9308      	str	r3, [sp, #32]
 8001080:	9309      	str	r3, [sp, #36]	; 0x24
 8001082:	930a      	str	r3, [sp, #40]	; 0x28
 8001084:	930b      	str	r3, [sp, #44]	; 0x2c
 8001086:	930c      	str	r3, [sp, #48]	; 0x30
 8001088:	930d      	str	r3, [sp, #52]	; 0x34
 800108a:	930e      	str	r3, [sp, #56]	; 0x38
 800108c:	930f      	str	r3, [sp, #60]	; 0x3c
 800108e:	9310      	str	r3, [sp, #64]	; 0x40
 8001090:	9311      	str	r3, [sp, #68]	; 0x44
 8001092:	9312      	str	r3, [sp, #72]	; 0x48
 8001094:	9313      	str	r3, [sp, #76]	; 0x4c
 8001096:	9303      	str	r3, [sp, #12]
 8001098:	9304      	str	r3, [sp, #16]
 800109a:	9305      	str	r3, [sp, #20]
 800109c:	9306      	str	r3, [sp, #24]
 800109e:	9307      	str	r3, [sp, #28]
 80010a0:	9301      	str	r3, [sp, #4]
 80010a2:	4a1f      	ldr	r2, [pc, #124]	; (8001120 <SystemClock_Config+0xa8>)
 80010a4:	6c11      	ldr	r1, [r2, #64]	; 0x40
 80010a6:	f041 5180 	orr.w	r1, r1, #268435456	; 0x10000000
 80010aa:	6411      	str	r1, [r2, #64]	; 0x40
 80010ac:	6c12      	ldr	r2, [r2, #64]	; 0x40
 80010ae:	f002 5280 	and.w	r2, r2, #268435456	; 0x10000000
 80010b2:	9201      	str	r2, [sp, #4]
 80010b4:	9a01      	ldr	r2, [sp, #4]
 80010b6:	9302      	str	r3, [sp, #8]
 80010b8:	4a1a      	ldr	r2, [pc, #104]	; (8001124 <SystemClock_Config+0xac>)
 80010ba:	6811      	ldr	r1, [r2, #0]
 80010bc:	f441 4180 	orr.w	r1, r1, #16384	; 0x4000
 80010c0:	6011      	str	r1, [r2, #0]
 80010c2:	6812      	ldr	r2, [r2, #0]
 80010c4:	f402 4280 	and.w	r2, r2, #16384	; 0x4000
 80010c8:	9202      	str	r2, [sp, #8]
 80010ca:	9a02      	ldr	r2, [sp, #8]
 80010cc:	2202      	movs	r2, #2
 80010ce:	9208      	str	r2, [sp, #32]
 80010d0:	2101      	movs	r1, #1
 80010d2:	910b      	str	r1, [sp, #44]	; 0x2c
 80010d4:	2110      	movs	r1, #16
 80010d6:	910c      	str	r1, [sp, #48]	; 0x30
 80010d8:	920e      	str	r2, [sp, #56]	; 0x38
 80010da:	930f      	str	r3, [sp, #60]	; 0x3c
 80010dc:	2308      	movs	r3, #8
 80010de:	9310      	str	r3, [sp, #64]	; 0x40
 80010e0:	2332      	movs	r3, #50	; 0x32
 80010e2:	9311      	str	r3, [sp, #68]	; 0x44
 80010e4:	9212      	str	r2, [sp, #72]	; 0x48
 80010e6:	2303      	movs	r3, #3
 80010e8:	9313      	str	r3, [sp, #76]	; 0x4c
 80010ea:	a808      	add	r0, sp, #32
 80010ec:	f000 fccc 	bl	8001a88 <HAL_RCC_OscConfig>
 80010f0:	b108      	cbz	r0, 80010f6 <SystemClock_Config+0x7e>
 80010f2:	f7ff ffbf 	bl	8001074 <Error_Handler>
 80010f6:	230f      	movs	r3, #15
 80010f8:	9303      	str	r3, [sp, #12]
 80010fa:	2302      	movs	r3, #2
 80010fc:	9304      	str	r3, [sp, #16]
 80010fe:	2300      	movs	r3, #0
 8001100:	9305      	str	r3, [sp, #20]
 8001102:	f44f 5280 	mov.w	r2, #4096	; 0x1000
 8001106:	9206      	str	r2, [sp, #24]
 8001108:	9307      	str	r3, [sp, #28]
 800110a:	a803      	add	r0, sp, #12
 800110c:	2101      	movs	r1, #1
 800110e:	f000 ff07 	bl	8001f20 <HAL_RCC_ClockConfig>
 8001112:	b108      	cbz	r0, 8001118 <SystemClock_Config+0xa0>
 8001114:	f7ff ffae 	bl	8001074 <Error_Handler>
 8001118:	b015      	add	sp, #84	; 0x54
 800111a:	f85d fb04 	ldr.w	pc, [sp], #4
 800111e:	bf00      	nop
 8001120:	40023800 	.word	0x40023800
 8001124:	40007000 	.word	0x40007000

08001128 <main>:
 8001128:	b570      	push	{r4, r5, r6, lr}
 800112a:	b09e      	sub	sp, #120	; 0x78
 800112c:	f001 f9ac 	bl	8002488 <HAL_Init>
 8001130:	f7ff ffa2 	bl	8001078 <SystemClock_Config>
 8001134:	f000 f8f8 	bl	8001328 <MX_GPIO_Init>
 8001138:	f000 f948 	bl	80013cc <MX_SDIO_SD_Init>
 800113c:	f000 f9a6 	bl	800148c <MX_SPI1_Init>
 8001140:	f000 fa12 	bl	8001568 <MX_USART1_UART_Init>
 8001144:	f000 fbc2 	bl	80018cc <MX_FATFS_Init>
 8001148:	4868      	ldr	r0, [pc, #416]	; (80012ec <main+0x1c4>)
 800114a:	4969      	ldr	r1, [pc, #420]	; (80012f0 <main+0x1c8>)
 800114c:	2201      	movs	r2, #1
 800114e:	f004 f8c7 	bl	80052e0 <f_mount>
 8001152:	4c68      	ldr	r4, [pc, #416]	; (80012f4 <main+0x1cc>)
 8001154:	4620      	mov	r0, r4
 8001156:	a918      	add	r1, sp, #96	; 0x60
 8001158:	f002 f95e 	bl	8003418 <HAL_SD_GetCardCID>
 800115c:	4620      	mov	r0, r4
 800115e:	a90d      	add	r1, sp, #52	; 0x34
 8001160:	f002 f986 	bl	8003470 <HAL_SD_GetCardCSD>
 8001164:	4620      	mov	r0, r4
 8001166:	a909      	add	r1, sp, #36	; 0x24
 8001168:	f002 fb4a 	bl	8003800 <HAL_SD_GetCardStatus>
 800116c:	4620      	mov	r0, r4
 800116e:	a901      	add	r1, sp, #4
 8001170:	f002 fb9c 	bl	80038ac <HAL_SD_GetCardInfo>
 8001174:	9b06      	ldr	r3, [sp, #24]
 8001176:	9c05      	ldr	r4, [sp, #20]
 8001178:	fb03 f304 	mul.w	r3, r3, r4
 800117c:	0d1c      	lsrs	r4, r3, #20
 800117e:	f000 faed 	bl	800175c <oled_init>
 8001182:	485d      	ldr	r0, [pc, #372]	; (80012f8 <main+0x1d0>)
 8001184:	495d      	ldr	r1, [pc, #372]	; (80012fc <main+0x1d4>)
 8001186:	2212      	movs	r2, #18
 8001188:	f004 f8d8 	bl	800533c <f_open>
 800118c:	4b5c      	ldr	r3, [pc, #368]	; (8001300 <main+0x1d8>)
 800118e:	7018      	strb	r0, [r3, #0]
 8001190:	b9a8      	cbnz	r0, 80011be <main+0x96>
 8001192:	4d59      	ldr	r5, [pc, #356]	; (80012f8 <main+0x1d0>)
 8001194:	4628      	mov	r0, r5
 8001196:	495b      	ldr	r1, [pc, #364]	; (8001304 <main+0x1dc>)
 8001198:	4622      	mov	r2, r4
 800119a:	f004 fddf 	bl	8005d5c <f_printf>
 800119e:	4628      	mov	r0, r5
 80011a0:	f004 fc6d 	bl	8005a7e <f_close>
 80011a4:	4d58      	ldr	r5, [pc, #352]	; (8001308 <main+0x1e0>)
 80011a6:	4c59      	ldr	r4, [pc, #356]	; (800130c <main+0x1e4>)
 80011a8:	cc0f      	ldmia	r4!, {r0, r1, r2, r3}
 80011aa:	6028      	str	r0, [r5, #0]
 80011ac:	6069      	str	r1, [r5, #4]
 80011ae:	60aa      	str	r2, [r5, #8]
 80011b0:	60eb      	str	r3, [r5, #12]
 80011b2:	2000      	movs	r0, #0
 80011b4:	4601      	mov	r1, r0
 80011b6:	462a      	mov	r2, r5
 80011b8:	f000 fab0 	bl	800171c <oled_print>
 80011bc:	e00d      	b.n	80011da <main+0xb2>
 80011be:	4d52      	ldr	r5, [pc, #328]	; (8001308 <main+0x1e0>)
 80011c0:	4c53      	ldr	r4, [pc, #332]	; (8001310 <main+0x1e8>)
 80011c2:	cc0f      	ldmia	r4!, {r0, r1, r2, r3}
 80011c4:	6028      	str	r0, [r5, #0]
 80011c6:	6069      	str	r1, [r5, #4]
 80011c8:	60aa      	str	r2, [r5, #8]
 80011ca:	60eb      	str	r3, [r5, #12]
 80011cc:	8823      	ldrh	r3, [r4, #0]
 80011ce:	822b      	strh	r3, [r5, #16]
 80011d0:	2000      	movs	r0, #0
 80011d2:	4601      	mov	r1, r0
 80011d4:	462a      	mov	r2, r5
 80011d6:	f000 faa1 	bl	800171c <oled_print>
 80011da:	4847      	ldr	r0, [pc, #284]	; (80012f8 <main+0x1d0>)
 80011dc:	494d      	ldr	r1, [pc, #308]	; (8001314 <main+0x1ec>)
 80011de:	2201      	movs	r2, #1
 80011e0:	f004 f8ac 	bl	800533c <f_open>
 80011e4:	4b46      	ldr	r3, [pc, #280]	; (8001300 <main+0x1d8>)
 80011e6:	7018      	strb	r0, [r3, #0]
 80011e8:	b968      	cbnz	r0, 8001206 <main+0xde>
 80011ea:	4c47      	ldr	r4, [pc, #284]	; (8001308 <main+0x1e0>)
 80011ec:	4b4a      	ldr	r3, [pc, #296]	; (8001318 <main+0x1f0>)
 80011ee:	cb07      	ldmia	r3!, {r0, r1, r2}
 80011f0:	6020      	str	r0, [r4, #0]
 80011f2:	6061      	str	r1, [r4, #4]
 80011f4:	60a2      	str	r2, [r4, #8]
 80011f6:	881b      	ldrh	r3, [r3, #0]
 80011f8:	81a3      	strh	r3, [r4, #12]
 80011fa:	2000      	movs	r0, #0
 80011fc:	2102      	movs	r1, #2
 80011fe:	4622      	mov	r2, r4
 8001200:	f000 fa8c 	bl	800171c <oled_print>
 8001204:	e00b      	b.n	800121e <main+0xf6>
 8001206:	4d40      	ldr	r5, [pc, #256]	; (8001308 <main+0x1e0>)
 8001208:	4c44      	ldr	r4, [pc, #272]	; (800131c <main+0x1f4>)
 800120a:	cc0f      	ldmia	r4!, {r0, r1, r2, r3}
 800120c:	6028      	str	r0, [r5, #0]
 800120e:	6069      	str	r1, [r5, #4]
 8001210:	60aa      	str	r2, [r5, #8]
 8001212:	60eb      	str	r3, [r5, #12]
 8001214:	2000      	movs	r0, #0
 8001216:	2102      	movs	r1, #2
 8001218:	462a      	mov	r2, r5
 800121a:	f000 fa7f 	bl	800171c <oled_print>
 800121e:	4c3a      	ldr	r4, [pc, #232]	; (8001308 <main+0x1e0>)
 8001220:	4b3f      	ldr	r3, [pc, #252]	; (8001320 <main+0x1f8>)
 8001222:	cb07      	ldmia	r3!, {r0, r1, r2}
 8001224:	6020      	str	r0, [r4, #0]
 8001226:	6061      	str	r1, [r4, #4]
 8001228:	60a2      	str	r2, [r4, #8]
 800122a:	781b      	ldrb	r3, [r3, #0]
 800122c:	7323      	strb	r3, [r4, #12]
 800122e:	2000      	movs	r0, #0
 8001230:	2104      	movs	r1, #4
 8001232:	4622      	mov	r2, r4
 8001234:	f000 fa72 	bl	800171c <oled_print>
 8001238:	f44f 70fa 	mov.w	r0, #500	; 0x1f4
 800123c:	f001 f950 	bl	80024e0 <HAL_Delay>
 8001240:	4d38      	ldr	r5, [pc, #224]	; (8001324 <main+0x1fc>)
 8001242:	cd0f      	ldmia	r5!, {r0, r1, r2, r3}
 8001244:	6020      	str	r0, [r4, #0]
 8001246:	6061      	str	r1, [r4, #4]
 8001248:	60a2      	str	r2, [r4, #8]
 800124a:	60e3      	str	r3, [r4, #12]
 800124c:	2000      	movs	r0, #0
 800124e:	2106      	movs	r1, #6
 8001250:	4622      	mov	r2, r4
 8001252:	f000 fa63 	bl	800171c <oled_print>
 8001256:	f44f 70fa 	mov.w	r0, #500	; 0x1f4
 800125a:	f001 f941 	bl	80024e0 <HAL_Delay>
 800125e:	f000 fa20 	bl	80016a2 <oled_clear>
 8001262:	f000 fa1e 	bl	80016a2 <oled_clear>
 8001266:	4824      	ldr	r0, [pc, #144]	; (80012f8 <main+0x1d0>)
 8001268:	2100      	movs	r1, #0
 800126a:	f004 fc1d 	bl	8005aa8 <f_lseek>
 800126e:	24ff      	movs	r4, #255	; 0xff
 8001270:	4626      	mov	r6, r4
 8001272:	e034      	b.n	80012de <main+0x1b6>
 8001274:	4820      	ldr	r0, [pc, #128]	; (80012f8 <main+0x1d0>)
 8001276:	f10d 0101 	add.w	r1, sp, #1
 800127a:	2201      	movs	r2, #1
 800127c:	2300      	movs	r3, #0
 800127e:	f004 f977 	bl	8005570 <f_read>
 8001282:	f89d 3001 	ldrb.w	r3, [sp, #1]
 8001286:	2bff      	cmp	r3, #255	; 0xff
 8001288:	d103      	bne.n	8001292 <main+0x16a>
 800128a:	201e      	movs	r0, #30
 800128c:	f001 f928 	bl	80024e0 <HAL_Delay>
 8001290:	e025      	b.n	80012de <main+0x1b6>
 8001292:	4d19      	ldr	r5, [pc, #100]	; (80012f8 <main+0x1d0>)
 8001294:	4628      	mov	r0, r5
 8001296:	f10d 0102 	add.w	r1, sp, #2
 800129a:	2201      	movs	r2, #1
 800129c:	2300      	movs	r3, #0
 800129e:	f004 f967 	bl	8005570 <f_read>
 80012a2:	4628      	mov	r0, r5
 80012a4:	f10d 0103 	add.w	r1, sp, #3
 80012a8:	2201      	movs	r2, #1
 80012aa:	2300      	movs	r3, #0
 80012ac:	f004 f960 	bl	8005570 <f_read>
 80012b0:	f89d 0002 	ldrb.w	r0, [sp, #2]
 80012b4:	3401      	adds	r4, #1
 80012b6:	42a0      	cmp	r0, r4
 80012b8:	d103      	bne.n	80012c2 <main+0x19a>
 80012ba:	f89d 3001 	ldrb.w	r3, [sp, #1]
 80012be:	42b3      	cmp	r3, r6
 80012c0:	d004      	beq.n	80012cc <main+0x1a4>
 80012c2:	3015      	adds	r0, #21
 80012c4:	f89d 1001 	ldrb.w	r1, [sp, #1]
 80012c8:	f000 f9d6 	bl	8001678 <oled_set_position>
 80012cc:	f89d 0003 	ldrb.w	r0, [sp, #3]
 80012d0:	2101      	movs	r1, #1
 80012d2:	f000 f9a3 	bl	800161c <oled_write_byte>
 80012d6:	f89d 6001 	ldrb.w	r6, [sp, #1]
 80012da:	f89d 4002 	ldrb.w	r4, [sp, #2]
 80012de:	4b06      	ldr	r3, [pc, #24]	; (80012f8 <main+0x1d0>)
 80012e0:	699a      	ldr	r2, [r3, #24]
 80012e2:	68db      	ldr	r3, [r3, #12]
 80012e4:	429a      	cmp	r2, r3
 80012e6:	d1c5      	bne.n	8001274 <main+0x14c>
 80012e8:	e7bb      	b.n	8001262 <main+0x13a>
 80012ea:	bf00      	nop
 80012ec:	2000129c 	.word	0x2000129c
 80012f0:	20000268 	.word	0x20000268
 80012f4:	20000144 	.word	0x20000144
 80012f8:	2000026c 	.word	0x2000026c
 80012fc:	08007b30 	.word	0x08007b30
 8001300:	20000264 	.word	0x20000264
 8001304:	08007b3c 	.word	0x08007b3c
 8001308:	20000104 	.word	0x20000104
 800130c:	08007b4c 	.word	0x08007b4c
 8001310:	08007b5c 	.word	0x08007b5c
 8001314:	08007b70 	.word	0x08007b70
 8001318:	08007b80 	.word	0x08007b80
 800131c:	08007b90 	.word	0x08007b90
 8001320:	08007ba0 	.word	0x08007ba0
 8001324:	08007bb0 	.word	0x08007bb0

08001328 <MX_GPIO_Init>:
 8001328:	b530      	push	{r4, r5, lr}
 800132a:	b08b      	sub	sp, #44	; 0x2c
 800132c:	2400      	movs	r4, #0
 800132e:	9405      	str	r4, [sp, #20]
 8001330:	9406      	str	r4, [sp, #24]
 8001332:	9407      	str	r4, [sp, #28]
 8001334:	9408      	str	r4, [sp, #32]
 8001336:	9409      	str	r4, [sp, #36]	; 0x24
 8001338:	9400      	str	r4, [sp, #0]
 800133a:	4b22      	ldr	r3, [pc, #136]	; (80013c4 <MX_GPIO_Init+0x9c>)
 800133c:	6b1a      	ldr	r2, [r3, #48]	; 0x30
 800133e:	f042 0280 	orr.w	r2, r2, #128	; 0x80
 8001342:	631a      	str	r2, [r3, #48]	; 0x30
 8001344:	6b1a      	ldr	r2, [r3, #48]	; 0x30
 8001346:	f002 0280 	and.w	r2, r2, #128	; 0x80
 800134a:	9200      	str	r2, [sp, #0]
 800134c:	9a00      	ldr	r2, [sp, #0]
 800134e:	9401      	str	r4, [sp, #4]
 8001350:	6b1a      	ldr	r2, [r3, #48]	; 0x30
 8001352:	f042 0201 	orr.w	r2, r2, #1
 8001356:	631a      	str	r2, [r3, #48]	; 0x30
 8001358:	6b1a      	ldr	r2, [r3, #48]	; 0x30
 800135a:	f002 0201 	and.w	r2, r2, #1
 800135e:	9201      	str	r2, [sp, #4]
 8001360:	9a01      	ldr	r2, [sp, #4]
 8001362:	9402      	str	r4, [sp, #8]
 8001364:	6b1a      	ldr	r2, [r3, #48]	; 0x30
 8001366:	f042 0204 	orr.w	r2, r2, #4
 800136a:	631a      	str	r2, [r3, #48]	; 0x30
 800136c:	6b1a      	ldr	r2, [r3, #48]	; 0x30
 800136e:	f002 0204 	and.w	r2, r2, #4
 8001372:	9202      	str	r2, [sp, #8]
 8001374:	9a02      	ldr	r2, [sp, #8]
 8001376:	9403      	str	r4, [sp, #12]
 8001378:	6b1a      	ldr	r2, [r3, #48]	; 0x30
 800137a:	f042 0208 	orr.w	r2, r2, #8
 800137e:	631a      	str	r2, [r3, #48]	; 0x30
 8001380:	6b1a      	ldr	r2, [r3, #48]	; 0x30
 8001382:	f002 0208 	and.w	r2, r2, #8
 8001386:	9203      	str	r2, [sp, #12]
 8001388:	9a03      	ldr	r2, [sp, #12]
 800138a:	9404      	str	r4, [sp, #16]
 800138c:	6b1a      	ldr	r2, [r3, #48]	; 0x30
 800138e:	f042 0202 	orr.w	r2, r2, #2
 8001392:	631a      	str	r2, [r3, #48]	; 0x30
 8001394:	6b1b      	ldr	r3, [r3, #48]	; 0x30
 8001396:	f003 0302 	and.w	r3, r3, #2
 800139a:	9304      	str	r3, [sp, #16]
 800139c:	9b04      	ldr	r3, [sp, #16]
 800139e:	4d0a      	ldr	r5, [pc, #40]	; (80013c8 <MX_GPIO_Init+0xa0>)
 80013a0:	4622      	mov	r2, r4
 80013a2:	21a8      	movs	r1, #168	; 0xa8
 80013a4:	4628      	mov	r0, r5
 80013a6:	f000 ff7b 	bl	80022a0 <HAL_GPIO_WritePin>
 80013aa:	23a8      	movs	r3, #168	; 0xa8
 80013ac:	9305      	str	r3, [sp, #20]
 80013ae:	2301      	movs	r3, #1
 80013b0:	9306      	str	r3, [sp, #24]
 80013b2:	9407      	str	r4, [sp, #28]
 80013b4:	9408      	str	r4, [sp, #32]
 80013b6:	a905      	add	r1, sp, #20
 80013b8:	4628      	mov	r0, r5
 80013ba:	f000 fe87 	bl	80020cc <HAL_GPIO_Init>
 80013be:	b00b      	add	sp, #44	; 0x2c
 80013c0:	bd30      	pop	{r4, r5, pc}
 80013c2:	bf00      	nop
 80013c4:	40023800 	.word	0x40023800
 80013c8:	40020c00 	.word	0x40020c00

080013cc <MX_SDIO_SD_Init>:
 80013cc:	4b05      	ldr	r3, [pc, #20]	; (80013e4 <MX_SDIO_SD_Init+0x18>)
 80013ce:	4a06      	ldr	r2, [pc, #24]	; (80013e8 <MX_SDIO_SD_Init+0x1c>)
 80013d0:	601a      	str	r2, [r3, #0]
 80013d2:	2200      	movs	r2, #0
 80013d4:	605a      	str	r2, [r3, #4]
 80013d6:	609a      	str	r2, [r3, #8]
 80013d8:	60da      	str	r2, [r3, #12]
 80013da:	611a      	str	r2, [r3, #16]
 80013dc:	615a      	str	r2, [r3, #20]
 80013de:	619a      	str	r2, [r3, #24]
 80013e0:	4770      	bx	lr
 80013e2:	bf00      	nop
 80013e4:	20000144 	.word	0x20000144
 80013e8:	40012c00 	.word	0x40012c00

080013ec <HAL_SD_MspInit>:
 80013ec:	b5f0      	push	{r4, r5, r6, r7, lr}
 80013ee:	b089      	sub	sp, #36	; 0x24
 80013f0:	2300      	movs	r3, #0
 80013f2:	9303      	str	r3, [sp, #12]
 80013f4:	9304      	str	r3, [sp, #16]
 80013f6:	9305      	str	r3, [sp, #20]
 80013f8:	9306      	str	r3, [sp, #24]
 80013fa:	9307      	str	r3, [sp, #28]
 80013fc:	6802      	ldr	r2, [r0, #0]
 80013fe:	4b20      	ldr	r3, [pc, #128]	; (8001480 <HAL_SD_MspInit+0x94>)
 8001400:	429a      	cmp	r2, r3
 8001402:	d001      	beq.n	8001408 <HAL_SD_MspInit+0x1c>
 8001404:	b009      	add	sp, #36	; 0x24
 8001406:	bdf0      	pop	{r4, r5, r6, r7, pc}
 8001408:	2400      	movs	r4, #0
 800140a:	9400      	str	r4, [sp, #0]
 800140c:	f503 3386 	add.w	r3, r3, #68608	; 0x10c00
 8001410:	6c5a      	ldr	r2, [r3, #68]	; 0x44
 8001412:	f442 6200 	orr.w	r2, r2, #2048	; 0x800
 8001416:	645a      	str	r2, [r3, #68]	; 0x44
 8001418:	6c5a      	ldr	r2, [r3, #68]	; 0x44
 800141a:	f402 6200 	and.w	r2, r2, #2048	; 0x800
 800141e:	9200      	str	r2, [sp, #0]
 8001420:	9a00      	ldr	r2, [sp, #0]
 8001422:	9401      	str	r4, [sp, #4]
 8001424:	6b1a      	ldr	r2, [r3, #48]	; 0x30
 8001426:	f042 0204 	orr.w	r2, r2, #4
 800142a:	631a      	str	r2, [r3, #48]	; 0x30
 800142c:	6b1a      	ldr	r2, [r3, #48]	; 0x30
 800142e:	f002 0204 	and.w	r2, r2, #4
 8001432:	9201      	str	r2, [sp, #4]
 8001434:	9a01      	ldr	r2, [sp, #4]
 8001436:	9402      	str	r4, [sp, #8]
 8001438:	6b1a      	ldr	r2, [r3, #48]	; 0x30
 800143a:	f042 0208 	orr.w	r2, r2, #8
 800143e:	631a      	str	r2, [r3, #48]	; 0x30
 8001440:	6b1b      	ldr	r3, [r3, #48]	; 0x30
 8001442:	f003 0308 	and.w	r3, r3, #8
 8001446:	9302      	str	r3, [sp, #8]
 8001448:	9b02      	ldr	r3, [sp, #8]
 800144a:	f44f 53f8 	mov.w	r3, #7936	; 0x1f00
 800144e:	9303      	str	r3, [sp, #12]
 8001450:	2702      	movs	r7, #2
 8001452:	9704      	str	r7, [sp, #16]
 8001454:	9405      	str	r4, [sp, #20]
 8001456:	2603      	movs	r6, #3
 8001458:	9606      	str	r6, [sp, #24]
 800145a:	250c      	movs	r5, #12
 800145c:	9507      	str	r5, [sp, #28]
 800145e:	eb0d 0105 	add.w	r1, sp, r5
 8001462:	4808      	ldr	r0, [pc, #32]	; (8001484 <HAL_SD_MspInit+0x98>)
 8001464:	f000 fe32 	bl	80020cc <HAL_GPIO_Init>
 8001468:	2304      	movs	r3, #4
 800146a:	9303      	str	r3, [sp, #12]
 800146c:	9704      	str	r7, [sp, #16]
 800146e:	9405      	str	r4, [sp, #20]
 8001470:	9606      	str	r6, [sp, #24]
 8001472:	9507      	str	r5, [sp, #28]
 8001474:	eb0d 0105 	add.w	r1, sp, r5
 8001478:	4803      	ldr	r0, [pc, #12]	; (8001488 <HAL_SD_MspInit+0x9c>)
 800147a:	f000 fe27 	bl	80020cc <HAL_GPIO_Init>
 800147e:	e7c1      	b.n	8001404 <HAL_SD_MspInit+0x18>
 8001480:	40012c00 	.word	0x40012c00
 8001484:	40020800 	.word	0x40020800
 8001488:	40020c00 	.word	0x40020c00

0800148c <MX_SPI1_Init>:
 800148c:	b508      	push	{r3, lr}
 800148e:	480d      	ldr	r0, [pc, #52]	; (80014c4 <MX_SPI1_Init+0x38>)
 8001490:	4b0d      	ldr	r3, [pc, #52]	; (80014c8 <MX_SPI1_Init+0x3c>)
 8001492:	6003      	str	r3, [r0, #0]
 8001494:	f44f 7382 	mov.w	r3, #260	; 0x104
 8001498:	6043      	str	r3, [r0, #4]
 800149a:	2300      	movs	r3, #0
 800149c:	6083      	str	r3, [r0, #8]
 800149e:	60c3      	str	r3, [r0, #12]
 80014a0:	6103      	str	r3, [r0, #16]
 80014a2:	6143      	str	r3, [r0, #20]
 80014a4:	f44f 7200 	mov.w	r2, #512	; 0x200
 80014a8:	6182      	str	r2, [r0, #24]
 80014aa:	61c3      	str	r3, [r0, #28]
 80014ac:	6203      	str	r3, [r0, #32]
 80014ae:	6243      	str	r3, [r0, #36]	; 0x24
 80014b0:	6283      	str	r3, [r0, #40]	; 0x28
 80014b2:	230a      	movs	r3, #10
 80014b4:	62c3      	str	r3, [r0, #44]	; 0x2c
 80014b6:	f002 fb19 	bl	8003aec <HAL_SPI_Init>
 80014ba:	b900      	cbnz	r0, 80014be <MX_SPI1_Init+0x32>
 80014bc:	bd08      	pop	{r3, pc}
 80014be:	f7ff fdd9 	bl	8001074 <Error_Handler>
 80014c2:	e7fb      	b.n	80014bc <MX_SPI1_Init+0x30>
 80014c4:	200001c8 	.word	0x200001c8
 80014c8:	40013000 	.word	0x40013000

080014cc <HAL_SPI_MspInit>:
 80014cc:	b5f0      	push	{r4, r5, r6, r7, lr}
 80014ce:	b089      	sub	sp, #36	; 0x24
 80014d0:	2300      	movs	r3, #0
 80014d2:	9303      	str	r3, [sp, #12]
 80014d4:	9304      	str	r3, [sp, #16]
 80014d6:	9305      	str	r3, [sp, #20]
 80014d8:	9306      	str	r3, [sp, #24]
 80014da:	9307      	str	r3, [sp, #28]
 80014dc:	6802      	ldr	r2, [r0, #0]
 80014de:	4b1f      	ldr	r3, [pc, #124]	; (800155c <HAL_SPI_MspInit+0x90>)
 80014e0:	429a      	cmp	r2, r3
 80014e2:	d001      	beq.n	80014e8 <HAL_SPI_MspInit+0x1c>
 80014e4:	b009      	add	sp, #36	; 0x24
 80014e6:	bdf0      	pop	{r4, r5, r6, r7, pc}
 80014e8:	2400      	movs	r4, #0
 80014ea:	9400      	str	r4, [sp, #0]
 80014ec:	f503 3384 	add.w	r3, r3, #67584	; 0x10800
 80014f0:	6c5a      	ldr	r2, [r3, #68]	; 0x44
 80014f2:	f442 5280 	orr.w	r2, r2, #4096	; 0x1000
 80014f6:	645a      	str	r2, [r3, #68]	; 0x44
 80014f8:	6c5a      	ldr	r2, [r3, #68]	; 0x44
 80014fa:	f402 5280 	and.w	r2, r2, #4096	; 0x1000
 80014fe:	9200      	str	r2, [sp, #0]
 8001500:	9a00      	ldr	r2, [sp, #0]
 8001502:	9401      	str	r4, [sp, #4]
 8001504:	6b1a      	ldr	r2, [r3, #48]	; 0x30
 8001506:	f042 0201 	orr.w	r2, r2, #1
 800150a:	631a      	str	r2, [r3, #48]	; 0x30
 800150c:	6b1a      	ldr	r2, [r3, #48]	; 0x30
 800150e:	f002 0201 	and.w	r2, r2, #1
 8001512:	9201      	str	r2, [sp, #4]
 8001514:	9a01      	ldr	r2, [sp, #4]
 8001516:	9402      	str	r4, [sp, #8]
 8001518:	6b1a      	ldr	r2, [r3, #48]	; 0x30
 800151a:	f042 0202 	orr.w	r2, r2, #2
 800151e:	631a      	str	r2, [r3, #48]	; 0x30
 8001520:	6b1b      	ldr	r3, [r3, #48]	; 0x30
 8001522:	f003 0302 	and.w	r3, r3, #2
 8001526:	9302      	str	r3, [sp, #8]
 8001528:	9b02      	ldr	r3, [sp, #8]
 800152a:	2340      	movs	r3, #64	; 0x40
 800152c:	9303      	str	r3, [sp, #12]
 800152e:	2702      	movs	r7, #2
 8001530:	9704      	str	r7, [sp, #16]
 8001532:	9405      	str	r4, [sp, #20]
 8001534:	2603      	movs	r6, #3
 8001536:	9606      	str	r6, [sp, #24]
 8001538:	2505      	movs	r5, #5
 800153a:	9507      	str	r5, [sp, #28]
 800153c:	a903      	add	r1, sp, #12
 800153e:	4808      	ldr	r0, [pc, #32]	; (8001560 <HAL_SPI_MspInit+0x94>)
 8001540:	f000 fdc4 	bl	80020cc <HAL_GPIO_Init>
 8001544:	2328      	movs	r3, #40	; 0x28
 8001546:	9303      	str	r3, [sp, #12]
 8001548:	9704      	str	r7, [sp, #16]
 800154a:	9405      	str	r4, [sp, #20]
 800154c:	9606      	str	r6, [sp, #24]
 800154e:	9507      	str	r5, [sp, #28]
 8001550:	a903      	add	r1, sp, #12
 8001552:	4804      	ldr	r0, [pc, #16]	; (8001564 <HAL_SPI_MspInit+0x98>)
 8001554:	f000 fdba 	bl	80020cc <HAL_GPIO_Init>
 8001558:	e7c4      	b.n	80014e4 <HAL_SPI_MspInit+0x18>
 800155a:	bf00      	nop
 800155c:	40013000 	.word	0x40013000
 8001560:	40020000 	.word	0x40020000
 8001564:	40020400 	.word	0x40020400

08001568 <MX_USART1_UART_Init>:
 8001568:	b508      	push	{r3, lr}
 800156a:	480a      	ldr	r0, [pc, #40]	; (8001594 <MX_USART1_UART_Init+0x2c>)
 800156c:	4b0a      	ldr	r3, [pc, #40]	; (8001598 <MX_USART1_UART_Init+0x30>)
 800156e:	6003      	str	r3, [r0, #0]
 8001570:	f44f 33e1 	mov.w	r3, #115200	; 0x1c200
 8001574:	6043      	str	r3, [r0, #4]
 8001576:	2300      	movs	r3, #0
 8001578:	6083      	str	r3, [r0, #8]
 800157a:	60c3      	str	r3, [r0, #12]
 800157c:	6103      	str	r3, [r0, #16]
 800157e:	220c      	movs	r2, #12
 8001580:	6142      	str	r2, [r0, #20]
 8001582:	6183      	str	r3, [r0, #24]
 8001584:	61c3      	str	r3, [r0, #28]
 8001586:	f002 fcbf 	bl	8003f08 <HAL_UART_Init>
 800158a:	b900      	cbnz	r0, 800158e <MX_USART1_UART_Init+0x26>
 800158c:	bd08      	pop	{r3, pc}
 800158e:	f7ff fd71 	bl	8001074 <Error_Handler>
 8001592:	e7fb      	b.n	800158c <MX_USART1_UART_Init+0x24>
 8001594:	20000220 	.word	0x20000220
 8001598:	40011000 	.word	0x40011000

0800159c <HAL_UART_MspInit>:
 800159c:	b510      	push	{r4, lr}
 800159e:	b088      	sub	sp, #32
 80015a0:	2300      	movs	r3, #0
 80015a2:	9303      	str	r3, [sp, #12]
 80015a4:	9304      	str	r3, [sp, #16]
 80015a6:	9305      	str	r3, [sp, #20]
 80015a8:	9306      	str	r3, [sp, #24]
 80015aa:	9307      	str	r3, [sp, #28]
 80015ac:	6802      	ldr	r2, [r0, #0]
 80015ae:	f103 4380 	add.w	r3, r3, #1073741824	; 0x40000000
 80015b2:	f503 3388 	add.w	r3, r3, #69632	; 0x11000
 80015b6:	429a      	cmp	r2, r3
 80015b8:	d001      	beq.n	80015be <HAL_UART_MspInit+0x22>
 80015ba:	b008      	add	sp, #32
 80015bc:	bd10      	pop	{r4, pc}
 80015be:	2400      	movs	r4, #0
 80015c0:	9401      	str	r4, [sp, #4]
 80015c2:	f503 3394 	add.w	r3, r3, #75776	; 0x12800
 80015c6:	6c5a      	ldr	r2, [r3, #68]	; 0x44
 80015c8:	f042 0210 	orr.w	r2, r2, #16
 80015cc:	645a      	str	r2, [r3, #68]	; 0x44
 80015ce:	6c5a      	ldr	r2, [r3, #68]	; 0x44
 80015d0:	f002 0210 	and.w	r2, r2, #16
 80015d4:	9201      	str	r2, [sp, #4]
 80015d6:	9a01      	ldr	r2, [sp, #4]
 80015d8:	9402      	str	r4, [sp, #8]
 80015da:	6b1a      	ldr	r2, [r3, #48]	; 0x30
 80015dc:	f042 0202 	orr.w	r2, r2, #2
 80015e0:	631a      	str	r2, [r3, #48]	; 0x30
 80015e2:	6b1b      	ldr	r3, [r3, #48]	; 0x30
 80015e4:	f003 0302 	and.w	r3, r3, #2
 80015e8:	9302      	str	r3, [sp, #8]
 80015ea:	9b02      	ldr	r3, [sp, #8]
 80015ec:	23c0      	movs	r3, #192	; 0xc0
 80015ee:	9303      	str	r3, [sp, #12]
 80015f0:	2302      	movs	r3, #2
 80015f2:	9304      	str	r3, [sp, #16]
 80015f4:	9405      	str	r4, [sp, #20]
 80015f6:	2303      	movs	r3, #3
 80015f8:	9306      	str	r3, [sp, #24]
 80015fa:	2307      	movs	r3, #7
 80015fc:	9307      	str	r3, [sp, #28]
 80015fe:	a903      	add	r1, sp, #12
 8001600:	4805      	ldr	r0, [pc, #20]	; (8001618 <HAL_UART_MspInit+0x7c>)
 8001602:	f000 fd63 	bl	80020cc <HAL_GPIO_Init>
 8001606:	4622      	mov	r2, r4
 8001608:	4621      	mov	r1, r4
 800160a:	2025      	movs	r0, #37	; 0x25
 800160c:	f000 febe 	bl	800238c <HAL_NVIC_SetPriority>
 8001610:	2025      	movs	r0, #37	; 0x25
 8001612:	f000 feef 	bl	80023f4 <HAL_NVIC_EnableIRQ>
 8001616:	e7d0      	b.n	80015ba <HAL_UART_MspInit+0x1e>
 8001618:	40020400 	.word	0x40020400

0800161c <oled_write_byte>:
 800161c:	b510      	push	{r4, lr}
 800161e:	b082      	sub	sp, #8
 8001620:	f88d 0007 	strb.w	r0, [sp, #7]
 8001624:	b1f1      	cbz	r1, 8001664 <oled_write_byte+0x48>
 8001626:	2201      	movs	r2, #1
 8001628:	2120      	movs	r1, #32
 800162a:	4811      	ldr	r0, [pc, #68]	; (8001670 <oled_write_byte+0x54>)
 800162c:	f000 fe38 	bl	80022a0 <HAL_GPIO_WritePin>
 8001630:	4c0f      	ldr	r4, [pc, #60]	; (8001670 <oled_write_byte+0x54>)
 8001632:	2200      	movs	r2, #0
 8001634:	2108      	movs	r1, #8
 8001636:	4620      	mov	r0, r4
 8001638:	f000 fe32 	bl	80022a0 <HAL_GPIO_WritePin>
 800163c:	f04f 33ff 	mov.w	r3, #4294967295	; 0xffffffff
 8001640:	2201      	movs	r2, #1
 8001642:	f10d 0107 	add.w	r1, sp, #7
 8001646:	480b      	ldr	r0, [pc, #44]	; (8001674 <oled_write_byte+0x58>)
 8001648:	f002 faaf 	bl	8003baa <HAL_SPI_Transmit>
 800164c:	2201      	movs	r2, #1
 800164e:	2108      	movs	r1, #8
 8001650:	4620      	mov	r0, r4
 8001652:	f000 fe25 	bl	80022a0 <HAL_GPIO_WritePin>
 8001656:	2201      	movs	r2, #1
 8001658:	2120      	movs	r1, #32
 800165a:	4620      	mov	r0, r4
 800165c:	f000 fe20 	bl	80022a0 <HAL_GPIO_WritePin>
 8001660:	b002      	add	sp, #8
 8001662:	bd10      	pop	{r4, pc}
 8001664:	2200      	movs	r2, #0
 8001666:	2120      	movs	r1, #32
 8001668:	4801      	ldr	r0, [pc, #4]	; (8001670 <oled_write_byte+0x54>)
 800166a:	f000 fe19 	bl	80022a0 <HAL_GPIO_WritePin>
 800166e:	e7df      	b.n	8001630 <oled_write_byte+0x14>
 8001670:	40020c00 	.word	0x40020c00
 8001674:	200001c8 	.word	0x200001c8

08001678 <oled_set_position>:
 8001678:	b510      	push	{r4, lr}
 800167a:	4604      	mov	r4, r0
 800167c:	f061 004f 	orn	r0, r1, #79	; 0x4f
 8001680:	2100      	movs	r1, #0
 8001682:	b2c0      	uxtb	r0, r0
 8001684:	f7ff ffca 	bl	800161c <oled_write_byte>
 8001688:	f3c4 1003 	ubfx	r0, r4, #4, #4
 800168c:	2100      	movs	r1, #0
 800168e:	f040 0010 	orr.w	r0, r0, #16
 8001692:	f7ff ffc3 	bl	800161c <oled_write_byte>
 8001696:	2100      	movs	r1, #0
 8001698:	f004 000f 	and.w	r0, r4, #15
 800169c:	f7ff ffbe 	bl	800161c <oled_write_byte>
 80016a0:	bd10      	pop	{r4, pc}

080016a2 <oled_clear>:
 80016a2:	b538      	push	{r3, r4, r5, lr}
 80016a4:	2500      	movs	r5, #0
 80016a6:	e000      	b.n	80016aa <oled_clear+0x8>
 80016a8:	3501      	adds	r5, #1
 80016aa:	2d07      	cmp	r5, #7
 80016ac:	dc0c      	bgt.n	80016c8 <oled_clear+0x26>
 80016ae:	4629      	mov	r1, r5
 80016b0:	2000      	movs	r0, #0
 80016b2:	f7ff ffe1 	bl	8001678 <oled_set_position>
 80016b6:	2400      	movs	r4, #0
 80016b8:	2c7f      	cmp	r4, #127	; 0x7f
 80016ba:	dcf5      	bgt.n	80016a8 <oled_clear+0x6>
 80016bc:	2101      	movs	r1, #1
 80016be:	2000      	movs	r0, #0
 80016c0:	f7ff ffac 	bl	800161c <oled_write_byte>
 80016c4:	3401      	adds	r4, #1
 80016c6:	e7f7      	b.n	80016b8 <oled_clear+0x16>
 80016c8:	bd38      	pop	{r3, r4, r5, pc}
	...

080016cc <oled_putchar>:
 80016cc:	b5f8      	push	{r3, r4, r5, r6, r7, lr}
 80016ce:	4606      	mov	r6, r0
 80016d0:	460f      	mov	r7, r1
 80016d2:	f1a2 0520 	sub.w	r5, r2, #32
 80016d6:	b2ed      	uxtb	r5, r5
 80016d8:	f7ff ffce 	bl	8001678 <oled_set_position>
 80016dc:	2400      	movs	r4, #0
 80016de:	e007      	b.n	80016f0 <oled_putchar+0x24>
 80016e0:	eb04 1305 	add.w	r3, r4, r5, lsl #4
 80016e4:	2101      	movs	r1, #1
 80016e6:	4a0c      	ldr	r2, [pc, #48]	; (8001718 <oled_putchar+0x4c>)
 80016e8:	5cd0      	ldrb	r0, [r2, r3]
 80016ea:	f7ff ff97 	bl	800161c <oled_write_byte>
 80016ee:	3401      	adds	r4, #1
 80016f0:	2c07      	cmp	r4, #7
 80016f2:	ddf5      	ble.n	80016e0 <oled_putchar+0x14>
 80016f4:	1c79      	adds	r1, r7, #1
 80016f6:	4630      	mov	r0, r6
 80016f8:	f7ff ffbe 	bl	8001678 <oled_set_position>
 80016fc:	2400      	movs	r4, #0
 80016fe:	e008      	b.n	8001712 <oled_putchar+0x46>
 8001700:	eb04 1305 	add.w	r3, r4, r5, lsl #4
 8001704:	3308      	adds	r3, #8
 8001706:	2101      	movs	r1, #1
 8001708:	4a03      	ldr	r2, [pc, #12]	; (8001718 <oled_putchar+0x4c>)
 800170a:	5cd0      	ldrb	r0, [r2, r3]
 800170c:	f7ff ff86 	bl	800161c <oled_write_byte>
 8001710:	3401      	adds	r4, #1
 8001712:	2c07      	cmp	r4, #7
 8001714:	ddf4      	ble.n	8001700 <oled_putchar+0x34>
 8001716:	bdf8      	pop	{r3, r4, r5, r6, r7, pc}
 8001718:	08007bc0 	.word	0x08007bc0

0800171c <oled_print>:
 800171c:	b570      	push	{r4, r5, r6, lr}
 800171e:	4604      	mov	r4, r0
 8001720:	460e      	mov	r6, r1
 8001722:	4615      	mov	r5, r2
 8001724:	e005      	b.n	8001732 <oled_print+0x16>
 8001726:	4631      	mov	r1, r6
 8001728:	4620      	mov	r0, r4
 800172a:	f7ff ffcf 	bl	80016cc <oled_putchar>
 800172e:	3408      	adds	r4, #8
 8001730:	3501      	adds	r5, #1
 8001732:	782a      	ldrb	r2, [r5, #0]
 8001734:	b162      	cbz	r2, 8001750 <oled_print+0x34>
 8001736:	f104 0308 	add.w	r3, r4, #8
 800173a:	2b80      	cmp	r3, #128	; 0x80
 800173c:	d9f3      	bls.n	8001726 <oled_print+0xa>
 800173e:	3602      	adds	r6, #2
 8001740:	2400      	movs	r4, #0
 8001742:	e7f0      	b.n	8001726 <oled_print+0xa>
 8001744:	2220      	movs	r2, #32
 8001746:	4631      	mov	r1, r6
 8001748:	4620      	mov	r0, r4
 800174a:	f7ff ffbf 	bl	80016cc <oled_putchar>
 800174e:	462c      	mov	r4, r5
 8001750:	f104 0508 	add.w	r5, r4, #8
 8001754:	2d80      	cmp	r5, #128	; 0x80
 8001756:	d9f5      	bls.n	8001744 <oled_print+0x28>
 8001758:	bd70      	pop	{r4, r5, r6, pc}
	...

0800175c <oled_init>:
 800175c:	b510      	push	{r4, lr}
 800175e:	4c42      	ldr	r4, [pc, #264]	; (8001868 <oled_init+0x10c>)
 8001760:	2200      	movs	r2, #0
 8001762:	2180      	movs	r1, #128	; 0x80
 8001764:	4620      	mov	r0, r4
 8001766:	f000 fd9b 	bl	80022a0 <HAL_GPIO_WritePin>
 800176a:	20c8      	movs	r0, #200	; 0xc8
 800176c:	f000 feb8 	bl	80024e0 <HAL_Delay>
 8001770:	2201      	movs	r2, #1
 8001772:	2180      	movs	r1, #128	; 0x80
 8001774:	4620      	mov	r0, r4
 8001776:	f000 fd93 	bl	80022a0 <HAL_GPIO_WritePin>
 800177a:	2100      	movs	r1, #0
 800177c:	20ae      	movs	r0, #174	; 0xae
 800177e:	f7ff ff4d 	bl	800161c <oled_write_byte>
 8001782:	2100      	movs	r1, #0
 8001784:	20d5      	movs	r0, #213	; 0xd5
 8001786:	f7ff ff49 	bl	800161c <oled_write_byte>
 800178a:	2100      	movs	r1, #0
 800178c:	2080      	movs	r0, #128	; 0x80
 800178e:	f7ff ff45 	bl	800161c <oled_write_byte>
 8001792:	2100      	movs	r1, #0
 8001794:	2040      	movs	r0, #64	; 0x40
 8001796:	f7ff ff41 	bl	800161c <oled_write_byte>
 800179a:	2100      	movs	r1, #0
 800179c:	2081      	movs	r0, #129	; 0x81
 800179e:	f7ff ff3d 	bl	800161c <oled_write_byte>
 80017a2:	2100      	movs	r1, #0
 80017a4:	20cf      	movs	r0, #207	; 0xcf
 80017a6:	f7ff ff39 	bl	800161c <oled_write_byte>
 80017aa:	2100      	movs	r1, #0
 80017ac:	20a1      	movs	r0, #161	; 0xa1
 80017ae:	f7ff ff35 	bl	800161c <oled_write_byte>
 80017b2:	2100      	movs	r1, #0
 80017b4:	20c8      	movs	r0, #200	; 0xc8
 80017b6:	f7ff ff31 	bl	800161c <oled_write_byte>
 80017ba:	2100      	movs	r1, #0
 80017bc:	20a6      	movs	r0, #166	; 0xa6
 80017be:	f7ff ff2d 	bl	800161c <oled_write_byte>
 80017c2:	2100      	movs	r1, #0
 80017c4:	20a8      	movs	r0, #168	; 0xa8
 80017c6:	f7ff ff29 	bl	800161c <oled_write_byte>
 80017ca:	2100      	movs	r1, #0
 80017cc:	203f      	movs	r0, #63	; 0x3f
 80017ce:	f7ff ff25 	bl	800161c <oled_write_byte>
 80017d2:	2100      	movs	r1, #0
 80017d4:	20d3      	movs	r0, #211	; 0xd3
 80017d6:	f7ff ff21 	bl	800161c <oled_write_byte>
 80017da:	2100      	movs	r1, #0
 80017dc:	4608      	mov	r0, r1
 80017de:	f7ff ff1d 	bl	800161c <oled_write_byte>
 80017e2:	2100      	movs	r1, #0
 80017e4:	20d5      	movs	r0, #213	; 0xd5
 80017e6:	f7ff ff19 	bl	800161c <oled_write_byte>
 80017ea:	2100      	movs	r1, #0
 80017ec:	2080      	movs	r0, #128	; 0x80
 80017ee:	f7ff ff15 	bl	800161c <oled_write_byte>
 80017f2:	2100      	movs	r1, #0
 80017f4:	20d9      	movs	r0, #217	; 0xd9
 80017f6:	f7ff ff11 	bl	800161c <oled_write_byte>
 80017fa:	2100      	movs	r1, #0
 80017fc:	20f1      	movs	r0, #241	; 0xf1
 80017fe:	f7ff ff0d 	bl	800161c <oled_write_byte>
 8001802:	2100      	movs	r1, #0
 8001804:	20da      	movs	r0, #218	; 0xda
 8001806:	f7ff ff09 	bl	800161c <oled_write_byte>
 800180a:	2100      	movs	r1, #0
 800180c:	2012      	movs	r0, #18
 800180e:	f7ff ff05 	bl	800161c <oled_write_byte>
 8001812:	2100      	movs	r1, #0
 8001814:	20db      	movs	r0, #219	; 0xdb
 8001816:	f7ff ff01 	bl	800161c <oled_write_byte>
 800181a:	2100      	movs	r1, #0
 800181c:	2040      	movs	r0, #64	; 0x40
 800181e:	f7ff fefd 	bl	800161c <oled_write_byte>
 8001822:	2100      	movs	r1, #0
 8001824:	2020      	movs	r0, #32
 8001826:	f7ff fef9 	bl	800161c <oled_write_byte>
 800182a:	2100      	movs	r1, #0
 800182c:	2002      	movs	r0, #2
 800182e:	f7ff fef5 	bl	800161c <oled_write_byte>
 8001832:	2100      	movs	r1, #0
 8001834:	208d      	movs	r0, #141	; 0x8d
 8001836:	f7ff fef1 	bl	800161c <oled_write_byte>
 800183a:	2100      	movs	r1, #0
 800183c:	2014      	movs	r0, #20
 800183e:	f7ff feed 	bl	800161c <oled_write_byte>
 8001842:	2100      	movs	r1, #0
 8001844:	20a4      	movs	r0, #164	; 0xa4
 8001846:	f7ff fee9 	bl	800161c <oled_write_byte>
 800184a:	2100      	movs	r1, #0
 800184c:	20a6      	movs	r0, #166	; 0xa6
 800184e:	f7ff fee5 	bl	800161c <oled_write_byte>
 8001852:	2100      	movs	r1, #0
 8001854:	20af      	movs	r0, #175	; 0xaf
 8001856:	f7ff fee1 	bl	800161c <oled_write_byte>
 800185a:	2100      	movs	r1, #0
 800185c:	20af      	movs	r0, #175	; 0xaf
 800185e:	f7ff fedd 	bl	800161c <oled_write_byte>
 8001862:	f7ff ff1e 	bl	80016a2 <oled_clear>
 8001866:	bd10      	pop	{r4, pc}
 8001868:	40020c00 	.word	0x40020c00

0800186c <NMI_Handler>:
 800186c:	e7fe      	b.n	800186c <NMI_Handler>

0800186e <HardFault_Handler>:
 800186e:	e7fe      	b.n	800186e <HardFault_Handler>

08001870 <MemManage_Handler>:
 8001870:	e7fe      	b.n	8001870 <MemManage_Handler>

08001872 <BusFault_Handler>:
 8001872:	e7fe      	b.n	8001872 <BusFault_Handler>

08001874 <UsageFault_Handler>:
 8001874:	e7fe      	b.n	8001874 <UsageFault_Handler>

08001876 <SVC_Handler>:
 8001876:	4770      	bx	lr

08001878 <DebugMon_Handler>:
 8001878:	4770      	bx	lr

0800187a <PendSV_Handler>:
 800187a:	4770      	bx	lr

0800187c <SysTick_Handler>:
 800187c:	b508      	push	{r3, lr}
 800187e:	f000 fe1d 	bl	80024bc <HAL_IncTick>
 8001882:	bd08      	pop	{r3, pc}

08001884 <USART1_IRQHandler>:
 8001884:	b508      	push	{r3, lr}
 8001886:	4802      	ldr	r0, [pc, #8]	; (8001890 <USART1_IRQHandler+0xc>)
 8001888:	f002 fbe4 	bl	8004054 <HAL_UART_IRQHandler>
 800188c:	bd08      	pop	{r3, pc}
 800188e:	bf00      	nop
 8001890:	20000220 	.word	0x20000220

08001894 <HAL_MspInit>:
 8001894:	b082      	sub	sp, #8
 8001896:	2100      	movs	r1, #0
 8001898:	9100      	str	r1, [sp, #0]
 800189a:	4b0b      	ldr	r3, [pc, #44]	; (80018c8 <HAL_MspInit+0x34>)
 800189c:	6c5a      	ldr	r2, [r3, #68]	; 0x44
 800189e:	f442 4280 	orr.w	r2, r2, #16384	; 0x4000
 80018a2:	645a      	str	r2, [r3, #68]	; 0x44
 80018a4:	6c5a      	ldr	r2, [r3, #68]	; 0x44
 80018a6:	f402 4280 	and.w	r2, r2, #16384	; 0x4000
 80018aa:	9200      	str	r2, [sp, #0]
 80018ac:	9a00      	ldr	r2, [sp, #0]
 80018ae:	9101      	str	r1, [sp, #4]
 80018b0:	6c1a      	ldr	r2, [r3, #64]	; 0x40
 80018b2:	f042 5280 	orr.w	r2, r2, #268435456	; 0x10000000
 80018b6:	641a      	str	r2, [r3, #64]	; 0x40
 80018b8:	6c1b      	ldr	r3, [r3, #64]	; 0x40
 80018ba:	f003 5380 	and.w	r3, r3, #268435456	; 0x10000000
 80018be:	9301      	str	r3, [sp, #4]
 80018c0:	9b01      	ldr	r3, [sp, #4]
 80018c2:	b002      	add	sp, #8
 80018c4:	4770      	bx	lr
 80018c6:	bf00      	nop
 80018c8:	40023800 	.word	0x40023800

080018cc <MX_FATFS_Init>:
 80018cc:	b508      	push	{r3, lr}
 80018ce:	4903      	ldr	r1, [pc, #12]	; (80018dc <MX_FATFS_Init+0x10>)
 80018d0:	4803      	ldr	r0, [pc, #12]	; (80018e0 <MX_FATFS_Init+0x14>)
 80018d2:	f004 fb81 	bl	8005fd8 <FATFS_LinkDriver>
 80018d6:	4b03      	ldr	r3, [pc, #12]	; (80018e4 <MX_FATFS_Init+0x18>)
 80018d8:	7018      	strb	r0, [r3, #0]
 80018da:	bd08      	pop	{r3, pc}
 80018dc:	20000268 	.word	0x20000268
 80018e0:	080081b0 	.word	0x080081b0
 80018e4:	20000264 	.word	0x20000264

080018e8 <get_fattime>:
 80018e8:	2000      	movs	r0, #0
 80018ea:	4770      	bx	lr

080018ec <BSP_SD_ReadBlocks>:
 80018ec:	b500      	push	{lr}
 80018ee:	b083      	sub	sp, #12
 80018f0:	9300      	str	r3, [sp, #0]
 80018f2:	4613      	mov	r3, r2
 80018f4:	460a      	mov	r2, r1
 80018f6:	4601      	mov	r1, r0
 80018f8:	4803      	ldr	r0, [pc, #12]	; (8001908 <BSP_SD_ReadBlocks+0x1c>)
 80018fa:	f001 fb6b 	bl	8002fd4 <HAL_SD_ReadBlocks>
 80018fe:	b100      	cbz	r0, 8001902 <BSP_SD_ReadBlocks+0x16>
 8001900:	2001      	movs	r0, #1
 8001902:	b003      	add	sp, #12
 8001904:	f85d fb04 	ldr.w	pc, [sp], #4
 8001908:	20000144 	.word	0x20000144

0800190c <BSP_SD_WriteBlocks>:
 800190c:	b500      	push	{lr}
 800190e:	b083      	sub	sp, #12
 8001910:	9300      	str	r3, [sp, #0]
 8001912:	4613      	mov	r3, r2
 8001914:	460a      	mov	r2, r1
 8001916:	4601      	mov	r1, r0
 8001918:	4803      	ldr	r0, [pc, #12]	; (8001928 <BSP_SD_WriteBlocks+0x1c>)
 800191a:	f001 fc7f 	bl	800321c <HAL_SD_WriteBlocks>
 800191e:	b100      	cbz	r0, 8001922 <BSP_SD_WriteBlocks+0x16>
 8001920:	2001      	movs	r0, #1
 8001922:	b003      	add	sp, #12
 8001924:	f85d fb04 	ldr.w	pc, [sp], #4
 8001928:	20000144 	.word	0x20000144

0800192c <BSP_SD_GetCardState>:
 800192c:	b508      	push	{r3, lr}
 800192e:	4803      	ldr	r0, [pc, #12]	; (800193c <BSP_SD_GetCardState+0x10>)
 8001930:	f002 f82e 	bl	8003990 <HAL_SD_GetCardState>
 8001934:	3804      	subs	r0, #4
 8001936:	bf18      	it	ne
 8001938:	2001      	movne	r0, #1
 800193a:	bd08      	pop	{r3, pc}
 800193c:	20000144 	.word	0x20000144

08001940 <BSP_SD_GetCardInfo>:
 8001940:	b508      	push	{r3, lr}
 8001942:	4601      	mov	r1, r0
 8001944:	4801      	ldr	r0, [pc, #4]	; (800194c <BSP_SD_GetCardInfo+0xc>)
 8001946:	f001 ffb1 	bl	80038ac <HAL_SD_GetCardInfo>
 800194a:	bd08      	pop	{r3, pc}
 800194c:	20000144 	.word	0x20000144

08001950 <BSP_SD_IsDetected>:
 8001950:	b082      	sub	sp, #8
 8001952:	2301      	movs	r3, #1
 8001954:	f88d 3007 	strb.w	r3, [sp, #7]
 8001958:	f89d 0007 	ldrb.w	r0, [sp, #7]
 800195c:	b002      	add	sp, #8
 800195e:	4770      	bx	lr

08001960 <BSP_SD_Init>:
 8001960:	b538      	push	{r3, r4, r5, lr}
 8001962:	f7ff fff5 	bl	8001950 <BSP_SD_IsDetected>
 8001966:	2801      	cmp	r0, #1
 8001968:	d002      	beq.n	8001970 <BSP_SD_Init+0x10>
 800196a:	2501      	movs	r5, #1
 800196c:	4628      	mov	r0, r5
 800196e:	bd38      	pop	{r3, r4, r5, pc}
 8001970:	4604      	mov	r4, r0
 8001972:	4807      	ldr	r0, [pc, #28]	; (8001990 <BSP_SD_Init+0x30>)
 8001974:	f001 ff28 	bl	80037c8 <HAL_SD_Init>
 8001978:	4605      	mov	r5, r0
 800197a:	2800      	cmp	r0, #0
 800197c:	d1f6      	bne.n	800196c <BSP_SD_Init+0xc>
 800197e:	f44f 6100 	mov.w	r1, #2048	; 0x800
 8001982:	4803      	ldr	r0, [pc, #12]	; (8001990 <BSP_SD_Init+0x30>)
 8001984:	f001 ffa4 	bl	80038d0 <HAL_SD_ConfigWideBusOperation>
 8001988:	2800      	cmp	r0, #0
 800198a:	d0ef      	beq.n	800196c <BSP_SD_Init+0xc>
 800198c:	4625      	mov	r5, r4
 800198e:	e7ed      	b.n	800196c <BSP_SD_Init+0xc>
 8001990:	20000144 	.word	0x20000144

08001994 <SD_CheckStatus>:
 8001994:	b508      	push	{r3, lr}
 8001996:	4b07      	ldr	r3, [pc, #28]	; (80019b4 <SD_CheckStatus+0x20>)
 8001998:	2201      	movs	r2, #1
 800199a:	701a      	strb	r2, [r3, #0]
 800199c:	f7ff ffc6 	bl	800192c <BSP_SD_GetCardState>
 80019a0:	b920      	cbnz	r0, 80019ac <SD_CheckStatus+0x18>
 80019a2:	4a04      	ldr	r2, [pc, #16]	; (80019b4 <SD_CheckStatus+0x20>)
 80019a4:	7813      	ldrb	r3, [r2, #0]
 80019a6:	f003 03fe 	and.w	r3, r3, #254	; 0xfe
 80019aa:	7013      	strb	r3, [r2, #0]
 80019ac:	4b01      	ldr	r3, [pc, #4]	; (80019b4 <SD_CheckStatus+0x20>)
 80019ae:	7818      	ldrb	r0, [r3, #0]
 80019b0:	bd08      	pop	{r3, pc}
 80019b2:	bf00      	nop
 80019b4:	20000000 	.word	0x20000000

080019b8 <SD_initialize>:
 80019b8:	b510      	push	{r4, lr}
 80019ba:	4604      	mov	r4, r0
 80019bc:	4b07      	ldr	r3, [pc, #28]	; (80019dc <SD_initialize+0x24>)
 80019be:	2201      	movs	r2, #1
 80019c0:	701a      	strb	r2, [r3, #0]
 80019c2:	f7ff ffcd 	bl	8001960 <BSP_SD_Init>
 80019c6:	b110      	cbz	r0, 80019ce <SD_initialize+0x16>
 80019c8:	4b04      	ldr	r3, [pc, #16]	; (80019dc <SD_initialize+0x24>)
 80019ca:	7818      	ldrb	r0, [r3, #0]
 80019cc:	bd10      	pop	{r4, pc}
 80019ce:	4620      	mov	r0, r4
 80019d0:	f7ff ffe0 	bl	8001994 <SD_CheckStatus>
 80019d4:	4b01      	ldr	r3, [pc, #4]	; (80019dc <SD_initialize+0x24>)
 80019d6:	7018      	strb	r0, [r3, #0]
 80019d8:	e7f6      	b.n	80019c8 <SD_initialize+0x10>
 80019da:	bf00      	nop
 80019dc:	20000000 	.word	0x20000000

080019e0 <SD_status>:
 80019e0:	b508      	push	{r3, lr}
 80019e2:	f7ff ffd7 	bl	8001994 <SD_CheckStatus>
 80019e6:	bd08      	pop	{r3, pc}

080019e8 <SD_read>:
 80019e8:	b508      	push	{r3, lr}
 80019ea:	4608      	mov	r0, r1
 80019ec:	4611      	mov	r1, r2
 80019ee:	461a      	mov	r2, r3
 80019f0:	f04f 33ff 	mov.w	r3, #4294967295	; 0xffffffff
 80019f4:	f7ff ff7a 	bl	80018ec <BSP_SD_ReadBlocks>
 80019f8:	b930      	cbnz	r0, 8001a08 <SD_read+0x20>
 80019fa:	f7ff ff97 	bl	800192c <BSP_SD_GetCardState>
 80019fe:	4603      	mov	r3, r0
 8001a00:	2800      	cmp	r0, #0
 8001a02:	d1fa      	bne.n	80019fa <SD_read+0x12>
 8001a04:	4618      	mov	r0, r3
 8001a06:	bd08      	pop	{r3, pc}
 8001a08:	2301      	movs	r3, #1
 8001a0a:	e7fb      	b.n	8001a04 <SD_read+0x1c>

08001a0c <SD_write>:
 8001a0c:	b508      	push	{r3, lr}
 8001a0e:	4608      	mov	r0, r1
 8001a10:	4611      	mov	r1, r2
 8001a12:	461a      	mov	r2, r3
 8001a14:	f04f 33ff 	mov.w	r3, #4294967295	; 0xffffffff
 8001a18:	f7ff ff78 	bl	800190c <BSP_SD_WriteBlocks>
 8001a1c:	b930      	cbnz	r0, 8001a2c <SD_write+0x20>
 8001a1e:	f7ff ff85 	bl	800192c <BSP_SD_GetCardState>
 8001a22:	4603      	mov	r3, r0
 8001a24:	2800      	cmp	r0, #0
 8001a26:	d1fa      	bne.n	8001a1e <SD_write+0x12>
 8001a28:	4618      	mov	r0, r3
 8001a2a:	bd08      	pop	{r3, pc}
 8001a2c:	2301      	movs	r3, #1
 8001a2e:	e7fb      	b.n	8001a28 <SD_write+0x1c>

08001a30 <SD_ioctl>:
 8001a30:	b530      	push	{r4, r5, lr}
 8001a32:	b089      	sub	sp, #36	; 0x24
 8001a34:	4b13      	ldr	r3, [pc, #76]	; (8001a84 <SD_ioctl+0x54>)
 8001a36:	781b      	ldrb	r3, [r3, #0]
 8001a38:	f013 0401 	ands.w	r4, r3, #1
 8001a3c:	d11d      	bne.n	8001a7a <SD_ioctl+0x4a>
 8001a3e:	4608      	mov	r0, r1
 8001a40:	4615      	mov	r5, r2
 8001a42:	2903      	cmp	r1, #3
 8001a44:	d81c      	bhi.n	8001a80 <SD_ioctl+0x50>
 8001a46:	e8df f001 	tbb	[pc, r1]
 8001a4a:	0219      	.short	0x0219
 8001a4c:	1009      	.short	0x1009
 8001a4e:	4668      	mov	r0, sp
 8001a50:	f7ff ff76 	bl	8001940 <BSP_SD_GetCardInfo>
 8001a54:	9b06      	ldr	r3, [sp, #24]
 8001a56:	602b      	str	r3, [r5, #0]
 8001a58:	4620      	mov	r0, r4
 8001a5a:	e00f      	b.n	8001a7c <SD_ioctl+0x4c>
 8001a5c:	4668      	mov	r0, sp
 8001a5e:	f7ff ff6f 	bl	8001940 <BSP_SD_GetCardInfo>
 8001a62:	9b07      	ldr	r3, [sp, #28]
 8001a64:	802b      	strh	r3, [r5, #0]
 8001a66:	4620      	mov	r0, r4
 8001a68:	e008      	b.n	8001a7c <SD_ioctl+0x4c>
 8001a6a:	4668      	mov	r0, sp
 8001a6c:	f7ff ff68 	bl	8001940 <BSP_SD_GetCardInfo>
 8001a70:	9b07      	ldr	r3, [sp, #28]
 8001a72:	0a5b      	lsrs	r3, r3, #9
 8001a74:	602b      	str	r3, [r5, #0]
 8001a76:	4620      	mov	r0, r4
 8001a78:	e000      	b.n	8001a7c <SD_ioctl+0x4c>
 8001a7a:	2003      	movs	r0, #3
 8001a7c:	b009      	add	sp, #36	; 0x24
 8001a7e:	bd30      	pop	{r4, r5, pc}
 8001a80:	2004      	movs	r0, #4
 8001a82:	e7fb      	b.n	8001a7c <SD_ioctl+0x4c>
 8001a84:	20000000 	.word	0x20000000

08001a88 <HAL_RCC_OscConfig>:
 8001a88:	2800      	cmp	r0, #0
 8001a8a:	f000 81df 	beq.w	8001e4c <HAL_RCC_OscConfig+0x3c4>
 8001a8e:	b570      	push	{r4, r5, r6, lr}
 8001a90:	b082      	sub	sp, #8
 8001a92:	4604      	mov	r4, r0
 8001a94:	6803      	ldr	r3, [r0, #0]
 8001a96:	f013 0f01 	tst.w	r3, #1
 8001a9a:	d03b      	beq.n	8001b14 <HAL_RCC_OscConfig+0x8c>
 8001a9c:	4ba6      	ldr	r3, [pc, #664]	; (8001d38 <HAL_RCC_OscConfig+0x2b0>)
 8001a9e:	689b      	ldr	r3, [r3, #8]
 8001aa0:	f003 030c 	and.w	r3, r3, #12
 8001aa4:	2b04      	cmp	r3, #4
 8001aa6:	d02c      	beq.n	8001b02 <HAL_RCC_OscConfig+0x7a>
 8001aa8:	4ba3      	ldr	r3, [pc, #652]	; (8001d38 <HAL_RCC_OscConfig+0x2b0>)
 8001aaa:	689b      	ldr	r3, [r3, #8]
 8001aac:	f003 030c 	and.w	r3, r3, #12
 8001ab0:	2b08      	cmp	r3, #8
 8001ab2:	d021      	beq.n	8001af8 <HAL_RCC_OscConfig+0x70>
 8001ab4:	6863      	ldr	r3, [r4, #4]
 8001ab6:	f5b3 3f80 	cmp.w	r3, #65536	; 0x10000
 8001aba:	d04f      	beq.n	8001b5c <HAL_RCC_OscConfig+0xd4>
 8001abc:	f5b3 2fa0 	cmp.w	r3, #327680	; 0x50000
 8001ac0:	d052      	beq.n	8001b68 <HAL_RCC_OscConfig+0xe0>
 8001ac2:	4b9d      	ldr	r3, [pc, #628]	; (8001d38 <HAL_RCC_OscConfig+0x2b0>)
 8001ac4:	681a      	ldr	r2, [r3, #0]
 8001ac6:	f422 3280 	bic.w	r2, r2, #65536	; 0x10000
 8001aca:	601a      	str	r2, [r3, #0]
 8001acc:	681a      	ldr	r2, [r3, #0]
 8001ace:	f422 2280 	bic.w	r2, r2, #262144	; 0x40000
 8001ad2:	601a      	str	r2, [r3, #0]
 8001ad4:	6863      	ldr	r3, [r4, #4]
 8001ad6:	2b00      	cmp	r3, #0
 8001ad8:	d050      	beq.n	8001b7c <HAL_RCC_OscConfig+0xf4>
 8001ada:	f000 fcfb 	bl	80024d4 <HAL_GetTick>
 8001ade:	4605      	mov	r5, r0
 8001ae0:	4b95      	ldr	r3, [pc, #596]	; (8001d38 <HAL_RCC_OscConfig+0x2b0>)
 8001ae2:	681b      	ldr	r3, [r3, #0]
 8001ae4:	f413 3f00 	tst.w	r3, #131072	; 0x20000
 8001ae8:	d114      	bne.n	8001b14 <HAL_RCC_OscConfig+0x8c>
 8001aea:	f000 fcf3 	bl	80024d4 <HAL_GetTick>
 8001aee:	1b40      	subs	r0, r0, r5
 8001af0:	2864      	cmp	r0, #100	; 0x64
 8001af2:	d9f5      	bls.n	8001ae0 <HAL_RCC_OscConfig+0x58>
 8001af4:	2003      	movs	r0, #3
 8001af6:	e1b0      	b.n	8001e5a <HAL_RCC_OscConfig+0x3d2>
 8001af8:	4b8f      	ldr	r3, [pc, #572]	; (8001d38 <HAL_RCC_OscConfig+0x2b0>)
 8001afa:	685b      	ldr	r3, [r3, #4]
 8001afc:	f413 0f80 	tst.w	r3, #4194304	; 0x400000
 8001b00:	d0d8      	beq.n	8001ab4 <HAL_RCC_OscConfig+0x2c>
 8001b02:	4b8d      	ldr	r3, [pc, #564]	; (8001d38 <HAL_RCC_OscConfig+0x2b0>)
 8001b04:	681b      	ldr	r3, [r3, #0]
 8001b06:	f413 3f00 	tst.w	r3, #131072	; 0x20000
 8001b0a:	d003      	beq.n	8001b14 <HAL_RCC_OscConfig+0x8c>
 8001b0c:	6863      	ldr	r3, [r4, #4]
 8001b0e:	2b00      	cmp	r3, #0
 8001b10:	f000 819e 	beq.w	8001e50 <HAL_RCC_OscConfig+0x3c8>
 8001b14:	6823      	ldr	r3, [r4, #0]
 8001b16:	f013 0f02 	tst.w	r3, #2
 8001b1a:	d054      	beq.n	8001bc6 <HAL_RCC_OscConfig+0x13e>
 8001b1c:	4b86      	ldr	r3, [pc, #536]	; (8001d38 <HAL_RCC_OscConfig+0x2b0>)
 8001b1e:	689b      	ldr	r3, [r3, #8]
 8001b20:	f013 0f0c 	tst.w	r3, #12
 8001b24:	d03e      	beq.n	8001ba4 <HAL_RCC_OscConfig+0x11c>
 8001b26:	4b84      	ldr	r3, [pc, #528]	; (8001d38 <HAL_RCC_OscConfig+0x2b0>)
 8001b28:	689b      	ldr	r3, [r3, #8]
 8001b2a:	f003 030c 	and.w	r3, r3, #12
 8001b2e:	2b08      	cmp	r3, #8
 8001b30:	d033      	beq.n	8001b9a <HAL_RCC_OscConfig+0x112>
 8001b32:	68e3      	ldr	r3, [r4, #12]
 8001b34:	2b00      	cmp	r3, #0
 8001b36:	d067      	beq.n	8001c08 <HAL_RCC_OscConfig+0x180>
 8001b38:	4b80      	ldr	r3, [pc, #512]	; (8001d3c <HAL_RCC_OscConfig+0x2b4>)
 8001b3a:	2201      	movs	r2, #1
 8001b3c:	601a      	str	r2, [r3, #0]
 8001b3e:	f000 fcc9 	bl	80024d4 <HAL_GetTick>
 8001b42:	4605      	mov	r5, r0
 8001b44:	4b7c      	ldr	r3, [pc, #496]	; (8001d38 <HAL_RCC_OscConfig+0x2b0>)
 8001b46:	681b      	ldr	r3, [r3, #0]
 8001b48:	f013 0f02 	tst.w	r3, #2
 8001b4c:	d153      	bne.n	8001bf6 <HAL_RCC_OscConfig+0x16e>
 8001b4e:	f000 fcc1 	bl	80024d4 <HAL_GetTick>
 8001b52:	1b40      	subs	r0, r0, r5
 8001b54:	2802      	cmp	r0, #2
 8001b56:	d9f5      	bls.n	8001b44 <HAL_RCC_OscConfig+0xbc>
 8001b58:	2003      	movs	r0, #3
 8001b5a:	e17e      	b.n	8001e5a <HAL_RCC_OscConfig+0x3d2>
 8001b5c:	4a76      	ldr	r2, [pc, #472]	; (8001d38 <HAL_RCC_OscConfig+0x2b0>)
 8001b5e:	6813      	ldr	r3, [r2, #0]
 8001b60:	f443 3380 	orr.w	r3, r3, #65536	; 0x10000
 8001b64:	6013      	str	r3, [r2, #0]
 8001b66:	e7b5      	b.n	8001ad4 <HAL_RCC_OscConfig+0x4c>
 8001b68:	4b73      	ldr	r3, [pc, #460]	; (8001d38 <HAL_RCC_OscConfig+0x2b0>)
 8001b6a:	681a      	ldr	r2, [r3, #0]
 8001b6c:	f442 2280 	orr.w	r2, r2, #262144	; 0x40000
 8001b70:	601a      	str	r2, [r3, #0]
 8001b72:	681a      	ldr	r2, [r3, #0]
 8001b74:	f442 3280 	orr.w	r2, r2, #65536	; 0x10000
 8001b78:	601a      	str	r2, [r3, #0]
 8001b7a:	e7ab      	b.n	8001ad4 <HAL_RCC_OscConfig+0x4c>
 8001b7c:	f000 fcaa 	bl	80024d4 <HAL_GetTick>
 8001b80:	4605      	mov	r5, r0
 8001b82:	4b6d      	ldr	r3, [pc, #436]	; (8001d38 <HAL_RCC_OscConfig+0x2b0>)
 8001b84:	681b      	ldr	r3, [r3, #0]
 8001b86:	f413 3f00 	tst.w	r3, #131072	; 0x20000
 8001b8a:	d0c3      	beq.n	8001b14 <HAL_RCC_OscConfig+0x8c>
 8001b8c:	f000 fca2 	bl	80024d4 <HAL_GetTick>
 8001b90:	1b40      	subs	r0, r0, r5
 8001b92:	2864      	cmp	r0, #100	; 0x64
 8001b94:	d9f5      	bls.n	8001b82 <HAL_RCC_OscConfig+0xfa>
 8001b96:	2003      	movs	r0, #3
 8001b98:	e15f      	b.n	8001e5a <HAL_RCC_OscConfig+0x3d2>
 8001b9a:	4b67      	ldr	r3, [pc, #412]	; (8001d38 <HAL_RCC_OscConfig+0x2b0>)
 8001b9c:	685b      	ldr	r3, [r3, #4]
 8001b9e:	f413 0f80 	tst.w	r3, #4194304	; 0x400000
 8001ba2:	d1c6      	bne.n	8001b32 <HAL_RCC_OscConfig+0xaa>
 8001ba4:	4b64      	ldr	r3, [pc, #400]	; (8001d38 <HAL_RCC_OscConfig+0x2b0>)
 8001ba6:	681b      	ldr	r3, [r3, #0]
 8001ba8:	f013 0f02 	tst.w	r3, #2
 8001bac:	d003      	beq.n	8001bb6 <HAL_RCC_OscConfig+0x12e>
 8001bae:	68e3      	ldr	r3, [r4, #12]
 8001bb0:	2b01      	cmp	r3, #1
 8001bb2:	f040 814f 	bne.w	8001e54 <HAL_RCC_OscConfig+0x3cc>
 8001bb6:	4a60      	ldr	r2, [pc, #384]	; (8001d38 <HAL_RCC_OscConfig+0x2b0>)
 8001bb8:	6813      	ldr	r3, [r2, #0]
 8001bba:	f023 03f8 	bic.w	r3, r3, #248	; 0xf8
 8001bbe:	6921      	ldr	r1, [r4, #16]
 8001bc0:	ea43 03c1 	orr.w	r3, r3, r1, lsl #3
 8001bc4:	6013      	str	r3, [r2, #0]
 8001bc6:	6823      	ldr	r3, [r4, #0]
 8001bc8:	f013 0f08 	tst.w	r3, #8
 8001bcc:	d040      	beq.n	8001c50 <HAL_RCC_OscConfig+0x1c8>
 8001bce:	6963      	ldr	r3, [r4, #20]
 8001bd0:	b363      	cbz	r3, 8001c2c <HAL_RCC_OscConfig+0x1a4>
 8001bd2:	4b5b      	ldr	r3, [pc, #364]	; (8001d40 <HAL_RCC_OscConfig+0x2b8>)
 8001bd4:	2201      	movs	r2, #1
 8001bd6:	601a      	str	r2, [r3, #0]
 8001bd8:	f000 fc7c 	bl	80024d4 <HAL_GetTick>
 8001bdc:	4605      	mov	r5, r0
 8001bde:	4b56      	ldr	r3, [pc, #344]	; (8001d38 <HAL_RCC_OscConfig+0x2b0>)
 8001be0:	6f5b      	ldr	r3, [r3, #116]	; 0x74
 8001be2:	f013 0f02 	tst.w	r3, #2
 8001be6:	d133      	bne.n	8001c50 <HAL_RCC_OscConfig+0x1c8>
 8001be8:	f000 fc74 	bl	80024d4 <HAL_GetTick>
 8001bec:	1b40      	subs	r0, r0, r5
 8001bee:	2802      	cmp	r0, #2
 8001bf0:	d9f5      	bls.n	8001bde <HAL_RCC_OscConfig+0x156>
 8001bf2:	2003      	movs	r0, #3
 8001bf4:	e131      	b.n	8001e5a <HAL_RCC_OscConfig+0x3d2>
 8001bf6:	4a50      	ldr	r2, [pc, #320]	; (8001d38 <HAL_RCC_OscConfig+0x2b0>)
 8001bf8:	6813      	ldr	r3, [r2, #0]
 8001bfa:	f023 03f8 	bic.w	r3, r3, #248	; 0xf8
 8001bfe:	6921      	ldr	r1, [r4, #16]
 8001c00:	ea43 03c1 	orr.w	r3, r3, r1, lsl #3
 8001c04:	6013      	str	r3, [r2, #0]
 8001c06:	e7de      	b.n	8001bc6 <HAL_RCC_OscConfig+0x13e>
 8001c08:	4b4c      	ldr	r3, [pc, #304]	; (8001d3c <HAL_RCC_OscConfig+0x2b4>)
 8001c0a:	2200      	movs	r2, #0
 8001c0c:	601a      	str	r2, [r3, #0]
 8001c0e:	f000 fc61 	bl	80024d4 <HAL_GetTick>
 8001c12:	4605      	mov	r5, r0
 8001c14:	4b48      	ldr	r3, [pc, #288]	; (8001d38 <HAL_RCC_OscConfig+0x2b0>)
 8001c16:	681b      	ldr	r3, [r3, #0]
 8001c18:	f013 0f02 	tst.w	r3, #2
 8001c1c:	d0d3      	beq.n	8001bc6 <HAL_RCC_OscConfig+0x13e>
 8001c1e:	f000 fc59 	bl	80024d4 <HAL_GetTick>
 8001c22:	1b40      	subs	r0, r0, r5
 8001c24:	2802      	cmp	r0, #2
 8001c26:	d9f5      	bls.n	8001c14 <HAL_RCC_OscConfig+0x18c>
 8001c28:	2003      	movs	r0, #3
 8001c2a:	e116      	b.n	8001e5a <HAL_RCC_OscConfig+0x3d2>
 8001c2c:	4b44      	ldr	r3, [pc, #272]	; (8001d40 <HAL_RCC_OscConfig+0x2b8>)
 8001c2e:	2200      	movs	r2, #0
 8001c30:	601a      	str	r2, [r3, #0]
 8001c32:	f000 fc4f 	bl	80024d4 <HAL_GetTick>
 8001c36:	4605      	mov	r5, r0
 8001c38:	4b3f      	ldr	r3, [pc, #252]	; (8001d38 <HAL_RCC_OscConfig+0x2b0>)
 8001c3a:	6f5b      	ldr	r3, [r3, #116]	; 0x74
 8001c3c:	f013 0f02 	tst.w	r3, #2
 8001c40:	d006      	beq.n	8001c50 <HAL_RCC_OscConfig+0x1c8>
 8001c42:	f000 fc47 	bl	80024d4 <HAL_GetTick>
 8001c46:	1b40      	subs	r0, r0, r5
 8001c48:	2802      	cmp	r0, #2
 8001c4a:	d9f5      	bls.n	8001c38 <HAL_RCC_OscConfig+0x1b0>
 8001c4c:	2003      	movs	r0, #3
 8001c4e:	e104      	b.n	8001e5a <HAL_RCC_OscConfig+0x3d2>
 8001c50:	6823      	ldr	r3, [r4, #0]
 8001c52:	f013 0f04 	tst.w	r3, #4
 8001c56:	d078      	beq.n	8001d4a <HAL_RCC_OscConfig+0x2c2>
 8001c58:	4b37      	ldr	r3, [pc, #220]	; (8001d38 <HAL_RCC_OscConfig+0x2b0>)
 8001c5a:	6c1b      	ldr	r3, [r3, #64]	; 0x40
 8001c5c:	f013 5f80 	tst.w	r3, #268435456	; 0x10000000
 8001c60:	d10d      	bne.n	8001c7e <HAL_RCC_OscConfig+0x1f6>
 8001c62:	2300      	movs	r3, #0
 8001c64:	9301      	str	r3, [sp, #4]
 8001c66:	4b34      	ldr	r3, [pc, #208]	; (8001d38 <HAL_RCC_OscConfig+0x2b0>)
 8001c68:	6c1a      	ldr	r2, [r3, #64]	; 0x40
 8001c6a:	f042 5280 	orr.w	r2, r2, #268435456	; 0x10000000
 8001c6e:	641a      	str	r2, [r3, #64]	; 0x40
 8001c70:	6c1b      	ldr	r3, [r3, #64]	; 0x40
 8001c72:	f003 5380 	and.w	r3, r3, #268435456	; 0x10000000
 8001c76:	9301      	str	r3, [sp, #4]
 8001c78:	9b01      	ldr	r3, [sp, #4]
 8001c7a:	2501      	movs	r5, #1
 8001c7c:	e000      	b.n	8001c80 <HAL_RCC_OscConfig+0x1f8>
 8001c7e:	2500      	movs	r5, #0
 8001c80:	4b30      	ldr	r3, [pc, #192]	; (8001d44 <HAL_RCC_OscConfig+0x2bc>)
 8001c82:	681b      	ldr	r3, [r3, #0]
 8001c84:	f413 7f80 	tst.w	r3, #256	; 0x100
 8001c88:	d021      	beq.n	8001cce <HAL_RCC_OscConfig+0x246>
 8001c8a:	68a3      	ldr	r3, [r4, #8]
 8001c8c:	2b01      	cmp	r3, #1
 8001c8e:	d032      	beq.n	8001cf6 <HAL_RCC_OscConfig+0x26e>
 8001c90:	2b05      	cmp	r3, #5
 8001c92:	d036      	beq.n	8001d02 <HAL_RCC_OscConfig+0x27a>
 8001c94:	4b28      	ldr	r3, [pc, #160]	; (8001d38 <HAL_RCC_OscConfig+0x2b0>)
 8001c96:	6f1a      	ldr	r2, [r3, #112]	; 0x70
 8001c98:	f022 0201 	bic.w	r2, r2, #1
 8001c9c:	671a      	str	r2, [r3, #112]	; 0x70
 8001c9e:	6f1a      	ldr	r2, [r3, #112]	; 0x70
 8001ca0:	f022 0204 	bic.w	r2, r2, #4
 8001ca4:	671a      	str	r2, [r3, #112]	; 0x70
 8001ca6:	68a3      	ldr	r3, [r4, #8]
 8001ca8:	2b00      	cmp	r3, #0
 8001caa:	d034      	beq.n	8001d16 <HAL_RCC_OscConfig+0x28e>
 8001cac:	f000 fc12 	bl	80024d4 <HAL_GetTick>
 8001cb0:	4606      	mov	r6, r0
 8001cb2:	4b21      	ldr	r3, [pc, #132]	; (8001d38 <HAL_RCC_OscConfig+0x2b0>)
 8001cb4:	6f1b      	ldr	r3, [r3, #112]	; 0x70
 8001cb6:	f013 0f02 	tst.w	r3, #2
 8001cba:	d145      	bne.n	8001d48 <HAL_RCC_OscConfig+0x2c0>
 8001cbc:	f000 fc0a 	bl	80024d4 <HAL_GetTick>
 8001cc0:	1b80      	subs	r0, r0, r6
 8001cc2:	f241 3388 	movw	r3, #5000	; 0x1388
 8001cc6:	4298      	cmp	r0, r3
 8001cc8:	d9f3      	bls.n	8001cb2 <HAL_RCC_OscConfig+0x22a>
 8001cca:	2003      	movs	r0, #3
 8001ccc:	e0c5      	b.n	8001e5a <HAL_RCC_OscConfig+0x3d2>
 8001cce:	4a1d      	ldr	r2, [pc, #116]	; (8001d44 <HAL_RCC_OscConfig+0x2bc>)
 8001cd0:	6813      	ldr	r3, [r2, #0]
 8001cd2:	f443 7380 	orr.w	r3, r3, #256	; 0x100
 8001cd6:	6013      	str	r3, [r2, #0]
 8001cd8:	f000 fbfc 	bl	80024d4 <HAL_GetTick>
 8001cdc:	4606      	mov	r6, r0
 8001cde:	4b19      	ldr	r3, [pc, #100]	; (8001d44 <HAL_RCC_OscConfig+0x2bc>)
 8001ce0:	681b      	ldr	r3, [r3, #0]
 8001ce2:	f413 7f80 	tst.w	r3, #256	; 0x100
 8001ce6:	d1d0      	bne.n	8001c8a <HAL_RCC_OscConfig+0x202>
 8001ce8:	f000 fbf4 	bl	80024d4 <HAL_GetTick>
 8001cec:	1b80      	subs	r0, r0, r6
 8001cee:	2802      	cmp	r0, #2
 8001cf0:	d9f5      	bls.n	8001cde <HAL_RCC_OscConfig+0x256>
 8001cf2:	2003      	movs	r0, #3
 8001cf4:	e0b1      	b.n	8001e5a <HAL_RCC_OscConfig+0x3d2>
 8001cf6:	4a10      	ldr	r2, [pc, #64]	; (8001d38 <HAL_RCC_OscConfig+0x2b0>)
 8001cf8:	6f13      	ldr	r3, [r2, #112]	; 0x70
 8001cfa:	f043 0301 	orr.w	r3, r3, #1
 8001cfe:	6713      	str	r3, [r2, #112]	; 0x70
 8001d00:	e7d1      	b.n	8001ca6 <HAL_RCC_OscConfig+0x21e>
 8001d02:	4b0d      	ldr	r3, [pc, #52]	; (8001d38 <HAL_RCC_OscConfig+0x2b0>)
 8001d04:	6f1a      	ldr	r2, [r3, #112]	; 0x70
 8001d06:	f042 0204 	orr.w	r2, r2, #4
 8001d0a:	671a      	str	r2, [r3, #112]	; 0x70
 8001d0c:	6f1a      	ldr	r2, [r3, #112]	; 0x70
 8001d0e:	f042 0201 	orr.w	r2, r2, #1
 8001d12:	671a      	str	r2, [r3, #112]	; 0x70
 8001d14:	e7c7      	b.n	8001ca6 <HAL_RCC_OscConfig+0x21e>
 8001d16:	f000 fbdd 	bl	80024d4 <HAL_GetTick>
 8001d1a:	4606      	mov	r6, r0
 8001d1c:	4b06      	ldr	r3, [pc, #24]	; (8001d38 <HAL_RCC_OscConfig+0x2b0>)
 8001d1e:	6f1b      	ldr	r3, [r3, #112]	; 0x70
 8001d20:	f013 0f02 	tst.w	r3, #2
 8001d24:	d010      	beq.n	8001d48 <HAL_RCC_OscConfig+0x2c0>
 8001d26:	f000 fbd5 	bl	80024d4 <HAL_GetTick>
 8001d2a:	1b80      	subs	r0, r0, r6
 8001d2c:	f241 3388 	movw	r3, #5000	; 0x1388
 8001d30:	4298      	cmp	r0, r3
 8001d32:	d9f3      	bls.n	8001d1c <HAL_RCC_OscConfig+0x294>
 8001d34:	2003      	movs	r0, #3
 8001d36:	e090      	b.n	8001e5a <HAL_RCC_OscConfig+0x3d2>
 8001d38:	40023800 	.word	0x40023800
 8001d3c:	42470000 	.word	0x42470000
 8001d40:	42470e80 	.word	0x42470e80
 8001d44:	40007000 	.word	0x40007000
 8001d48:	b9ed      	cbnz	r5, 8001d86 <HAL_RCC_OscConfig+0x2fe>
 8001d4a:	69a3      	ldr	r3, [r4, #24]
 8001d4c:	2b00      	cmp	r3, #0
 8001d4e:	f000 8083 	beq.w	8001e58 <HAL_RCC_OscConfig+0x3d0>
 8001d52:	4a49      	ldr	r2, [pc, #292]	; (8001e78 <HAL_RCC_OscConfig+0x3f0>)
 8001d54:	6892      	ldr	r2, [r2, #8]
 8001d56:	f002 020c 	and.w	r2, r2, #12
 8001d5a:	2a08      	cmp	r2, #8
 8001d5c:	d051      	beq.n	8001e02 <HAL_RCC_OscConfig+0x37a>
 8001d5e:	2b02      	cmp	r3, #2
 8001d60:	d017      	beq.n	8001d92 <HAL_RCC_OscConfig+0x30a>
 8001d62:	4b46      	ldr	r3, [pc, #280]	; (8001e7c <HAL_RCC_OscConfig+0x3f4>)
 8001d64:	2200      	movs	r2, #0
 8001d66:	601a      	str	r2, [r3, #0]
 8001d68:	f000 fbb4 	bl	80024d4 <HAL_GetTick>
 8001d6c:	4604      	mov	r4, r0
 8001d6e:	4b42      	ldr	r3, [pc, #264]	; (8001e78 <HAL_RCC_OscConfig+0x3f0>)
 8001d70:	681b      	ldr	r3, [r3, #0]
 8001d72:	f013 7f00 	tst.w	r3, #33554432	; 0x2000000
 8001d76:	d042      	beq.n	8001dfe <HAL_RCC_OscConfig+0x376>
 8001d78:	f000 fbac 	bl	80024d4 <HAL_GetTick>
 8001d7c:	1b00      	subs	r0, r0, r4
 8001d7e:	2802      	cmp	r0, #2
 8001d80:	d9f5      	bls.n	8001d6e <HAL_RCC_OscConfig+0x2e6>
 8001d82:	2003      	movs	r0, #3
 8001d84:	e069      	b.n	8001e5a <HAL_RCC_OscConfig+0x3d2>
 8001d86:	4a3c      	ldr	r2, [pc, #240]	; (8001e78 <HAL_RCC_OscConfig+0x3f0>)
 8001d88:	6c13      	ldr	r3, [r2, #64]	; 0x40
 8001d8a:	f023 5380 	bic.w	r3, r3, #268435456	; 0x10000000
 8001d8e:	6413      	str	r3, [r2, #64]	; 0x40
 8001d90:	e7db      	b.n	8001d4a <HAL_RCC_OscConfig+0x2c2>
 8001d92:	4b3a      	ldr	r3, [pc, #232]	; (8001e7c <HAL_RCC_OscConfig+0x3f4>)
 8001d94:	2200      	movs	r2, #0
 8001d96:	601a      	str	r2, [r3, #0]
 8001d98:	f000 fb9c 	bl	80024d4 <HAL_GetTick>
 8001d9c:	4605      	mov	r5, r0
 8001d9e:	4b36      	ldr	r3, [pc, #216]	; (8001e78 <HAL_RCC_OscConfig+0x3f0>)
 8001da0:	681b      	ldr	r3, [r3, #0]
 8001da2:	f013 7f00 	tst.w	r3, #33554432	; 0x2000000
 8001da6:	d006      	beq.n	8001db6 <HAL_RCC_OscConfig+0x32e>
 8001da8:	f000 fb94 	bl	80024d4 <HAL_GetTick>
 8001dac:	1b40      	subs	r0, r0, r5
 8001dae:	2802      	cmp	r0, #2
 8001db0:	d9f5      	bls.n	8001d9e <HAL_RCC_OscConfig+0x316>
 8001db2:	2003      	movs	r0, #3
 8001db4:	e051      	b.n	8001e5a <HAL_RCC_OscConfig+0x3d2>
 8001db6:	69e3      	ldr	r3, [r4, #28]
 8001db8:	6a22      	ldr	r2, [r4, #32]
 8001dba:	4313      	orrs	r3, r2
 8001dbc:	6a62      	ldr	r2, [r4, #36]	; 0x24
 8001dbe:	ea43 1382 	orr.w	r3, r3, r2, lsl #6
 8001dc2:	6aa2      	ldr	r2, [r4, #40]	; 0x28
 8001dc4:	0852      	lsrs	r2, r2, #1
 8001dc6:	3a01      	subs	r2, #1
 8001dc8:	ea43 4302 	orr.w	r3, r3, r2, lsl #16
 8001dcc:	6ae2      	ldr	r2, [r4, #44]	; 0x2c
 8001dce:	ea43 6302 	orr.w	r3, r3, r2, lsl #24
 8001dd2:	4a29      	ldr	r2, [pc, #164]	; (8001e78 <HAL_RCC_OscConfig+0x3f0>)
 8001dd4:	6053      	str	r3, [r2, #4]
 8001dd6:	4b29      	ldr	r3, [pc, #164]	; (8001e7c <HAL_RCC_OscConfig+0x3f4>)
 8001dd8:	2201      	movs	r2, #1
 8001dda:	601a      	str	r2, [r3, #0]
 8001ddc:	f000 fb7a 	bl	80024d4 <HAL_GetTick>
 8001de0:	4604      	mov	r4, r0
 8001de2:	4b25      	ldr	r3, [pc, #148]	; (8001e78 <HAL_RCC_OscConfig+0x3f0>)
 8001de4:	681b      	ldr	r3, [r3, #0]
 8001de6:	f013 7f00 	tst.w	r3, #33554432	; 0x2000000
 8001dea:	d106      	bne.n	8001dfa <HAL_RCC_OscConfig+0x372>
 8001dec:	f000 fb72 	bl	80024d4 <HAL_GetTick>
 8001df0:	1b00      	subs	r0, r0, r4
 8001df2:	2802      	cmp	r0, #2
 8001df4:	d9f5      	bls.n	8001de2 <HAL_RCC_OscConfig+0x35a>
 8001df6:	2003      	movs	r0, #3
 8001df8:	e02f      	b.n	8001e5a <HAL_RCC_OscConfig+0x3d2>
 8001dfa:	2000      	movs	r0, #0
 8001dfc:	e02d      	b.n	8001e5a <HAL_RCC_OscConfig+0x3d2>
 8001dfe:	2000      	movs	r0, #0
 8001e00:	e02b      	b.n	8001e5a <HAL_RCC_OscConfig+0x3d2>
 8001e02:	2b01      	cmp	r3, #1
 8001e04:	d02b      	beq.n	8001e5e <HAL_RCC_OscConfig+0x3d6>
 8001e06:	4b1c      	ldr	r3, [pc, #112]	; (8001e78 <HAL_RCC_OscConfig+0x3f0>)
 8001e08:	685b      	ldr	r3, [r3, #4]
 8001e0a:	f403 0180 	and.w	r1, r3, #4194304	; 0x400000
 8001e0e:	69e2      	ldr	r2, [r4, #28]
 8001e10:	4291      	cmp	r1, r2
 8001e12:	d126      	bne.n	8001e62 <HAL_RCC_OscConfig+0x3da>
 8001e14:	f003 023f 	and.w	r2, r3, #63	; 0x3f
 8001e18:	6a21      	ldr	r1, [r4, #32]
 8001e1a:	428a      	cmp	r2, r1
 8001e1c:	d123      	bne.n	8001e66 <HAL_RCC_OscConfig+0x3de>
 8001e1e:	6a61      	ldr	r1, [r4, #36]	; 0x24
 8001e20:	f647 72c0 	movw	r2, #32704	; 0x7fc0
 8001e24:	401a      	ands	r2, r3
 8001e26:	ebb2 1f81 	cmp.w	r2, r1, lsl #6
 8001e2a:	d11e      	bne.n	8001e6a <HAL_RCC_OscConfig+0x3e2>
 8001e2c:	f403 3140 	and.w	r1, r3, #196608	; 0x30000
 8001e30:	6aa2      	ldr	r2, [r4, #40]	; 0x28
 8001e32:	0852      	lsrs	r2, r2, #1
 8001e34:	3a01      	subs	r2, #1
 8001e36:	ebb1 4f02 	cmp.w	r1, r2, lsl #16
 8001e3a:	d118      	bne.n	8001e6e <HAL_RCC_OscConfig+0x3e6>
 8001e3c:	f003 6370 	and.w	r3, r3, #251658240	; 0xf000000
 8001e40:	6ae2      	ldr	r2, [r4, #44]	; 0x2c
 8001e42:	ebb3 6f02 	cmp.w	r3, r2, lsl #24
 8001e46:	d114      	bne.n	8001e72 <HAL_RCC_OscConfig+0x3ea>
 8001e48:	2000      	movs	r0, #0
 8001e4a:	e006      	b.n	8001e5a <HAL_RCC_OscConfig+0x3d2>
 8001e4c:	2001      	movs	r0, #1
 8001e4e:	4770      	bx	lr
 8001e50:	2001      	movs	r0, #1
 8001e52:	e002      	b.n	8001e5a <HAL_RCC_OscConfig+0x3d2>
 8001e54:	2001      	movs	r0, #1
 8001e56:	e000      	b.n	8001e5a <HAL_RCC_OscConfig+0x3d2>
 8001e58:	2000      	movs	r0, #0
 8001e5a:	b002      	add	sp, #8
 8001e5c:	bd70      	pop	{r4, r5, r6, pc}
 8001e5e:	2001      	movs	r0, #1
 8001e60:	e7fb      	b.n	8001e5a <HAL_RCC_OscConfig+0x3d2>
 8001e62:	2001      	movs	r0, #1
 8001e64:	e7f9      	b.n	8001e5a <HAL_RCC_OscConfig+0x3d2>
 8001e66:	2001      	movs	r0, #1
 8001e68:	e7f7      	b.n	8001e5a <HAL_RCC_OscConfig+0x3d2>
 8001e6a:	2001      	movs	r0, #1
 8001e6c:	e7f5      	b.n	8001e5a <HAL_RCC_OscConfig+0x3d2>
 8001e6e:	2001      	movs	r0, #1
 8001e70:	e7f3      	b.n	8001e5a <HAL_RCC_OscConfig+0x3d2>
 8001e72:	2001      	movs	r0, #1
 8001e74:	e7f1      	b.n	8001e5a <HAL_RCC_OscConfig+0x3d2>
 8001e76:	bf00      	nop
 8001e78:	40023800 	.word	0x40023800
 8001e7c:	42470060 	.word	0x42470060

08001e80 <HAL_RCC_GetSysClockFreq>:
 8001e80:	b5f8      	push	{r3, r4, r5, r6, r7, lr}
 8001e82:	4b24      	ldr	r3, [pc, #144]	; (8001f14 <HAL_RCC_GetSysClockFreq+0x94>)
 8001e84:	689b      	ldr	r3, [r3, #8]
 8001e86:	f003 030c 	and.w	r3, r3, #12
 8001e8a:	2b04      	cmp	r3, #4
 8001e8c:	d03d      	beq.n	8001f0a <HAL_RCC_GetSysClockFreq+0x8a>
 8001e8e:	2b08      	cmp	r3, #8
 8001e90:	d13d      	bne.n	8001f0e <HAL_RCC_GetSysClockFreq+0x8e>
 8001e92:	4b20      	ldr	r3, [pc, #128]	; (8001f14 <HAL_RCC_GetSysClockFreq+0x94>)
 8001e94:	685a      	ldr	r2, [r3, #4]
 8001e96:	f002 023f 	and.w	r2, r2, #63	; 0x3f
 8001e9a:	685b      	ldr	r3, [r3, #4]
 8001e9c:	f413 0f80 	tst.w	r3, #4194304	; 0x400000
 8001ea0:	d012      	beq.n	8001ec8 <HAL_RCC_GetSysClockFreq+0x48>
 8001ea2:	4b1c      	ldr	r3, [pc, #112]	; (8001f14 <HAL_RCC_GetSysClockFreq+0x94>)
 8001ea4:	6859      	ldr	r1, [r3, #4]
 8001ea6:	f3c1 1188 	ubfx	r1, r1, #6, #9
 8001eaa:	2300      	movs	r3, #0
 8001eac:	481a      	ldr	r0, [pc, #104]	; (8001f18 <HAL_RCC_GetSysClockFreq+0x98>)
 8001eae:	fba1 0100 	umull	r0, r1, r1, r0
 8001eb2:	f7fe fe11 	bl	8000ad8 <__aeabi_uldivmod>
 8001eb6:	4b17      	ldr	r3, [pc, #92]	; (8001f14 <HAL_RCC_GetSysClockFreq+0x94>)
 8001eb8:	685b      	ldr	r3, [r3, #4]
 8001eba:	f3c3 4301 	ubfx	r3, r3, #16, #2
 8001ebe:	3301      	adds	r3, #1
 8001ec0:	005b      	lsls	r3, r3, #1
 8001ec2:	fbb0 f0f3 	udiv	r0, r0, r3
 8001ec6:	e023      	b.n	8001f10 <HAL_RCC_GetSysClockFreq+0x90>
 8001ec8:	4b12      	ldr	r3, [pc, #72]	; (8001f14 <HAL_RCC_GetSysClockFreq+0x94>)
 8001eca:	685b      	ldr	r3, [r3, #4]
 8001ecc:	f3c3 1388 	ubfx	r3, r3, #6, #9
 8001ed0:	015c      	lsls	r4, r3, #5
 8001ed2:	2500      	movs	r5, #0
 8001ed4:	1ae4      	subs	r4, r4, r3
 8001ed6:	f165 0500 	sbc.w	r5, r5, #0
 8001eda:	01ae      	lsls	r6, r5, #6
 8001edc:	ea46 6694 	orr.w	r6, r6, r4, lsr #26
 8001ee0:	01a7      	lsls	r7, r4, #6
 8001ee2:	1b38      	subs	r0, r7, r4
 8001ee4:	eb66 0105 	sbc.w	r1, r6, r5
 8001ee8:	00cc      	lsls	r4, r1, #3
 8001eea:	ea44 7450 	orr.w	r4, r4, r0, lsr #29
 8001eee:	00c5      	lsls	r5, r0, #3
 8001ef0:	18e8      	adds	r0, r5, r3
 8001ef2:	f144 0100 	adc.w	r1, r4, #0
 8001ef6:	028b      	lsls	r3, r1, #10
 8001ef8:	ea43 5390 	orr.w	r3, r3, r0, lsr #22
 8001efc:	0284      	lsls	r4, r0, #10
 8001efe:	4620      	mov	r0, r4
 8001f00:	4619      	mov	r1, r3
 8001f02:	2300      	movs	r3, #0
 8001f04:	f7fe fde8 	bl	8000ad8 <__aeabi_uldivmod>
 8001f08:	e7d5      	b.n	8001eb6 <HAL_RCC_GetSysClockFreq+0x36>
 8001f0a:	4803      	ldr	r0, [pc, #12]	; (8001f18 <HAL_RCC_GetSysClockFreq+0x98>)
 8001f0c:	e000      	b.n	8001f10 <HAL_RCC_GetSysClockFreq+0x90>
 8001f0e:	4803      	ldr	r0, [pc, #12]	; (8001f1c <HAL_RCC_GetSysClockFreq+0x9c>)
 8001f10:	bdf8      	pop	{r3, r4, r5, r6, r7, pc}
 8001f12:	bf00      	nop
 8001f14:	40023800 	.word	0x40023800
 8001f18:	017d7840 	.word	0x017d7840
 8001f1c:	00f42400 	.word	0x00f42400

08001f20 <HAL_RCC_ClockConfig>:
 8001f20:	2800      	cmp	r0, #0
 8001f22:	f000 809b 	beq.w	800205c <HAL_RCC_ClockConfig+0x13c>
 8001f26:	b570      	push	{r4, r5, r6, lr}
 8001f28:	460d      	mov	r5, r1
 8001f2a:	4604      	mov	r4, r0
 8001f2c:	4b4f      	ldr	r3, [pc, #316]	; (800206c <HAL_RCC_ClockConfig+0x14c>)
 8001f2e:	681b      	ldr	r3, [r3, #0]
 8001f30:	f003 0307 	and.w	r3, r3, #7
 8001f34:	428b      	cmp	r3, r1
 8001f36:	d208      	bcs.n	8001f4a <HAL_RCC_ClockConfig+0x2a>
 8001f38:	b2cb      	uxtb	r3, r1
 8001f3a:	4a4c      	ldr	r2, [pc, #304]	; (800206c <HAL_RCC_ClockConfig+0x14c>)
 8001f3c:	7013      	strb	r3, [r2, #0]
 8001f3e:	6813      	ldr	r3, [r2, #0]
 8001f40:	f003 0307 	and.w	r3, r3, #7
 8001f44:	428b      	cmp	r3, r1
 8001f46:	f040 808b 	bne.w	8002060 <HAL_RCC_ClockConfig+0x140>
 8001f4a:	6823      	ldr	r3, [r4, #0]
 8001f4c:	f013 0f02 	tst.w	r3, #2
 8001f50:	d017      	beq.n	8001f82 <HAL_RCC_ClockConfig+0x62>
 8001f52:	f013 0f04 	tst.w	r3, #4
 8001f56:	d004      	beq.n	8001f62 <HAL_RCC_ClockConfig+0x42>
 8001f58:	4a45      	ldr	r2, [pc, #276]	; (8002070 <HAL_RCC_ClockConfig+0x150>)
 8001f5a:	6893      	ldr	r3, [r2, #8]
 8001f5c:	f443 53e0 	orr.w	r3, r3, #7168	; 0x1c00
 8001f60:	6093      	str	r3, [r2, #8]
 8001f62:	6823      	ldr	r3, [r4, #0]
 8001f64:	f013 0f08 	tst.w	r3, #8
 8001f68:	d004      	beq.n	8001f74 <HAL_RCC_ClockConfig+0x54>
 8001f6a:	4a41      	ldr	r2, [pc, #260]	; (8002070 <HAL_RCC_ClockConfig+0x150>)
 8001f6c:	6893      	ldr	r3, [r2, #8]
 8001f6e:	f443 4360 	orr.w	r3, r3, #57344	; 0xe000
 8001f72:	6093      	str	r3, [r2, #8]
 8001f74:	4a3e      	ldr	r2, [pc, #248]	; (8002070 <HAL_RCC_ClockConfig+0x150>)
 8001f76:	6893      	ldr	r3, [r2, #8]
 8001f78:	f023 03f0 	bic.w	r3, r3, #240	; 0xf0
 8001f7c:	68a1      	ldr	r1, [r4, #8]
 8001f7e:	430b      	orrs	r3, r1
 8001f80:	6093      	str	r3, [r2, #8]
 8001f82:	6823      	ldr	r3, [r4, #0]
 8001f84:	f013 0f01 	tst.w	r3, #1
 8001f88:	d032      	beq.n	8001ff0 <HAL_RCC_ClockConfig+0xd0>
 8001f8a:	6863      	ldr	r3, [r4, #4]
 8001f8c:	2b01      	cmp	r3, #1
 8001f8e:	d021      	beq.n	8001fd4 <HAL_RCC_ClockConfig+0xb4>
 8001f90:	1e9a      	subs	r2, r3, #2
 8001f92:	2a01      	cmp	r2, #1
 8001f94:	d925      	bls.n	8001fe2 <HAL_RCC_ClockConfig+0xc2>
 8001f96:	4a36      	ldr	r2, [pc, #216]	; (8002070 <HAL_RCC_ClockConfig+0x150>)
 8001f98:	6812      	ldr	r2, [r2, #0]
 8001f9a:	f012 0f02 	tst.w	r2, #2
 8001f9e:	d061      	beq.n	8002064 <HAL_RCC_ClockConfig+0x144>
 8001fa0:	4933      	ldr	r1, [pc, #204]	; (8002070 <HAL_RCC_ClockConfig+0x150>)
 8001fa2:	688a      	ldr	r2, [r1, #8]
 8001fa4:	f022 0203 	bic.w	r2, r2, #3
 8001fa8:	4313      	orrs	r3, r2
 8001faa:	608b      	str	r3, [r1, #8]
 8001fac:	f000 fa92 	bl	80024d4 <HAL_GetTick>
 8001fb0:	4606      	mov	r6, r0
 8001fb2:	4b2f      	ldr	r3, [pc, #188]	; (8002070 <HAL_RCC_ClockConfig+0x150>)
 8001fb4:	689b      	ldr	r3, [r3, #8]
 8001fb6:	f003 030c 	and.w	r3, r3, #12
 8001fba:	6862      	ldr	r2, [r4, #4]
 8001fbc:	ebb3 0f82 	cmp.w	r3, r2, lsl #2
 8001fc0:	d016      	beq.n	8001ff0 <HAL_RCC_ClockConfig+0xd0>
 8001fc2:	f000 fa87 	bl	80024d4 <HAL_GetTick>
 8001fc6:	1b80      	subs	r0, r0, r6
 8001fc8:	f241 3388 	movw	r3, #5000	; 0x1388
 8001fcc:	4298      	cmp	r0, r3
 8001fce:	d9f0      	bls.n	8001fb2 <HAL_RCC_ClockConfig+0x92>
 8001fd0:	2003      	movs	r0, #3
 8001fd2:	e042      	b.n	800205a <HAL_RCC_ClockConfig+0x13a>
 8001fd4:	4a26      	ldr	r2, [pc, #152]	; (8002070 <HAL_RCC_ClockConfig+0x150>)
 8001fd6:	6812      	ldr	r2, [r2, #0]
 8001fd8:	f412 3f00 	tst.w	r2, #131072	; 0x20000
 8001fdc:	d1e0      	bne.n	8001fa0 <HAL_RCC_ClockConfig+0x80>
 8001fde:	2001      	movs	r0, #1
 8001fe0:	e03b      	b.n	800205a <HAL_RCC_ClockConfig+0x13a>
 8001fe2:	4a23      	ldr	r2, [pc, #140]	; (8002070 <HAL_RCC_ClockConfig+0x150>)
 8001fe4:	6812      	ldr	r2, [r2, #0]
 8001fe6:	f012 7f00 	tst.w	r2, #33554432	; 0x2000000
 8001fea:	d1d9      	bne.n	8001fa0 <HAL_RCC_ClockConfig+0x80>
 8001fec:	2001      	movs	r0, #1
 8001fee:	e034      	b.n	800205a <HAL_RCC_ClockConfig+0x13a>
 8001ff0:	4b1e      	ldr	r3, [pc, #120]	; (800206c <HAL_RCC_ClockConfig+0x14c>)
 8001ff2:	681b      	ldr	r3, [r3, #0]
 8001ff4:	f003 0307 	and.w	r3, r3, #7
 8001ff8:	42ab      	cmp	r3, r5
 8001ffa:	d907      	bls.n	800200c <HAL_RCC_ClockConfig+0xec>
 8001ffc:	b2ea      	uxtb	r2, r5
 8001ffe:	4b1b      	ldr	r3, [pc, #108]	; (800206c <HAL_RCC_ClockConfig+0x14c>)
 8002000:	701a      	strb	r2, [r3, #0]
 8002002:	681b      	ldr	r3, [r3, #0]
 8002004:	f003 0307 	and.w	r3, r3, #7
 8002008:	42ab      	cmp	r3, r5
 800200a:	d12d      	bne.n	8002068 <HAL_RCC_ClockConfig+0x148>
 800200c:	6823      	ldr	r3, [r4, #0]
 800200e:	f013 0f04 	tst.w	r3, #4
 8002012:	d006      	beq.n	8002022 <HAL_RCC_ClockConfig+0x102>
 8002014:	4a16      	ldr	r2, [pc, #88]	; (8002070 <HAL_RCC_ClockConfig+0x150>)
 8002016:	6893      	ldr	r3, [r2, #8]
 8002018:	f423 53e0 	bic.w	r3, r3, #7168	; 0x1c00
 800201c:	68e1      	ldr	r1, [r4, #12]
 800201e:	430b      	orrs	r3, r1
 8002020:	6093      	str	r3, [r2, #8]
 8002022:	6823      	ldr	r3, [r4, #0]
 8002024:	f013 0f08 	tst.w	r3, #8
 8002028:	d007      	beq.n	800203a <HAL_RCC_ClockConfig+0x11a>
 800202a:	4a11      	ldr	r2, [pc, #68]	; (8002070 <HAL_RCC_ClockConfig+0x150>)
 800202c:	6893      	ldr	r3, [r2, #8]
 800202e:	f423 4360 	bic.w	r3, r3, #57344	; 0xe000
 8002032:	6921      	ldr	r1, [r4, #16]
 8002034:	ea43 03c1 	orr.w	r3, r3, r1, lsl #3
 8002038:	6093      	str	r3, [r2, #8]
 800203a:	f7ff ff21 	bl	8001e80 <HAL_RCC_GetSysClockFreq>
 800203e:	4b0c      	ldr	r3, [pc, #48]	; (8002070 <HAL_RCC_ClockConfig+0x150>)
 8002040:	689b      	ldr	r3, [r3, #8]
 8002042:	f3c3 1303 	ubfx	r3, r3, #4, #4
 8002046:	4a0b      	ldr	r2, [pc, #44]	; (8002074 <HAL_RCC_ClockConfig+0x154>)
 8002048:	5cd3      	ldrb	r3, [r2, r3]
 800204a:	40d8      	lsrs	r0, r3
 800204c:	4b0a      	ldr	r3, [pc, #40]	; (8002078 <HAL_RCC_ClockConfig+0x158>)
 800204e:	6018      	str	r0, [r3, #0]
 8002050:	4b0a      	ldr	r3, [pc, #40]	; (800207c <HAL_RCC_ClockConfig+0x15c>)
 8002052:	6818      	ldr	r0, [r3, #0]
 8002054:	f000 f9f2 	bl	800243c <HAL_InitTick>
 8002058:	2000      	movs	r0, #0
 800205a:	bd70      	pop	{r4, r5, r6, pc}
 800205c:	2001      	movs	r0, #1
 800205e:	4770      	bx	lr
 8002060:	2001      	movs	r0, #1
 8002062:	e7fa      	b.n	800205a <HAL_RCC_ClockConfig+0x13a>
 8002064:	2001      	movs	r0, #1
 8002066:	e7f8      	b.n	800205a <HAL_RCC_ClockConfig+0x13a>
 8002068:	2001      	movs	r0, #1
 800206a:	e7f6      	b.n	800205a <HAL_RCC_ClockConfig+0x13a>
 800206c:	40023c00 	.word	0x40023c00
 8002070:	40023800 	.word	0x40023800
 8002074:	080081c4 	.word	0x080081c4
 8002078:	20000008 	.word	0x20000008
 800207c:	20000004 	.word	0x20000004

08002080 <HAL_RCC_GetHCLKFreq>:
 8002080:	4b01      	ldr	r3, [pc, #4]	; (8002088 <HAL_RCC_GetHCLKFreq+0x8>)
 8002082:	6818      	ldr	r0, [r3, #0]
 8002084:	4770      	bx	lr
 8002086:	bf00      	nop
 8002088:	20000008 	.word	0x20000008

0800208c <HAL_RCC_GetPCLK1Freq>:
 800208c:	b508      	push	{r3, lr}
 800208e:	f7ff fff7 	bl	8002080 <HAL_RCC_GetHCLKFreq>
 8002092:	4b04      	ldr	r3, [pc, #16]	; (80020a4 <HAL_RCC_GetPCLK1Freq+0x18>)
 8002094:	689b      	ldr	r3, [r3, #8]
 8002096:	f3c3 2382 	ubfx	r3, r3, #10, #3
 800209a:	4a03      	ldr	r2, [pc, #12]	; (80020a8 <HAL_RCC_GetPCLK1Freq+0x1c>)
 800209c:	5cd3      	ldrb	r3, [r2, r3]
 800209e:	40d8      	lsrs	r0, r3
 80020a0:	bd08      	pop	{r3, pc}
 80020a2:	bf00      	nop
 80020a4:	40023800 	.word	0x40023800
 80020a8:	080081d4 	.word	0x080081d4

080020ac <HAL_RCC_GetPCLK2Freq>:
 80020ac:	b508      	push	{r3, lr}
 80020ae:	f7ff ffe7 	bl	8002080 <HAL_RCC_GetHCLKFreq>
 80020b2:	4b04      	ldr	r3, [pc, #16]	; (80020c4 <HAL_RCC_GetPCLK2Freq+0x18>)
 80020b4:	689b      	ldr	r3, [r3, #8]
 80020b6:	f3c3 3342 	ubfx	r3, r3, #13, #3
 80020ba:	4a03      	ldr	r2, [pc, #12]	; (80020c8 <HAL_RCC_GetPCLK2Freq+0x1c>)
 80020bc:	5cd3      	ldrb	r3, [r2, r3]
 80020be:	40d8      	lsrs	r0, r3
 80020c0:	bd08      	pop	{r3, pc}
 80020c2:	bf00      	nop
 80020c4:	40023800 	.word	0x40023800
 80020c8:	080081d4 	.word	0x080081d4

080020cc <HAL_GPIO_Init>:
 80020cc:	2300      	movs	r3, #0
 80020ce:	2b0f      	cmp	r3, #15
 80020d0:	f200 80dd 	bhi.w	800228e <HAL_GPIO_Init+0x1c2>
 80020d4:	b4f0      	push	{r4, r5, r6, r7}
 80020d6:	b082      	sub	sp, #8
 80020d8:	e05d      	b.n	8002196 <HAL_GPIO_Init+0xca>
 80020da:	6886      	ldr	r6, [r0, #8]
 80020dc:	005f      	lsls	r7, r3, #1
 80020de:	2403      	movs	r4, #3
 80020e0:	40bc      	lsls	r4, r7
 80020e2:	ea26 0604 	bic.w	r6, r6, r4
 80020e6:	68cc      	ldr	r4, [r1, #12]
 80020e8:	40bc      	lsls	r4, r7
 80020ea:	4334      	orrs	r4, r6
 80020ec:	6084      	str	r4, [r0, #8]
 80020ee:	6846      	ldr	r6, [r0, #4]
 80020f0:	ea26 0602 	bic.w	r6, r6, r2
 80020f4:	684c      	ldr	r4, [r1, #4]
 80020f6:	f3c4 1200 	ubfx	r2, r4, #4, #1
 80020fa:	409a      	lsls	r2, r3
 80020fc:	4332      	orrs	r2, r6
 80020fe:	6042      	str	r2, [r0, #4]
 8002100:	e057      	b.n	80021b2 <HAL_GPIO_Init+0xe6>
 8002102:	08dc      	lsrs	r4, r3, #3
 8002104:	3408      	adds	r4, #8
 8002106:	f850 7024 	ldr.w	r7, [r0, r4, lsl #2]
 800210a:	f003 0207 	and.w	r2, r3, #7
 800210e:	0096      	lsls	r6, r2, #2
 8002110:	220f      	movs	r2, #15
 8002112:	40b2      	lsls	r2, r6
 8002114:	ea27 0702 	bic.w	r7, r7, r2
 8002118:	690a      	ldr	r2, [r1, #16]
 800211a:	40b2      	lsls	r2, r6
 800211c:	433a      	orrs	r2, r7
 800211e:	f840 2024 	str.w	r2, [r0, r4, lsl #2]
 8002122:	e05a      	b.n	80021da <HAL_GPIO_Init+0x10e>
 8002124:	2207      	movs	r2, #7
 8002126:	e000      	b.n	800212a <HAL_GPIO_Init+0x5e>
 8002128:	2200      	movs	r2, #0
 800212a:	40b2      	lsls	r2, r6
 800212c:	433a      	orrs	r2, r7
 800212e:	3402      	adds	r4, #2
 8002130:	4e57      	ldr	r6, [pc, #348]	; (8002290 <HAL_GPIO_Init+0x1c4>)
 8002132:	f846 2024 	str.w	r2, [r6, r4, lsl #2]
 8002136:	4a57      	ldr	r2, [pc, #348]	; (8002294 <HAL_GPIO_Init+0x1c8>)
 8002138:	6814      	ldr	r4, [r2, #0]
 800213a:	43ea      	mvns	r2, r5
 800213c:	ea24 0605 	bic.w	r6, r4, r5
 8002140:	684f      	ldr	r7, [r1, #4]
 8002142:	f417 3f80 	tst.w	r7, #65536	; 0x10000
 8002146:	d001      	beq.n	800214c <HAL_GPIO_Init+0x80>
 8002148:	ea45 0604 	orr.w	r6, r5, r4
 800214c:	4c51      	ldr	r4, [pc, #324]	; (8002294 <HAL_GPIO_Init+0x1c8>)
 800214e:	6026      	str	r6, [r4, #0]
 8002150:	6864      	ldr	r4, [r4, #4]
 8002152:	ea02 0604 	and.w	r6, r2, r4
 8002156:	684f      	ldr	r7, [r1, #4]
 8002158:	f417 3f00 	tst.w	r7, #131072	; 0x20000
 800215c:	d001      	beq.n	8002162 <HAL_GPIO_Init+0x96>
 800215e:	ea45 0604 	orr.w	r6, r5, r4
 8002162:	4c4c      	ldr	r4, [pc, #304]	; (8002294 <HAL_GPIO_Init+0x1c8>)
 8002164:	6066      	str	r6, [r4, #4]
 8002166:	68a4      	ldr	r4, [r4, #8]
 8002168:	ea02 0604 	and.w	r6, r2, r4
 800216c:	684f      	ldr	r7, [r1, #4]
 800216e:	f417 1f80 	tst.w	r7, #1048576	; 0x100000
 8002172:	d001      	beq.n	8002178 <HAL_GPIO_Init+0xac>
 8002174:	ea45 0604 	orr.w	r6, r5, r4
 8002178:	4c46      	ldr	r4, [pc, #280]	; (8002294 <HAL_GPIO_Init+0x1c8>)
 800217a:	60a6      	str	r6, [r4, #8]
 800217c:	68e4      	ldr	r4, [r4, #12]
 800217e:	4022      	ands	r2, r4
 8002180:	684e      	ldr	r6, [r1, #4]
 8002182:	f416 1f00 	tst.w	r6, #2097152	; 0x200000
 8002186:	d001      	beq.n	800218c <HAL_GPIO_Init+0xc0>
 8002188:	ea45 0204 	orr.w	r2, r5, r4
 800218c:	4c41      	ldr	r4, [pc, #260]	; (8002294 <HAL_GPIO_Init+0x1c8>)
 800218e:	60e2      	str	r2, [r4, #12]
 8002190:	3301      	adds	r3, #1
 8002192:	2b0f      	cmp	r3, #15
 8002194:	d878      	bhi.n	8002288 <HAL_GPIO_Init+0x1bc>
 8002196:	2201      	movs	r2, #1
 8002198:	409a      	lsls	r2, r3
 800219a:	680c      	ldr	r4, [r1, #0]
 800219c:	ea04 0502 	and.w	r5, r4, r2
 80021a0:	ea32 0404 	bics.w	r4, r2, r4
 80021a4:	d1f4      	bne.n	8002190 <HAL_GPIO_Init+0xc4>
 80021a6:	684c      	ldr	r4, [r1, #4]
 80021a8:	f004 0403 	and.w	r4, r4, #3
 80021ac:	3c01      	subs	r4, #1
 80021ae:	2c01      	cmp	r4, #1
 80021b0:	d993      	bls.n	80020da <HAL_GPIO_Init+0xe>
 80021b2:	684a      	ldr	r2, [r1, #4]
 80021b4:	f002 0203 	and.w	r2, r2, #3
 80021b8:	2a03      	cmp	r2, #3
 80021ba:	d009      	beq.n	80021d0 <HAL_GPIO_Init+0x104>
 80021bc:	68c4      	ldr	r4, [r0, #12]
 80021be:	005e      	lsls	r6, r3, #1
 80021c0:	2203      	movs	r2, #3
 80021c2:	40b2      	lsls	r2, r6
 80021c4:	ea24 0402 	bic.w	r4, r4, r2
 80021c8:	688a      	ldr	r2, [r1, #8]
 80021ca:	40b2      	lsls	r2, r6
 80021cc:	4322      	orrs	r2, r4
 80021ce:	60c2      	str	r2, [r0, #12]
 80021d0:	684a      	ldr	r2, [r1, #4]
 80021d2:	f002 0203 	and.w	r2, r2, #3
 80021d6:	2a02      	cmp	r2, #2
 80021d8:	d093      	beq.n	8002102 <HAL_GPIO_Init+0x36>
 80021da:	6804      	ldr	r4, [r0, #0]
 80021dc:	005e      	lsls	r6, r3, #1
 80021de:	2203      	movs	r2, #3
 80021e0:	40b2      	lsls	r2, r6
 80021e2:	ea24 0402 	bic.w	r4, r4, r2
 80021e6:	684a      	ldr	r2, [r1, #4]
 80021e8:	f002 0203 	and.w	r2, r2, #3
 80021ec:	40b2      	lsls	r2, r6
 80021ee:	4322      	orrs	r2, r4
 80021f0:	6002      	str	r2, [r0, #0]
 80021f2:	684a      	ldr	r2, [r1, #4]
 80021f4:	f012 5f80 	tst.w	r2, #268435456	; 0x10000000
 80021f8:	d0ca      	beq.n	8002190 <HAL_GPIO_Init+0xc4>
 80021fa:	2200      	movs	r2, #0
 80021fc:	9201      	str	r2, [sp, #4]
 80021fe:	4a26      	ldr	r2, [pc, #152]	; (8002298 <HAL_GPIO_Init+0x1cc>)
 8002200:	6c54      	ldr	r4, [r2, #68]	; 0x44
 8002202:	f444 4480 	orr.w	r4, r4, #16384	; 0x4000
 8002206:	6454      	str	r4, [r2, #68]	; 0x44
 8002208:	6c52      	ldr	r2, [r2, #68]	; 0x44
 800220a:	f402 4280 	and.w	r2, r2, #16384	; 0x4000
 800220e:	9201      	str	r2, [sp, #4]
 8002210:	9a01      	ldr	r2, [sp, #4]
 8002212:	089c      	lsrs	r4, r3, #2
 8002214:	1ca6      	adds	r6, r4, #2
 8002216:	4a1e      	ldr	r2, [pc, #120]	; (8002290 <HAL_GPIO_Init+0x1c4>)
 8002218:	f852 7026 	ldr.w	r7, [r2, r6, lsl #2]
 800221c:	f003 0203 	and.w	r2, r3, #3
 8002220:	0096      	lsls	r6, r2, #2
 8002222:	220f      	movs	r2, #15
 8002224:	40b2      	lsls	r2, r6
 8002226:	ea27 0702 	bic.w	r7, r7, r2
 800222a:	4a1c      	ldr	r2, [pc, #112]	; (800229c <HAL_GPIO_Init+0x1d0>)
 800222c:	4290      	cmp	r0, r2
 800222e:	f43f af7b 	beq.w	8002128 <HAL_GPIO_Init+0x5c>
 8002232:	f502 6280 	add.w	r2, r2, #1024	; 0x400
 8002236:	4290      	cmp	r0, r2
 8002238:	d01a      	beq.n	8002270 <HAL_GPIO_Init+0x1a4>
 800223a:	f502 6280 	add.w	r2, r2, #1024	; 0x400
 800223e:	4290      	cmp	r0, r2
 8002240:	d018      	beq.n	8002274 <HAL_GPIO_Init+0x1a8>
 8002242:	f502 6280 	add.w	r2, r2, #1024	; 0x400
 8002246:	4290      	cmp	r0, r2
 8002248:	d016      	beq.n	8002278 <HAL_GPIO_Init+0x1ac>
 800224a:	f502 6280 	add.w	r2, r2, #1024	; 0x400
 800224e:	4290      	cmp	r0, r2
 8002250:	d014      	beq.n	800227c <HAL_GPIO_Init+0x1b0>
 8002252:	f502 6280 	add.w	r2, r2, #1024	; 0x400
 8002256:	4290      	cmp	r0, r2
 8002258:	d012      	beq.n	8002280 <HAL_GPIO_Init+0x1b4>
 800225a:	f502 6280 	add.w	r2, r2, #1024	; 0x400
 800225e:	4290      	cmp	r0, r2
 8002260:	d010      	beq.n	8002284 <HAL_GPIO_Init+0x1b8>
 8002262:	f502 6280 	add.w	r2, r2, #1024	; 0x400
 8002266:	4290      	cmp	r0, r2
 8002268:	f43f af5c 	beq.w	8002124 <HAL_GPIO_Init+0x58>
 800226c:	2208      	movs	r2, #8
 800226e:	e75c      	b.n	800212a <HAL_GPIO_Init+0x5e>
 8002270:	2201      	movs	r2, #1
 8002272:	e75a      	b.n	800212a <HAL_GPIO_Init+0x5e>
 8002274:	2202      	movs	r2, #2
 8002276:	e758      	b.n	800212a <HAL_GPIO_Init+0x5e>
 8002278:	2203      	movs	r2, #3
 800227a:	e756      	b.n	800212a <HAL_GPIO_Init+0x5e>
 800227c:	2204      	movs	r2, #4
 800227e:	e754      	b.n	800212a <HAL_GPIO_Init+0x5e>
 8002280:	2205      	movs	r2, #5
 8002282:	e752      	b.n	800212a <HAL_GPIO_Init+0x5e>
 8002284:	2206      	movs	r2, #6
 8002286:	e750      	b.n	800212a <HAL_GPIO_Init+0x5e>
 8002288:	b002      	add	sp, #8
 800228a:	bcf0      	pop	{r4, r5, r6, r7}
 800228c:	4770      	bx	lr
 800228e:	4770      	bx	lr
 8002290:	40013800 	.word	0x40013800
 8002294:	40013c00 	.word	0x40013c00
 8002298:	40023800 	.word	0x40023800
 800229c:	40020000 	.word	0x40020000

080022a0 <HAL_GPIO_WritePin>:
 80022a0:	b10a      	cbz	r2, 80022a6 <HAL_GPIO_WritePin+0x6>
 80022a2:	6181      	str	r1, [r0, #24]
 80022a4:	4770      	bx	lr
 80022a6:	0409      	lsls	r1, r1, #16
 80022a8:	6181      	str	r1, [r0, #24]
 80022aa:	4770      	bx	lr

080022ac <HAL_DMA_Abort>:
 80022ac:	b570      	push	{r4, r5, r6, lr}
 80022ae:	4604      	mov	r4, r0
 80022b0:	6d86      	ldr	r6, [r0, #88]	; 0x58
 80022b2:	f000 f90f 	bl	80024d4 <HAL_GetTick>
 80022b6:	f894 3035 	ldrb.w	r3, [r4, #53]	; 0x35
 80022ba:	b2db      	uxtb	r3, r3
 80022bc:	2b02      	cmp	r3, #2
 80022be:	d006      	beq.n	80022ce <HAL_DMA_Abort+0x22>
 80022c0:	2380      	movs	r3, #128	; 0x80
 80022c2:	6563      	str	r3, [r4, #84]	; 0x54
 80022c4:	2300      	movs	r3, #0
 80022c6:	f884 3034 	strb.w	r3, [r4, #52]	; 0x34
 80022ca:	2001      	movs	r0, #1
 80022cc:	bd70      	pop	{r4, r5, r6, pc}
 80022ce:	4605      	mov	r5, r0
 80022d0:	6822      	ldr	r2, [r4, #0]
 80022d2:	6813      	ldr	r3, [r2, #0]
 80022d4:	f023 0316 	bic.w	r3, r3, #22
 80022d8:	6013      	str	r3, [r2, #0]
 80022da:	6822      	ldr	r2, [r4, #0]
 80022dc:	6953      	ldr	r3, [r2, #20]
 80022de:	f023 0380 	bic.w	r3, r3, #128	; 0x80
 80022e2:	6153      	str	r3, [r2, #20]
 80022e4:	6c23      	ldr	r3, [r4, #64]	; 0x40
 80022e6:	b1e3      	cbz	r3, 8002322 <HAL_DMA_Abort+0x76>
 80022e8:	6822      	ldr	r2, [r4, #0]
 80022ea:	6813      	ldr	r3, [r2, #0]
 80022ec:	f023 0308 	bic.w	r3, r3, #8
 80022f0:	6013      	str	r3, [r2, #0]
 80022f2:	6822      	ldr	r2, [r4, #0]
 80022f4:	6813      	ldr	r3, [r2, #0]
 80022f6:	f023 0301 	bic.w	r3, r3, #1
 80022fa:	6013      	str	r3, [r2, #0]
 80022fc:	6823      	ldr	r3, [r4, #0]
 80022fe:	681b      	ldr	r3, [r3, #0]
 8002300:	f013 0f01 	tst.w	r3, #1
 8002304:	d011      	beq.n	800232a <HAL_DMA_Abort+0x7e>
 8002306:	f000 f8e5 	bl	80024d4 <HAL_GetTick>
 800230a:	1b43      	subs	r3, r0, r5
 800230c:	2b05      	cmp	r3, #5
 800230e:	d9f5      	bls.n	80022fc <HAL_DMA_Abort+0x50>
 8002310:	2320      	movs	r3, #32
 8002312:	6563      	str	r3, [r4, #84]	; 0x54
 8002314:	2300      	movs	r3, #0
 8002316:	f884 3034 	strb.w	r3, [r4, #52]	; 0x34
 800231a:	2003      	movs	r0, #3
 800231c:	f884 0035 	strb.w	r0, [r4, #53]	; 0x35
 8002320:	e7d4      	b.n	80022cc <HAL_DMA_Abort+0x20>
 8002322:	6ca3      	ldr	r3, [r4, #72]	; 0x48
 8002324:	2b00      	cmp	r3, #0
 8002326:	d1df      	bne.n	80022e8 <HAL_DMA_Abort+0x3c>
 8002328:	e7e3      	b.n	80022f2 <HAL_DMA_Abort+0x46>
 800232a:	6de2      	ldr	r2, [r4, #92]	; 0x5c
 800232c:	233f      	movs	r3, #63	; 0x3f
 800232e:	4093      	lsls	r3, r2
 8002330:	60b3      	str	r3, [r6, #8]
 8002332:	2000      	movs	r0, #0
 8002334:	f884 0034 	strb.w	r0, [r4, #52]	; 0x34
 8002338:	2301      	movs	r3, #1
 800233a:	f884 3035 	strb.w	r3, [r4, #53]	; 0x35
 800233e:	e7c5      	b.n	80022cc <HAL_DMA_Abort+0x20>

08002340 <HAL_DMA_Abort_IT>:
 8002340:	f890 3035 	ldrb.w	r3, [r0, #53]	; 0x35
 8002344:	b2db      	uxtb	r3, r3
 8002346:	2b02      	cmp	r3, #2
 8002348:	d003      	beq.n	8002352 <HAL_DMA_Abort_IT+0x12>
 800234a:	2380      	movs	r3, #128	; 0x80
 800234c:	6543      	str	r3, [r0, #84]	; 0x54
 800234e:	2001      	movs	r0, #1
 8002350:	4770      	bx	lr
 8002352:	2305      	movs	r3, #5
 8002354:	f880 3035 	strb.w	r3, [r0, #53]	; 0x35
 8002358:	6802      	ldr	r2, [r0, #0]
 800235a:	6813      	ldr	r3, [r2, #0]
 800235c:	f023 0301 	bic.w	r3, r3, #1
 8002360:	6013      	str	r3, [r2, #0]
 8002362:	2000      	movs	r0, #0
 8002364:	4770      	bx	lr
	...

08002368 <HAL_NVIC_SetPriorityGrouping>:
 8002368:	4a07      	ldr	r2, [pc, #28]	; (8002388 <HAL_NVIC_SetPriorityGrouping+0x20>)
 800236a:	68d3      	ldr	r3, [r2, #12]
 800236c:	f423 63e0 	bic.w	r3, r3, #1792	; 0x700
 8002370:	041b      	lsls	r3, r3, #16
 8002372:	0c1b      	lsrs	r3, r3, #16
 8002374:	0200      	lsls	r0, r0, #8
 8002376:	f400 60e0 	and.w	r0, r0, #1792	; 0x700
 800237a:	4303      	orrs	r3, r0
 800237c:	f043 63bf 	orr.w	r3, r3, #100139008	; 0x5f80000
 8002380:	f443 3300 	orr.w	r3, r3, #131072	; 0x20000
 8002384:	60d3      	str	r3, [r2, #12]
 8002386:	4770      	bx	lr
 8002388:	e000ed00 	.word	0xe000ed00

0800238c <HAL_NVIC_SetPriority>:
 800238c:	b430      	push	{r4, r5}
 800238e:	4b17      	ldr	r3, [pc, #92]	; (80023ec <HAL_NVIC_SetPriority+0x60>)
 8002390:	68db      	ldr	r3, [r3, #12]
 8002392:	f3c3 2302 	ubfx	r3, r3, #8, #3
 8002396:	f1c3 0407 	rsb	r4, r3, #7
 800239a:	2c04      	cmp	r4, #4
 800239c:	bf28      	it	cs
 800239e:	2404      	movcs	r4, #4
 80023a0:	1d1d      	adds	r5, r3, #4
 80023a2:	2d06      	cmp	r5, #6
 80023a4:	d918      	bls.n	80023d8 <HAL_NVIC_SetPriority+0x4c>
 80023a6:	3b03      	subs	r3, #3
 80023a8:	f04f 35ff 	mov.w	r5, #4294967295	; 0xffffffff
 80023ac:	fa05 f404 	lsl.w	r4, r5, r4
 80023b0:	ea21 0104 	bic.w	r1, r1, r4
 80023b4:	4099      	lsls	r1, r3
 80023b6:	fa05 f303 	lsl.w	r3, r5, r3
 80023ba:	ea22 0303 	bic.w	r3, r2, r3
 80023be:	4319      	orrs	r1, r3
 80023c0:	2800      	cmp	r0, #0
 80023c2:	db0b      	blt.n	80023dc <HAL_NVIC_SetPriority+0x50>
 80023c4:	0109      	lsls	r1, r1, #4
 80023c6:	b2c9      	uxtb	r1, r1
 80023c8:	f100 4060 	add.w	r0, r0, #3758096384	; 0xe0000000
 80023cc:	f500 4061 	add.w	r0, r0, #57600	; 0xe100
 80023d0:	f880 1300 	strb.w	r1, [r0, #768]	; 0x300
 80023d4:	bc30      	pop	{r4, r5}
 80023d6:	4770      	bx	lr
 80023d8:	2300      	movs	r3, #0
 80023da:	e7e5      	b.n	80023a8 <HAL_NVIC_SetPriority+0x1c>
 80023dc:	f000 000f 	and.w	r0, r0, #15
 80023e0:	0109      	lsls	r1, r1, #4
 80023e2:	b2c9      	uxtb	r1, r1
 80023e4:	4b02      	ldr	r3, [pc, #8]	; (80023f0 <HAL_NVIC_SetPriority+0x64>)
 80023e6:	5419      	strb	r1, [r3, r0]
 80023e8:	e7f4      	b.n	80023d4 <HAL_NVIC_SetPriority+0x48>
 80023ea:	bf00      	nop
 80023ec:	e000ed00 	.word	0xe000ed00
 80023f0:	e000ed14 	.word	0xe000ed14

080023f4 <HAL_NVIC_EnableIRQ>:
 80023f4:	2800      	cmp	r0, #0
 80023f6:	db07      	blt.n	8002408 <HAL_NVIC_EnableIRQ+0x14>
 80023f8:	f000 021f 	and.w	r2, r0, #31
 80023fc:	0940      	lsrs	r0, r0, #5
 80023fe:	2301      	movs	r3, #1
 8002400:	4093      	lsls	r3, r2
 8002402:	4a02      	ldr	r2, [pc, #8]	; (800240c <HAL_NVIC_EnableIRQ+0x18>)
 8002404:	f842 3020 	str.w	r3, [r2, r0, lsl #2]
 8002408:	4770      	bx	lr
 800240a:	bf00      	nop
 800240c:	e000e100 	.word	0xe000e100

08002410 <HAL_SYSTICK_Config>:
 8002410:	3801      	subs	r0, #1
 8002412:	f1b0 7f80 	cmp.w	r0, #16777216	; 0x1000000
 8002416:	d20a      	bcs.n	800242e <HAL_SYSTICK_Config+0x1e>
 8002418:	4b06      	ldr	r3, [pc, #24]	; (8002434 <HAL_SYSTICK_Config+0x24>)
 800241a:	6058      	str	r0, [r3, #4]
 800241c:	4a06      	ldr	r2, [pc, #24]	; (8002438 <HAL_SYSTICK_Config+0x28>)
 800241e:	21f0      	movs	r1, #240	; 0xf0
 8002420:	f882 1023 	strb.w	r1, [r2, #35]	; 0x23
 8002424:	2000      	movs	r0, #0
 8002426:	6098      	str	r0, [r3, #8]
 8002428:	2207      	movs	r2, #7
 800242a:	601a      	str	r2, [r3, #0]
 800242c:	4770      	bx	lr
 800242e:	2001      	movs	r0, #1
 8002430:	4770      	bx	lr
 8002432:	bf00      	nop
 8002434:	e000e010 	.word	0xe000e010
 8002438:	e000ed00 	.word	0xe000ed00

0800243c <HAL_InitTick>:
 800243c:	b510      	push	{r4, lr}
 800243e:	4604      	mov	r4, r0
 8002440:	4b0e      	ldr	r3, [pc, #56]	; (800247c <HAL_InitTick+0x40>)
 8002442:	7818      	ldrb	r0, [r3, #0]
 8002444:	f44f 737a 	mov.w	r3, #1000	; 0x3e8
 8002448:	fbb3 f3f0 	udiv	r3, r3, r0
 800244c:	4a0c      	ldr	r2, [pc, #48]	; (8002480 <HAL_InitTick+0x44>)
 800244e:	6810      	ldr	r0, [r2, #0]
 8002450:	fbb0 f0f3 	udiv	r0, r0, r3
 8002454:	f7ff ffdc 	bl	8002410 <HAL_SYSTICK_Config>
 8002458:	b968      	cbnz	r0, 8002476 <HAL_InitTick+0x3a>
 800245a:	2c0f      	cmp	r4, #15
 800245c:	d901      	bls.n	8002462 <HAL_InitTick+0x26>
 800245e:	2001      	movs	r0, #1
 8002460:	e00a      	b.n	8002478 <HAL_InitTick+0x3c>
 8002462:	2200      	movs	r2, #0
 8002464:	4621      	mov	r1, r4
 8002466:	f04f 30ff 	mov.w	r0, #4294967295	; 0xffffffff
 800246a:	f7ff ff8f 	bl	800238c <HAL_NVIC_SetPriority>
 800246e:	4b05      	ldr	r3, [pc, #20]	; (8002484 <HAL_InitTick+0x48>)
 8002470:	601c      	str	r4, [r3, #0]
 8002472:	2000      	movs	r0, #0
 8002474:	e000      	b.n	8002478 <HAL_InitTick+0x3c>
 8002476:	2001      	movs	r0, #1
 8002478:	bd10      	pop	{r4, pc}
 800247a:	bf00      	nop
 800247c:	20000001 	.word	0x20000001
 8002480:	20000008 	.word	0x20000008
 8002484:	20000004 	.word	0x20000004

08002488 <HAL_Init>:
 8002488:	b508      	push	{r3, lr}
 800248a:	4b0b      	ldr	r3, [pc, #44]	; (80024b8 <HAL_Init+0x30>)
 800248c:	681a      	ldr	r2, [r3, #0]
 800248e:	f442 7200 	orr.w	r2, r2, #512	; 0x200
 8002492:	601a      	str	r2, [r3, #0]
 8002494:	681a      	ldr	r2, [r3, #0]
 8002496:	f442 6280 	orr.w	r2, r2, #1024	; 0x400
 800249a:	601a      	str	r2, [r3, #0]
 800249c:	681a      	ldr	r2, [r3, #0]
 800249e:	f442 7280 	orr.w	r2, r2, #256	; 0x100
 80024a2:	601a      	str	r2, [r3, #0]
 80024a4:	2003      	movs	r0, #3
 80024a6:	f7ff ff5f 	bl	8002368 <HAL_NVIC_SetPriorityGrouping>
 80024aa:	2000      	movs	r0, #0
 80024ac:	f7ff ffc6 	bl	800243c <HAL_InitTick>
 80024b0:	f7ff f9f0 	bl	8001894 <HAL_MspInit>
 80024b4:	2000      	movs	r0, #0
 80024b6:	bd08      	pop	{r3, pc}
 80024b8:	40023c00 	.word	0x40023c00

080024bc <HAL_IncTick>:
 80024bc:	4a03      	ldr	r2, [pc, #12]	; (80024cc <HAL_IncTick+0x10>)
 80024be:	6811      	ldr	r1, [r2, #0]
 80024c0:	4b03      	ldr	r3, [pc, #12]	; (80024d0 <HAL_IncTick+0x14>)
 80024c2:	781b      	ldrb	r3, [r3, #0]
 80024c4:	440b      	add	r3, r1
 80024c6:	6013      	str	r3, [r2, #0]
 80024c8:	4770      	bx	lr
 80024ca:	bf00      	nop
 80024cc:	200022d0 	.word	0x200022d0
 80024d0:	20000001 	.word	0x20000001

080024d4 <HAL_GetTick>:
 80024d4:	4b01      	ldr	r3, [pc, #4]	; (80024dc <HAL_GetTick+0x8>)
 80024d6:	6818      	ldr	r0, [r3, #0]
 80024d8:	4770      	bx	lr
 80024da:	bf00      	nop
 80024dc:	200022d0 	.word	0x200022d0

080024e0 <HAL_Delay>:
 80024e0:	b538      	push	{r3, r4, r5, lr}
 80024e2:	4604      	mov	r4, r0
 80024e4:	f7ff fff6 	bl	80024d4 <HAL_GetTick>
 80024e8:	4605      	mov	r5, r0
 80024ea:	f1b4 3fff 	cmp.w	r4, #4294967295	; 0xffffffff
 80024ee:	d002      	beq.n	80024f6 <HAL_Delay+0x16>
 80024f0:	4b04      	ldr	r3, [pc, #16]	; (8002504 <HAL_Delay+0x24>)
 80024f2:	781b      	ldrb	r3, [r3, #0]
 80024f4:	441c      	add	r4, r3
 80024f6:	f7ff ffed 	bl	80024d4 <HAL_GetTick>
 80024fa:	1b40      	subs	r0, r0, r5
 80024fc:	42a0      	cmp	r0, r4
 80024fe:	d3fa      	bcc.n	80024f6 <HAL_Delay+0x16>
 8002500:	bd38      	pop	{r3, r4, r5, pc}
 8002502:	bf00      	nop
 8002504:	20000001 	.word	0x20000001

08002508 <SDMMC_GetCmdError>:
 8002508:	4b0b      	ldr	r3, [pc, #44]	; (8002538 <SDMMC_GetCmdError+0x30>)
 800250a:	681b      	ldr	r3, [r3, #0]
 800250c:	4a0b      	ldr	r2, [pc, #44]	; (800253c <SDMMC_GetCmdError+0x34>)
 800250e:	fba2 2303 	umull	r2, r3, r2, r3
 8002512:	0a5a      	lsrs	r2, r3, #9
 8002514:	f241 3388 	movw	r3, #5000	; 0x1388
 8002518:	fb03 f302 	mul.w	r3, r3, r2
 800251c:	461a      	mov	r2, r3
 800251e:	3b01      	subs	r3, #1
 8002520:	b13a      	cbz	r2, 8002532 <SDMMC_GetCmdError+0x2a>
 8002522:	6b42      	ldr	r2, [r0, #52]	; 0x34
 8002524:	f012 0f80 	tst.w	r2, #128	; 0x80
 8002528:	d0f8      	beq.n	800251c <SDMMC_GetCmdError+0x14>
 800252a:	23c5      	movs	r3, #197	; 0xc5
 800252c:	6383      	str	r3, [r0, #56]	; 0x38
 800252e:	2000      	movs	r0, #0
 8002530:	4770      	bx	lr
 8002532:	f04f 4000 	mov.w	r0, #2147483648	; 0x80000000
 8002536:	4770      	bx	lr
 8002538:	20000008 	.word	0x20000008
 800253c:	10624dd3 	.word	0x10624dd3

08002540 <SDMMC_GetCmdResp2>:
 8002540:	4601      	mov	r1, r0
 8002542:	4b14      	ldr	r3, [pc, #80]	; (8002594 <SDMMC_GetCmdResp2+0x54>)
 8002544:	681b      	ldr	r3, [r3, #0]
 8002546:	4a14      	ldr	r2, [pc, #80]	; (8002598 <SDMMC_GetCmdResp2+0x58>)
 8002548:	fba2 2303 	umull	r2, r3, r2, r3
 800254c:	0a5a      	lsrs	r2, r3, #9
 800254e:	f241 3388 	movw	r3, #5000	; 0x1388
 8002552:	fb03 f302 	mul.w	r3, r3, r2
 8002556:	461a      	mov	r2, r3
 8002558:	3b01      	subs	r3, #1
 800255a:	b1ba      	cbz	r2, 800258c <SDMMC_GetCmdResp2+0x4c>
 800255c:	6b4a      	ldr	r2, [r1, #52]	; 0x34
 800255e:	f012 0f45 	tst.w	r2, #69	; 0x45
 8002562:	d0f8      	beq.n	8002556 <SDMMC_GetCmdResp2+0x16>
 8002564:	f412 6f00 	tst.w	r2, #2048	; 0x800
 8002568:	d1f5      	bne.n	8002556 <SDMMC_GetCmdResp2+0x16>
 800256a:	6b4b      	ldr	r3, [r1, #52]	; 0x34
 800256c:	f013 0f04 	tst.w	r3, #4
 8002570:	d106      	bne.n	8002580 <SDMMC_GetCmdResp2+0x40>
 8002572:	6b48      	ldr	r0, [r1, #52]	; 0x34
 8002574:	f010 0001 	ands.w	r0, r0, #1
 8002578:	d105      	bne.n	8002586 <SDMMC_GetCmdResp2+0x46>
 800257a:	23c5      	movs	r3, #197	; 0xc5
 800257c:	638b      	str	r3, [r1, #56]	; 0x38
 800257e:	4770      	bx	lr
 8002580:	2004      	movs	r0, #4
 8002582:	6388      	str	r0, [r1, #56]	; 0x38
 8002584:	4770      	bx	lr
 8002586:	2001      	movs	r0, #1
 8002588:	6388      	str	r0, [r1, #56]	; 0x38
 800258a:	4770      	bx	lr
 800258c:	f04f 4000 	mov.w	r0, #2147483648	; 0x80000000
 8002590:	4770      	bx	lr
 8002592:	bf00      	nop
 8002594:	20000008 	.word	0x20000008
 8002598:	10624dd3 	.word	0x10624dd3

0800259c <SDMMC_GetCmdResp3>:
 800259c:	4601      	mov	r1, r0
 800259e:	4b10      	ldr	r3, [pc, #64]	; (80025e0 <SDMMC_GetCmdResp3+0x44>)
 80025a0:	681b      	ldr	r3, [r3, #0]
 80025a2:	4a10      	ldr	r2, [pc, #64]	; (80025e4 <SDMMC_GetCmdResp3+0x48>)
 80025a4:	fba2 2303 	umull	r2, r3, r2, r3
 80025a8:	0a5a      	lsrs	r2, r3, #9
 80025aa:	f241 3388 	movw	r3, #5000	; 0x1388
 80025ae:	fb03 f302 	mul.w	r3, r3, r2
 80025b2:	461a      	mov	r2, r3
 80025b4:	3b01      	subs	r3, #1
 80025b6:	b182      	cbz	r2, 80025da <SDMMC_GetCmdResp3+0x3e>
 80025b8:	6b4a      	ldr	r2, [r1, #52]	; 0x34
 80025ba:	f012 0f45 	tst.w	r2, #69	; 0x45
 80025be:	d0f8      	beq.n	80025b2 <SDMMC_GetCmdResp3+0x16>
 80025c0:	f412 6f00 	tst.w	r2, #2048	; 0x800
 80025c4:	d1f5      	bne.n	80025b2 <SDMMC_GetCmdResp3+0x16>
 80025c6:	6b48      	ldr	r0, [r1, #52]	; 0x34
 80025c8:	f010 0004 	ands.w	r0, r0, #4
 80025cc:	d102      	bne.n	80025d4 <SDMMC_GetCmdResp3+0x38>
 80025ce:	23c5      	movs	r3, #197	; 0xc5
 80025d0:	638b      	str	r3, [r1, #56]	; 0x38
 80025d2:	4770      	bx	lr
 80025d4:	2004      	movs	r0, #4
 80025d6:	6388      	str	r0, [r1, #56]	; 0x38
 80025d8:	4770      	bx	lr
 80025da:	f04f 4000 	mov.w	r0, #2147483648	; 0x80000000
 80025de:	4770      	bx	lr
 80025e0:	20000008 	.word	0x20000008
 80025e4:	10624dd3 	.word	0x10624dd3

080025e8 <SDMMC_GetCmdResp7>:
 80025e8:	4601      	mov	r1, r0
 80025ea:	4b16      	ldr	r3, [pc, #88]	; (8002644 <SDMMC_GetCmdResp7+0x5c>)
 80025ec:	681b      	ldr	r3, [r3, #0]
 80025ee:	4a16      	ldr	r2, [pc, #88]	; (8002648 <SDMMC_GetCmdResp7+0x60>)
 80025f0:	fba2 2303 	umull	r2, r3, r2, r3
 80025f4:	0a5a      	lsrs	r2, r3, #9
 80025f6:	f241 3388 	movw	r3, #5000	; 0x1388
 80025fa:	fb03 f302 	mul.w	r3, r3, r2
 80025fe:	461a      	mov	r2, r3
 8002600:	3b01      	subs	r3, #1
 8002602:	b1e2      	cbz	r2, 800263e <SDMMC_GetCmdResp7+0x56>
 8002604:	6b4a      	ldr	r2, [r1, #52]	; 0x34
 8002606:	f012 0f45 	tst.w	r2, #69	; 0x45
 800260a:	d0f8      	beq.n	80025fe <SDMMC_GetCmdResp7+0x16>
 800260c:	f412 6f00 	tst.w	r2, #2048	; 0x800
 8002610:	d1f5      	bne.n	80025fe <SDMMC_GetCmdResp7+0x16>
 8002612:	6b4b      	ldr	r3, [r1, #52]	; 0x34
 8002614:	f013 0f04 	tst.w	r3, #4
 8002618:	d10b      	bne.n	8002632 <SDMMC_GetCmdResp7+0x4a>
 800261a:	6b4b      	ldr	r3, [r1, #52]	; 0x34
 800261c:	f013 0301 	ands.w	r3, r3, #1
 8002620:	d10a      	bne.n	8002638 <SDMMC_GetCmdResp7+0x50>
 8002622:	6b48      	ldr	r0, [r1, #52]	; 0x34
 8002624:	f010 0040 	ands.w	r0, r0, #64	; 0x40
 8002628:	d00b      	beq.n	8002642 <SDMMC_GetCmdResp7+0x5a>
 800262a:	2240      	movs	r2, #64	; 0x40
 800262c:	638a      	str	r2, [r1, #56]	; 0x38
 800262e:	4618      	mov	r0, r3
 8002630:	4770      	bx	lr
 8002632:	2004      	movs	r0, #4
 8002634:	6388      	str	r0, [r1, #56]	; 0x38
 8002636:	4770      	bx	lr
 8002638:	2001      	movs	r0, #1
 800263a:	6388      	str	r0, [r1, #56]	; 0x38
 800263c:	4770      	bx	lr
 800263e:	f04f 4000 	mov.w	r0, #2147483648	; 0x80000000
 8002642:	4770      	bx	lr
 8002644:	20000008 	.word	0x20000008
 8002648:	10624dd3 	.word	0x10624dd3

0800264c <SDIO_Init>:
 800264c:	b084      	sub	sp, #16
 800264e:	b410      	push	{r4}
 8002650:	ac02      	add	r4, sp, #8
 8002652:	e884 000e 	stmia.w	r4, {r1, r2, r3}
 8002656:	460b      	mov	r3, r1
 8002658:	9a03      	ldr	r2, [sp, #12]
 800265a:	4313      	orrs	r3, r2
 800265c:	9a04      	ldr	r2, [sp, #16]
 800265e:	4313      	orrs	r3, r2
 8002660:	9a05      	ldr	r2, [sp, #20]
 8002662:	4313      	orrs	r3, r2
 8002664:	9a06      	ldr	r2, [sp, #24]
 8002666:	4313      	orrs	r3, r2
 8002668:	9a07      	ldr	r2, [sp, #28]
 800266a:	4313      	orrs	r3, r2
 800266c:	6842      	ldr	r2, [r0, #4]
 800266e:	f422 42fd 	bic.w	r2, r2, #32384	; 0x7e80
 8002672:	f022 027f 	bic.w	r2, r2, #127	; 0x7f
 8002676:	4313      	orrs	r3, r2
 8002678:	6043      	str	r3, [r0, #4]
 800267a:	2000      	movs	r0, #0
 800267c:	f85d 4b04 	ldr.w	r4, [sp], #4
 8002680:	b004      	add	sp, #16
 8002682:	4770      	bx	lr

08002684 <SDIO_ReadFIFO>:
 8002684:	f8d0 0080 	ldr.w	r0, [r0, #128]	; 0x80
 8002688:	4770      	bx	lr

0800268a <SDIO_WriteFIFO>:
 800268a:	680b      	ldr	r3, [r1, #0]
 800268c:	f8c0 3080 	str.w	r3, [r0, #128]	; 0x80
 8002690:	2000      	movs	r0, #0
 8002692:	4770      	bx	lr

08002694 <SDIO_PowerState_ON>:
 8002694:	b508      	push	{r3, lr}
 8002696:	2303      	movs	r3, #3
 8002698:	6003      	str	r3, [r0, #0]
 800269a:	2002      	movs	r0, #2
 800269c:	f7ff ff20 	bl	80024e0 <HAL_Delay>
 80026a0:	2000      	movs	r0, #0
 80026a2:	bd08      	pop	{r3, pc}

080026a4 <SDIO_GetPowerState>:
 80026a4:	6800      	ldr	r0, [r0, #0]
 80026a6:	f000 0003 	and.w	r0, r0, #3
 80026aa:	4770      	bx	lr

080026ac <SDIO_SendCommand>:
 80026ac:	680b      	ldr	r3, [r1, #0]
 80026ae:	6083      	str	r3, [r0, #8]
 80026b0:	684b      	ldr	r3, [r1, #4]
 80026b2:	688a      	ldr	r2, [r1, #8]
 80026b4:	4313      	orrs	r3, r2
 80026b6:	68ca      	ldr	r2, [r1, #12]
 80026b8:	4313      	orrs	r3, r2
 80026ba:	690a      	ldr	r2, [r1, #16]
 80026bc:	4313      	orrs	r3, r2
 80026be:	68c2      	ldr	r2, [r0, #12]
 80026c0:	f422 627f 	bic.w	r2, r2, #4080	; 0xff0
 80026c4:	f022 020f 	bic.w	r2, r2, #15
 80026c8:	4313      	orrs	r3, r2
 80026ca:	60c3      	str	r3, [r0, #12]
 80026cc:	2000      	movs	r0, #0
 80026ce:	4770      	bx	lr

080026d0 <SDIO_GetCommandResponse>:
 80026d0:	6900      	ldr	r0, [r0, #16]
 80026d2:	b2c0      	uxtb	r0, r0
 80026d4:	4770      	bx	lr

080026d6 <SDIO_GetResponse>:
 80026d6:	3014      	adds	r0, #20
 80026d8:	5840      	ldr	r0, [r0, r1]
 80026da:	4770      	bx	lr

080026dc <SDMMC_GetCmdResp1>:
 80026dc:	b538      	push	{r3, r4, r5, lr}
 80026de:	4604      	mov	r4, r0
 80026e0:	460d      	mov	r5, r1
 80026e2:	4b50      	ldr	r3, [pc, #320]	; (8002824 <SDMMC_GetCmdResp1+0x148>)
 80026e4:	681b      	ldr	r3, [r3, #0]
 80026e6:	4950      	ldr	r1, [pc, #320]	; (8002828 <SDMMC_GetCmdResp1+0x14c>)
 80026e8:	fba1 1303 	umull	r1, r3, r1, r3
 80026ec:	0a5b      	lsrs	r3, r3, #9
 80026ee:	fb02 f203 	mul.w	r2, r2, r3
 80026f2:	4613      	mov	r3, r2
 80026f4:	3a01      	subs	r2, #1
 80026f6:	2b00      	cmp	r3, #0
 80026f8:	d05d      	beq.n	80027b6 <SDMMC_GetCmdResp1+0xda>
 80026fa:	6b63      	ldr	r3, [r4, #52]	; 0x34
 80026fc:	f013 0f45 	tst.w	r3, #69	; 0x45
 8002700:	d0f7      	beq.n	80026f2 <SDMMC_GetCmdResp1+0x16>
 8002702:	f413 6f00 	tst.w	r3, #2048	; 0x800
 8002706:	d1f4      	bne.n	80026f2 <SDMMC_GetCmdResp1+0x16>
 8002708:	6b63      	ldr	r3, [r4, #52]	; 0x34
 800270a:	f013 0f04 	tst.w	r3, #4
 800270e:	d106      	bne.n	800271e <SDMMC_GetCmdResp1+0x42>
 8002710:	6b63      	ldr	r3, [r4, #52]	; 0x34
 8002712:	f013 0f01 	tst.w	r3, #1
 8002716:	d005      	beq.n	8002724 <SDMMC_GetCmdResp1+0x48>
 8002718:	2001      	movs	r0, #1
 800271a:	63a0      	str	r0, [r4, #56]	; 0x38
 800271c:	e04d      	b.n	80027ba <SDMMC_GetCmdResp1+0xde>
 800271e:	2004      	movs	r0, #4
 8002720:	63a0      	str	r0, [r4, #56]	; 0x38
 8002722:	e04a      	b.n	80027ba <SDMMC_GetCmdResp1+0xde>
 8002724:	23c5      	movs	r3, #197	; 0xc5
 8002726:	63a3      	str	r3, [r4, #56]	; 0x38
 8002728:	4620      	mov	r0, r4
 800272a:	f7ff ffd1 	bl	80026d0 <SDIO_GetCommandResponse>
 800272e:	42a8      	cmp	r0, r5
 8002730:	d001      	beq.n	8002736 <SDMMC_GetCmdResp1+0x5a>
 8002732:	2001      	movs	r0, #1
 8002734:	e041      	b.n	80027ba <SDMMC_GetCmdResp1+0xde>
 8002736:	2100      	movs	r1, #0
 8002738:	4620      	mov	r0, r4
 800273a:	f7ff ffcc 	bl	80026d6 <SDIO_GetResponse>
 800273e:	4603      	mov	r3, r0
 8002740:	483a      	ldr	r0, [pc, #232]	; (800282c <SDMMC_GetCmdResp1+0x150>)
 8002742:	4018      	ands	r0, r3
 8002744:	b3c8      	cbz	r0, 80027ba <SDMMC_GetCmdResp1+0xde>
 8002746:	2b00      	cmp	r3, #0
 8002748:	db38      	blt.n	80027bc <SDMMC_GetCmdResp1+0xe0>
 800274a:	f013 4f80 	tst.w	r3, #1073741824	; 0x40000000
 800274e:	d138      	bne.n	80027c2 <SDMMC_GetCmdResp1+0xe6>
 8002750:	f013 5f00 	tst.w	r3, #536870912	; 0x20000000
 8002754:	d137      	bne.n	80027c6 <SDMMC_GetCmdResp1+0xea>
 8002756:	f013 5f80 	tst.w	r3, #268435456	; 0x10000000
 800275a:	d136      	bne.n	80027ca <SDMMC_GetCmdResp1+0xee>
 800275c:	f013 6f00 	tst.w	r3, #134217728	; 0x8000000
 8002760:	d136      	bne.n	80027d0 <SDMMC_GetCmdResp1+0xf4>
 8002762:	f013 6f80 	tst.w	r3, #67108864	; 0x4000000
 8002766:	d136      	bne.n	80027d6 <SDMMC_GetCmdResp1+0xfa>
 8002768:	f013 7f80 	tst.w	r3, #16777216	; 0x1000000
 800276c:	d136      	bne.n	80027dc <SDMMC_GetCmdResp1+0x100>
 800276e:	f413 0f00 	tst.w	r3, #8388608	; 0x800000
 8002772:	d136      	bne.n	80027e2 <SDMMC_GetCmdResp1+0x106>
 8002774:	f413 0f80 	tst.w	r3, #4194304	; 0x400000
 8002778:	d136      	bne.n	80027e8 <SDMMC_GetCmdResp1+0x10c>
 800277a:	f413 1f00 	tst.w	r3, #2097152	; 0x200000
 800277e:	d136      	bne.n	80027ee <SDMMC_GetCmdResp1+0x112>
 8002780:	f413 1f80 	tst.w	r3, #1048576	; 0x100000
 8002784:	d136      	bne.n	80027f4 <SDMMC_GetCmdResp1+0x118>
 8002786:	f413 2f80 	tst.w	r3, #262144	; 0x40000
 800278a:	d136      	bne.n	80027fa <SDMMC_GetCmdResp1+0x11e>
 800278c:	f413 3f00 	tst.w	r3, #131072	; 0x20000
 8002790:	d136      	bne.n	8002800 <SDMMC_GetCmdResp1+0x124>
 8002792:	f413 3f80 	tst.w	r3, #65536	; 0x10000
 8002796:	d136      	bne.n	8002806 <SDMMC_GetCmdResp1+0x12a>
 8002798:	f413 4f00 	tst.w	r3, #32768	; 0x8000
 800279c:	d136      	bne.n	800280c <SDMMC_GetCmdResp1+0x130>
 800279e:	f413 4f80 	tst.w	r3, #16384	; 0x4000
 80027a2:	d136      	bne.n	8002812 <SDMMC_GetCmdResp1+0x136>
 80027a4:	f413 5f00 	tst.w	r3, #8192	; 0x2000
 80027a8:	d136      	bne.n	8002818 <SDMMC_GetCmdResp1+0x13c>
 80027aa:	f013 0f08 	tst.w	r3, #8
 80027ae:	d036      	beq.n	800281e <SDMMC_GetCmdResp1+0x142>
 80027b0:	f44f 0000 	mov.w	r0, #8388608	; 0x800000
 80027b4:	e001      	b.n	80027ba <SDMMC_GetCmdResp1+0xde>
 80027b6:	f04f 4000 	mov.w	r0, #2147483648	; 0x80000000
 80027ba:	bd38      	pop	{r3, r4, r5, pc}
 80027bc:	f04f 7000 	mov.w	r0, #33554432	; 0x2000000
 80027c0:	e7fb      	b.n	80027ba <SDMMC_GetCmdResp1+0xde>
 80027c2:	2040      	movs	r0, #64	; 0x40
 80027c4:	e7f9      	b.n	80027ba <SDMMC_GetCmdResp1+0xde>
 80027c6:	2080      	movs	r0, #128	; 0x80
 80027c8:	e7f7      	b.n	80027ba <SDMMC_GetCmdResp1+0xde>
 80027ca:	f44f 7080 	mov.w	r0, #256	; 0x100
 80027ce:	e7f4      	b.n	80027ba <SDMMC_GetCmdResp1+0xde>
 80027d0:	f44f 7000 	mov.w	r0, #512	; 0x200
 80027d4:	e7f1      	b.n	80027ba <SDMMC_GetCmdResp1+0xde>
 80027d6:	f44f 6080 	mov.w	r0, #1024	; 0x400
 80027da:	e7ee      	b.n	80027ba <SDMMC_GetCmdResp1+0xde>
 80027dc:	f44f 6000 	mov.w	r0, #2048	; 0x800
 80027e0:	e7eb      	b.n	80027ba <SDMMC_GetCmdResp1+0xde>
 80027e2:	f44f 5080 	mov.w	r0, #4096	; 0x1000
 80027e6:	e7e8      	b.n	80027ba <SDMMC_GetCmdResp1+0xde>
 80027e8:	f44f 5000 	mov.w	r0, #8192	; 0x2000
 80027ec:	e7e5      	b.n	80027ba <SDMMC_GetCmdResp1+0xde>
 80027ee:	f44f 4080 	mov.w	r0, #16384	; 0x4000
 80027f2:	e7e2      	b.n	80027ba <SDMMC_GetCmdResp1+0xde>
 80027f4:	f44f 4000 	mov.w	r0, #32768	; 0x8000
 80027f8:	e7df      	b.n	80027ba <SDMMC_GetCmdResp1+0xde>
 80027fa:	f44f 3000 	mov.w	r0, #131072	; 0x20000
 80027fe:	e7dc      	b.n	80027ba <SDMMC_GetCmdResp1+0xde>
 8002800:	f44f 2080 	mov.w	r0, #262144	; 0x40000
 8002804:	e7d9      	b.n	80027ba <SDMMC_GetCmdResp1+0xde>
 8002806:	f44f 2000 	mov.w	r0, #524288	; 0x80000
 800280a:	e7d6      	b.n	80027ba <SDMMC_GetCmdResp1+0xde>
 800280c:	f44f 1080 	mov.w	r0, #1048576	; 0x100000
 8002810:	e7d3      	b.n	80027ba <SDMMC_GetCmdResp1+0xde>
 8002812:	f44f 1000 	mov.w	r0, #2097152	; 0x200000
 8002816:	e7d0      	b.n	80027ba <SDMMC_GetCmdResp1+0xde>
 8002818:	f44f 0080 	mov.w	r0, #4194304	; 0x400000
 800281c:	e7cd      	b.n	80027ba <SDMMC_GetCmdResp1+0xde>
 800281e:	f44f 3080 	mov.w	r0, #65536	; 0x10000
 8002822:	e7ca      	b.n	80027ba <SDMMC_GetCmdResp1+0xde>
 8002824:	20000008 	.word	0x20000008
 8002828:	10624dd3 	.word	0x10624dd3
 800282c:	fdffe008 	.word	0xfdffe008

08002830 <SDMMC_GetCmdResp6>:
 8002830:	b5f8      	push	{r3, r4, r5, r6, r7, lr}
 8002832:	4605      	mov	r5, r0
 8002834:	460e      	mov	r6, r1
 8002836:	4617      	mov	r7, r2
 8002838:	4b23      	ldr	r3, [pc, #140]	; (80028c8 <SDMMC_GetCmdResp6+0x98>)
 800283a:	681b      	ldr	r3, [r3, #0]
 800283c:	4823      	ldr	r0, [pc, #140]	; (80028cc <SDMMC_GetCmdResp6+0x9c>)
 800283e:	fba0 2303 	umull	r2, r3, r0, r3
 8002842:	0a58      	lsrs	r0, r3, #9
 8002844:	f241 3388 	movw	r3, #5000	; 0x1388
 8002848:	fb03 f300 	mul.w	r3, r3, r0
 800284c:	461c      	mov	r4, r3
 800284e:	3b01      	subs	r3, #1
 8002850:	b38c      	cbz	r4, 80028b6 <SDMMC_GetCmdResp6+0x86>
 8002852:	6b6c      	ldr	r4, [r5, #52]	; 0x34
 8002854:	f014 0f45 	tst.w	r4, #69	; 0x45
 8002858:	d0f8      	beq.n	800284c <SDMMC_GetCmdResp6+0x1c>
 800285a:	f414 6f00 	tst.w	r4, #2048	; 0x800
 800285e:	d1f5      	bne.n	800284c <SDMMC_GetCmdResp6+0x1c>
 8002860:	6b6b      	ldr	r3, [r5, #52]	; 0x34
 8002862:	f013 0f04 	tst.w	r3, #4
 8002866:	d106      	bne.n	8002876 <SDMMC_GetCmdResp6+0x46>
 8002868:	6b6b      	ldr	r3, [r5, #52]	; 0x34
 800286a:	f013 0f01 	tst.w	r3, #1
 800286e:	d005      	beq.n	800287c <SDMMC_GetCmdResp6+0x4c>
 8002870:	2001      	movs	r0, #1
 8002872:	63a8      	str	r0, [r5, #56]	; 0x38
 8002874:	e021      	b.n	80028ba <SDMMC_GetCmdResp6+0x8a>
 8002876:	2004      	movs	r0, #4
 8002878:	63a8      	str	r0, [r5, #56]	; 0x38
 800287a:	e01e      	b.n	80028ba <SDMMC_GetCmdResp6+0x8a>
 800287c:	4628      	mov	r0, r5
 800287e:	f7ff ff27 	bl	80026d0 <SDIO_GetCommandResponse>
 8002882:	42b0      	cmp	r0, r6
 8002884:	d001      	beq.n	800288a <SDMMC_GetCmdResp6+0x5a>
 8002886:	2001      	movs	r0, #1
 8002888:	e017      	b.n	80028ba <SDMMC_GetCmdResp6+0x8a>
 800288a:	23c5      	movs	r3, #197	; 0xc5
 800288c:	63ab      	str	r3, [r5, #56]	; 0x38
 800288e:	2100      	movs	r1, #0
 8002890:	4628      	mov	r0, r5
 8002892:	f7ff ff20 	bl	80026d6 <SDIO_GetResponse>
 8002896:	4603      	mov	r3, r0
 8002898:	f410 4060 	ands.w	r0, r0, #57344	; 0xe000
 800289c:	d008      	beq.n	80028b0 <SDMMC_GetCmdResp6+0x80>
 800289e:	f413 4f80 	tst.w	r3, #16384	; 0x4000
 80028a2:	d10b      	bne.n	80028bc <SDMMC_GetCmdResp6+0x8c>
 80028a4:	f413 4f00 	tst.w	r3, #32768	; 0x8000
 80028a8:	d00b      	beq.n	80028c2 <SDMMC_GetCmdResp6+0x92>
 80028aa:	f44f 5080 	mov.w	r0, #4096	; 0x1000
 80028ae:	e004      	b.n	80028ba <SDMMC_GetCmdResp6+0x8a>
 80028b0:	0c1b      	lsrs	r3, r3, #16
 80028b2:	803b      	strh	r3, [r7, #0]
 80028b4:	e001      	b.n	80028ba <SDMMC_GetCmdResp6+0x8a>
 80028b6:	f04f 4000 	mov.w	r0, #2147483648	; 0x80000000
 80028ba:	bdf8      	pop	{r3, r4, r5, r6, r7, pc}
 80028bc:	f44f 5000 	mov.w	r0, #8192	; 0x2000
 80028c0:	e7fb      	b.n	80028ba <SDMMC_GetCmdResp6+0x8a>
 80028c2:	f44f 3080 	mov.w	r0, #65536	; 0x10000
 80028c6:	e7f8      	b.n	80028ba <SDMMC_GetCmdResp6+0x8a>
 80028c8:	20000008 	.word	0x20000008
 80028cc:	10624dd3 	.word	0x10624dd3

080028d0 <SDIO_ConfigData>:
 80028d0:	680b      	ldr	r3, [r1, #0]
 80028d2:	6243      	str	r3, [r0, #36]	; 0x24
 80028d4:	684b      	ldr	r3, [r1, #4]
 80028d6:	6283      	str	r3, [r0, #40]	; 0x28
 80028d8:	688b      	ldr	r3, [r1, #8]
 80028da:	68ca      	ldr	r2, [r1, #12]
 80028dc:	4313      	orrs	r3, r2
 80028de:	690a      	ldr	r2, [r1, #16]
 80028e0:	4313      	orrs	r3, r2
 80028e2:	694a      	ldr	r2, [r1, #20]
 80028e4:	4313      	orrs	r3, r2
 80028e6:	6ac2      	ldr	r2, [r0, #44]	; 0x2c
 80028e8:	f022 02f7 	bic.w	r2, r2, #247	; 0xf7
 80028ec:	4313      	orrs	r3, r2
 80028ee:	62c3      	str	r3, [r0, #44]	; 0x2c
 80028f0:	2000      	movs	r0, #0
 80028f2:	4770      	bx	lr

080028f4 <SDMMC_CmdBlockLength>:
 80028f4:	b530      	push	{r4, r5, lr}
 80028f6:	b087      	sub	sp, #28
 80028f8:	4604      	mov	r4, r0
 80028fa:	9101      	str	r1, [sp, #4]
 80028fc:	2510      	movs	r5, #16
 80028fe:	9502      	str	r5, [sp, #8]
 8002900:	2340      	movs	r3, #64	; 0x40
 8002902:	9303      	str	r3, [sp, #12]
 8002904:	2300      	movs	r3, #0
 8002906:	9304      	str	r3, [sp, #16]
 8002908:	f44f 6380 	mov.w	r3, #1024	; 0x400
 800290c:	9305      	str	r3, [sp, #20]
 800290e:	a901      	add	r1, sp, #4
 8002910:	f7ff fecc 	bl	80026ac <SDIO_SendCommand>
 8002914:	f241 3288 	movw	r2, #5000	; 0x1388
 8002918:	4629      	mov	r1, r5
 800291a:	4620      	mov	r0, r4
 800291c:	f7ff fede 	bl	80026dc <SDMMC_GetCmdResp1>
 8002920:	b007      	add	sp, #28
 8002922:	bd30      	pop	{r4, r5, pc}

08002924 <SDMMC_CmdReadSingleBlock>:
 8002924:	b530      	push	{r4, r5, lr}
 8002926:	b087      	sub	sp, #28
 8002928:	4604      	mov	r4, r0
 800292a:	9101      	str	r1, [sp, #4]
 800292c:	2511      	movs	r5, #17
 800292e:	9502      	str	r5, [sp, #8]
 8002930:	2340      	movs	r3, #64	; 0x40
 8002932:	9303      	str	r3, [sp, #12]
 8002934:	2300      	movs	r3, #0
 8002936:	9304      	str	r3, [sp, #16]
 8002938:	f44f 6380 	mov.w	r3, #1024	; 0x400
 800293c:	9305      	str	r3, [sp, #20]
 800293e:	a901      	add	r1, sp, #4
 8002940:	f7ff feb4 	bl	80026ac <SDIO_SendCommand>
 8002944:	f241 3288 	movw	r2, #5000	; 0x1388
 8002948:	4629      	mov	r1, r5
 800294a:	4620      	mov	r0, r4
 800294c:	f7ff fec6 	bl	80026dc <SDMMC_GetCmdResp1>
 8002950:	b007      	add	sp, #28
 8002952:	bd30      	pop	{r4, r5, pc}

08002954 <SDMMC_CmdReadMultiBlock>:
 8002954:	b530      	push	{r4, r5, lr}
 8002956:	b087      	sub	sp, #28
 8002958:	4604      	mov	r4, r0
 800295a:	9101      	str	r1, [sp, #4]
 800295c:	2512      	movs	r5, #18
 800295e:	9502      	str	r5, [sp, #8]
 8002960:	2340      	movs	r3, #64	; 0x40
 8002962:	9303      	str	r3, [sp, #12]
 8002964:	2300      	movs	r3, #0
 8002966:	9304      	str	r3, [sp, #16]
 8002968:	f44f 6380 	mov.w	r3, #1024	; 0x400
 800296c:	9305      	str	r3, [sp, #20]
 800296e:	a901      	add	r1, sp, #4
 8002970:	f7ff fe9c 	bl	80026ac <SDIO_SendCommand>
 8002974:	f241 3288 	movw	r2, #5000	; 0x1388
 8002978:	4629      	mov	r1, r5
 800297a:	4620      	mov	r0, r4
 800297c:	f7ff feae 	bl	80026dc <SDMMC_GetCmdResp1>
 8002980:	b007      	add	sp, #28
 8002982:	bd30      	pop	{r4, r5, pc}

08002984 <SDMMC_CmdWriteSingleBlock>:
 8002984:	b530      	push	{r4, r5, lr}
 8002986:	b087      	sub	sp, #28
 8002988:	4604      	mov	r4, r0
 800298a:	9101      	str	r1, [sp, #4]
 800298c:	2518      	movs	r5, #24
 800298e:	9502      	str	r5, [sp, #8]
 8002990:	2340      	movs	r3, #64	; 0x40
 8002992:	9303      	str	r3, [sp, #12]
 8002994:	2300      	movs	r3, #0
 8002996:	9304      	str	r3, [sp, #16]
 8002998:	f44f 6380 	mov.w	r3, #1024	; 0x400
 800299c:	9305      	str	r3, [sp, #20]
 800299e:	a901      	add	r1, sp, #4
 80029a0:	f7ff fe84 	bl	80026ac <SDIO_SendCommand>
 80029a4:	f241 3288 	movw	r2, #5000	; 0x1388
 80029a8:	4629      	mov	r1, r5
 80029aa:	4620      	mov	r0, r4
 80029ac:	f7ff fe96 	bl	80026dc <SDMMC_GetCmdResp1>
 80029b0:	b007      	add	sp, #28
 80029b2:	bd30      	pop	{r4, r5, pc}

080029b4 <SDMMC_CmdWriteMultiBlock>:
 80029b4:	b530      	push	{r4, r5, lr}
 80029b6:	b087      	sub	sp, #28
 80029b8:	4604      	mov	r4, r0
 80029ba:	9101      	str	r1, [sp, #4]
 80029bc:	2519      	movs	r5, #25
 80029be:	9502      	str	r5, [sp, #8]
 80029c0:	2340      	movs	r3, #64	; 0x40
 80029c2:	9303      	str	r3, [sp, #12]
 80029c4:	2300      	movs	r3, #0
 80029c6:	9304      	str	r3, [sp, #16]
 80029c8:	f44f 6380 	mov.w	r3, #1024	; 0x400
 80029cc:	9305      	str	r3, [sp, #20]
 80029ce:	a901      	add	r1, sp, #4
 80029d0:	f7ff fe6c 	bl	80026ac <SDIO_SendCommand>
 80029d4:	f241 3288 	movw	r2, #5000	; 0x1388
 80029d8:	4629      	mov	r1, r5
 80029da:	4620      	mov	r0, r4
 80029dc:	f7ff fe7e 	bl	80026dc <SDMMC_GetCmdResp1>
 80029e0:	b007      	add	sp, #28
 80029e2:	bd30      	pop	{r4, r5, pc}

080029e4 <SDMMC_CmdStopTransfer>:
 80029e4:	b530      	push	{r4, r5, lr}
 80029e6:	b087      	sub	sp, #28
 80029e8:	4604      	mov	r4, r0
 80029ea:	2300      	movs	r3, #0
 80029ec:	9301      	str	r3, [sp, #4]
 80029ee:	250c      	movs	r5, #12
 80029f0:	9502      	str	r5, [sp, #8]
 80029f2:	2240      	movs	r2, #64	; 0x40
 80029f4:	9203      	str	r2, [sp, #12]
 80029f6:	9304      	str	r3, [sp, #16]
 80029f8:	f44f 6380 	mov.w	r3, #1024	; 0x400
 80029fc:	9305      	str	r3, [sp, #20]
 80029fe:	a901      	add	r1, sp, #4
 8002a00:	f7ff fe54 	bl	80026ac <SDIO_SendCommand>
 8002a04:	4a03      	ldr	r2, [pc, #12]	; (8002a14 <SDMMC_CmdStopTransfer+0x30>)
 8002a06:	4629      	mov	r1, r5
 8002a08:	4620      	mov	r0, r4
 8002a0a:	f7ff fe67 	bl	80026dc <SDMMC_GetCmdResp1>
 8002a0e:	b007      	add	sp, #28
 8002a10:	bd30      	pop	{r4, r5, pc}
 8002a12:	bf00      	nop
 8002a14:	05f5e100 	.word	0x05f5e100

08002a18 <SDMMC_CmdSelDesel>:
 8002a18:	b530      	push	{r4, r5, lr}
 8002a1a:	b087      	sub	sp, #28
 8002a1c:	4604      	mov	r4, r0
 8002a1e:	9201      	str	r2, [sp, #4]
 8002a20:	2507      	movs	r5, #7
 8002a22:	9502      	str	r5, [sp, #8]
 8002a24:	2340      	movs	r3, #64	; 0x40
 8002a26:	9303      	str	r3, [sp, #12]
 8002a28:	2300      	movs	r3, #0
 8002a2a:	9304      	str	r3, [sp, #16]
 8002a2c:	f44f 6380 	mov.w	r3, #1024	; 0x400
 8002a30:	9305      	str	r3, [sp, #20]
 8002a32:	a901      	add	r1, sp, #4
 8002a34:	f7ff fe3a 	bl	80026ac <SDIO_SendCommand>
 8002a38:	f241 3288 	movw	r2, #5000	; 0x1388
 8002a3c:	4629      	mov	r1, r5
 8002a3e:	4620      	mov	r0, r4
 8002a40:	f7ff fe4c 	bl	80026dc <SDMMC_GetCmdResp1>
 8002a44:	b007      	add	sp, #28
 8002a46:	bd30      	pop	{r4, r5, pc}

08002a48 <SDMMC_CmdGoIdleState>:
 8002a48:	b510      	push	{r4, lr}
 8002a4a:	b086      	sub	sp, #24
 8002a4c:	4604      	mov	r4, r0
 8002a4e:	2300      	movs	r3, #0
 8002a50:	9301      	str	r3, [sp, #4]
 8002a52:	9302      	str	r3, [sp, #8]
 8002a54:	9303      	str	r3, [sp, #12]
 8002a56:	9304      	str	r3, [sp, #16]
 8002a58:	f44f 6380 	mov.w	r3, #1024	; 0x400
 8002a5c:	9305      	str	r3, [sp, #20]
 8002a5e:	a901      	add	r1, sp, #4
 8002a60:	f7ff fe24 	bl	80026ac <SDIO_SendCommand>
 8002a64:	4620      	mov	r0, r4
 8002a66:	f7ff fd4f 	bl	8002508 <SDMMC_GetCmdError>
 8002a6a:	b006      	add	sp, #24
 8002a6c:	bd10      	pop	{r4, pc}

08002a6e <SDMMC_CmdOperCond>:
 8002a6e:	b510      	push	{r4, lr}
 8002a70:	b086      	sub	sp, #24
 8002a72:	4604      	mov	r4, r0
 8002a74:	f44f 73d5 	mov.w	r3, #426	; 0x1aa
 8002a78:	9301      	str	r3, [sp, #4]
 8002a7a:	2308      	movs	r3, #8
 8002a7c:	9302      	str	r3, [sp, #8]
 8002a7e:	2340      	movs	r3, #64	; 0x40
 8002a80:	9303      	str	r3, [sp, #12]
 8002a82:	2300      	movs	r3, #0
 8002a84:	9304      	str	r3, [sp, #16]
 8002a86:	f44f 6380 	mov.w	r3, #1024	; 0x400
 8002a8a:	9305      	str	r3, [sp, #20]
 8002a8c:	a901      	add	r1, sp, #4
 8002a8e:	f7ff fe0d 	bl	80026ac <SDIO_SendCommand>
 8002a92:	4620      	mov	r0, r4
 8002a94:	f7ff fda8 	bl	80025e8 <SDMMC_GetCmdResp7>
 8002a98:	b006      	add	sp, #24
 8002a9a:	bd10      	pop	{r4, pc}

08002a9c <SDMMC_CmdAppCommand>:
 8002a9c:	b530      	push	{r4, r5, lr}
 8002a9e:	b087      	sub	sp, #28
 8002aa0:	4604      	mov	r4, r0
 8002aa2:	9101      	str	r1, [sp, #4]
 8002aa4:	2537      	movs	r5, #55	; 0x37
 8002aa6:	9502      	str	r5, [sp, #8]
 8002aa8:	2340      	movs	r3, #64	; 0x40
 8002aaa:	9303      	str	r3, [sp, #12]
 8002aac:	2300      	movs	r3, #0
 8002aae:	9304      	str	r3, [sp, #16]
 8002ab0:	f44f 6380 	mov.w	r3, #1024	; 0x400
 8002ab4:	9305      	str	r3, [sp, #20]
 8002ab6:	a901      	add	r1, sp, #4
 8002ab8:	f7ff fdf8 	bl	80026ac <SDIO_SendCommand>
 8002abc:	f241 3288 	movw	r2, #5000	; 0x1388
 8002ac0:	4629      	mov	r1, r5
 8002ac2:	4620      	mov	r0, r4
 8002ac4:	f7ff fe0a 	bl	80026dc <SDMMC_GetCmdResp1>
 8002ac8:	b007      	add	sp, #28
 8002aca:	bd30      	pop	{r4, r5, pc}

08002acc <SDMMC_CmdAppOperCommand>:
 8002acc:	b510      	push	{r4, lr}
 8002ace:	b086      	sub	sp, #24
 8002ad0:	4604      	mov	r4, r0
 8002ad2:	f041 4100 	orr.w	r1, r1, #2147483648	; 0x80000000
 8002ad6:	f441 1180 	orr.w	r1, r1, #1048576	; 0x100000
 8002ada:	9101      	str	r1, [sp, #4]
 8002adc:	2329      	movs	r3, #41	; 0x29
 8002ade:	9302      	str	r3, [sp, #8]
 8002ae0:	2340      	movs	r3, #64	; 0x40
 8002ae2:	9303      	str	r3, [sp, #12]
 8002ae4:	2300      	movs	r3, #0
 8002ae6:	9304      	str	r3, [sp, #16]
 8002ae8:	f44f 6380 	mov.w	r3, #1024	; 0x400
 8002aec:	9305      	str	r3, [sp, #20]
 8002aee:	a901      	add	r1, sp, #4
 8002af0:	f7ff fddc 	bl	80026ac <SDIO_SendCommand>
 8002af4:	4620      	mov	r0, r4
 8002af6:	f7ff fd51 	bl	800259c <SDMMC_GetCmdResp3>
 8002afa:	b006      	add	sp, #24
 8002afc:	bd10      	pop	{r4, pc}

08002afe <SDMMC_CmdBusWidth>:
 8002afe:	b530      	push	{r4, r5, lr}
 8002b00:	b087      	sub	sp, #28
 8002b02:	4604      	mov	r4, r0
 8002b04:	9101      	str	r1, [sp, #4]
 8002b06:	2506      	movs	r5, #6
 8002b08:	9502      	str	r5, [sp, #8]
 8002b0a:	2340      	movs	r3, #64	; 0x40
 8002b0c:	9303      	str	r3, [sp, #12]
 8002b0e:	2300      	movs	r3, #0
 8002b10:	9304      	str	r3, [sp, #16]
 8002b12:	f44f 6380 	mov.w	r3, #1024	; 0x400
 8002b16:	9305      	str	r3, [sp, #20]
 8002b18:	a901      	add	r1, sp, #4
 8002b1a:	f7ff fdc7 	bl	80026ac <SDIO_SendCommand>
 8002b1e:	f241 3288 	movw	r2, #5000	; 0x1388
 8002b22:	4629      	mov	r1, r5
 8002b24:	4620      	mov	r0, r4
 8002b26:	f7ff fdd9 	bl	80026dc <SDMMC_GetCmdResp1>
 8002b2a:	b007      	add	sp, #28
 8002b2c:	bd30      	pop	{r4, r5, pc}

08002b2e <SDMMC_CmdSendSCR>:
 8002b2e:	b530      	push	{r4, r5, lr}
 8002b30:	b087      	sub	sp, #28
 8002b32:	4604      	mov	r4, r0
 8002b34:	2300      	movs	r3, #0
 8002b36:	9301      	str	r3, [sp, #4]
 8002b38:	2533      	movs	r5, #51	; 0x33
 8002b3a:	9502      	str	r5, [sp, #8]
 8002b3c:	2240      	movs	r2, #64	; 0x40
 8002b3e:	9203      	str	r2, [sp, #12]
 8002b40:	9304      	str	r3, [sp, #16]
 8002b42:	f44f 6380 	mov.w	r3, #1024	; 0x400
 8002b46:	9305      	str	r3, [sp, #20]
 8002b48:	a901      	add	r1, sp, #4
 8002b4a:	f7ff fdaf 	bl	80026ac <SDIO_SendCommand>
 8002b4e:	f241 3288 	movw	r2, #5000	; 0x1388
 8002b52:	4629      	mov	r1, r5
 8002b54:	4620      	mov	r0, r4
 8002b56:	f7ff fdc1 	bl	80026dc <SDMMC_GetCmdResp1>
 8002b5a:	b007      	add	sp, #28
 8002b5c:	bd30      	pop	{r4, r5, pc}

08002b5e <SDMMC_CmdSendCID>:
 8002b5e:	b510      	push	{r4, lr}
 8002b60:	b086      	sub	sp, #24
 8002b62:	4604      	mov	r4, r0
 8002b64:	2300      	movs	r3, #0
 8002b66:	9301      	str	r3, [sp, #4]
 8002b68:	2202      	movs	r2, #2
 8002b6a:	9202      	str	r2, [sp, #8]
 8002b6c:	22c0      	movs	r2, #192	; 0xc0
 8002b6e:	9203      	str	r2, [sp, #12]
 8002b70:	9304      	str	r3, [sp, #16]
 8002b72:	f44f 6380 	mov.w	r3, #1024	; 0x400
 8002b76:	9305      	str	r3, [sp, #20]
 8002b78:	a901      	add	r1, sp, #4
 8002b7a:	f7ff fd97 	bl	80026ac <SDIO_SendCommand>
 8002b7e:	4620      	mov	r0, r4
 8002b80:	f7ff fcde 	bl	8002540 <SDMMC_GetCmdResp2>
 8002b84:	b006      	add	sp, #24
 8002b86:	bd10      	pop	{r4, pc}

08002b88 <SDMMC_CmdSendCSD>:
 8002b88:	b510      	push	{r4, lr}
 8002b8a:	b086      	sub	sp, #24
 8002b8c:	4604      	mov	r4, r0
 8002b8e:	9101      	str	r1, [sp, #4]
 8002b90:	2309      	movs	r3, #9
 8002b92:	9302      	str	r3, [sp, #8]
 8002b94:	23c0      	movs	r3, #192	; 0xc0
 8002b96:	9303      	str	r3, [sp, #12]
 8002b98:	2300      	movs	r3, #0
 8002b9a:	9304      	str	r3, [sp, #16]
 8002b9c:	f44f 6380 	mov.w	r3, #1024	; 0x400
 8002ba0:	9305      	str	r3, [sp, #20]
 8002ba2:	a901      	add	r1, sp, #4
 8002ba4:	f7ff fd82 	bl	80026ac <SDIO_SendCommand>
 8002ba8:	4620      	mov	r0, r4
 8002baa:	f7ff fcc9 	bl	8002540 <SDMMC_GetCmdResp2>
 8002bae:	b006      	add	sp, #24
 8002bb0:	bd10      	pop	{r4, pc}

08002bb2 <SDMMC_CmdSetRelAdd>:
 8002bb2:	b570      	push	{r4, r5, r6, lr}
 8002bb4:	b086      	sub	sp, #24
 8002bb6:	4604      	mov	r4, r0
 8002bb8:	460d      	mov	r5, r1
 8002bba:	2300      	movs	r3, #0
 8002bbc:	9301      	str	r3, [sp, #4]
 8002bbe:	2603      	movs	r6, #3
 8002bc0:	9602      	str	r6, [sp, #8]
 8002bc2:	2240      	movs	r2, #64	; 0x40
 8002bc4:	9203      	str	r2, [sp, #12]
 8002bc6:	9304      	str	r3, [sp, #16]
 8002bc8:	f44f 6380 	mov.w	r3, #1024	; 0x400
 8002bcc:	9305      	str	r3, [sp, #20]
 8002bce:	a901      	add	r1, sp, #4
 8002bd0:	f7ff fd6c 	bl	80026ac <SDIO_SendCommand>
 8002bd4:	462a      	mov	r2, r5
 8002bd6:	4631      	mov	r1, r6
 8002bd8:	4620      	mov	r0, r4
 8002bda:	f7ff fe29 	bl	8002830 <SDMMC_GetCmdResp6>
 8002bde:	b006      	add	sp, #24
 8002be0:	bd70      	pop	{r4, r5, r6, pc}

08002be2 <SDMMC_CmdSendStatus>:
 8002be2:	b530      	push	{r4, r5, lr}
 8002be4:	b087      	sub	sp, #28
 8002be6:	4604      	mov	r4, r0
 8002be8:	9101      	str	r1, [sp, #4]
 8002bea:	250d      	movs	r5, #13
 8002bec:	9502      	str	r5, [sp, #8]
 8002bee:	2340      	movs	r3, #64	; 0x40
 8002bf0:	9303      	str	r3, [sp, #12]
 8002bf2:	2300      	movs	r3, #0
 8002bf4:	9304      	str	r3, [sp, #16]
 8002bf6:	f44f 6380 	mov.w	r3, #1024	; 0x400
 8002bfa:	9305      	str	r3, [sp, #20]
 8002bfc:	a901      	add	r1, sp, #4
 8002bfe:	f7ff fd55 	bl	80026ac <SDIO_SendCommand>
 8002c02:	f241 3288 	movw	r2, #5000	; 0x1388
 8002c06:	4629      	mov	r1, r5
 8002c08:	4620      	mov	r0, r4
 8002c0a:	f7ff fd67 	bl	80026dc <SDMMC_GetCmdResp1>
 8002c0e:	b007      	add	sp, #28
 8002c10:	bd30      	pop	{r4, r5, pc}

08002c12 <SDMMC_CmdStatusRegister>:
 8002c12:	b530      	push	{r4, r5, lr}
 8002c14:	b087      	sub	sp, #28
 8002c16:	4604      	mov	r4, r0
 8002c18:	2300      	movs	r3, #0
 8002c1a:	9301      	str	r3, [sp, #4]
 8002c1c:	250d      	movs	r5, #13
 8002c1e:	9502      	str	r5, [sp, #8]
 8002c20:	2240      	movs	r2, #64	; 0x40
 8002c22:	9203      	str	r2, [sp, #12]
 8002c24:	9304      	str	r3, [sp, #16]
 8002c26:	f44f 6380 	mov.w	r3, #1024	; 0x400
 8002c2a:	9305      	str	r3, [sp, #20]
 8002c2c:	a901      	add	r1, sp, #4
 8002c2e:	f7ff fd3d 	bl	80026ac <SDIO_SendCommand>
 8002c32:	f241 3288 	movw	r2, #5000	; 0x1388
 8002c36:	4629      	mov	r1, r5
 8002c38:	4620      	mov	r0, r4
 8002c3a:	f7ff fd4f 	bl	80026dc <SDMMC_GetCmdResp1>
 8002c3e:	b007      	add	sp, #28
 8002c40:	bd30      	pop	{r4, r5, pc}
	...

08002c44 <SD_PowerON>:
 8002c44:	b570      	push	{r4, r5, r6, lr}
 8002c46:	b082      	sub	sp, #8
 8002c48:	4604      	mov	r4, r0
 8002c4a:	2300      	movs	r3, #0
 8002c4c:	9301      	str	r3, [sp, #4]
 8002c4e:	6800      	ldr	r0, [r0, #0]
 8002c50:	f7ff fefa 	bl	8002a48 <SDMMC_CmdGoIdleState>
 8002c54:	4605      	mov	r5, r0
 8002c56:	b110      	cbz	r0, 8002c5e <SD_PowerON+0x1a>
 8002c58:	4628      	mov	r0, r5
 8002c5a:	b002      	add	sp, #8
 8002c5c:	bd70      	pop	{r4, r5, r6, pc}
 8002c5e:	6820      	ldr	r0, [r4, #0]
 8002c60:	f7ff ff05 	bl	8002a6e <SDMMC_CmdOperCond>
 8002c64:	b938      	cbnz	r0, 8002c76 <SD_PowerON+0x32>
 8002c66:	2301      	movs	r3, #1
 8002c68:	64a3      	str	r3, [r4, #72]	; 0x48
 8002c6a:	6ca3      	ldr	r3, [r4, #72]	; 0x48
 8002c6c:	2b01      	cmp	r3, #1
 8002c6e:	d00b      	beq.n	8002c88 <SD_PowerON+0x44>
 8002c70:	462e      	mov	r6, r5
 8002c72:	4628      	mov	r0, r5
 8002c74:	e014      	b.n	8002ca0 <SD_PowerON+0x5c>
 8002c76:	2300      	movs	r3, #0
 8002c78:	64a3      	str	r3, [r4, #72]	; 0x48
 8002c7a:	6820      	ldr	r0, [r4, #0]
 8002c7c:	f7ff fee4 	bl	8002a48 <SDMMC_CmdGoIdleState>
 8002c80:	2800      	cmp	r0, #0
 8002c82:	d0f2      	beq.n	8002c6a <SD_PowerON+0x26>
 8002c84:	4605      	mov	r5, r0
 8002c86:	e7e7      	b.n	8002c58 <SD_PowerON+0x14>
 8002c88:	2100      	movs	r1, #0
 8002c8a:	6820      	ldr	r0, [r4, #0]
 8002c8c:	f7ff ff06 	bl	8002a9c <SDMMC_CmdAppCommand>
 8002c90:	2800      	cmp	r0, #0
 8002c92:	d0ed      	beq.n	8002c70 <SD_PowerON+0x2c>
 8002c94:	f04f 5580 	mov.w	r5, #268435456	; 0x10000000
 8002c98:	e7de      	b.n	8002c58 <SD_PowerON+0x14>
 8002c9a:	9b01      	ldr	r3, [sp, #4]
 8002c9c:	3301      	adds	r3, #1
 8002c9e:	9301      	str	r3, [sp, #4]
 8002ca0:	9a01      	ldr	r2, [sp, #4]
 8002ca2:	f64f 73fe 	movw	r3, #65534	; 0xfffe
 8002ca6:	429a      	cmp	r2, r3
 8002ca8:	d813      	bhi.n	8002cd2 <SD_PowerON+0x8e>
 8002caa:	b996      	cbnz	r6, 8002cd2 <SD_PowerON+0x8e>
 8002cac:	2100      	movs	r1, #0
 8002cae:	6820      	ldr	r0, [r4, #0]
 8002cb0:	f7ff fef4 	bl	8002a9c <SDMMC_CmdAppCommand>
 8002cb4:	b9e0      	cbnz	r0, 8002cf0 <SD_PowerON+0xac>
 8002cb6:	4912      	ldr	r1, [pc, #72]	; (8002d00 <SD_PowerON+0xbc>)
 8002cb8:	6820      	ldr	r0, [r4, #0]
 8002cba:	f7ff ff07 	bl	8002acc <SDMMC_CmdAppOperCommand>
 8002cbe:	4606      	mov	r6, r0
 8002cc0:	b9c0      	cbnz	r0, 8002cf4 <SD_PowerON+0xb0>
 8002cc2:	2100      	movs	r1, #0
 8002cc4:	6820      	ldr	r0, [r4, #0]
 8002cc6:	f7ff fd06 	bl	80026d6 <SDIO_GetResponse>
 8002cca:	0fc3      	lsrs	r3, r0, #31
 8002ccc:	d0e5      	beq.n	8002c9a <SD_PowerON+0x56>
 8002cce:	461e      	mov	r6, r3
 8002cd0:	e7e3      	b.n	8002c9a <SD_PowerON+0x56>
 8002cd2:	9a01      	ldr	r2, [sp, #4]
 8002cd4:	f64f 73fe 	movw	r3, #65534	; 0xfffe
 8002cd8:	429a      	cmp	r2, r3
 8002cda:	d80e      	bhi.n	8002cfa <SD_PowerON+0xb6>
 8002cdc:	f010 4380 	ands.w	r3, r0, #1073741824	; 0x40000000
 8002ce0:	d002      	beq.n	8002ce8 <SD_PowerON+0xa4>
 8002ce2:	2301      	movs	r3, #1
 8002ce4:	6463      	str	r3, [r4, #68]	; 0x44
 8002ce6:	e7b7      	b.n	8002c58 <SD_PowerON+0x14>
 8002ce8:	2200      	movs	r2, #0
 8002cea:	6462      	str	r2, [r4, #68]	; 0x44
 8002cec:	461d      	mov	r5, r3
 8002cee:	e7b3      	b.n	8002c58 <SD_PowerON+0x14>
 8002cf0:	4605      	mov	r5, r0
 8002cf2:	e7b1      	b.n	8002c58 <SD_PowerON+0x14>
 8002cf4:	f04f 5580 	mov.w	r5, #268435456	; 0x10000000
 8002cf8:	e7ae      	b.n	8002c58 <SD_PowerON+0x14>
 8002cfa:	f04f 7580 	mov.w	r5, #16777216	; 0x1000000
 8002cfe:	e7ab      	b.n	8002c58 <SD_PowerON+0x14>
 8002d00:	c1100000 	.word	0xc1100000

08002d04 <SD_SendSDStatus>:
 8002d04:	b5f0      	push	{r4, r5, r6, r7, lr}
 8002d06:	b087      	sub	sp, #28
 8002d08:	4605      	mov	r5, r0
 8002d0a:	460e      	mov	r6, r1
 8002d0c:	f7ff fbe2 	bl	80024d4 <HAL_GetTick>
 8002d10:	4607      	mov	r7, r0
 8002d12:	2100      	movs	r1, #0
 8002d14:	6828      	ldr	r0, [r5, #0]
 8002d16:	f7ff fcde 	bl	80026d6 <SDIO_GetResponse>
 8002d1a:	f010 7f00 	tst.w	r0, #33554432	; 0x2000000
 8002d1e:	d166      	bne.n	8002dee <SD_SendSDStatus+0xea>
 8002d20:	2140      	movs	r1, #64	; 0x40
 8002d22:	6828      	ldr	r0, [r5, #0]
 8002d24:	f7ff fde6 	bl	80028f4 <SDMMC_CmdBlockLength>
 8002d28:	4603      	mov	r3, r0
 8002d2a:	b110      	cbz	r0, 8002d32 <SD_SendSDStatus+0x2e>
 8002d2c:	6baa      	ldr	r2, [r5, #56]	; 0x38
 8002d2e:	63aa      	str	r2, [r5, #56]	; 0x38
 8002d30:	e05f      	b.n	8002df2 <SD_SendSDStatus+0xee>
 8002d32:	6d29      	ldr	r1, [r5, #80]	; 0x50
 8002d34:	0409      	lsls	r1, r1, #16
 8002d36:	6828      	ldr	r0, [r5, #0]
 8002d38:	f7ff feb0 	bl	8002a9c <SDMMC_CmdAppCommand>
 8002d3c:	4603      	mov	r3, r0
 8002d3e:	b110      	cbz	r0, 8002d46 <SD_SendSDStatus+0x42>
 8002d40:	6baa      	ldr	r2, [r5, #56]	; 0x38
 8002d42:	63aa      	str	r2, [r5, #56]	; 0x38
 8002d44:	e055      	b.n	8002df2 <SD_SendSDStatus+0xee>
 8002d46:	f04f 33ff 	mov.w	r3, #4294967295	; 0xffffffff
 8002d4a:	9300      	str	r3, [sp, #0]
 8002d4c:	2340      	movs	r3, #64	; 0x40
 8002d4e:	9301      	str	r3, [sp, #4]
 8002d50:	2360      	movs	r3, #96	; 0x60
 8002d52:	9302      	str	r3, [sp, #8]
 8002d54:	2302      	movs	r3, #2
 8002d56:	9303      	str	r3, [sp, #12]
 8002d58:	2300      	movs	r3, #0
 8002d5a:	9304      	str	r3, [sp, #16]
 8002d5c:	2301      	movs	r3, #1
 8002d5e:	9305      	str	r3, [sp, #20]
 8002d60:	4669      	mov	r1, sp
 8002d62:	6828      	ldr	r0, [r5, #0]
 8002d64:	f7ff fdb4 	bl	80028d0 <SDIO_ConfigData>
 8002d68:	6828      	ldr	r0, [r5, #0]
 8002d6a:	f7ff ff52 	bl	8002c12 <SDMMC_CmdStatusRegister>
 8002d6e:	4603      	mov	r3, r0
 8002d70:	b180      	cbz	r0, 8002d94 <SD_SendSDStatus+0x90>
 8002d72:	6baa      	ldr	r2, [r5, #56]	; 0x38
 8002d74:	63aa      	str	r2, [r5, #56]	; 0x38
 8002d76:	e03c      	b.n	8002df2 <SD_SendSDStatus+0xee>
 8002d78:	6828      	ldr	r0, [r5, #0]
 8002d7a:	f7ff fc83 	bl	8002684 <SDIO_ReadFIFO>
 8002d7e:	f846 0b04 	str.w	r0, [r6], #4
 8002d82:	3401      	adds	r4, #1
 8002d84:	2c07      	cmp	r4, #7
 8002d86:	d9f7      	bls.n	8002d78 <SD_SendSDStatus+0x74>
 8002d88:	f7ff fba4 	bl	80024d4 <HAL_GetTick>
 8002d8c:	1bc0      	subs	r0, r0, r7
 8002d8e:	f1b0 3fff 	cmp.w	r0, #4294967295	; 0xffffffff
 8002d92:	d031      	beq.n	8002df8 <SD_SendSDStatus+0xf4>
 8002d94:	682b      	ldr	r3, [r5, #0]
 8002d96:	6b5c      	ldr	r4, [r3, #52]	; 0x34
 8002d98:	f240 422a 	movw	r2, #1066	; 0x42a
 8002d9c:	4014      	ands	r4, r2
 8002d9e:	d104      	bne.n	8002daa <SD_SendSDStatus+0xa6>
 8002da0:	6b5b      	ldr	r3, [r3, #52]	; 0x34
 8002da2:	f413 4f00 	tst.w	r3, #32768	; 0x8000
 8002da6:	d0ef      	beq.n	8002d88 <SD_SendSDStatus+0x84>
 8002da8:	e7ec      	b.n	8002d84 <SD_SendSDStatus+0x80>
 8002daa:	6b5a      	ldr	r2, [r3, #52]	; 0x34
 8002dac:	f012 0f08 	tst.w	r2, #8
 8002db0:	d125      	bne.n	8002dfe <SD_SendSDStatus+0xfa>
 8002db2:	6b5a      	ldr	r2, [r3, #52]	; 0x34
 8002db4:	f012 0f02 	tst.w	r2, #2
 8002db8:	d123      	bne.n	8002e02 <SD_SendSDStatus+0xfe>
 8002dba:	6b5b      	ldr	r3, [r3, #52]	; 0x34
 8002dbc:	f013 0f20 	tst.w	r3, #32
 8002dc0:	d121      	bne.n	8002e06 <SD_SendSDStatus+0x102>
 8002dc2:	6828      	ldr	r0, [r5, #0]
 8002dc4:	6b43      	ldr	r3, [r0, #52]	; 0x34
 8002dc6:	f413 1300 	ands.w	r3, r3, #2097152	; 0x200000
 8002dca:	d00c      	beq.n	8002de6 <SD_SendSDStatus+0xe2>
 8002dcc:	f7ff fc5a 	bl	8002684 <SDIO_ReadFIFO>
 8002dd0:	f846 0b04 	str.w	r0, [r6], #4
 8002dd4:	f7ff fb7e 	bl	80024d4 <HAL_GetTick>
 8002dd8:	1bc0      	subs	r0, r0, r7
 8002dda:	f1b0 3fff 	cmp.w	r0, #4294967295	; 0xffffffff
 8002dde:	d1f0      	bne.n	8002dc2 <SD_SendSDStatus+0xbe>
 8002de0:	f04f 4300 	mov.w	r3, #2147483648	; 0x80000000
 8002de4:	e005      	b.n	8002df2 <SD_SendSDStatus+0xee>
 8002de6:	f240 523a 	movw	r2, #1338	; 0x53a
 8002dea:	6382      	str	r2, [r0, #56]	; 0x38
 8002dec:	e001      	b.n	8002df2 <SD_SendSDStatus+0xee>
 8002dee:	f44f 6300 	mov.w	r3, #2048	; 0x800
 8002df2:	4618      	mov	r0, r3
 8002df4:	b007      	add	sp, #28
 8002df6:	bdf0      	pop	{r4, r5, r6, r7, pc}
 8002df8:	f04f 4300 	mov.w	r3, #2147483648	; 0x80000000
 8002dfc:	e7f9      	b.n	8002df2 <SD_SendSDStatus+0xee>
 8002dfe:	2308      	movs	r3, #8
 8002e00:	e7f7      	b.n	8002df2 <SD_SendSDStatus+0xee>
 8002e02:	2302      	movs	r3, #2
 8002e04:	e7f5      	b.n	8002df2 <SD_SendSDStatus+0xee>
 8002e06:	2320      	movs	r3, #32
 8002e08:	e7f3      	b.n	8002df2 <SD_SendSDStatus+0xee>

08002e0a <SD_FindSCR>:
 8002e0a:	b5f0      	push	{r4, r5, r6, r7, lr}
 8002e0c:	b089      	sub	sp, #36	; 0x24
 8002e0e:	4604      	mov	r4, r0
 8002e10:	460f      	mov	r7, r1
 8002e12:	f7ff fb5f 	bl	80024d4 <HAL_GetTick>
 8002e16:	4606      	mov	r6, r0
 8002e18:	2300      	movs	r3, #0
 8002e1a:	9300      	str	r3, [sp, #0]
 8002e1c:	9301      	str	r3, [sp, #4]
 8002e1e:	2108      	movs	r1, #8
 8002e20:	6820      	ldr	r0, [r4, #0]
 8002e22:	f7ff fd67 	bl	80028f4 <SDMMC_CmdBlockLength>
 8002e26:	4605      	mov	r5, r0
 8002e28:	b110      	cbz	r0, 8002e30 <SD_FindSCR+0x26>
 8002e2a:	4628      	mov	r0, r5
 8002e2c:	b009      	add	sp, #36	; 0x24
 8002e2e:	bdf0      	pop	{r4, r5, r6, r7, pc}
 8002e30:	6d21      	ldr	r1, [r4, #80]	; 0x50
 8002e32:	0409      	lsls	r1, r1, #16
 8002e34:	6820      	ldr	r0, [r4, #0]
 8002e36:	f7ff fe31 	bl	8002a9c <SDMMC_CmdAppCommand>
 8002e3a:	4605      	mov	r5, r0
 8002e3c:	2800      	cmp	r0, #0
 8002e3e:	d1f4      	bne.n	8002e2a <SD_FindSCR+0x20>
 8002e40:	f04f 33ff 	mov.w	r3, #4294967295	; 0xffffffff
 8002e44:	9302      	str	r3, [sp, #8]
 8002e46:	2308      	movs	r3, #8
 8002e48:	9303      	str	r3, [sp, #12]
 8002e4a:	2330      	movs	r3, #48	; 0x30
 8002e4c:	9304      	str	r3, [sp, #16]
 8002e4e:	2302      	movs	r3, #2
 8002e50:	9305      	str	r3, [sp, #20]
 8002e52:	2300      	movs	r3, #0
 8002e54:	9306      	str	r3, [sp, #24]
 8002e56:	2301      	movs	r3, #1
 8002e58:	9307      	str	r3, [sp, #28]
 8002e5a:	a902      	add	r1, sp, #8
 8002e5c:	6820      	ldr	r0, [r4, #0]
 8002e5e:	f7ff fd37 	bl	80028d0 <SDIO_ConfigData>
 8002e62:	6820      	ldr	r0, [r4, #0]
 8002e64:	f7ff fe63 	bl	8002b2e <SDMMC_CmdSendSCR>
 8002e68:	4605      	mov	r5, r0
 8002e6a:	b158      	cbz	r0, 8002e84 <SD_FindSCR+0x7a>
 8002e6c:	e7dd      	b.n	8002e2a <SD_FindSCR+0x20>
 8002e6e:	f7ff fc09 	bl	8002684 <SDIO_ReadFIFO>
 8002e72:	f84d 0025 	str.w	r0, [sp, r5, lsl #2]
 8002e76:	3501      	adds	r5, #1
 8002e78:	f7ff fb2c 	bl	80024d4 <HAL_GetTick>
 8002e7c:	1b83      	subs	r3, r0, r6
 8002e7e:	f1b3 3fff 	cmp.w	r3, #4294967295	; 0xffffffff
 8002e82:	d03f      	beq.n	8002f04 <SD_FindSCR+0xfa>
 8002e84:	6820      	ldr	r0, [r4, #0]
 8002e86:	6b43      	ldr	r3, [r0, #52]	; 0x34
 8002e88:	f013 0f2a 	tst.w	r3, #42	; 0x2a
 8002e8c:	d107      	bne.n	8002e9e <SD_FindSCR+0x94>
 8002e8e:	6b43      	ldr	r3, [r0, #52]	; 0x34
 8002e90:	f413 1f00 	tst.w	r3, #2097152	; 0x200000
 8002e94:	d1eb      	bne.n	8002e6e <SD_FindSCR+0x64>
 8002e96:	6b43      	ldr	r3, [r0, #52]	; 0x34
 8002e98:	f413 5f00 	tst.w	r3, #8192	; 0x2000
 8002e9c:	d1ec      	bne.n	8002e78 <SD_FindSCR+0x6e>
 8002e9e:	6b43      	ldr	r3, [r0, #52]	; 0x34
 8002ea0:	f013 0f08 	tst.w	r3, #8
 8002ea4:	d125      	bne.n	8002ef2 <SD_FindSCR+0xe8>
 8002ea6:	6b43      	ldr	r3, [r0, #52]	; 0x34
 8002ea8:	f013 0f02 	tst.w	r3, #2
 8002eac:	d124      	bne.n	8002ef8 <SD_FindSCR+0xee>
 8002eae:	6b45      	ldr	r5, [r0, #52]	; 0x34
 8002eb0:	f015 0520 	ands.w	r5, r5, #32
 8002eb4:	d123      	bne.n	8002efe <SD_FindSCR+0xf4>
 8002eb6:	f240 533a 	movw	r3, #1338	; 0x53a
 8002eba:	6383      	str	r3, [r0, #56]	; 0x38
 8002ebc:	9a01      	ldr	r2, [sp, #4]
 8002ebe:	0213      	lsls	r3, r2, #8
 8002ec0:	f403 037f 	and.w	r3, r3, #16711680	; 0xff0000
 8002ec4:	ea43 6302 	orr.w	r3, r3, r2, lsl #24
 8002ec8:	0a11      	lsrs	r1, r2, #8
 8002eca:	f401 417f 	and.w	r1, r1, #65280	; 0xff00
 8002ece:	430b      	orrs	r3, r1
 8002ed0:	ea43 6312 	orr.w	r3, r3, r2, lsr #24
 8002ed4:	603b      	str	r3, [r7, #0]
 8002ed6:	9a00      	ldr	r2, [sp, #0]
 8002ed8:	0213      	lsls	r3, r2, #8
 8002eda:	f403 037f 	and.w	r3, r3, #16711680	; 0xff0000
 8002ede:	ea43 6302 	orr.w	r3, r3, r2, lsl #24
 8002ee2:	0a11      	lsrs	r1, r2, #8
 8002ee4:	f401 417f 	and.w	r1, r1, #65280	; 0xff00
 8002ee8:	430b      	orrs	r3, r1
 8002eea:	ea43 6312 	orr.w	r3, r3, r2, lsr #24
 8002eee:	607b      	str	r3, [r7, #4]
 8002ef0:	e79b      	b.n	8002e2a <SD_FindSCR+0x20>
 8002ef2:	2508      	movs	r5, #8
 8002ef4:	6385      	str	r5, [r0, #56]	; 0x38
 8002ef6:	e798      	b.n	8002e2a <SD_FindSCR+0x20>
 8002ef8:	2502      	movs	r5, #2
 8002efa:	6385      	str	r5, [r0, #56]	; 0x38
 8002efc:	e795      	b.n	8002e2a <SD_FindSCR+0x20>
 8002efe:	2520      	movs	r5, #32
 8002f00:	6385      	str	r5, [r0, #56]	; 0x38
 8002f02:	e792      	b.n	8002e2a <SD_FindSCR+0x20>
 8002f04:	f04f 4500 	mov.w	r5, #2147483648	; 0x80000000
 8002f08:	e78f      	b.n	8002e2a <SD_FindSCR+0x20>

08002f0a <SD_WideBus_Enable>:
 8002f0a:	b510      	push	{r4, lr}
 8002f0c:	b082      	sub	sp, #8
 8002f0e:	4604      	mov	r4, r0
 8002f10:	2100      	movs	r1, #0
 8002f12:	9100      	str	r1, [sp, #0]
 8002f14:	9101      	str	r1, [sp, #4]
 8002f16:	6800      	ldr	r0, [r0, #0]
 8002f18:	f7ff fbdd 	bl	80026d6 <SDIO_GetResponse>
 8002f1c:	f010 7f00 	tst.w	r0, #33554432	; 0x2000000
 8002f20:	d113      	bne.n	8002f4a <SD_WideBus_Enable+0x40>
 8002f22:	4669      	mov	r1, sp
 8002f24:	4620      	mov	r0, r4
 8002f26:	f7ff ff70 	bl	8002e0a <SD_FindSCR>
 8002f2a:	b980      	cbnz	r0, 8002f4e <SD_WideBus_Enable+0x44>
 8002f2c:	9b01      	ldr	r3, [sp, #4]
 8002f2e:	f413 2f80 	tst.w	r3, #262144	; 0x40000
 8002f32:	d00e      	beq.n	8002f52 <SD_WideBus_Enable+0x48>
 8002f34:	6d21      	ldr	r1, [r4, #80]	; 0x50
 8002f36:	0409      	lsls	r1, r1, #16
 8002f38:	6820      	ldr	r0, [r4, #0]
 8002f3a:	f7ff fdaf 	bl	8002a9c <SDMMC_CmdAppCommand>
 8002f3e:	b930      	cbnz	r0, 8002f4e <SD_WideBus_Enable+0x44>
 8002f40:	2102      	movs	r1, #2
 8002f42:	6820      	ldr	r0, [r4, #0]
 8002f44:	f7ff fddb 	bl	8002afe <SDMMC_CmdBusWidth>
 8002f48:	e001      	b.n	8002f4e <SD_WideBus_Enable+0x44>
 8002f4a:	f44f 6000 	mov.w	r0, #2048	; 0x800
 8002f4e:	b002      	add	sp, #8
 8002f50:	bd10      	pop	{r4, pc}
 8002f52:	f04f 6080 	mov.w	r0, #67108864	; 0x4000000
 8002f56:	e7fa      	b.n	8002f4e <SD_WideBus_Enable+0x44>

08002f58 <SD_WideBus_Disable>:
 8002f58:	b510      	push	{r4, lr}
 8002f5a:	b082      	sub	sp, #8
 8002f5c:	4604      	mov	r4, r0
 8002f5e:	2100      	movs	r1, #0
 8002f60:	9100      	str	r1, [sp, #0]
 8002f62:	9101      	str	r1, [sp, #4]
 8002f64:	6800      	ldr	r0, [r0, #0]
 8002f66:	f7ff fbb6 	bl	80026d6 <SDIO_GetResponse>
 8002f6a:	f010 7f00 	tst.w	r0, #33554432	; 0x2000000
 8002f6e:	d113      	bne.n	8002f98 <SD_WideBus_Disable+0x40>
 8002f70:	4669      	mov	r1, sp
 8002f72:	4620      	mov	r0, r4
 8002f74:	f7ff ff49 	bl	8002e0a <SD_FindSCR>
 8002f78:	b980      	cbnz	r0, 8002f9c <SD_WideBus_Disable+0x44>
 8002f7a:	9b01      	ldr	r3, [sp, #4]
 8002f7c:	f413 3f80 	tst.w	r3, #65536	; 0x10000
 8002f80:	d00e      	beq.n	8002fa0 <SD_WideBus_Disable+0x48>
 8002f82:	6d21      	ldr	r1, [r4, #80]	; 0x50
 8002f84:	0409      	lsls	r1, r1, #16
 8002f86:	6820      	ldr	r0, [r4, #0]
 8002f88:	f7ff fd88 	bl	8002a9c <SDMMC_CmdAppCommand>
 8002f8c:	b930      	cbnz	r0, 8002f9c <SD_WideBus_Disable+0x44>
 8002f8e:	2100      	movs	r1, #0
 8002f90:	6820      	ldr	r0, [r4, #0]
 8002f92:	f7ff fdb4 	bl	8002afe <SDMMC_CmdBusWidth>
 8002f96:	e001      	b.n	8002f9c <SD_WideBus_Disable+0x44>
 8002f98:	f44f 6000 	mov.w	r0, #2048	; 0x800
 8002f9c:	b002      	add	sp, #8
 8002f9e:	bd10      	pop	{r4, pc}
 8002fa0:	f04f 6080 	mov.w	r0, #67108864	; 0x4000000
 8002fa4:	e7fa      	b.n	8002f9c <SD_WideBus_Disable+0x44>

08002fa6 <SD_SendStatus>:
 8002fa6:	b570      	push	{r4, r5, r6, lr}
 8002fa8:	b181      	cbz	r1, 8002fcc <SD_SendStatus+0x26>
 8002faa:	4604      	mov	r4, r0
 8002fac:	460e      	mov	r6, r1
 8002fae:	6d01      	ldr	r1, [r0, #80]	; 0x50
 8002fb0:	0409      	lsls	r1, r1, #16
 8002fb2:	6800      	ldr	r0, [r0, #0]
 8002fb4:	f7ff fe15 	bl	8002be2 <SDMMC_CmdSendStatus>
 8002fb8:	4605      	mov	r5, r0
 8002fba:	b108      	cbz	r0, 8002fc0 <SD_SendStatus+0x1a>
 8002fbc:	4628      	mov	r0, r5
 8002fbe:	bd70      	pop	{r4, r5, r6, pc}
 8002fc0:	2100      	movs	r1, #0
 8002fc2:	6820      	ldr	r0, [r4, #0]
 8002fc4:	f7ff fb87 	bl	80026d6 <SDIO_GetResponse>
 8002fc8:	6030      	str	r0, [r6, #0]
 8002fca:	e7f7      	b.n	8002fbc <SD_SendStatus+0x16>
 8002fcc:	f04f 6500 	mov.w	r5, #134217728	; 0x8000000
 8002fd0:	e7f4      	b.n	8002fbc <SD_SendStatus+0x16>
	...

08002fd4 <HAL_SD_ReadBlocks>:
 8002fd4:	e92d 4ff0 	stmdb	sp!, {r4, r5, r6, r7, r8, r9, sl, fp, lr}
 8002fd8:	b087      	sub	sp, #28
 8002fda:	4605      	mov	r5, r0
 8002fdc:	460c      	mov	r4, r1
 8002fde:	4616      	mov	r6, r2
 8002fe0:	469b      	mov	fp, r3
 8002fe2:	f8dd a040 	ldr.w	sl, [sp, #64]	; 0x40
 8002fe6:	f7ff fa75 	bl	80024d4 <HAL_GetTick>
 8002fea:	2c00      	cmp	r4, #0
 8002fec:	d036      	beq.n	800305c <HAL_SD_ReadBlocks+0x88>
 8002fee:	4681      	mov	r9, r0
 8002ff0:	f895 7034 	ldrb.w	r7, [r5, #52]	; 0x34
 8002ff4:	b2ff      	uxtb	r7, r7
 8002ff6:	2f01      	cmp	r7, #1
 8002ff8:	f040 8105 	bne.w	8003206 <HAL_SD_ReadBlocks+0x232>
 8002ffc:	2300      	movs	r3, #0
 8002ffe:	63ab      	str	r3, [r5, #56]	; 0x38
 8003000:	eb06 030b 	add.w	r3, r6, fp
 8003004:	6dea      	ldr	r2, [r5, #92]	; 0x5c
 8003006:	4293      	cmp	r3, r2
 8003008:	d82e      	bhi.n	8003068 <HAL_SD_ReadBlocks+0x94>
 800300a:	2303      	movs	r3, #3
 800300c:	f885 3034 	strb.w	r3, [r5, #52]	; 0x34
 8003010:	682b      	ldr	r3, [r5, #0]
 8003012:	2200      	movs	r2, #0
 8003014:	62da      	str	r2, [r3, #44]	; 0x2c
 8003016:	6c6b      	ldr	r3, [r5, #68]	; 0x44
 8003018:	2b01      	cmp	r3, #1
 800301a:	d000      	beq.n	800301e <HAL_SD_ReadBlocks+0x4a>
 800301c:	0276      	lsls	r6, r6, #9
 800301e:	f04f 33ff 	mov.w	r3, #4294967295	; 0xffffffff
 8003022:	9300      	str	r3, [sp, #0]
 8003024:	ea4f 234b 	mov.w	r3, fp, lsl #9
 8003028:	9301      	str	r3, [sp, #4]
 800302a:	2390      	movs	r3, #144	; 0x90
 800302c:	9302      	str	r3, [sp, #8]
 800302e:	2302      	movs	r3, #2
 8003030:	9303      	str	r3, [sp, #12]
 8003032:	2300      	movs	r3, #0
 8003034:	9304      	str	r3, [sp, #16]
 8003036:	2301      	movs	r3, #1
 8003038:	9305      	str	r3, [sp, #20]
 800303a:	4669      	mov	r1, sp
 800303c:	6828      	ldr	r0, [r5, #0]
 800303e:	f7ff fc47 	bl	80028d0 <SDIO_ConfigData>
 8003042:	f1bb 0f01 	cmp.w	fp, #1
 8003046:	d914      	bls.n	8003072 <HAL_SD_ReadBlocks+0x9e>
 8003048:	2302      	movs	r3, #2
 800304a:	632b      	str	r3, [r5, #48]	; 0x30
 800304c:	4631      	mov	r1, r6
 800304e:	6828      	ldr	r0, [r5, #0]
 8003050:	f7ff fc80 	bl	8002954 <SDMMC_CmdReadMultiBlock>
 8003054:	b9a0      	cbnz	r0, 8003080 <HAL_SD_ReadBlocks+0xac>
 8003056:	f8dd 8004 	ldr.w	r8, [sp, #4]
 800305a:	e038      	b.n	80030ce <HAL_SD_ReadBlocks+0xfa>
 800305c:	6bab      	ldr	r3, [r5, #56]	; 0x38
 800305e:	f043 6300 	orr.w	r3, r3, #134217728	; 0x8000000
 8003062:	63ab      	str	r3, [r5, #56]	; 0x38
 8003064:	2701      	movs	r7, #1
 8003066:	e0d3      	b.n	8003210 <HAL_SD_ReadBlocks+0x23c>
 8003068:	6bab      	ldr	r3, [r5, #56]	; 0x38
 800306a:	f043 7300 	orr.w	r3, r3, #33554432	; 0x2000000
 800306e:	63ab      	str	r3, [r5, #56]	; 0x38
 8003070:	e0ce      	b.n	8003210 <HAL_SD_ReadBlocks+0x23c>
 8003072:	2301      	movs	r3, #1
 8003074:	632b      	str	r3, [r5, #48]	; 0x30
 8003076:	4631      	mov	r1, r6
 8003078:	6828      	ldr	r0, [r5, #0]
 800307a:	f7ff fc53 	bl	8002924 <SDMMC_CmdReadSingleBlock>
 800307e:	e7e9      	b.n	8003054 <HAL_SD_ReadBlocks+0x80>
 8003080:	682b      	ldr	r3, [r5, #0]
 8003082:	4a65      	ldr	r2, [pc, #404]	; (8003218 <HAL_SD_ReadBlocks+0x244>)
 8003084:	639a      	str	r2, [r3, #56]	; 0x38
 8003086:	6bab      	ldr	r3, [r5, #56]	; 0x38
 8003088:	4318      	orrs	r0, r3
 800308a:	63a8      	str	r0, [r5, #56]	; 0x38
 800308c:	2301      	movs	r3, #1
 800308e:	f885 3034 	strb.w	r3, [r5, #52]	; 0x34
 8003092:	2300      	movs	r3, #0
 8003094:	632b      	str	r3, [r5, #48]	; 0x30
 8003096:	e0bb      	b.n	8003210 <HAL_SD_ReadBlocks+0x23c>
 8003098:	6828      	ldr	r0, [r5, #0]
 800309a:	f7ff faf3 	bl	8002684 <SDIO_ReadFIFO>
 800309e:	7020      	strb	r0, [r4, #0]
 80030a0:	f3c0 2307 	ubfx	r3, r0, #8, #8
 80030a4:	7063      	strb	r3, [r4, #1]
 80030a6:	f3c0 4307 	ubfx	r3, r0, #16, #8
 80030aa:	70a3      	strb	r3, [r4, #2]
 80030ac:	0e00      	lsrs	r0, r0, #24
 80030ae:	70e0      	strb	r0, [r4, #3]
 80030b0:	3404      	adds	r4, #4
 80030b2:	f1a8 0804 	sub.w	r8, r8, #4
 80030b6:	3601      	adds	r6, #1
 80030b8:	2e07      	cmp	r6, #7
 80030ba:	d9ed      	bls.n	8003098 <HAL_SD_ReadBlocks+0xc4>
 80030bc:	f7ff fa0a 	bl	80024d4 <HAL_GetTick>
 80030c0:	eba0 0009 	sub.w	r0, r0, r9
 80030c4:	4550      	cmp	r0, sl
 80030c6:	d210      	bcs.n	80030ea <HAL_SD_ReadBlocks+0x116>
 80030c8:	f1ba 0f00 	cmp.w	sl, #0
 80030cc:	d00d      	beq.n	80030ea <HAL_SD_ReadBlocks+0x116>
 80030ce:	6828      	ldr	r0, [r5, #0]
 80030d0:	6b46      	ldr	r6, [r0, #52]	; 0x34
 80030d2:	f240 332a 	movw	r3, #810	; 0x32a
 80030d6:	401e      	ands	r6, r3
 80030d8:	d115      	bne.n	8003106 <HAL_SD_ReadBlocks+0x132>
 80030da:	6b43      	ldr	r3, [r0, #52]	; 0x34
 80030dc:	f413 4f00 	tst.w	r3, #32768	; 0x8000
 80030e0:	d0ec      	beq.n	80030bc <HAL_SD_ReadBlocks+0xe8>
 80030e2:	f1b8 0f00 	cmp.w	r8, #0
 80030e6:	d0e9      	beq.n	80030bc <HAL_SD_ReadBlocks+0xe8>
 80030e8:	e7e6      	b.n	80030b8 <HAL_SD_ReadBlocks+0xe4>
 80030ea:	682b      	ldr	r3, [r5, #0]
 80030ec:	4a4a      	ldr	r2, [pc, #296]	; (8003218 <HAL_SD_ReadBlocks+0x244>)
 80030ee:	639a      	str	r2, [r3, #56]	; 0x38
 80030f0:	6bab      	ldr	r3, [r5, #56]	; 0x38
 80030f2:	f043 4300 	orr.w	r3, r3, #2147483648	; 0x80000000
 80030f6:	63ab      	str	r3, [r5, #56]	; 0x38
 80030f8:	2301      	movs	r3, #1
 80030fa:	f885 3034 	strb.w	r3, [r5, #52]	; 0x34
 80030fe:	2300      	movs	r3, #0
 8003100:	632b      	str	r3, [r5, #48]	; 0x30
 8003102:	2703      	movs	r7, #3
 8003104:	e084      	b.n	8003210 <HAL_SD_ReadBlocks+0x23c>
 8003106:	6b43      	ldr	r3, [r0, #52]	; 0x34
 8003108:	f413 7f80 	tst.w	r3, #256	; 0x100
 800310c:	d005      	beq.n	800311a <HAL_SD_ReadBlocks+0x146>
 800310e:	f1bb 0f01 	cmp.w	fp, #1
 8003112:	d902      	bls.n	800311a <HAL_SD_ReadBlocks+0x146>
 8003114:	6c6b      	ldr	r3, [r5, #68]	; 0x44
 8003116:	2b03      	cmp	r3, #3
 8003118:	d138      	bne.n	800318c <HAL_SD_ReadBlocks+0x1b8>
 800311a:	682b      	ldr	r3, [r5, #0]
 800311c:	6b5a      	ldr	r2, [r3, #52]	; 0x34
 800311e:	f012 0f08 	tst.w	r2, #8
 8003122:	d144      	bne.n	80031ae <HAL_SD_ReadBlocks+0x1da>
 8003124:	6b5a      	ldr	r2, [r3, #52]	; 0x34
 8003126:	f012 0f02 	tst.w	r2, #2
 800312a:	d14c      	bne.n	80031c6 <HAL_SD_ReadBlocks+0x1f2>
 800312c:	6b5a      	ldr	r2, [r3, #52]	; 0x34
 800312e:	f012 0f20 	tst.w	r2, #32
 8003132:	d154      	bne.n	80031de <HAL_SD_ReadBlocks+0x20a>
 8003134:	6828      	ldr	r0, [r5, #0]
 8003136:	6b43      	ldr	r3, [r0, #52]	; 0x34
 8003138:	f413 1f00 	tst.w	r3, #2097152	; 0x200000
 800313c:	d05b      	beq.n	80031f6 <HAL_SD_ReadBlocks+0x222>
 800313e:	f1b8 0f00 	cmp.w	r8, #0
 8003142:	d058      	beq.n	80031f6 <HAL_SD_ReadBlocks+0x222>
 8003144:	f7ff fa9e 	bl	8002684 <SDIO_ReadFIFO>
 8003148:	7020      	strb	r0, [r4, #0]
 800314a:	f3c0 2307 	ubfx	r3, r0, #8, #8
 800314e:	7063      	strb	r3, [r4, #1]
 8003150:	f3c0 4307 	ubfx	r3, r0, #16, #8
 8003154:	70a3      	strb	r3, [r4, #2]
 8003156:	0e00      	lsrs	r0, r0, #24
 8003158:	70e0      	strb	r0, [r4, #3]
 800315a:	3404      	adds	r4, #4
 800315c:	f1a8 0804 	sub.w	r8, r8, #4
 8003160:	f7ff f9b8 	bl	80024d4 <HAL_GetTick>
 8003164:	eba0 0009 	sub.w	r0, r0, r9
 8003168:	4550      	cmp	r0, sl
 800316a:	d202      	bcs.n	8003172 <HAL_SD_ReadBlocks+0x19e>
 800316c:	f1ba 0f00 	cmp.w	sl, #0
 8003170:	d1e0      	bne.n	8003134 <HAL_SD_ReadBlocks+0x160>
 8003172:	682b      	ldr	r3, [r5, #0]
 8003174:	4a28      	ldr	r2, [pc, #160]	; (8003218 <HAL_SD_ReadBlocks+0x244>)
 8003176:	639a      	str	r2, [r3, #56]	; 0x38
 8003178:	6bab      	ldr	r3, [r5, #56]	; 0x38
 800317a:	f043 4300 	orr.w	r3, r3, #2147483648	; 0x80000000
 800317e:	63ab      	str	r3, [r5, #56]	; 0x38
 8003180:	2301      	movs	r3, #1
 8003182:	f885 3034 	strb.w	r3, [r5, #52]	; 0x34
 8003186:	2300      	movs	r3, #0
 8003188:	632b      	str	r3, [r5, #48]	; 0x30
 800318a:	e041      	b.n	8003210 <HAL_SD_ReadBlocks+0x23c>
 800318c:	f7ff fc2a 	bl	80029e4 <SDMMC_CmdStopTransfer>
 8003190:	4603      	mov	r3, r0
 8003192:	2800      	cmp	r0, #0
 8003194:	d0c1      	beq.n	800311a <HAL_SD_ReadBlocks+0x146>
 8003196:	682a      	ldr	r2, [r5, #0]
 8003198:	491f      	ldr	r1, [pc, #124]	; (8003218 <HAL_SD_ReadBlocks+0x244>)
 800319a:	6391      	str	r1, [r2, #56]	; 0x38
 800319c:	6baa      	ldr	r2, [r5, #56]	; 0x38
 800319e:	4313      	orrs	r3, r2
 80031a0:	63ab      	str	r3, [r5, #56]	; 0x38
 80031a2:	2301      	movs	r3, #1
 80031a4:	f885 3034 	strb.w	r3, [r5, #52]	; 0x34
 80031a8:	2300      	movs	r3, #0
 80031aa:	632b      	str	r3, [r5, #48]	; 0x30
 80031ac:	e030      	b.n	8003210 <HAL_SD_ReadBlocks+0x23c>
 80031ae:	4a1a      	ldr	r2, [pc, #104]	; (8003218 <HAL_SD_ReadBlocks+0x244>)
 80031b0:	639a      	str	r2, [r3, #56]	; 0x38
 80031b2:	6bab      	ldr	r3, [r5, #56]	; 0x38
 80031b4:	f043 0308 	orr.w	r3, r3, #8
 80031b8:	63ab      	str	r3, [r5, #56]	; 0x38
 80031ba:	2301      	movs	r3, #1
 80031bc:	f885 3034 	strb.w	r3, [r5, #52]	; 0x34
 80031c0:	2300      	movs	r3, #0
 80031c2:	632b      	str	r3, [r5, #48]	; 0x30
 80031c4:	e024      	b.n	8003210 <HAL_SD_ReadBlocks+0x23c>
 80031c6:	4a14      	ldr	r2, [pc, #80]	; (8003218 <HAL_SD_ReadBlocks+0x244>)
 80031c8:	639a      	str	r2, [r3, #56]	; 0x38
 80031ca:	6bab      	ldr	r3, [r5, #56]	; 0x38
 80031cc:	f043 0302 	orr.w	r3, r3, #2
 80031d0:	63ab      	str	r3, [r5, #56]	; 0x38
 80031d2:	2301      	movs	r3, #1
 80031d4:	f885 3034 	strb.w	r3, [r5, #52]	; 0x34
 80031d8:	2300      	movs	r3, #0
 80031da:	632b      	str	r3, [r5, #48]	; 0x30
 80031dc:	e018      	b.n	8003210 <HAL_SD_ReadBlocks+0x23c>
 80031de:	4a0e      	ldr	r2, [pc, #56]	; (8003218 <HAL_SD_ReadBlocks+0x244>)
 80031e0:	639a      	str	r2, [r3, #56]	; 0x38
 80031e2:	6bab      	ldr	r3, [r5, #56]	; 0x38
 80031e4:	f043 0320 	orr.w	r3, r3, #32
 80031e8:	63ab      	str	r3, [r5, #56]	; 0x38
 80031ea:	2301      	movs	r3, #1
 80031ec:	f885 3034 	strb.w	r3, [r5, #52]	; 0x34
 80031f0:	2300      	movs	r3, #0
 80031f2:	632b      	str	r3, [r5, #48]	; 0x30
 80031f4:	e00c      	b.n	8003210 <HAL_SD_ReadBlocks+0x23c>
 80031f6:	f240 533a 	movw	r3, #1338	; 0x53a
 80031fa:	6383      	str	r3, [r0, #56]	; 0x38
 80031fc:	2301      	movs	r3, #1
 80031fe:	f885 3034 	strb.w	r3, [r5, #52]	; 0x34
 8003202:	2700      	movs	r7, #0
 8003204:	e004      	b.n	8003210 <HAL_SD_ReadBlocks+0x23c>
 8003206:	6bab      	ldr	r3, [r5, #56]	; 0x38
 8003208:	f043 5300 	orr.w	r3, r3, #536870912	; 0x20000000
 800320c:	63ab      	str	r3, [r5, #56]	; 0x38
 800320e:	2701      	movs	r7, #1
 8003210:	4638      	mov	r0, r7
 8003212:	b007      	add	sp, #28
 8003214:	e8bd 8ff0 	ldmia.w	sp!, {r4, r5, r6, r7, r8, r9, sl, fp, pc}
 8003218:	004005ff 	.word	0x004005ff

0800321c <HAL_SD_WriteBlocks>:
 800321c:	e92d 4ff0 	stmdb	sp!, {r4, r5, r6, r7, r8, r9, sl, fp, lr}
 8003220:	b08b      	sub	sp, #44	; 0x2c
 8003222:	4605      	mov	r5, r0
 8003224:	460c      	mov	r4, r1
 8003226:	4616      	mov	r6, r2
 8003228:	469b      	mov	fp, r3
 800322a:	f8dd a050 	ldr.w	sl, [sp, #80]	; 0x50
 800322e:	f7ff f951 	bl	80024d4 <HAL_GetTick>
 8003232:	2c00      	cmp	r4, #0
 8003234:	d037      	beq.n	80032a6 <HAL_SD_WriteBlocks+0x8a>
 8003236:	4680      	mov	r8, r0
 8003238:	f895 7034 	ldrb.w	r7, [r5, #52]	; 0x34
 800323c:	b2ff      	uxtb	r7, r7
 800323e:	2f01      	cmp	r7, #1
 8003240:	f040 80df 	bne.w	8003402 <HAL_SD_WriteBlocks+0x1e6>
 8003244:	2300      	movs	r3, #0
 8003246:	63ab      	str	r3, [r5, #56]	; 0x38
 8003248:	eb06 030b 	add.w	r3, r6, fp
 800324c:	6dea      	ldr	r2, [r5, #92]	; 0x5c
 800324e:	4293      	cmp	r3, r2
 8003250:	d82f      	bhi.n	80032b2 <HAL_SD_WriteBlocks+0x96>
 8003252:	2303      	movs	r3, #3
 8003254:	f885 3034 	strb.w	r3, [r5, #52]	; 0x34
 8003258:	682b      	ldr	r3, [r5, #0]
 800325a:	2200      	movs	r2, #0
 800325c:	62da      	str	r2, [r3, #44]	; 0x2c
 800325e:	6c6b      	ldr	r3, [r5, #68]	; 0x44
 8003260:	2b01      	cmp	r3, #1
 8003262:	d000      	beq.n	8003266 <HAL_SD_WriteBlocks+0x4a>
 8003264:	0276      	lsls	r6, r6, #9
 8003266:	f04f 33ff 	mov.w	r3, #4294967295	; 0xffffffff
 800326a:	9304      	str	r3, [sp, #16]
 800326c:	ea4f 234b 	mov.w	r3, fp, lsl #9
 8003270:	9305      	str	r3, [sp, #20]
 8003272:	2390      	movs	r3, #144	; 0x90
 8003274:	9306      	str	r3, [sp, #24]
 8003276:	2300      	movs	r3, #0
 8003278:	9307      	str	r3, [sp, #28]
 800327a:	9308      	str	r3, [sp, #32]
 800327c:	2301      	movs	r3, #1
 800327e:	9309      	str	r3, [sp, #36]	; 0x24
 8003280:	a904      	add	r1, sp, #16
 8003282:	6828      	ldr	r0, [r5, #0]
 8003284:	f7ff fb24 	bl	80028d0 <SDIO_ConfigData>
 8003288:	f1bb 0f01 	cmp.w	fp, #1
 800328c:	d916      	bls.n	80032bc <HAL_SD_WriteBlocks+0xa0>
 800328e:	2320      	movs	r3, #32
 8003290:	632b      	str	r3, [r5, #48]	; 0x30
 8003292:	4631      	mov	r1, r6
 8003294:	6828      	ldr	r0, [r5, #0]
 8003296:	f7ff fb8d 	bl	80029b4 <SDMMC_CmdWriteMultiBlock>
 800329a:	9001      	str	r0, [sp, #4]
 800329c:	9b01      	ldr	r3, [sp, #4]
 800329e:	b9ab      	cbnz	r3, 80032cc <HAL_SD_WriteBlocks+0xb0>
 80032a0:	f8dd 9014 	ldr.w	r9, [sp, #20]
 80032a4:	e03d      	b.n	8003322 <HAL_SD_WriteBlocks+0x106>
 80032a6:	6bab      	ldr	r3, [r5, #56]	; 0x38
 80032a8:	f043 6300 	orr.w	r3, r3, #134217728	; 0x8000000
 80032ac:	63ab      	str	r3, [r5, #56]	; 0x38
 80032ae:	2701      	movs	r7, #1
 80032b0:	e0ac      	b.n	800340c <HAL_SD_WriteBlocks+0x1f0>
 80032b2:	6bab      	ldr	r3, [r5, #56]	; 0x38
 80032b4:	f043 7300 	orr.w	r3, r3, #33554432	; 0x2000000
 80032b8:	63ab      	str	r3, [r5, #56]	; 0x38
 80032ba:	e0a7      	b.n	800340c <HAL_SD_WriteBlocks+0x1f0>
 80032bc:	2310      	movs	r3, #16
 80032be:	632b      	str	r3, [r5, #48]	; 0x30
 80032c0:	4631      	mov	r1, r6
 80032c2:	6828      	ldr	r0, [r5, #0]
 80032c4:	f7ff fb5e 	bl	8002984 <SDMMC_CmdWriteSingleBlock>
 80032c8:	9001      	str	r0, [sp, #4]
 80032ca:	e7e7      	b.n	800329c <HAL_SD_WriteBlocks+0x80>
 80032cc:	682b      	ldr	r3, [r5, #0]
 80032ce:	4a51      	ldr	r2, [pc, #324]	; (8003414 <HAL_SD_WriteBlocks+0x1f8>)
 80032d0:	639a      	str	r2, [r3, #56]	; 0x38
 80032d2:	6ba8      	ldr	r0, [r5, #56]	; 0x38
 80032d4:	9b01      	ldr	r3, [sp, #4]
 80032d6:	4318      	orrs	r0, r3
 80032d8:	63a8      	str	r0, [r5, #56]	; 0x38
 80032da:	2301      	movs	r3, #1
 80032dc:	f885 3034 	strb.w	r3, [r5, #52]	; 0x34
 80032e0:	2300      	movs	r3, #0
 80032e2:	632b      	str	r3, [r5, #48]	; 0x30
 80032e4:	e092      	b.n	800340c <HAL_SD_WriteBlocks+0x1f0>
 80032e6:	7823      	ldrb	r3, [r4, #0]
 80032e8:	7862      	ldrb	r2, [r4, #1]
 80032ea:	ea43 2302 	orr.w	r3, r3, r2, lsl #8
 80032ee:	78a2      	ldrb	r2, [r4, #2]
 80032f0:	ea43 4302 	orr.w	r3, r3, r2, lsl #16
 80032f4:	78e2      	ldrb	r2, [r4, #3]
 80032f6:	ea43 6302 	orr.w	r3, r3, r2, lsl #24
 80032fa:	9303      	str	r3, [sp, #12]
 80032fc:	3404      	adds	r4, #4
 80032fe:	f1a9 0904 	sub.w	r9, r9, #4
 8003302:	a903      	add	r1, sp, #12
 8003304:	6828      	ldr	r0, [r5, #0]
 8003306:	f7ff f9c0 	bl	800268a <SDIO_WriteFIFO>
 800330a:	3601      	adds	r6, #1
 800330c:	2e07      	cmp	r6, #7
 800330e:	d9ea      	bls.n	80032e6 <HAL_SD_WriteBlocks+0xca>
 8003310:	f7ff f8e0 	bl	80024d4 <HAL_GetTick>
 8003314:	eba0 0008 	sub.w	r0, r0, r8
 8003318:	4550      	cmp	r0, sl
 800331a:	d210      	bcs.n	800333e <HAL_SD_WriteBlocks+0x122>
 800331c:	f1ba 0f00 	cmp.w	sl, #0
 8003320:	d00d      	beq.n	800333e <HAL_SD_WriteBlocks+0x122>
 8003322:	6828      	ldr	r0, [r5, #0]
 8003324:	6b46      	ldr	r6, [r0, #52]	; 0x34
 8003326:	f240 331a 	movw	r3, #794	; 0x31a
 800332a:	401e      	ands	r6, r3
 800332c:	d115      	bne.n	800335a <HAL_SD_WriteBlocks+0x13e>
 800332e:	6b43      	ldr	r3, [r0, #52]	; 0x34
 8003330:	f413 4f80 	tst.w	r3, #16384	; 0x4000
 8003334:	d0ec      	beq.n	8003310 <HAL_SD_WriteBlocks+0xf4>
 8003336:	f1b9 0f00 	cmp.w	r9, #0
 800333a:	d0e9      	beq.n	8003310 <HAL_SD_WriteBlocks+0xf4>
 800333c:	e7e6      	b.n	800330c <HAL_SD_WriteBlocks+0xf0>
 800333e:	682b      	ldr	r3, [r5, #0]
 8003340:	4a34      	ldr	r2, [pc, #208]	; (8003414 <HAL_SD_WriteBlocks+0x1f8>)
 8003342:	639a      	str	r2, [r3, #56]	; 0x38
 8003344:	6ba8      	ldr	r0, [r5, #56]	; 0x38
 8003346:	9b01      	ldr	r3, [sp, #4]
 8003348:	4318      	orrs	r0, r3
 800334a:	63a8      	str	r0, [r5, #56]	; 0x38
 800334c:	2301      	movs	r3, #1
 800334e:	f885 3034 	strb.w	r3, [r5, #52]	; 0x34
 8003352:	2300      	movs	r3, #0
 8003354:	632b      	str	r3, [r5, #48]	; 0x30
 8003356:	2703      	movs	r7, #3
 8003358:	e058      	b.n	800340c <HAL_SD_WriteBlocks+0x1f0>
 800335a:	6b43      	ldr	r3, [r0, #52]	; 0x34
 800335c:	f413 7f80 	tst.w	r3, #256	; 0x100
 8003360:	d005      	beq.n	800336e <HAL_SD_WriteBlocks+0x152>
 8003362:	f1bb 0f01 	cmp.w	fp, #1
 8003366:	d902      	bls.n	800336e <HAL_SD_WriteBlocks+0x152>
 8003368:	6c6b      	ldr	r3, [r5, #68]	; 0x44
 800336a:	2b03      	cmp	r3, #3
 800336c:	d118      	bne.n	80033a0 <HAL_SD_WriteBlocks+0x184>
 800336e:	682b      	ldr	r3, [r5, #0]
 8003370:	6b5a      	ldr	r2, [r3, #52]	; 0x34
 8003372:	f012 0f08 	tst.w	r2, #8
 8003376:	d124      	bne.n	80033c2 <HAL_SD_WriteBlocks+0x1a6>
 8003378:	6b5a      	ldr	r2, [r3, #52]	; 0x34
 800337a:	f012 0f02 	tst.w	r2, #2
 800337e:	d12c      	bne.n	80033da <HAL_SD_WriteBlocks+0x1be>
 8003380:	6b5a      	ldr	r2, [r3, #52]	; 0x34
 8003382:	f012 0f10 	tst.w	r2, #16
 8003386:	d034      	beq.n	80033f2 <HAL_SD_WriteBlocks+0x1d6>
 8003388:	4a22      	ldr	r2, [pc, #136]	; (8003414 <HAL_SD_WriteBlocks+0x1f8>)
 800338a:	639a      	str	r2, [r3, #56]	; 0x38
 800338c:	6bab      	ldr	r3, [r5, #56]	; 0x38
 800338e:	f043 0310 	orr.w	r3, r3, #16
 8003392:	63ab      	str	r3, [r5, #56]	; 0x38
 8003394:	2301      	movs	r3, #1
 8003396:	f885 3034 	strb.w	r3, [r5, #52]	; 0x34
 800339a:	2300      	movs	r3, #0
 800339c:	632b      	str	r3, [r5, #48]	; 0x30
 800339e:	e035      	b.n	800340c <HAL_SD_WriteBlocks+0x1f0>
 80033a0:	f7ff fb20 	bl	80029e4 <SDMMC_CmdStopTransfer>
 80033a4:	4603      	mov	r3, r0
 80033a6:	2800      	cmp	r0, #0
 80033a8:	d0e1      	beq.n	800336e <HAL_SD_WriteBlocks+0x152>
 80033aa:	682a      	ldr	r2, [r5, #0]
 80033ac:	4919      	ldr	r1, [pc, #100]	; (8003414 <HAL_SD_WriteBlocks+0x1f8>)
 80033ae:	6391      	str	r1, [r2, #56]	; 0x38
 80033b0:	6baa      	ldr	r2, [r5, #56]	; 0x38
 80033b2:	4313      	orrs	r3, r2
 80033b4:	63ab      	str	r3, [r5, #56]	; 0x38
 80033b6:	2301      	movs	r3, #1
 80033b8:	f885 3034 	strb.w	r3, [r5, #52]	; 0x34
 80033bc:	2300      	movs	r3, #0
 80033be:	632b      	str	r3, [r5, #48]	; 0x30
 80033c0:	e024      	b.n	800340c <HAL_SD_WriteBlocks+0x1f0>
 80033c2:	4a14      	ldr	r2, [pc, #80]	; (8003414 <HAL_SD_WriteBlocks+0x1f8>)
 80033c4:	639a      	str	r2, [r3, #56]	; 0x38
 80033c6:	6bab      	ldr	r3, [r5, #56]	; 0x38
 80033c8:	f043 0308 	orr.w	r3, r3, #8
 80033cc:	63ab      	str	r3, [r5, #56]	; 0x38
 80033ce:	2301      	movs	r3, #1
 80033d0:	f885 3034 	strb.w	r3, [r5, #52]	; 0x34
 80033d4:	2300      	movs	r3, #0
 80033d6:	632b      	str	r3, [r5, #48]	; 0x30
 80033d8:	e018      	b.n	800340c <HAL_SD_WriteBlocks+0x1f0>
 80033da:	4a0e      	ldr	r2, [pc, #56]	; (8003414 <HAL_SD_WriteBlocks+0x1f8>)
 80033dc:	639a      	str	r2, [r3, #56]	; 0x38
 80033de:	6bab      	ldr	r3, [r5, #56]	; 0x38
 80033e0:	f043 0302 	orr.w	r3, r3, #2
 80033e4:	63ab      	str	r3, [r5, #56]	; 0x38
 80033e6:	2301      	movs	r3, #1
 80033e8:	f885 3034 	strb.w	r3, [r5, #52]	; 0x34
 80033ec:	2300      	movs	r3, #0
 80033ee:	632b      	str	r3, [r5, #48]	; 0x30
 80033f0:	e00c      	b.n	800340c <HAL_SD_WriteBlocks+0x1f0>
 80033f2:	f240 523a 	movw	r2, #1338	; 0x53a
 80033f6:	639a      	str	r2, [r3, #56]	; 0x38
 80033f8:	2301      	movs	r3, #1
 80033fa:	f885 3034 	strb.w	r3, [r5, #52]	; 0x34
 80033fe:	2700      	movs	r7, #0
 8003400:	e004      	b.n	800340c <HAL_SD_WriteBlocks+0x1f0>
 8003402:	6bab      	ldr	r3, [r5, #56]	; 0x38
 8003404:	f043 5300 	orr.w	r3, r3, #536870912	; 0x20000000
 8003408:	63ab      	str	r3, [r5, #56]	; 0x38
 800340a:	2701      	movs	r7, #1
 800340c:	4638      	mov	r0, r7
 800340e:	b00b      	add	sp, #44	; 0x2c
 8003410:	e8bd 8ff0 	ldmia.w	sp!, {r4, r5, r6, r7, r8, r9, sl, fp, pc}
 8003414:	004005ff 	.word	0x004005ff

08003418 <HAL_SD_GetCardCID>:
 8003418:	f890 3077 	ldrb.w	r3, [r0, #119]	; 0x77
 800341c:	700b      	strb	r3, [r1, #0]
 800341e:	6f43      	ldr	r3, [r0, #116]	; 0x74
 8003420:	f3c3 230f 	ubfx	r3, r3, #8, #16
 8003424:	804b      	strh	r3, [r1, #2]
 8003426:	6f42      	ldr	r2, [r0, #116]	; 0x74
 8003428:	6f83      	ldr	r3, [r0, #120]	; 0x78
 800342a:	0a1b      	lsrs	r3, r3, #8
 800342c:	ea43 6302 	orr.w	r3, r3, r2, lsl #24
 8003430:	604b      	str	r3, [r1, #4]
 8003432:	f890 3078 	ldrb.w	r3, [r0, #120]	; 0x78
 8003436:	720b      	strb	r3, [r1, #8]
 8003438:	f890 307f 	ldrb.w	r3, [r0, #127]	; 0x7f
 800343c:	724b      	strb	r3, [r1, #9]
 800343e:	6fc2      	ldr	r2, [r0, #124]	; 0x7c
 8003440:	f890 3083 	ldrb.w	r3, [r0, #131]	; 0x83
 8003444:	ea43 2302 	orr.w	r3, r3, r2, lsl #8
 8003448:	60cb      	str	r3, [r1, #12]
 800344a:	f8d0 3080 	ldr.w	r3, [r0, #128]	; 0x80
 800344e:	f3c3 5303 	ubfx	r3, r3, #20, #4
 8003452:	740b      	strb	r3, [r1, #16]
 8003454:	f8d0 3080 	ldr.w	r3, [r0, #128]	; 0x80
 8003458:	f3c3 230b 	ubfx	r3, r3, #8, #12
 800345c:	824b      	strh	r3, [r1, #18]
 800345e:	f8d0 3080 	ldr.w	r3, [r0, #128]	; 0x80
 8003462:	f3c3 0346 	ubfx	r3, r3, #1, #7
 8003466:	750b      	strb	r3, [r1, #20]
 8003468:	2301      	movs	r3, #1
 800346a:	754b      	strb	r3, [r1, #21]
 800346c:	2000      	movs	r0, #0
 800346e:	4770      	bx	lr

08003470 <HAL_SD_GetCardCSD>:
 8003470:	b410      	push	{r4}
 8003472:	6e43      	ldr	r3, [r0, #100]	; 0x64
 8003474:	0f9b      	lsrs	r3, r3, #30
 8003476:	700b      	strb	r3, [r1, #0]
 8003478:	6e43      	ldr	r3, [r0, #100]	; 0x64
 800347a:	f3c3 6383 	ubfx	r3, r3, #26, #4
 800347e:	704b      	strb	r3, [r1, #1]
 8003480:	f890 3067 	ldrb.w	r3, [r0, #103]	; 0x67
 8003484:	f003 0303 	and.w	r3, r3, #3
 8003488:	708b      	strb	r3, [r1, #2]
 800348a:	f890 3066 	ldrb.w	r3, [r0, #102]	; 0x66
 800348e:	70cb      	strb	r3, [r1, #3]
 8003490:	f890 3065 	ldrb.w	r3, [r0, #101]	; 0x65
 8003494:	710b      	strb	r3, [r1, #4]
 8003496:	f890 3064 	ldrb.w	r3, [r0, #100]	; 0x64
 800349a:	714b      	strb	r3, [r1, #5]
 800349c:	6e83      	ldr	r3, [r0, #104]	; 0x68
 800349e:	0d1b      	lsrs	r3, r3, #20
 80034a0:	80cb      	strh	r3, [r1, #6]
 80034a2:	f8b0 306a 	ldrh.w	r3, [r0, #106]	; 0x6a
 80034a6:	f003 030f 	and.w	r3, r3, #15
 80034aa:	720b      	strb	r3, [r1, #8]
 80034ac:	6e83      	ldr	r3, [r0, #104]	; 0x68
 80034ae:	f3c3 33c0 	ubfx	r3, r3, #15, #1
 80034b2:	724b      	strb	r3, [r1, #9]
 80034b4:	6e83      	ldr	r3, [r0, #104]	; 0x68
 80034b6:	f3c3 3380 	ubfx	r3, r3, #14, #1
 80034ba:	728b      	strb	r3, [r1, #10]
 80034bc:	6e83      	ldr	r3, [r0, #104]	; 0x68
 80034be:	f3c3 3340 	ubfx	r3, r3, #13, #1
 80034c2:	72cb      	strb	r3, [r1, #11]
 80034c4:	6e83      	ldr	r3, [r0, #104]	; 0x68
 80034c6:	f3c3 3300 	ubfx	r3, r3, #12, #1
 80034ca:	730b      	strb	r3, [r1, #12]
 80034cc:	2300      	movs	r3, #0
 80034ce:	734b      	strb	r3, [r1, #13]
 80034d0:	6c43      	ldr	r3, [r0, #68]	; 0x44
 80034d2:	2b00      	cmp	r3, #0
 80034d4:	f040 8088 	bne.w	80035e8 <HAL_SD_GetCardCSD+0x178>
 80034d8:	6e82      	ldr	r2, [r0, #104]	; 0x68
 80034da:	f640 73fc 	movw	r3, #4092	; 0xffc
 80034de:	ea03 0382 	and.w	r3, r3, r2, lsl #2
 80034e2:	6ec2      	ldr	r2, [r0, #108]	; 0x6c
 80034e4:	ea43 7392 	orr.w	r3, r3, r2, lsr #30
 80034e8:	610b      	str	r3, [r1, #16]
 80034ea:	6ec3      	ldr	r3, [r0, #108]	; 0x6c
 80034ec:	f3c3 63c2 	ubfx	r3, r3, #27, #3
 80034f0:	750b      	strb	r3, [r1, #20]
 80034f2:	f890 306f 	ldrb.w	r3, [r0, #111]	; 0x6f
 80034f6:	f003 0307 	and.w	r3, r3, #7
 80034fa:	754b      	strb	r3, [r1, #21]
 80034fc:	6ec3      	ldr	r3, [r0, #108]	; 0x6c
 80034fe:	f3c3 5342 	ubfx	r3, r3, #21, #3
 8003502:	758b      	strb	r3, [r1, #22]
 8003504:	6ec3      	ldr	r3, [r0, #108]	; 0x6c
 8003506:	f3c3 4382 	ubfx	r3, r3, #18, #3
 800350a:	75cb      	strb	r3, [r1, #23]
 800350c:	6ec3      	ldr	r3, [r0, #108]	; 0x6c
 800350e:	f3c3 33c2 	ubfx	r3, r3, #15, #3
 8003512:	760b      	strb	r3, [r1, #24]
 8003514:	690b      	ldr	r3, [r1, #16]
 8003516:	3301      	adds	r3, #1
 8003518:	6543      	str	r3, [r0, #84]	; 0x54
 800351a:	7e0a      	ldrb	r2, [r1, #24]
 800351c:	f002 0207 	and.w	r2, r2, #7
 8003520:	3202      	adds	r2, #2
 8003522:	fa03 f202 	lsl.w	r2, r3, r2
 8003526:	6542      	str	r2, [r0, #84]	; 0x54
 8003528:	7a0b      	ldrb	r3, [r1, #8]
 800352a:	f003 040f 	and.w	r4, r3, #15
 800352e:	2301      	movs	r3, #1
 8003530:	40a3      	lsls	r3, r4
 8003532:	6583      	str	r3, [r0, #88]	; 0x58
 8003534:	0a5b      	lsrs	r3, r3, #9
 8003536:	fb03 f302 	mul.w	r3, r3, r2
 800353a:	65c3      	str	r3, [r0, #92]	; 0x5c
 800353c:	f44f 7300 	mov.w	r3, #512	; 0x200
 8003540:	6603      	str	r3, [r0, #96]	; 0x60
 8003542:	6ec3      	ldr	r3, [r0, #108]	; 0x6c
 8003544:	f3c3 3380 	ubfx	r3, r3, #14, #1
 8003548:	764b      	strb	r3, [r1, #25]
 800354a:	6ec3      	ldr	r3, [r0, #108]	; 0x6c
 800354c:	f3c3 13c6 	ubfx	r3, r3, #7, #7
 8003550:	768b      	strb	r3, [r1, #26]
 8003552:	6ec3      	ldr	r3, [r0, #108]	; 0x6c
 8003554:	f003 037f 	and.w	r3, r3, #127	; 0x7f
 8003558:	76cb      	strb	r3, [r1, #27]
 800355a:	6f03      	ldr	r3, [r0, #112]	; 0x70
 800355c:	0fdb      	lsrs	r3, r3, #31
 800355e:	770b      	strb	r3, [r1, #28]
 8003560:	6f03      	ldr	r3, [r0, #112]	; 0x70
 8003562:	f3c3 7341 	ubfx	r3, r3, #29, #2
 8003566:	774b      	strb	r3, [r1, #29]
 8003568:	6f03      	ldr	r3, [r0, #112]	; 0x70
 800356a:	f3c3 6382 	ubfx	r3, r3, #26, #3
 800356e:	778b      	strb	r3, [r1, #30]
 8003570:	6f03      	ldr	r3, [r0, #112]	; 0x70
 8003572:	f3c3 5383 	ubfx	r3, r3, #22, #4
 8003576:	77cb      	strb	r3, [r1, #31]
 8003578:	6f03      	ldr	r3, [r0, #112]	; 0x70
 800357a:	f3c3 5340 	ubfx	r3, r3, #21, #1
 800357e:	f881 3020 	strb.w	r3, [r1, #32]
 8003582:	2300      	movs	r3, #0
 8003584:	f881 3021 	strb.w	r3, [r1, #33]	; 0x21
 8003588:	f8b0 2072 	ldrh.w	r2, [r0, #114]	; 0x72
 800358c:	f002 0201 	and.w	r2, r2, #1
 8003590:	f881 2022 	strb.w	r2, [r1, #34]	; 0x22
 8003594:	6f02      	ldr	r2, [r0, #112]	; 0x70
 8003596:	f3c2 32c0 	ubfx	r2, r2, #15, #1
 800359a:	f881 2023 	strb.w	r2, [r1, #35]	; 0x23
 800359e:	6f02      	ldr	r2, [r0, #112]	; 0x70
 80035a0:	f3c2 3280 	ubfx	r2, r2, #14, #1
 80035a4:	f881 2024 	strb.w	r2, [r1, #36]	; 0x24
 80035a8:	6f02      	ldr	r2, [r0, #112]	; 0x70
 80035aa:	f3c2 3240 	ubfx	r2, r2, #13, #1
 80035ae:	f881 2025 	strb.w	r2, [r1, #37]	; 0x25
 80035b2:	6f02      	ldr	r2, [r0, #112]	; 0x70
 80035b4:	f3c2 3200 	ubfx	r2, r2, #12, #1
 80035b8:	f881 2026 	strb.w	r2, [r1, #38]	; 0x26
 80035bc:	6f02      	ldr	r2, [r0, #112]	; 0x70
 80035be:	f3c2 2281 	ubfx	r2, r2, #10, #2
 80035c2:	f881 2027 	strb.w	r2, [r1, #39]	; 0x27
 80035c6:	6f02      	ldr	r2, [r0, #112]	; 0x70
 80035c8:	f3c2 2201 	ubfx	r2, r2, #8, #2
 80035cc:	f881 2028 	strb.w	r2, [r1, #40]	; 0x28
 80035d0:	6f02      	ldr	r2, [r0, #112]	; 0x70
 80035d2:	f3c2 0246 	ubfx	r2, r2, #1, #7
 80035d6:	f881 2029 	strb.w	r2, [r1, #41]	; 0x29
 80035da:	2201      	movs	r2, #1
 80035dc:	f881 202a 	strb.w	r2, [r1, #42]	; 0x2a
 80035e0:	4618      	mov	r0, r3
 80035e2:	f85d 4b04 	ldr.w	r4, [sp], #4
 80035e6:	4770      	bx	lr
 80035e8:	2b01      	cmp	r3, #1
 80035ea:	d111      	bne.n	8003610 <HAL_SD_GetCardCSD+0x1a0>
 80035ec:	6e83      	ldr	r3, [r0, #104]	; 0x68
 80035ee:	041b      	lsls	r3, r3, #16
 80035f0:	f403 137c 	and.w	r3, r3, #4128768	; 0x3f0000
 80035f4:	f8b0 206e 	ldrh.w	r2, [r0, #110]	; 0x6e
 80035f8:	4313      	orrs	r3, r2
 80035fa:	610b      	str	r3, [r1, #16]
 80035fc:	690b      	ldr	r3, [r1, #16]
 80035fe:	3301      	adds	r3, #1
 8003600:	029b      	lsls	r3, r3, #10
 8003602:	6543      	str	r3, [r0, #84]	; 0x54
 8003604:	65c3      	str	r3, [r0, #92]	; 0x5c
 8003606:	f44f 7300 	mov.w	r3, #512	; 0x200
 800360a:	6583      	str	r3, [r0, #88]	; 0x58
 800360c:	6603      	str	r3, [r0, #96]	; 0x60
 800360e:	e798      	b.n	8003542 <HAL_SD_GetCardCSD+0xd2>
 8003610:	6803      	ldr	r3, [r0, #0]
 8003612:	4a05      	ldr	r2, [pc, #20]	; (8003628 <HAL_SD_GetCardCSD+0x1b8>)
 8003614:	639a      	str	r2, [r3, #56]	; 0x38
 8003616:	6b83      	ldr	r3, [r0, #56]	; 0x38
 8003618:	f043 5380 	orr.w	r3, r3, #268435456	; 0x10000000
 800361c:	6383      	str	r3, [r0, #56]	; 0x38
 800361e:	2301      	movs	r3, #1
 8003620:	f880 3034 	strb.w	r3, [r0, #52]	; 0x34
 8003624:	4618      	mov	r0, r3
 8003626:	e7dc      	b.n	80035e2 <HAL_SD_GetCardCSD+0x172>
 8003628:	004005ff 	.word	0x004005ff

0800362c <SD_InitCard>:
 800362c:	b570      	push	{r4, r5, r6, lr}
 800362e:	b090      	sub	sp, #64	; 0x40
 8003630:	4604      	mov	r4, r0
 8003632:	2301      	movs	r3, #1
 8003634:	f8ad 3012 	strh.w	r3, [sp, #18]
 8003638:	6800      	ldr	r0, [r0, #0]
 800363a:	f7ff f833 	bl	80026a4 <SDIO_GetPowerState>
 800363e:	2800      	cmp	r0, #0
 8003640:	d06c      	beq.n	800371c <SD_InitCard+0xf0>
 8003642:	6c63      	ldr	r3, [r4, #68]	; 0x44
 8003644:	2b03      	cmp	r3, #3
 8003646:	d145      	bne.n	80036d4 <SD_InitCard+0xa8>
 8003648:	6c63      	ldr	r3, [r4, #68]	; 0x44
 800364a:	2b03      	cmp	r3, #3
 800364c:	d15d      	bne.n	800370a <SD_InitCard+0xde>
 800364e:	6c63      	ldr	r3, [r4, #68]	; 0x44
 8003650:	2b03      	cmp	r3, #3
 8003652:	d01d      	beq.n	8003690 <SD_InitCard+0x64>
 8003654:	f8bd 1012 	ldrh.w	r1, [sp, #18]
 8003658:	6521      	str	r1, [r4, #80]	; 0x50
 800365a:	0409      	lsls	r1, r1, #16
 800365c:	6820      	ldr	r0, [r4, #0]
 800365e:	f7ff fa93 	bl	8002b88 <SDMMC_CmdSendCSD>
 8003662:	4605      	mov	r5, r0
 8003664:	2800      	cmp	r0, #0
 8003666:	d15b      	bne.n	8003720 <SD_InitCard+0xf4>
 8003668:	2100      	movs	r1, #0
 800366a:	6820      	ldr	r0, [r4, #0]
 800366c:	f7ff f833 	bl	80026d6 <SDIO_GetResponse>
 8003670:	6660      	str	r0, [r4, #100]	; 0x64
 8003672:	2104      	movs	r1, #4
 8003674:	6820      	ldr	r0, [r4, #0]
 8003676:	f7ff f82e 	bl	80026d6 <SDIO_GetResponse>
 800367a:	66a0      	str	r0, [r4, #104]	; 0x68
 800367c:	2108      	movs	r1, #8
 800367e:	6820      	ldr	r0, [r4, #0]
 8003680:	f7ff f829 	bl	80026d6 <SDIO_GetResponse>
 8003684:	66e0      	str	r0, [r4, #108]	; 0x6c
 8003686:	210c      	movs	r1, #12
 8003688:	6820      	ldr	r0, [r4, #0]
 800368a:	f7ff f824 	bl	80026d6 <SDIO_GetResponse>
 800368e:	6720      	str	r0, [r4, #112]	; 0x70
 8003690:	2104      	movs	r1, #4
 8003692:	6820      	ldr	r0, [r4, #0]
 8003694:	f7ff f81f 	bl	80026d6 <SDIO_GetResponse>
 8003698:	0d00      	lsrs	r0, r0, #20
 800369a:	64e0      	str	r0, [r4, #76]	; 0x4c
 800369c:	a905      	add	r1, sp, #20
 800369e:	4620      	mov	r0, r4
 80036a0:	f7ff fee6 	bl	8003470 <HAL_SD_GetCardCSD>
 80036a4:	2800      	cmp	r0, #0
 80036a6:	d13e      	bne.n	8003726 <SD_InitCard+0xfa>
 80036a8:	6d22      	ldr	r2, [r4, #80]	; 0x50
 80036aa:	0412      	lsls	r2, r2, #16
 80036ac:	2300      	movs	r3, #0
 80036ae:	6820      	ldr	r0, [r4, #0]
 80036b0:	f7ff f9b2 	bl	8002a18 <SDMMC_CmdSelDesel>
 80036b4:	4605      	mov	r5, r0
 80036b6:	bb98      	cbnz	r0, 8003720 <SD_InitCard+0xf4>
 80036b8:	4623      	mov	r3, r4
 80036ba:	f853 6b10 	ldr.w	r6, [r3], #16
 80036be:	e893 0007 	ldmia.w	r3, {r0, r1, r2}
 80036c2:	e88d 0007 	stmia.w	sp, {r0, r1, r2}
 80036c6:	3404      	adds	r4, #4
 80036c8:	e894 000e 	ldmia.w	r4, {r1, r2, r3}
 80036cc:	4630      	mov	r0, r6
 80036ce:	f7fe ffbd 	bl	800264c <SDIO_Init>
 80036d2:	e025      	b.n	8003720 <SD_InitCard+0xf4>
 80036d4:	6820      	ldr	r0, [r4, #0]
 80036d6:	f7ff fa42 	bl	8002b5e <SDMMC_CmdSendCID>
 80036da:	4605      	mov	r5, r0
 80036dc:	bb00      	cbnz	r0, 8003720 <SD_InitCard+0xf4>
 80036de:	2100      	movs	r1, #0
 80036e0:	6820      	ldr	r0, [r4, #0]
 80036e2:	f7fe fff8 	bl	80026d6 <SDIO_GetResponse>
 80036e6:	6760      	str	r0, [r4, #116]	; 0x74
 80036e8:	2104      	movs	r1, #4
 80036ea:	6820      	ldr	r0, [r4, #0]
 80036ec:	f7fe fff3 	bl	80026d6 <SDIO_GetResponse>
 80036f0:	67a0      	str	r0, [r4, #120]	; 0x78
 80036f2:	2108      	movs	r1, #8
 80036f4:	6820      	ldr	r0, [r4, #0]
 80036f6:	f7fe ffee 	bl	80026d6 <SDIO_GetResponse>
 80036fa:	67e0      	str	r0, [r4, #124]	; 0x7c
 80036fc:	210c      	movs	r1, #12
 80036fe:	6820      	ldr	r0, [r4, #0]
 8003700:	f7fe ffe9 	bl	80026d6 <SDIO_GetResponse>
 8003704:	f8c4 0080 	str.w	r0, [r4, #128]	; 0x80
 8003708:	e79e      	b.n	8003648 <SD_InitCard+0x1c>
 800370a:	f10d 0112 	add.w	r1, sp, #18
 800370e:	6820      	ldr	r0, [r4, #0]
 8003710:	f7ff fa4f 	bl	8002bb2 <SDMMC_CmdSetRelAdd>
 8003714:	4605      	mov	r5, r0
 8003716:	2800      	cmp	r0, #0
 8003718:	d099      	beq.n	800364e <SD_InitCard+0x22>
 800371a:	e001      	b.n	8003720 <SD_InitCard+0xf4>
 800371c:	f04f 6580 	mov.w	r5, #67108864	; 0x4000000
 8003720:	4628      	mov	r0, r5
 8003722:	b010      	add	sp, #64	; 0x40
 8003724:	bd70      	pop	{r4, r5, r6, pc}
 8003726:	f04f 5580 	mov.w	r5, #268435456	; 0x10000000
 800372a:	e7f9      	b.n	8003720 <SD_InitCard+0xf4>

0800372c <HAL_SD_InitCard>:
 800372c:	b570      	push	{r4, r5, r6, lr}
 800372e:	b08a      	sub	sp, #40	; 0x28
 8003730:	4604      	mov	r4, r0
 8003732:	2300      	movs	r3, #0
 8003734:	9304      	str	r3, [sp, #16]
 8003736:	9305      	str	r3, [sp, #20]
 8003738:	9306      	str	r3, [sp, #24]
 800373a:	9307      	str	r3, [sp, #28]
 800373c:	9308      	str	r3, [sp, #32]
 800373e:	2376      	movs	r3, #118	; 0x76
 8003740:	9309      	str	r3, [sp, #36]	; 0x24
 8003742:	ab0a      	add	r3, sp, #40	; 0x28
 8003744:	e913 0007 	ldmdb	r3, {r0, r1, r2}
 8003748:	e88d 0007 	stmia.w	sp, {r0, r1, r2}
 800374c:	ab04      	add	r3, sp, #16
 800374e:	cb0e      	ldmia	r3, {r1, r2, r3}
 8003750:	6820      	ldr	r0, [r4, #0]
 8003752:	f7fe ff7b 	bl	800264c <SDIO_Init>
 8003756:	b118      	cbz	r0, 8003760 <HAL_SD_InitCard+0x34>
 8003758:	2501      	movs	r5, #1
 800375a:	4628      	mov	r0, r5
 800375c:	b00a      	add	sp, #40	; 0x28
 800375e:	bd70      	pop	{r4, r5, r6, pc}
 8003760:	4605      	mov	r5, r0
 8003762:	4e17      	ldr	r6, [pc, #92]	; (80037c0 <HAL_SD_InitCard+0x94>)
 8003764:	2300      	movs	r3, #0
 8003766:	6033      	str	r3, [r6, #0]
 8003768:	6820      	ldr	r0, [r4, #0]
 800376a:	f7fe ff93 	bl	8002694 <SDIO_PowerState_ON>
 800376e:	2301      	movs	r3, #1
 8003770:	6033      	str	r3, [r6, #0]
 8003772:	4620      	mov	r0, r4
 8003774:	f7ff fa66 	bl	8002c44 <SD_PowerON>
 8003778:	b130      	cbz	r0, 8003788 <HAL_SD_InitCard+0x5c>
 800377a:	2501      	movs	r5, #1
 800377c:	f884 5034 	strb.w	r5, [r4, #52]	; 0x34
 8003780:	6ba3      	ldr	r3, [r4, #56]	; 0x38
 8003782:	4303      	orrs	r3, r0
 8003784:	63a3      	str	r3, [r4, #56]	; 0x38
 8003786:	e7e8      	b.n	800375a <HAL_SD_InitCard+0x2e>
 8003788:	4620      	mov	r0, r4
 800378a:	f7ff ff4f 	bl	800362c <SD_InitCard>
 800378e:	b130      	cbz	r0, 800379e <HAL_SD_InitCard+0x72>
 8003790:	2501      	movs	r5, #1
 8003792:	f884 5034 	strb.w	r5, [r4, #52]	; 0x34
 8003796:	6ba3      	ldr	r3, [r4, #56]	; 0x38
 8003798:	4303      	orrs	r3, r0
 800379a:	63a3      	str	r3, [r4, #56]	; 0x38
 800379c:	e7dd      	b.n	800375a <HAL_SD_InitCard+0x2e>
 800379e:	f44f 7100 	mov.w	r1, #512	; 0x200
 80037a2:	6820      	ldr	r0, [r4, #0]
 80037a4:	f7ff f8a6 	bl	80028f4 <SDMMC_CmdBlockLength>
 80037a8:	2800      	cmp	r0, #0
 80037aa:	d0d6      	beq.n	800375a <HAL_SD_InitCard+0x2e>
 80037ac:	6823      	ldr	r3, [r4, #0]
 80037ae:	4905      	ldr	r1, [pc, #20]	; (80037c4 <HAL_SD_InitCard+0x98>)
 80037b0:	6399      	str	r1, [r3, #56]	; 0x38
 80037b2:	6ba3      	ldr	r3, [r4, #56]	; 0x38
 80037b4:	4303      	orrs	r3, r0
 80037b6:	63a3      	str	r3, [r4, #56]	; 0x38
 80037b8:	2501      	movs	r5, #1
 80037ba:	f884 5034 	strb.w	r5, [r4, #52]	; 0x34
 80037be:	e7cc      	b.n	800375a <HAL_SD_InitCard+0x2e>
 80037c0:	422580a0 	.word	0x422580a0
 80037c4:	004005ff 	.word	0x004005ff

080037c8 <HAL_SD_Init>:
 80037c8:	b1a8      	cbz	r0, 80037f6 <HAL_SD_Init+0x2e>
 80037ca:	b510      	push	{r4, lr}
 80037cc:	4604      	mov	r4, r0
 80037ce:	f890 3034 	ldrb.w	r3, [r0, #52]	; 0x34
 80037d2:	b163      	cbz	r3, 80037ee <HAL_SD_Init+0x26>
 80037d4:	2303      	movs	r3, #3
 80037d6:	f884 3034 	strb.w	r3, [r4, #52]	; 0x34
 80037da:	4620      	mov	r0, r4
 80037dc:	f7ff ffa6 	bl	800372c <HAL_SD_InitCard>
 80037e0:	b958      	cbnz	r0, 80037fa <HAL_SD_Init+0x32>
 80037e2:	63a0      	str	r0, [r4, #56]	; 0x38
 80037e4:	6320      	str	r0, [r4, #48]	; 0x30
 80037e6:	2301      	movs	r3, #1
 80037e8:	f884 3034 	strb.w	r3, [r4, #52]	; 0x34
 80037ec:	bd10      	pop	{r4, pc}
 80037ee:	7703      	strb	r3, [r0, #28]
 80037f0:	f7fd fdfc 	bl	80013ec <HAL_SD_MspInit>
 80037f4:	e7ee      	b.n	80037d4 <HAL_SD_Init+0xc>
 80037f6:	2001      	movs	r0, #1
 80037f8:	4770      	bx	lr
 80037fa:	2001      	movs	r0, #1
 80037fc:	e7f6      	b.n	80037ec <HAL_SD_Init+0x24>
	...

08003800 <HAL_SD_GetCardStatus>:
 8003800:	b530      	push	{r4, r5, lr}
 8003802:	b091      	sub	sp, #68	; 0x44
 8003804:	4605      	mov	r5, r0
 8003806:	460c      	mov	r4, r1
 8003808:	4669      	mov	r1, sp
 800380a:	f7ff fa7b 	bl	8002d04 <SD_SendSDStatus>
 800380e:	b1c0      	cbz	r0, 8003842 <HAL_SD_GetCardStatus+0x42>
 8003810:	682b      	ldr	r3, [r5, #0]
 8003812:	4925      	ldr	r1, [pc, #148]	; (80038a8 <HAL_SD_GetCardStatus+0xa8>)
 8003814:	6399      	str	r1, [r3, #56]	; 0x38
 8003816:	6bab      	ldr	r3, [r5, #56]	; 0x38
 8003818:	4303      	orrs	r3, r0
 800381a:	63ab      	str	r3, [r5, #56]	; 0x38
 800381c:	2401      	movs	r4, #1
 800381e:	f885 4034 	strb.w	r4, [r5, #52]	; 0x34
 8003822:	f44f 7100 	mov.w	r1, #512	; 0x200
 8003826:	6828      	ldr	r0, [r5, #0]
 8003828:	f7ff f864 	bl	80028f4 <SDMMC_CmdBlockLength>
 800382c:	b130      	cbz	r0, 800383c <HAL_SD_GetCardStatus+0x3c>
 800382e:	682a      	ldr	r2, [r5, #0]
 8003830:	491d      	ldr	r1, [pc, #116]	; (80038a8 <HAL_SD_GetCardStatus+0xa8>)
 8003832:	6391      	str	r1, [r2, #56]	; 0x38
 8003834:	63a8      	str	r0, [r5, #56]	; 0x38
 8003836:	2401      	movs	r4, #1
 8003838:	f885 4034 	strb.w	r4, [r5, #52]	; 0x34
 800383c:	4620      	mov	r0, r4
 800383e:	b011      	add	sp, #68	; 0x44
 8003840:	bd30      	pop	{r4, r5, pc}
 8003842:	9a00      	ldr	r2, [sp, #0]
 8003844:	f3c2 1381 	ubfx	r3, r2, #6, #2
 8003848:	7023      	strb	r3, [r4, #0]
 800384a:	f3c2 1340 	ubfx	r3, r2, #5, #1
 800384e:	7063      	strb	r3, [r4, #1]
 8003850:	0a13      	lsrs	r3, r2, #8
 8003852:	f023 03ff 	bic.w	r3, r3, #255	; 0xff
 8003856:	ea43 6312 	orr.w	r3, r3, r2, lsr #24
 800385a:	b29b      	uxth	r3, r3
 800385c:	8063      	strh	r3, [r4, #2]
 800385e:	9a01      	ldr	r2, [sp, #4]
 8003860:	0213      	lsls	r3, r2, #8
 8003862:	f403 037f 	and.w	r3, r3, #16711680	; 0xff0000
 8003866:	ea43 6302 	orr.w	r3, r3, r2, lsl #24
 800386a:	0a11      	lsrs	r1, r2, #8
 800386c:	f401 417f 	and.w	r1, r1, #65280	; 0xff00
 8003870:	430b      	orrs	r3, r1
 8003872:	ea43 6312 	orr.w	r3, r3, r2, lsr #24
 8003876:	6063      	str	r3, [r4, #4]
 8003878:	9b02      	ldr	r3, [sp, #8]
 800387a:	b2da      	uxtb	r2, r3
 800387c:	7222      	strb	r2, [r4, #8]
 800387e:	f3c3 2207 	ubfx	r2, r3, #8, #8
 8003882:	7262      	strb	r2, [r4, #9]
 8003884:	f3c3 5203 	ubfx	r2, r3, #20, #4
 8003888:	72a2      	strb	r2, [r4, #10]
 800388a:	0c1b      	lsrs	r3, r3, #16
 800388c:	9a03      	ldr	r2, [sp, #12]
 800388e:	b2d1      	uxtb	r1, r2
 8003890:	f023 03ff 	bic.w	r3, r3, #255	; 0xff
 8003894:	430b      	orrs	r3, r1
 8003896:	81a3      	strh	r3, [r4, #12]
 8003898:	f3c2 2385 	ubfx	r3, r2, #10, #6
 800389c:	73a3      	strb	r3, [r4, #14]
 800389e:	f3c2 2201 	ubfx	r2, r2, #8, #2
 80038a2:	73e2      	strb	r2, [r4, #15]
 80038a4:	2400      	movs	r4, #0
 80038a6:	e7bc      	b.n	8003822 <HAL_SD_GetCardStatus+0x22>
 80038a8:	004005ff 	.word	0x004005ff

080038ac <HAL_SD_GetCardInfo>:
 80038ac:	6c43      	ldr	r3, [r0, #68]	; 0x44
 80038ae:	600b      	str	r3, [r1, #0]
 80038b0:	6c83      	ldr	r3, [r0, #72]	; 0x48
 80038b2:	604b      	str	r3, [r1, #4]
 80038b4:	6cc3      	ldr	r3, [r0, #76]	; 0x4c
 80038b6:	608b      	str	r3, [r1, #8]
 80038b8:	6d03      	ldr	r3, [r0, #80]	; 0x50
 80038ba:	60cb      	str	r3, [r1, #12]
 80038bc:	6d43      	ldr	r3, [r0, #84]	; 0x54
 80038be:	610b      	str	r3, [r1, #16]
 80038c0:	6d83      	ldr	r3, [r0, #88]	; 0x58
 80038c2:	614b      	str	r3, [r1, #20]
 80038c4:	6dc3      	ldr	r3, [r0, #92]	; 0x5c
 80038c6:	618b      	str	r3, [r1, #24]
 80038c8:	6e03      	ldr	r3, [r0, #96]	; 0x60
 80038ca:	61cb      	str	r3, [r1, #28]
 80038cc:	2000      	movs	r0, #0
 80038ce:	4770      	bx	lr

080038d0 <HAL_SD_ConfigWideBusOperation>:
 80038d0:	b530      	push	{r4, r5, lr}
 80038d2:	b08b      	sub	sp, #44	; 0x2c
 80038d4:	4604      	mov	r4, r0
 80038d6:	460d      	mov	r5, r1
 80038d8:	2303      	movs	r3, #3
 80038da:	f880 3034 	strb.w	r3, [r0, #52]	; 0x34
 80038de:	6c43      	ldr	r3, [r0, #68]	; 0x44
 80038e0:	2b03      	cmp	r3, #3
 80038e2:	d01c      	beq.n	800391e <HAL_SD_ConfigWideBusOperation+0x4e>
 80038e4:	f5b1 5f80 	cmp.w	r1, #4096	; 0x1000
 80038e8:	d008      	beq.n	80038fc <HAL_SD_ConfigWideBusOperation+0x2c>
 80038ea:	f5b1 6f00 	cmp.w	r1, #2048	; 0x800
 80038ee:	d00a      	beq.n	8003906 <HAL_SD_ConfigWideBusOperation+0x36>
 80038f0:	b179      	cbz	r1, 8003912 <HAL_SD_ConfigWideBusOperation+0x42>
 80038f2:	6b83      	ldr	r3, [r0, #56]	; 0x38
 80038f4:	f043 6300 	orr.w	r3, r3, #134217728	; 0x8000000
 80038f8:	6383      	str	r3, [r0, #56]	; 0x38
 80038fa:	e014      	b.n	8003926 <HAL_SD_ConfigWideBusOperation+0x56>
 80038fc:	6b83      	ldr	r3, [r0, #56]	; 0x38
 80038fe:	f043 5380 	orr.w	r3, r3, #268435456	; 0x10000000
 8003902:	6383      	str	r3, [r0, #56]	; 0x38
 8003904:	e00f      	b.n	8003926 <HAL_SD_ConfigWideBusOperation+0x56>
 8003906:	f7ff fb00 	bl	8002f0a <SD_WideBus_Enable>
 800390a:	6ba3      	ldr	r3, [r4, #56]	; 0x38
 800390c:	4303      	orrs	r3, r0
 800390e:	63a3      	str	r3, [r4, #56]	; 0x38
 8003910:	e009      	b.n	8003926 <HAL_SD_ConfigWideBusOperation+0x56>
 8003912:	f7ff fb21 	bl	8002f58 <SD_WideBus_Disable>
 8003916:	6ba3      	ldr	r3, [r4, #56]	; 0x38
 8003918:	4303      	orrs	r3, r0
 800391a:	63a3      	str	r3, [r4, #56]	; 0x38
 800391c:	e003      	b.n	8003926 <HAL_SD_ConfigWideBusOperation+0x56>
 800391e:	6b83      	ldr	r3, [r0, #56]	; 0x38
 8003920:	f043 5380 	orr.w	r3, r3, #268435456	; 0x10000000
 8003924:	6383      	str	r3, [r0, #56]	; 0x38
 8003926:	6ba3      	ldr	r3, [r4, #56]	; 0x38
 8003928:	b1c3      	cbz	r3, 800395c <HAL_SD_ConfigWideBusOperation+0x8c>
 800392a:	6823      	ldr	r3, [r4, #0]
 800392c:	4a17      	ldr	r2, [pc, #92]	; (800398c <HAL_SD_ConfigWideBusOperation+0xbc>)
 800392e:	639a      	str	r2, [r3, #56]	; 0x38
 8003930:	2501      	movs	r5, #1
 8003932:	f884 5034 	strb.w	r5, [r4, #52]	; 0x34
 8003936:	f44f 7100 	mov.w	r1, #512	; 0x200
 800393a:	6820      	ldr	r0, [r4, #0]
 800393c:	f7fe ffda 	bl	80028f4 <SDMMC_CmdBlockLength>
 8003940:	b130      	cbz	r0, 8003950 <HAL_SD_ConfigWideBusOperation+0x80>
 8003942:	6823      	ldr	r3, [r4, #0]
 8003944:	4911      	ldr	r1, [pc, #68]	; (800398c <HAL_SD_ConfigWideBusOperation+0xbc>)
 8003946:	6399      	str	r1, [r3, #56]	; 0x38
 8003948:	6ba3      	ldr	r3, [r4, #56]	; 0x38
 800394a:	4303      	orrs	r3, r0
 800394c:	63a3      	str	r3, [r4, #56]	; 0x38
 800394e:	2501      	movs	r5, #1
 8003950:	2301      	movs	r3, #1
 8003952:	f884 3034 	strb.w	r3, [r4, #52]	; 0x34
 8003956:	4628      	mov	r0, r5
 8003958:	b00b      	add	sp, #44	; 0x2c
 800395a:	bd30      	pop	{r4, r5, pc}
 800395c:	6863      	ldr	r3, [r4, #4]
 800395e:	9304      	str	r3, [sp, #16]
 8003960:	68a3      	ldr	r3, [r4, #8]
 8003962:	9305      	str	r3, [sp, #20]
 8003964:	68e3      	ldr	r3, [r4, #12]
 8003966:	9306      	str	r3, [sp, #24]
 8003968:	9507      	str	r5, [sp, #28]
 800396a:	6963      	ldr	r3, [r4, #20]
 800396c:	9308      	str	r3, [sp, #32]
 800396e:	69a3      	ldr	r3, [r4, #24]
 8003970:	9309      	str	r3, [sp, #36]	; 0x24
 8003972:	ab0a      	add	r3, sp, #40	; 0x28
 8003974:	e913 0007 	ldmdb	r3, {r0, r1, r2}
 8003978:	e88d 0007 	stmia.w	sp, {r0, r1, r2}
 800397c:	ab04      	add	r3, sp, #16
 800397e:	cb0e      	ldmia	r3, {r1, r2, r3}
 8003980:	6820      	ldr	r0, [r4, #0]
 8003982:	f7fe fe63 	bl	800264c <SDIO_Init>
 8003986:	2500      	movs	r5, #0
 8003988:	e7d5      	b.n	8003936 <HAL_SD_ConfigWideBusOperation+0x66>
 800398a:	bf00      	nop
 800398c:	004005ff 	.word	0x004005ff

08003990 <HAL_SD_GetCardState>:
 8003990:	b510      	push	{r4, lr}
 8003992:	b082      	sub	sp, #8
 8003994:	4604      	mov	r4, r0
 8003996:	2300      	movs	r3, #0
 8003998:	9301      	str	r3, [sp, #4]
 800399a:	a901      	add	r1, sp, #4
 800399c:	f7ff fb03 	bl	8002fa6 <SD_SendStatus>
 80039a0:	b110      	cbz	r0, 80039a8 <HAL_SD_GetCardState+0x18>
 80039a2:	6ba3      	ldr	r3, [r4, #56]	; 0x38
 80039a4:	4303      	orrs	r3, r0
 80039a6:	63a3      	str	r3, [r4, #56]	; 0x38
 80039a8:	9801      	ldr	r0, [sp, #4]
 80039aa:	f3c0 2043 	ubfx	r0, r0, #9, #4
 80039ae:	b002      	add	sp, #8
 80039b0:	bd10      	pop	{r4, pc}
	...

080039b4 <SPI_WaitFlagStateUntilTimeout>:
 80039b4:	e92d 47f0 	stmdb	sp!, {r4, r5, r6, r7, r8, r9, sl, lr}
 80039b8:	b082      	sub	sp, #8
 80039ba:	4605      	mov	r5, r0
 80039bc:	4688      	mov	r8, r1
 80039be:	4617      	mov	r7, r2
 80039c0:	461e      	mov	r6, r3
 80039c2:	f7fe fd87 	bl	80024d4 <HAL_GetTick>
 80039c6:	9b0a      	ldr	r3, [sp, #40]	; 0x28
 80039c8:	1a1b      	subs	r3, r3, r0
 80039ca:	eb03 0906 	add.w	r9, r3, r6
 80039ce:	f7fe fd81 	bl	80024d4 <HAL_GetTick>
 80039d2:	4682      	mov	sl, r0
 80039d4:	4b2a      	ldr	r3, [pc, #168]	; (8003a80 <SPI_WaitFlagStateUntilTimeout+0xcc>)
 80039d6:	681b      	ldr	r3, [r3, #0]
 80039d8:	f3c3 33cb 	ubfx	r3, r3, #15, #12
 80039dc:	fb09 f303 	mul.w	r3, r9, r3
 80039e0:	9301      	str	r3, [sp, #4]
 80039e2:	682b      	ldr	r3, [r5, #0]
 80039e4:	689c      	ldr	r4, [r3, #8]
 80039e6:	ea38 0304 	bics.w	r3, r8, r4
 80039ea:	bf0c      	ite	eq
 80039ec:	2401      	moveq	r4, #1
 80039ee:	2400      	movne	r4, #0
 80039f0:	42bc      	cmp	r4, r7
 80039f2:	d040      	beq.n	8003a76 <SPI_WaitFlagStateUntilTimeout+0xc2>
 80039f4:	f1b6 3fff 	cmp.w	r6, #4294967295	; 0xffffffff
 80039f8:	d0f3      	beq.n	80039e2 <SPI_WaitFlagStateUntilTimeout+0x2e>
 80039fa:	f7fe fd6b 	bl	80024d4 <HAL_GetTick>
 80039fe:	eba0 000a 	sub.w	r0, r0, sl
 8003a02:	4548      	cmp	r0, r9
 8003a04:	d20a      	bcs.n	8003a1c <SPI_WaitFlagStateUntilTimeout+0x68>
 8003a06:	f1b9 0f00 	cmp.w	r9, #0
 8003a0a:	d007      	beq.n	8003a1c <SPI_WaitFlagStateUntilTimeout+0x68>
 8003a0c:	9a01      	ldr	r2, [sp, #4]
 8003a0e:	b102      	cbz	r2, 8003a12 <SPI_WaitFlagStateUntilTimeout+0x5e>
 8003a10:	464a      	mov	r2, r9
 8003a12:	9b01      	ldr	r3, [sp, #4]
 8003a14:	3b01      	subs	r3, #1
 8003a16:	9301      	str	r3, [sp, #4]
 8003a18:	4691      	mov	r9, r2
 8003a1a:	e7e2      	b.n	80039e2 <SPI_WaitFlagStateUntilTimeout+0x2e>
 8003a1c:	682a      	ldr	r2, [r5, #0]
 8003a1e:	6853      	ldr	r3, [r2, #4]
 8003a20:	f023 03e0 	bic.w	r3, r3, #224	; 0xe0
 8003a24:	6053      	str	r3, [r2, #4]
 8003a26:	686b      	ldr	r3, [r5, #4]
 8003a28:	f5b3 7f82 	cmp.w	r3, #260	; 0x104
 8003a2c:	d00b      	beq.n	8003a46 <SPI_WaitFlagStateUntilTimeout+0x92>
 8003a2e:	6aab      	ldr	r3, [r5, #40]	; 0x28
 8003a30:	f5b3 5f00 	cmp.w	r3, #8192	; 0x2000
 8003a34:	d014      	beq.n	8003a60 <SPI_WaitFlagStateUntilTimeout+0xac>
 8003a36:	2301      	movs	r3, #1
 8003a38:	f885 3051 	strb.w	r3, [r5, #81]	; 0x51
 8003a3c:	2300      	movs	r3, #0
 8003a3e:	f885 3050 	strb.w	r3, [r5, #80]	; 0x50
 8003a42:	2003      	movs	r0, #3
 8003a44:	e018      	b.n	8003a78 <SPI_WaitFlagStateUntilTimeout+0xc4>
 8003a46:	68ab      	ldr	r3, [r5, #8]
 8003a48:	f5b3 4f00 	cmp.w	r3, #32768	; 0x8000
 8003a4c:	d002      	beq.n	8003a54 <SPI_WaitFlagStateUntilTimeout+0xa0>
 8003a4e:	f5b3 6f80 	cmp.w	r3, #1024	; 0x400
 8003a52:	d1ec      	bne.n	8003a2e <SPI_WaitFlagStateUntilTimeout+0x7a>
 8003a54:	682a      	ldr	r2, [r5, #0]
 8003a56:	6813      	ldr	r3, [r2, #0]
 8003a58:	f023 0340 	bic.w	r3, r3, #64	; 0x40
 8003a5c:	6013      	str	r3, [r2, #0]
 8003a5e:	e7e6      	b.n	8003a2e <SPI_WaitFlagStateUntilTimeout+0x7a>
 8003a60:	682a      	ldr	r2, [r5, #0]
 8003a62:	6813      	ldr	r3, [r2, #0]
 8003a64:	f423 5300 	bic.w	r3, r3, #8192	; 0x2000
 8003a68:	6013      	str	r3, [r2, #0]
 8003a6a:	682a      	ldr	r2, [r5, #0]
 8003a6c:	6813      	ldr	r3, [r2, #0]
 8003a6e:	f443 5300 	orr.w	r3, r3, #8192	; 0x2000
 8003a72:	6013      	str	r3, [r2, #0]
 8003a74:	e7df      	b.n	8003a36 <SPI_WaitFlagStateUntilTimeout+0x82>
 8003a76:	2000      	movs	r0, #0
 8003a78:	b002      	add	sp, #8
 8003a7a:	e8bd 87f0 	ldmia.w	sp!, {r4, r5, r6, r7, r8, r9, sl, pc}
 8003a7e:	bf00      	nop
 8003a80:	20000008 	.word	0x20000008

08003a84 <SPI_EndRxTxTransaction>:
 8003a84:	b530      	push	{r4, r5, lr}
 8003a86:	b085      	sub	sp, #20
 8003a88:	4604      	mov	r4, r0
 8003a8a:	4b16      	ldr	r3, [pc, #88]	; (8003ae4 <SPI_EndRxTxTransaction+0x60>)
 8003a8c:	6818      	ldr	r0, [r3, #0]
 8003a8e:	4b16      	ldr	r3, [pc, #88]	; (8003ae8 <SPI_EndRxTxTransaction+0x64>)
 8003a90:	fba3 3000 	umull	r3, r0, r3, r0
 8003a94:	0d40      	lsrs	r0, r0, #21
 8003a96:	f44f 757a 	mov.w	r5, #1000	; 0x3e8
 8003a9a:	fb05 f000 	mul.w	r0, r5, r0
 8003a9e:	9003      	str	r0, [sp, #12]
 8003aa0:	6863      	ldr	r3, [r4, #4]
 8003aa2:	f5b3 7f82 	cmp.w	r3, #260	; 0x104
 8003aa6:	d00b      	beq.n	8003ac0 <SPI_EndRxTxTransaction+0x3c>
 8003aa8:	9b03      	ldr	r3, [sp, #12]
 8003aaa:	b1bb      	cbz	r3, 8003adc <SPI_EndRxTxTransaction+0x58>
 8003aac:	9b03      	ldr	r3, [sp, #12]
 8003aae:	3b01      	subs	r3, #1
 8003ab0:	9303      	str	r3, [sp, #12]
 8003ab2:	6823      	ldr	r3, [r4, #0]
 8003ab4:	689b      	ldr	r3, [r3, #8]
 8003ab6:	f013 0f80 	tst.w	r3, #128	; 0x80
 8003aba:	d1f5      	bne.n	8003aa8 <SPI_EndRxTxTransaction+0x24>
 8003abc:	2000      	movs	r0, #0
 8003abe:	e00e      	b.n	8003ade <SPI_EndRxTxTransaction+0x5a>
 8003ac0:	9200      	str	r2, [sp, #0]
 8003ac2:	460b      	mov	r3, r1
 8003ac4:	2200      	movs	r2, #0
 8003ac6:	2180      	movs	r1, #128	; 0x80
 8003ac8:	4620      	mov	r0, r4
 8003aca:	f7ff ff73 	bl	80039b4 <SPI_WaitFlagStateUntilTimeout>
 8003ace:	b130      	cbz	r0, 8003ade <SPI_EndRxTxTransaction+0x5a>
 8003ad0:	6d63      	ldr	r3, [r4, #84]	; 0x54
 8003ad2:	f043 0320 	orr.w	r3, r3, #32
 8003ad6:	6563      	str	r3, [r4, #84]	; 0x54
 8003ad8:	2003      	movs	r0, #3
 8003ada:	e000      	b.n	8003ade <SPI_EndRxTxTransaction+0x5a>
 8003adc:	2000      	movs	r0, #0
 8003ade:	b005      	add	sp, #20
 8003ae0:	bd30      	pop	{r4, r5, pc}
 8003ae2:	bf00      	nop
 8003ae4:	20000008 	.word	0x20000008
 8003ae8:	165e9f81 	.word	0x165e9f81

08003aec <HAL_SPI_Init>:
 8003aec:	2800      	cmp	r0, #0
 8003aee:	d05a      	beq.n	8003ba6 <HAL_SPI_Init+0xba>
 8003af0:	b510      	push	{r4, lr}
 8003af2:	4604      	mov	r4, r0
 8003af4:	6a43      	ldr	r3, [r0, #36]	; 0x24
 8003af6:	b933      	cbnz	r3, 8003b06 <HAL_SPI_Init+0x1a>
 8003af8:	6843      	ldr	r3, [r0, #4]
 8003afa:	f5b3 7f82 	cmp.w	r3, #260	; 0x104
 8003afe:	d005      	beq.n	8003b0c <HAL_SPI_Init+0x20>
 8003b00:	2300      	movs	r3, #0
 8003b02:	61c3      	str	r3, [r0, #28]
 8003b04:	e002      	b.n	8003b0c <HAL_SPI_Init+0x20>
 8003b06:	2300      	movs	r3, #0
 8003b08:	6103      	str	r3, [r0, #16]
 8003b0a:	6143      	str	r3, [r0, #20]
 8003b0c:	2300      	movs	r3, #0
 8003b0e:	62a3      	str	r3, [r4, #40]	; 0x28
 8003b10:	f894 3051 	ldrb.w	r3, [r4, #81]	; 0x51
 8003b14:	2b00      	cmp	r3, #0
 8003b16:	d040      	beq.n	8003b9a <HAL_SPI_Init+0xae>
 8003b18:	2302      	movs	r3, #2
 8003b1a:	f884 3051 	strb.w	r3, [r4, #81]	; 0x51
 8003b1e:	6822      	ldr	r2, [r4, #0]
 8003b20:	6813      	ldr	r3, [r2, #0]
 8003b22:	f023 0340 	bic.w	r3, r3, #64	; 0x40
 8003b26:	6013      	str	r3, [r2, #0]
 8003b28:	6863      	ldr	r3, [r4, #4]
 8003b2a:	f403 7382 	and.w	r3, r3, #260	; 0x104
 8003b2e:	68a2      	ldr	r2, [r4, #8]
 8003b30:	f402 4204 	and.w	r2, r2, #33792	; 0x8400
 8003b34:	4313      	orrs	r3, r2
 8003b36:	68e2      	ldr	r2, [r4, #12]
 8003b38:	f402 6200 	and.w	r2, r2, #2048	; 0x800
 8003b3c:	4313      	orrs	r3, r2
 8003b3e:	6922      	ldr	r2, [r4, #16]
 8003b40:	f002 0202 	and.w	r2, r2, #2
 8003b44:	4313      	orrs	r3, r2
 8003b46:	6962      	ldr	r2, [r4, #20]
 8003b48:	f002 0201 	and.w	r2, r2, #1
 8003b4c:	4313      	orrs	r3, r2
 8003b4e:	69a2      	ldr	r2, [r4, #24]
 8003b50:	f402 7200 	and.w	r2, r2, #512	; 0x200
 8003b54:	4313      	orrs	r3, r2
 8003b56:	69e2      	ldr	r2, [r4, #28]
 8003b58:	f002 0238 	and.w	r2, r2, #56	; 0x38
 8003b5c:	4313      	orrs	r3, r2
 8003b5e:	6a22      	ldr	r2, [r4, #32]
 8003b60:	f002 0280 	and.w	r2, r2, #128	; 0x80
 8003b64:	4313      	orrs	r3, r2
 8003b66:	6aa2      	ldr	r2, [r4, #40]	; 0x28
 8003b68:	f402 5200 	and.w	r2, r2, #8192	; 0x2000
 8003b6c:	6821      	ldr	r1, [r4, #0]
 8003b6e:	4313      	orrs	r3, r2
 8003b70:	600b      	str	r3, [r1, #0]
 8003b72:	8b63      	ldrh	r3, [r4, #26]
 8003b74:	f003 0304 	and.w	r3, r3, #4
 8003b78:	6a62      	ldr	r2, [r4, #36]	; 0x24
 8003b7a:	f002 0210 	and.w	r2, r2, #16
 8003b7e:	6821      	ldr	r1, [r4, #0]
 8003b80:	4313      	orrs	r3, r2
 8003b82:	604b      	str	r3, [r1, #4]
 8003b84:	6822      	ldr	r2, [r4, #0]
 8003b86:	69d3      	ldr	r3, [r2, #28]
 8003b88:	f423 6300 	bic.w	r3, r3, #2048	; 0x800
 8003b8c:	61d3      	str	r3, [r2, #28]
 8003b8e:	2000      	movs	r0, #0
 8003b90:	6560      	str	r0, [r4, #84]	; 0x54
 8003b92:	2301      	movs	r3, #1
 8003b94:	f884 3051 	strb.w	r3, [r4, #81]	; 0x51
 8003b98:	bd10      	pop	{r4, pc}
 8003b9a:	f884 3050 	strb.w	r3, [r4, #80]	; 0x50
 8003b9e:	4620      	mov	r0, r4
 8003ba0:	f7fd fc94 	bl	80014cc <HAL_SPI_MspInit>
 8003ba4:	e7b8      	b.n	8003b18 <HAL_SPI_Init+0x2c>
 8003ba6:	2001      	movs	r0, #1
 8003ba8:	4770      	bx	lr

08003baa <HAL_SPI_Transmit>:
 8003baa:	e92d 43f0 	stmdb	sp!, {r4, r5, r6, r7, r8, r9, lr}
 8003bae:	b083      	sub	sp, #12
 8003bb0:	461d      	mov	r5, r3
 8003bb2:	f890 3050 	ldrb.w	r3, [r0, #80]	; 0x50
 8003bb6:	2b01      	cmp	r3, #1
 8003bb8:	f000 80cc 	beq.w	8003d54 <HAL_SPI_Transmit+0x1aa>
 8003bbc:	4604      	mov	r4, r0
 8003bbe:	4688      	mov	r8, r1
 8003bc0:	4691      	mov	r9, r2
 8003bc2:	2301      	movs	r3, #1
 8003bc4:	f880 3050 	strb.w	r3, [r0, #80]	; 0x50
 8003bc8:	f7fe fc84 	bl	80024d4 <HAL_GetTick>
 8003bcc:	4607      	mov	r7, r0
 8003bce:	f894 6051 	ldrb.w	r6, [r4, #81]	; 0x51
 8003bd2:	b2f6      	uxtb	r6, r6
 8003bd4:	2e01      	cmp	r6, #1
 8003bd6:	f040 80aa 	bne.w	8003d2e <HAL_SPI_Transmit+0x184>
 8003bda:	f1b8 0f00 	cmp.w	r8, #0
 8003bde:	f000 80a7 	beq.w	8003d30 <HAL_SPI_Transmit+0x186>
 8003be2:	f1b9 0f00 	cmp.w	r9, #0
 8003be6:	f000 80a3 	beq.w	8003d30 <HAL_SPI_Transmit+0x186>
 8003bea:	2303      	movs	r3, #3
 8003bec:	f884 3051 	strb.w	r3, [r4, #81]	; 0x51
 8003bf0:	2300      	movs	r3, #0
 8003bf2:	6563      	str	r3, [r4, #84]	; 0x54
 8003bf4:	f8c4 8030 	str.w	r8, [r4, #48]	; 0x30
