
build/mnist.elf:     file format elf32-littlearm


Disassembly of section .text:

08000190 <__do_global_dtors_aux>:
 8000190:	b510      	push	{r4, lr}
 8000192:	4c05      	ldr	r4, [pc, #20]	; (80001a8 <__do_global_dtors_aux+0x18>)
 8000194:	7823      	ldrb	r3, [r4, #0]
 8000196:	b933      	cbnz	r3, 80001a6 <__do_global_dtors_aux+0x16>
 8000198:	4b04      	ldr	r3, [pc, #16]	; (80001ac <__do_global_dtors_aux+0x1c>)
 800019a:	b113      	cbz	r3, 80001a2 <__do_global_dtors_aux+0x12>
 800019c:	4804      	ldr	r0, [pc, #16]	; (80001b0 <__do_global_dtors_aux+0x20>)
 800019e:	f3af 8000 	nop.w
 80001a2:	2301      	movs	r3, #1
 80001a4:	7023      	strb	r3, [r4, #0]
 80001a6:	bd10      	pop	{r4, pc}
 80001a8:	20018ed0 	.word	0x20018ed0
 80001ac:	00000000 	.word	0x00000000
 80001b0:	08008148 	.word	0x08008148

080001b4 <frame_dummy>:
 80001b4:	b508      	push	{r3, lr}
 80001b6:	4b03      	ldr	r3, [pc, #12]	; (80001c4 <frame_dummy+0x10>)
 80001b8:	b11b      	cbz	r3, 80001c2 <frame_dummy+0xe>
 80001ba:	4903      	ldr	r1, [pc, #12]	; (80001c8 <frame_dummy+0x14>)
 80001bc:	4803      	ldr	r0, [pc, #12]	; (80001cc <frame_dummy+0x18>)
 80001be:	f3af 8000 	nop.w
 80001c2:	bd08      	pop	{r3, pc}
 80001c4:	00000000 	.word	0x00000000
 80001c8:	20018ed4 	.word	0x20018ed4
 80001cc:	08008148 	.word	0x08008148

080001d0 <strlen>:
 80001d0:	4603      	mov	r3, r0
 80001d2:	f813 2b01 	ldrb.w	r2, [r3], #1
 80001d6:	2a00      	cmp	r2, #0
 80001d8:	d1fb      	bne.n	80001d2 <strlen+0x2>
 80001da:	1a18      	subs	r0, r3, r0
 80001dc:	3801      	subs	r0, #1
 80001de:	4770      	bx	lr

080001e0 <memchr>:
 80001e0:	f001 01ff 	and.w	r1, r1, #255	; 0xff
 80001e4:	2a10      	cmp	r2, #16
 80001e6:	db2b      	blt.n	8000240 <memchr+0x60>
 80001e8:	f010 0f07 	tst.w	r0, #7
 80001ec:	d008      	beq.n	8000200 <memchr+0x20>
 80001ee:	f810 3b01 	ldrb.w	r3, [r0], #1
 80001f2:	3a01      	subs	r2, #1
 80001f4:	428b      	cmp	r3, r1
 80001f6:	d02d      	beq.n	8000254 <memchr+0x74>
 80001f8:	f010 0f07 	tst.w	r0, #7
 80001fc:	b342      	cbz	r2, 8000250 <memchr+0x70>
 80001fe:	d1f6      	bne.n	80001ee <memchr+0xe>
 8000200:	b4f0      	push	{r4, r5, r6, r7}
 8000202:	ea41 2101 	orr.w	r1, r1, r1, lsl #8
 8000206:	ea41 4101 	orr.w	r1, r1, r1, lsl #16
 800020a:	f022 0407 	bic.w	r4, r2, #7
 800020e:	f07f 0700 	mvns.w	r7, #0
 8000212:	2300      	movs	r3, #0
 8000214:	e8f0 5602 	ldrd	r5, r6, [r0], #8
 8000218:	3c08      	subs	r4, #8
 800021a:	ea85 0501 	eor.w	r5, r5, r1
 800021e:	ea86 0601 	eor.w	r6, r6, r1
 8000222:	fa85 f547 	uadd8	r5, r5, r7
 8000226:	faa3 f587 	sel	r5, r3, r7
 800022a:	fa86 f647 	uadd8	r6, r6, r7
 800022e:	faa5 f687 	sel	r6, r5, r7
 8000232:	b98e      	cbnz	r6, 8000258 <memchr+0x78>
 8000234:	d1ee      	bne.n	8000214 <memchr+0x34>
 8000236:	bcf0      	pop	{r4, r5, r6, r7}
 8000238:	f001 01ff 	and.w	r1, r1, #255	; 0xff
 800023c:	f002 0207 	and.w	r2, r2, #7
 8000240:	b132      	cbz	r2, 8000250 <memchr+0x70>
 8000242:	f810 3b01 	ldrb.w	r3, [r0], #1
 8000246:	3a01      	subs	r2, #1
 8000248:	ea83 0301 	eor.w	r3, r3, r1
 800024c:	b113      	cbz	r3, 8000254 <memchr+0x74>
 800024e:	d1f8      	bne.n	8000242 <memchr+0x62>
 8000250:	2000      	movs	r0, #0
 8000252:	4770      	bx	lr
 8000254:	3801      	subs	r0, #1
 8000256:	4770      	bx	lr
 8000258:	2d00      	cmp	r5, #0
 800025a:	bf06      	itte	eq
 800025c:	4635      	moveq	r5, r6
 800025e:	3803      	subeq	r0, #3
 8000260:	3807      	subne	r0, #7
 8000262:	f015 0f01 	tst.w	r5, #1
 8000266:	d107      	bne.n	8000278 <memchr+0x98>
 8000268:	3001      	adds	r0, #1
 800026a:	f415 7f80 	tst.w	r5, #256	; 0x100
 800026e:	bf02      	ittt	eq
 8000270:	3001      	addeq	r0, #1
 8000272:	f415 3fc0 	tsteq.w	r5, #98304	; 0x18000
 8000276:	3001      	addeq	r0, #1
 8000278:	bcf0      	pop	{r4, r5, r6, r7}
 800027a:	3801      	subs	r0, #1
 800027c:	4770      	bx	lr
 800027e:	bf00      	nop

08000280 <__aeabi_drsub>:
 8000280:	f081 4100 	eor.w	r1, r1, #2147483648	; 0x80000000
 8000284:	e002      	b.n	800028c <__adddf3>
 8000286:	bf00      	nop

08000288 <__aeabi_dsub>:
 8000288:	f083 4300 	eor.w	r3, r3, #2147483648	; 0x80000000

0800028c <__adddf3>:
 800028c:	b530      	push	{r4, r5, lr}
 800028e:	ea4f 0441 	mov.w	r4, r1, lsl #1
 8000292:	ea4f 0543 	mov.w	r5, r3, lsl #1
 8000296:	ea94 0f05 	teq	r4, r5
 800029a:	bf08      	it	eq
 800029c:	ea90 0f02 	teqeq	r0, r2
 80002a0:	bf1f      	itttt	ne
 80002a2:	ea54 0c00 	orrsne.w	ip, r4, r0
 80002a6:	ea55 0c02 	orrsne.w	ip, r5, r2
 80002aa:	ea7f 5c64 	mvnsne.w	ip, r4, asr #21
 80002ae:	ea7f 5c65 	mvnsne.w	ip, r5, asr #21
 80002b2:	f000 80e2 	beq.w	800047a <__adddf3+0x1ee>
 80002b6:	ea4f 5454 	mov.w	r4, r4, lsr #21
 80002ba:	ebd4 5555 	rsbs	r5, r4, r5, lsr #21
 80002be:	bfb8      	it	lt
 80002c0:	426d      	neglt	r5, r5
 80002c2:	dd0c      	ble.n	80002de <__adddf3+0x52>
 80002c4:	442c      	add	r4, r5
 80002c6:	ea80 0202 	eor.w	r2, r0, r2
 80002ca:	ea81 0303 	eor.w	r3, r1, r3
 80002ce:	ea82 0000 	eor.w	r0, r2, r0
 80002d2:	ea83 0101 	eor.w	r1, r3, r1
 80002d6:	ea80 0202 	eor.w	r2, r0, r2
 80002da:	ea81 0303 	eor.w	r3, r1, r3
 80002de:	2d36      	cmp	r5, #54	; 0x36
 80002e0:	bf88      	it	hi
 80002e2:	bd30      	pophi	{r4, r5, pc}
 80002e4:	f011 4f00 	tst.w	r1, #2147483648	; 0x80000000
 80002e8:	ea4f 3101 	mov.w	r1, r1, lsl #12
 80002ec:	f44f 1c80 	mov.w	ip, #1048576	; 0x100000
 80002f0:	ea4c 3111 	orr.w	r1, ip, r1, lsr #12
 80002f4:	d002      	beq.n	80002fc <__adddf3+0x70>
 80002f6:	4240      	negs	r0, r0
 80002f8:	eb61 0141 	sbc.w	r1, r1, r1, lsl #1
 80002fc:	f013 4f00 	tst.w	r3, #2147483648	; 0x80000000
 8000300:	ea4f 3303 	mov.w	r3, r3, lsl #12
 8000304:	ea4c 3313 	orr.w	r3, ip, r3, lsr #12
 8000308:	d002      	beq.n	8000310 <__adddf3+0x84>
 800030a:	4252      	negs	r2, r2
 800030c:	eb63 0343 	sbc.w	r3, r3, r3, lsl #1
 8000310:	ea94 0f05 	teq	r4, r5
 8000314:	f000 80a7 	beq.w	8000466 <__adddf3+0x1da>
 8000318:	f1a4 0401 	sub.w	r4, r4, #1
 800031c:	f1d5 0e20 	rsbs	lr, r5, #32
 8000320:	db0d      	blt.n	800033e <__adddf3+0xb2>
 8000322:	fa02 fc0e 	lsl.w	ip, r2, lr
 8000326:	fa22 f205 	lsr.w	r2, r2, r5
 800032a:	1880      	adds	r0, r0, r2
 800032c:	f141 0100 	adc.w	r1, r1, #0
 8000330:	fa03 f20e 	lsl.w	r2, r3, lr
 8000334:	1880      	adds	r0, r0, r2
 8000336:	fa43 f305 	asr.w	r3, r3, r5
 800033a:	4159      	adcs	r1, r3
 800033c:	e00e      	b.n	800035c <__adddf3+0xd0>
 800033e:	f1a5 0520 	sub.w	r5, r5, #32
 8000342:	f10e 0e20 	add.w	lr, lr, #32
 8000346:	2a01      	cmp	r2, #1
 8000348:	fa03 fc0e 	lsl.w	ip, r3, lr
 800034c:	bf28      	it	cs
 800034e:	f04c 0c02 	orrcs.w	ip, ip, #2
 8000352:	fa43 f305 	asr.w	r3, r3, r5
 8000356:	18c0      	adds	r0, r0, r3
 8000358:	eb51 71e3 	adcs.w	r1, r1, r3, asr #31
 800035c:	f001 4500 	and.w	r5, r1, #2147483648	; 0x80000000
 8000360:	d507      	bpl.n	8000372 <__adddf3+0xe6>
 8000362:	f04f 0e00 	mov.w	lr, #0
 8000366:	f1dc 0c00 	rsbs	ip, ip, #0
 800036a:	eb7e 0000 	sbcs.w	r0, lr, r0
 800036e:	eb6e 0101 	sbc.w	r1, lr, r1
 8000372:	f5b1 1f80 	cmp.w	r1, #1048576	; 0x100000
 8000376:	d31b      	bcc.n	80003b0 <__adddf3+0x124>
 8000378:	f5b1 1f00 	cmp.w	r1, #2097152	; 0x200000
 800037c:	d30c      	bcc.n	8000398 <__adddf3+0x10c>
 800037e:	0849      	lsrs	r1, r1, #1
 8000380:	ea5f 0030 	movs.w	r0, r0, rrx
 8000384:	ea4f 0c3c 	mov.w	ip, ip, rrx
 8000388:	f104 0401 	add.w	r4, r4, #1
 800038c:	ea4f 5244 	mov.w	r2, r4, lsl #21
 8000390:	f512 0f80 	cmn.w	r2, #4194304	; 0x400000
 8000394:	f080 809a 	bcs.w	80004cc <__adddf3+0x240>
 8000398:	f1bc 4f00 	cmp.w	ip, #2147483648	; 0x80000000
 800039c:	bf08      	it	eq
 800039e:	ea5f 0c50 	movseq.w	ip, r0, lsr #1
 80003a2:	f150 0000 	adcs.w	r0, r0, #0
 80003a6:	eb41 5104 	adc.w	r1, r1, r4, lsl #20
 80003aa:	ea41 0105 	orr.w	r1, r1, r5
 80003ae:	bd30      	pop	{r4, r5, pc}
 80003b0:	ea5f 0c4c 	movs.w	ip, ip, lsl #1
 80003b4:	4140      	adcs	r0, r0
 80003b6:	eb41 0101 	adc.w	r1, r1, r1
 80003ba:	3c01      	subs	r4, #1
 80003bc:	bf28      	it	cs
 80003be:	f5b1 1f80 	cmpcs.w	r1, #1048576	; 0x100000
 80003c2:	d2e9      	bcs.n	8000398 <__adddf3+0x10c>
 80003c4:	f091 0f00 	teq	r1, #0
 80003c8:	bf04      	itt	eq
 80003ca:	4601      	moveq	r1, r0
 80003cc:	2000      	moveq	r0, #0
 80003ce:	fab1 f381 	clz	r3, r1
 80003d2:	bf08      	it	eq
 80003d4:	3320      	addeq	r3, #32
 80003d6:	f1a3 030b 	sub.w	r3, r3, #11
 80003da:	f1b3 0220 	subs.w	r2, r3, #32
 80003de:	da0c      	bge.n	80003fa <__adddf3+0x16e>
 80003e0:	320c      	adds	r2, #12
 80003e2:	dd08      	ble.n	80003f6 <__adddf3+0x16a>
 80003e4:	f102 0c14 	add.w	ip, r2, #20
 80003e8:	f1c2 020c 	rsb	r2, r2, #12
 80003ec:	fa01 f00c 	lsl.w	r0, r1, ip
 80003f0:	fa21 f102 	lsr.w	r1, r1, r2
 80003f4:	e00c      	b.n	8000410 <__adddf3+0x184>
 80003f6:	f102 0214 	add.w	r2, r2, #20
 80003fa:	bfd8      	it	le
 80003fc:	f1c2 0c20 	rsble	ip, r2, #32
 8000400:	fa01 f102 	lsl.w	r1, r1, r2
 8000404:	fa20 fc0c 	lsr.w	ip, r0, ip
 8000408:	bfdc      	itt	le
 800040a:	ea41 010c 	orrle.w	r1, r1, ip
 800040e:	4090      	lslle	r0, r2
 8000410:	1ae4      	subs	r4, r4, r3
 8000412:	bfa2      	ittt	ge
 8000414:	eb01 5104 	addge.w	r1, r1, r4, lsl #20
 8000418:	4329      	orrge	r1, r5
 800041a:	bd30      	popge	{r4, r5, pc}
 800041c:	ea6f 0404 	mvn.w	r4, r4
 8000420:	3c1f      	subs	r4, #31
 8000422:	da1c      	bge.n	800045e <__adddf3+0x1d2>
 8000424:	340c      	adds	r4, #12
 8000426:	dc0e      	bgt.n	8000446 <__adddf3+0x1ba>
 8000428:	f104 0414 	add.w	r4, r4, #20
 800042c:	f1c4 0220 	rsb	r2, r4, #32
 8000430:	fa20 f004 	lsr.w	r0, r0, r4
 8000434:	fa01 f302 	lsl.w	r3, r1, r2
 8000438:	ea40 0003 	orr.w	r0, r0, r3
 800043c:	fa21 f304 	lsr.w	r3, r1, r4
 8000440:	ea45 0103 	orr.w	r1, r5, r3
 8000444:	bd30      	pop	{r4, r5, pc}
 8000446:	f1c4 040c 	rsb	r4, r4, #12
 800044a:	f1c4 0220 	rsb	r2, r4, #32
 800044e:	fa20 f002 	lsr.w	r0, r0, r2
 8000452:	fa01 f304 	lsl.w	r3, r1, r4
 8000456:	ea40 0003 	orr.w	r0, r0, r3
 800045a:	4629      	mov	r1, r5
 800045c:	bd30      	pop	{r4, r5, pc}
 800045e:	fa21 f004 	lsr.w	r0, r1, r4
 8000462:	4629      	mov	r1, r5
 8000464:	bd30      	pop	{r4, r5, pc}
 8000466:	f094 0f00 	teq	r4, #0
 800046a:	f483 1380 	eor.w	r3, r3, #1048576	; 0x100000
 800046e:	bf06      	itte	eq
 8000470:	f481 1180 	eoreq.w	r1, r1, #1048576	; 0x100000
 8000474:	3401      	addeq	r4, #1
 8000476:	3d01      	subne	r5, #1
 8000478:	e74e      	b.n	8000318 <__adddf3+0x8c>
 800047a:	ea7f 5c64 	mvns.w	ip, r4, asr #21
 800047e:	bf18      	it	ne
 8000480:	ea7f 5c65 	mvnsne.w	ip, r5, asr #21
 8000484:	d029      	beq.n	80004da <__adddf3+0x24e>
 8000486:	ea94 0f05 	teq	r4, r5
 800048a:	bf08      	it	eq
 800048c:	ea90 0f02 	teqeq	r0, r2
 8000490:	d005      	beq.n	800049e <__adddf3+0x212>
 8000492:	ea54 0c00 	orrs.w	ip, r4, r0
 8000496:	bf04      	itt	eq
 8000498:	4619      	moveq	r1, r3
 800049a:	4610      	moveq	r0, r2
 800049c:	bd30      	pop	{r4, r5, pc}
 800049e:	ea91 0f03 	teq	r1, r3
 80004a2:	bf1e      	ittt	ne
 80004a4:	2100      	movne	r1, #0
 80004a6:	2000      	movne	r0, #0
 80004a8:	bd30      	popne	{r4, r5, pc}
 80004aa:	ea5f 5c54 	movs.w	ip, r4, lsr #21
 80004ae:	d105      	bne.n	80004bc <__adddf3+0x230>
 80004b0:	0040      	lsls	r0, r0, #1
 80004b2:	4149      	adcs	r1, r1
 80004b4:	bf28      	it	cs
 80004b6:	f041 4100 	orrcs.w	r1, r1, #2147483648	; 0x80000000
 80004ba:	bd30      	pop	{r4, r5, pc}
 80004bc:	f514 0480 	adds.w	r4, r4, #4194304	; 0x400000
 80004c0:	bf3c      	itt	cc
 80004c2:	f501 1180 	addcc.w	r1, r1, #1048576	; 0x100000
 80004c6:	bd30      	popcc	{r4, r5, pc}
 80004c8:	f001 4500 	and.w	r5, r1, #2147483648	; 0x80000000
 80004cc:	f045 41fe 	orr.w	r1, r5, #2130706432	; 0x7f000000
 80004d0:	f441 0170 	orr.w	r1, r1, #15728640	; 0xf00000
 80004d4:	f04f 0000 	mov.w	r0, #0
 80004d8:	bd30      	pop	{r4, r5, pc}
 80004da:	ea7f 5c64 	mvns.w	ip, r4, asr #21
 80004de:	bf1a      	itte	ne
 80004e0:	4619      	movne	r1, r3
 80004e2:	4610      	movne	r0, r2
 80004e4:	ea7f 5c65 	mvnseq.w	ip, r5, asr #21
 80004e8:	bf1c      	itt	ne
 80004ea:	460b      	movne	r3, r1
 80004ec:	4602      	movne	r2, r0
 80004ee:	ea50 3401 	orrs.w	r4, r0, r1, lsl #12
 80004f2:	bf06      	itte	eq
 80004f4:	ea52 3503 	orrseq.w	r5, r2, r3, lsl #12
 80004f8:	ea91 0f03 	teqeq	r1, r3
 80004fc:	f441 2100 	orrne.w	r1, r1, #524288	; 0x80000
 8000500:	bd30      	pop	{r4, r5, pc}
 8000502:	bf00      	nop

08000504 <__aeabi_ui2d>:
 8000504:	f090 0f00 	teq	r0, #0
 8000508:	bf04      	itt	eq
 800050a:	2100      	moveq	r1, #0
 800050c:	4770      	bxeq	lr
 800050e:	b530      	push	{r4, r5, lr}
 8000510:	f44f 6480 	mov.w	r4, #1024	; 0x400
 8000514:	f104 0432 	add.w	r4, r4, #50	; 0x32
 8000518:	f04f 0500 	mov.w	r5, #0
 800051c:	f04f 0100 	mov.w	r1, #0
 8000520:	e750      	b.n	80003c4 <__adddf3+0x138>
 8000522:	bf00      	nop

08000524 <__aeabi_i2d>:
 8000524:	f090 0f00 	teq	r0, #0
 8000528:	bf04      	itt	eq
 800052a:	2100      	moveq	r1, #0
 800052c:	4770      	bxeq	lr
 800052e:	b530      	push	{r4, r5, lr}
 8000530:	f44f 6480 	mov.w	r4, #1024	; 0x400
 8000534:	f104 0432 	add.w	r4, r4, #50	; 0x32
 8000538:	f010 4500 	ands.w	r5, r0, #2147483648	; 0x80000000
 800053c:	bf48      	it	mi
 800053e:	4240      	negmi	r0, r0
 8000540:	f04f 0100 	mov.w	r1, #0
 8000544:	e73e      	b.n	80003c4 <__adddf3+0x138>
 8000546:	bf00      	nop

08000548 <__aeabi_f2d>:
 8000548:	0042      	lsls	r2, r0, #1
 800054a:	ea4f 01e2 	mov.w	r1, r2, asr #3
 800054e:	ea4f 0131 	mov.w	r1, r1, rrx
 8000552:	ea4f 7002 	mov.w	r0, r2, lsl #28
 8000556:	bf1f      	itttt	ne
 8000558:	f012 437f 	andsne.w	r3, r2, #4278190080	; 0xff000000
 800055c:	f093 4f7f 	teqne	r3, #4278190080	; 0xff000000
 8000560:	f081 5160 	eorne.w	r1, r1, #939524096	; 0x38000000
 8000564:	4770      	bxne	lr
 8000566:	f032 427f 	bics.w	r2, r2, #4278190080	; 0xff000000
 800056a:	bf08      	it	eq
 800056c:	4770      	bxeq	lr
 800056e:	f093 4f7f 	teq	r3, #4278190080	; 0xff000000
 8000572:	bf04      	itt	eq
 8000574:	f441 2100 	orreq.w	r1, r1, #524288	; 0x80000
 8000578:	4770      	bxeq	lr
 800057a:	b530      	push	{r4, r5, lr}
 800057c:	f44f 7460 	mov.w	r4, #896	; 0x380
 8000580:	f001 4500 	and.w	r5, r1, #2147483648	; 0x80000000
 8000584:	f021 4100 	bic.w	r1, r1, #2147483648	; 0x80000000
 8000588:	e71c      	b.n	80003c4 <__adddf3+0x138>
 800058a:	bf00      	nop

0800058c <__aeabi_ul2d>:
 800058c:	ea50 0201 	orrs.w	r2, r0, r1
 8000590:	bf08      	it	eq
 8000592:	4770      	bxeq	lr
 8000594:	b530      	push	{r4, r5, lr}
 8000596:	f04f 0500 	mov.w	r5, #0
 800059a:	e00a      	b.n	80005b2 <__aeabi_l2d+0x16>

0800059c <__aeabi_l2d>:
 800059c:	ea50 0201 	orrs.w	r2, r0, r1
 80005a0:	bf08      	it	eq
 80005a2:	4770      	bxeq	lr
 80005a4:	b530      	push	{r4, r5, lr}
 80005a6:	f011 4500 	ands.w	r5, r1, #2147483648	; 0x80000000
 80005aa:	d502      	bpl.n	80005b2 <__aeabi_l2d+0x16>
 80005ac:	4240      	negs	r0, r0
 80005ae:	eb61 0141 	sbc.w	r1, r1, r1, lsl #1
 80005b2:	f44f 6480 	mov.w	r4, #1024	; 0x400
 80005b6:	f104 0432 	add.w	r4, r4, #50	; 0x32
 80005ba:	ea5f 5c91 	movs.w	ip, r1, lsr #22
 80005be:	f43f aed8 	beq.w	8000372 <__adddf3+0xe6>
 80005c2:	f04f 0203 	mov.w	r2, #3
 80005c6:	ea5f 0cdc 	movs.w	ip, ip, lsr #3
 80005ca:	bf18      	it	ne
 80005cc:	3203      	addne	r2, #3
 80005ce:	ea5f 0cdc 	movs.w	ip, ip, lsr #3
 80005d2:	bf18      	it	ne
 80005d4:	3203      	addne	r2, #3
 80005d6:	eb02 02dc 	add.w	r2, r2, ip, lsr #3
 80005da:	f1c2 0320 	rsb	r3, r2, #32
 80005de:	fa00 fc03 	lsl.w	ip, r0, r3
 80005e2:	fa20 f002 	lsr.w	r0, r0, r2
 80005e6:	fa01 fe03 	lsl.w	lr, r1, r3
 80005ea:	ea40 000e 	orr.w	r0, r0, lr
 80005ee:	fa21 f102 	lsr.w	r1, r1, r2
 80005f2:	4414      	add	r4, r2
 80005f4:	e6bd      	b.n	8000372 <__adddf3+0xe6>
 80005f6:	bf00      	nop

080005f8 <__aeabi_dmul>:
 80005f8:	b570      	push	{r4, r5, r6, lr}
 80005fa:	f04f 0cff 	mov.w	ip, #255	; 0xff
 80005fe:	f44c 6ce0 	orr.w	ip, ip, #1792	; 0x700
 8000602:	ea1c 5411 	ands.w	r4, ip, r1, lsr #20
 8000606:	bf1d      	ittte	ne
 8000608:	ea1c 5513 	andsne.w	r5, ip, r3, lsr #20
 800060c:	ea94 0f0c 	teqne	r4, ip
 8000610:	ea95 0f0c 	teqne	r5, ip
 8000614:	f000 f8de 	bleq	80007d4 <__aeabi_dmul+0x1dc>
 8000618:	442c      	add	r4, r5
 800061a:	ea81 0603 	eor.w	r6, r1, r3
 800061e:	ea21 514c 	bic.w	r1, r1, ip, lsl #21
 8000622:	ea23 534c 	bic.w	r3, r3, ip, lsl #21
 8000626:	ea50 3501 	orrs.w	r5, r0, r1, lsl #12
 800062a:	bf18      	it	ne
 800062c:	ea52 3503 	orrsne.w	r5, r2, r3, lsl #12
 8000630:	f441 1180 	orr.w	r1, r1, #1048576	; 0x100000
 8000634:	f443 1380 	orr.w	r3, r3, #1048576	; 0x100000
 8000638:	d038      	beq.n	80006ac <__aeabi_dmul+0xb4>
 800063a:	fba0 ce02 	umull	ip, lr, r0, r2
 800063e:	f04f 0500 	mov.w	r5, #0
 8000642:	fbe1 e502 	umlal	lr, r5, r1, r2
 8000646:	f006 4200 	and.w	r2, r6, #2147483648	; 0x80000000
 800064a:	fbe0 e503 	umlal	lr, r5, r0, r3
 800064e:	f04f 0600 	mov.w	r6, #0
 8000652:	fbe1 5603 	umlal	r5, r6, r1, r3
 8000656:	f09c 0f00 	teq	ip, #0
 800065a:	bf18      	it	ne
 800065c:	f04e 0e01 	orrne.w	lr, lr, #1
 8000660:	f1a4 04ff 	sub.w	r4, r4, #255	; 0xff
 8000664:	f5b6 7f00 	cmp.w	r6, #512	; 0x200
 8000668:	f564 7440 	sbc.w	r4, r4, #768	; 0x300
 800066c:	d204      	bcs.n	8000678 <__aeabi_dmul+0x80>
 800066e:	ea5f 0e4e 	movs.w	lr, lr, lsl #1
 8000672:	416d      	adcs	r5, r5
 8000674:	eb46 0606 	adc.w	r6, r6, r6
 8000678:	ea42 21c6 	orr.w	r1, r2, r6, lsl #11
 800067c:	ea41 5155 	orr.w	r1, r1, r5, lsr #21
 8000680:	ea4f 20c5 	mov.w	r0, r5, lsl #11
 8000684:	ea40 505e 	orr.w	r0, r0, lr, lsr #21
 8000688:	ea4f 2ece 	mov.w	lr, lr, lsl #11
 800068c:	f1b4 0cfd 	subs.w	ip, r4, #253	; 0xfd
 8000690:	bf88      	it	hi
 8000692:	f5bc 6fe0 	cmphi.w	ip, #1792	; 0x700
 8000696:	d81e      	bhi.n	80006d6 <__aeabi_dmul+0xde>
 8000698:	f1be 4f00 	cmp.w	lr, #2147483648	; 0x80000000
 800069c:	bf08      	it	eq
 800069e:	ea5f 0e50 	movseq.w	lr, r0, lsr #1
 80006a2:	f150 0000 	adcs.w	r0, r0, #0
 80006a6:	eb41 5104 	adc.w	r1, r1, r4, lsl #20
 80006aa:	bd70      	pop	{r4, r5, r6, pc}
 80006ac:	f006 4600 	and.w	r6, r6, #2147483648	; 0x80000000
 80006b0:	ea46 0101 	orr.w	r1, r6, r1
 80006b4:	ea40 0002 	orr.w	r0, r0, r2
 80006b8:	ea81 0103 	eor.w	r1, r1, r3
 80006bc:	ebb4 045c 	subs.w	r4, r4, ip, lsr #1
 80006c0:	bfc2      	ittt	gt
 80006c2:	ebd4 050c 	rsbsgt	r5, r4, ip
 80006c6:	ea41 5104 	orrgt.w	r1, r1, r4, lsl #20
 80006ca:	bd70      	popgt	{r4, r5, r6, pc}
 80006cc:	f441 1180 	orr.w	r1, r1, #1048576	; 0x100000
 80006d0:	f04f 0e00 	mov.w	lr, #0
 80006d4:	3c01      	subs	r4, #1
 80006d6:	f300 80ab 	bgt.w	8000830 <__aeabi_dmul+0x238>
 80006da:	f114 0f36 	cmn.w	r4, #54	; 0x36
 80006de:	bfde      	ittt	le
 80006e0:	2000      	movle	r0, #0
 80006e2:	f001 4100 	andle.w	r1, r1, #2147483648	; 0x80000000
 80006e6:	bd70      	pople	{r4, r5, r6, pc}
 80006e8:	f1c4 0400 	rsb	r4, r4, #0
 80006ec:	3c20      	subs	r4, #32
 80006ee:	da35      	bge.n	800075c <__aeabi_dmul+0x164>
 80006f0:	340c      	adds	r4, #12
 80006f2:	dc1b      	bgt.n	800072c <__aeabi_dmul+0x134>
 80006f4:	f104 0414 	add.w	r4, r4, #20
 80006f8:	f1c4 0520 	rsb	r5, r4, #32
 80006fc:	fa00 f305 	lsl.w	r3, r0, r5
 8000700:	fa20 f004 	lsr.w	r0, r0, r4
 8000704:	fa01 f205 	lsl.w	r2, r1, r5
 8000708:	ea40 0002 	orr.w	r0, r0, r2
 800070c:	f001 4200 	and.w	r2, r1, #2147483648	; 0x80000000
 8000710:	f021 4100 	bic.w	r1, r1, #2147483648	; 0x80000000
 8000714:	eb10 70d3 	adds.w	r0, r0, r3, lsr #31
 8000718:	fa21 f604 	lsr.w	r6, r1, r4
 800071c:	eb42 0106 	adc.w	r1, r2, r6
 8000720:	ea5e 0e43 	orrs.w	lr, lr, r3, lsl #1
 8000724:	bf08      	it	eq
 8000726:	ea20 70d3 	biceq.w	r0, r0, r3, lsr #31
 800072a:	bd70      	pop	{r4, r5, r6, pc}
 800072c:	f1c4 040c 	rsb	r4, r4, #12
 8000730:	f1c4 0520 	rsb	r5, r4, #32
 8000734:	fa00 f304 	lsl.w	r3, r0, r4
 8000738:	fa20 f005 	lsr.w	r0, r0, r5
 800073c:	fa01 f204 	lsl.w	r2, r1, r4
 8000740:	ea40 0002 	orr.w	r0, r0, r2
 8000744:	f001 4100 	and.w	r1, r1, #2147483648	; 0x80000000
 8000748:	eb10 70d3 	adds.w	r0, r0, r3, lsr #31
 800074c:	f141 0100 	adc.w	r1, r1, #0
 8000750:	ea5e 0e43 	orrs.w	lr, lr, r3, lsl #1
 8000754:	bf08      	it	eq
 8000756:	ea20 70d3 	biceq.w	r0, r0, r3, lsr #31
 800075a:	bd70      	pop	{r4, r5, r6, pc}
 800075c:	f1c4 0520 	rsb	r5, r4, #32
 8000760:	fa00 f205 	lsl.w	r2, r0, r5
 8000764:	ea4e 0e02 	orr.w	lr, lr, r2
 8000768:	fa20 f304 	lsr.w	r3, r0, r4
 800076c:	fa01 f205 	lsl.w	r2, r1, r5
 8000770:	ea43 0302 	orr.w	r3, r3, r2
 8000774:	fa21 f004 	lsr.w	r0, r1, r4
 8000778:	f001 4100 	and.w	r1, r1, #2147483648	; 0x80000000
 800077c:	fa21 f204 	lsr.w	r2, r1, r4
 8000780:	ea20 0002 	bic.w	r0, r0, r2
 8000784:	eb00 70d3 	add.w	r0, r0, r3, lsr #31
 8000788:	ea5e 0e43 	orrs.w	lr, lr, r3, lsl #1
 800078c:	bf08      	it	eq
 800078e:	ea20 70d3 	biceq.w	r0, r0, r3, lsr #31
 8000792:	bd70      	pop	{r4, r5, r6, pc}
 8000794:	f094 0f00 	teq	r4, #0
 8000798:	d10f      	bne.n	80007ba <__aeabi_dmul+0x1c2>
 800079a:	f001 4600 	and.w	r6, r1, #2147483648	; 0x80000000
 800079e:	0040      	lsls	r0, r0, #1
 80007a0:	eb41 0101 	adc.w	r1, r1, r1
 80007a4:	f411 1f80 	tst.w	r1, #1048576	; 0x100000
 80007a8:	bf08      	it	eq
 80007aa:	3c01      	subeq	r4, #1
 80007ac:	d0f7      	beq.n	800079e <__aeabi_dmul+0x1a6>
 80007ae:	ea41 0106 	orr.w	r1, r1, r6
 80007b2:	f095 0f00 	teq	r5, #0
 80007b6:	bf18      	it	ne
 80007b8:	4770      	bxne	lr
 80007ba:	f003 4600 	and.w	r6, r3, #2147483648	; 0x80000000
 80007be:	0052      	lsls	r2, r2, #1
 80007c0:	eb43 0303 	adc.w	r3, r3, r3
 80007c4:	f413 1f80 	tst.w	r3, #1048576	; 0x100000
 80007c8:	bf08      	it	eq
 80007ca:	3d01      	subeq	r5, #1
 80007cc:	d0f7      	beq.n	80007be <__aeabi_dmul+0x1c6>
 80007ce:	ea43 0306 	orr.w	r3, r3, r6
 80007d2:	4770      	bx	lr
 80007d4:	ea94 0f0c 	teq	r4, ip
 80007d8:	ea0c 5513 	and.w	r5, ip, r3, lsr #20
 80007dc:	bf18      	it	ne
 80007de:	ea95 0f0c 	teqne	r5, ip
 80007e2:	d00c      	beq.n	80007fe <__aeabi_dmul+0x206>
 80007e4:	ea50 0641 	orrs.w	r6, r0, r1, lsl #1
 80007e8:	bf18      	it	ne
 80007ea:	ea52 0643 	orrsne.w	r6, r2, r3, lsl #1
 80007ee:	d1d1      	bne.n	8000794 <__aeabi_dmul+0x19c>
 80007f0:	ea81 0103 	eor.w	r1, r1, r3
 80007f4:	f001 4100 	and.w	r1, r1, #2147483648	; 0x80000000
 80007f8:	f04f 0000 	mov.w	r0, #0
 80007fc:	bd70      	pop	{r4, r5, r6, pc}
 80007fe:	ea50 0641 	orrs.w	r6, r0, r1, lsl #1
 8000802:	bf06      	itte	eq
 8000804:	4610      	moveq	r0, r2
 8000806:	4619      	moveq	r1, r3
 8000808:	ea52 0643 	orrsne.w	r6, r2, r3, lsl #1
 800080c:	d019      	beq.n	8000842 <__aeabi_dmul+0x24a>
 800080e:	ea94 0f0c 	teq	r4, ip
 8000812:	d102      	bne.n	800081a <__aeabi_dmul+0x222>
 8000814:	ea50 3601 	orrs.w	r6, r0, r1, lsl #12
 8000818:	d113      	bne.n	8000842 <__aeabi_dmul+0x24a>
 800081a:	ea95 0f0c 	teq	r5, ip
 800081e:	d105      	bne.n	800082c <__aeabi_dmul+0x234>
 8000820:	ea52 3603 	orrs.w	r6, r2, r3, lsl #12
 8000824:	bf1c      	itt	ne
 8000826:	4610      	movne	r0, r2
 8000828:	4619      	movne	r1, r3
 800082a:	d10a      	bne.n	8000842 <__aeabi_dmul+0x24a>
 800082c:	ea81 0103 	eor.w	r1, r1, r3
 8000830:	f001 4100 	and.w	r1, r1, #2147483648	; 0x80000000
 8000834:	f041 41fe 	orr.w	r1, r1, #2130706432	; 0x7f000000
 8000838:	f441 0170 	orr.w	r1, r1, #15728640	; 0xf00000
 800083c:	f04f 0000 	mov.w	r0, #0
 8000840:	bd70      	pop	{r4, r5, r6, pc}
 8000842:	f041 41fe 	orr.w	r1, r1, #2130706432	; 0x7f000000
 8000846:	f441 0178 	orr.w	r1, r1, #16252928	; 0xf80000
 800084a:	bd70      	pop	{r4, r5, r6, pc}

0800084c <__aeabi_ddiv>:
 800084c:	b570      	push	{r4, r5, r6, lr}
 800084e:	f04f 0cff 	mov.w	ip, #255	; 0xff
 8000852:	f44c 6ce0 	orr.w	ip, ip, #1792	; 0x700
 8000856:	ea1c 5411 	ands.w	r4, ip, r1, lsr #20
 800085a:	bf1d      	ittte	ne
 800085c:	ea1c 5513 	andsne.w	r5, ip, r3, lsr #20
 8000860:	ea94 0f0c 	teqne	r4, ip
 8000864:	ea95 0f0c 	teqne	r5, ip
 8000868:	f000 f8a7 	bleq	80009ba <__aeabi_ddiv+0x16e>
 800086c:	eba4 0405 	sub.w	r4, r4, r5
 8000870:	ea81 0e03 	eor.w	lr, r1, r3
 8000874:	ea52 3503 	orrs.w	r5, r2, r3, lsl #12
 8000878:	ea4f 3101 	mov.w	r1, r1, lsl #12
 800087c:	f000 8088 	beq.w	8000990 <__aeabi_ddiv+0x144>
 8000880:	ea4f 3303 	mov.w	r3, r3, lsl #12
 8000884:	f04f 5580 	mov.w	r5, #268435456	; 0x10000000
 8000888:	ea45 1313 	orr.w	r3, r5, r3, lsr #4
 800088c:	ea43 6312 	orr.w	r3, r3, r2, lsr #24
 8000890:	ea4f 2202 	mov.w	r2, r2, lsl #8
 8000894:	ea45 1511 	orr.w	r5, r5, r1, lsr #4
 8000898:	ea45 6510 	orr.w	r5, r5, r0, lsr #24
 800089c:	ea4f 2600 	mov.w	r6, r0, lsl #8
 80008a0:	f00e 4100 	and.w	r1, lr, #2147483648	; 0x80000000
 80008a4:	429d      	cmp	r5, r3
 80008a6:	bf08      	it	eq
 80008a8:	4296      	cmpeq	r6, r2
 80008aa:	f144 04fd 	adc.w	r4, r4, #253	; 0xfd
 80008ae:	f504 7440 	add.w	r4, r4, #768	; 0x300
 80008b2:	d202      	bcs.n	80008ba <__aeabi_ddiv+0x6e>
 80008b4:	085b      	lsrs	r3, r3, #1
 80008b6:	ea4f 0232 	mov.w	r2, r2, rrx
 80008ba:	1ab6      	subs	r6, r6, r2
 80008bc:	eb65 0503 	sbc.w	r5, r5, r3
 80008c0:	085b      	lsrs	r3, r3, #1
 80008c2:	ea4f 0232 	mov.w	r2, r2, rrx
 80008c6:	f44f 1080 	mov.w	r0, #1048576	; 0x100000
 80008ca:	f44f 2c00 	mov.w	ip, #524288	; 0x80000
 80008ce:	ebb6 0e02 	subs.w	lr, r6, r2
 80008d2:	eb75 0e03 	sbcs.w	lr, r5, r3
 80008d6:	bf22      	ittt	cs
 80008d8:	1ab6      	subcs	r6, r6, r2
 80008da:	4675      	movcs	r5, lr
 80008dc:	ea40 000c 	orrcs.w	r0, r0, ip
 80008e0:	085b      	lsrs	r3, r3, #1
 80008e2:	ea4f 0232 	mov.w	r2, r2, rrx
 80008e6:	ebb6 0e02 	subs.w	lr, r6, r2
 80008ea:	eb75 0e03 	sbcs.w	lr, r5, r3
 80008ee:	bf22      	ittt	cs
 80008f0:	1ab6      	subcs	r6, r6, r2
 80008f2:	4675      	movcs	r5, lr
 80008f4:	ea40 005c 	orrcs.w	r0, r0, ip, lsr #1
 80008f8:	085b      	lsrs	r3, r3, #1
 80008fa:	ea4f 0232 	mov.w	r2, r2, rrx
 80008fe:	ebb6 0e02 	subs.w	lr, r6, r2
 8000902:	eb75 0e03 	sbcs.w	lr, r5, r3
 8000906:	bf22      	ittt	cs
 8000908:	1ab6      	subcs	r6, r6, r2
 800090a:	4675      	movcs	r5, lr
 800090c:	ea40 009c 	orrcs.w	r0, r0, ip, lsr #2
 8000910:	085b      	lsrs	r3, r3, #1
 8000912:	ea4f 0232 	mov.w	r2, r2, rrx
 8000916:	ebb6 0e02 	subs.w	lr, r6, r2
 800091a:	eb75 0e03 	sbcs.w	lr, r5, r3
 800091e:	bf22      	ittt	cs
 8000920:	1ab6      	subcs	r6, r6, r2
 8000922:	4675      	movcs	r5, lr
 8000924:	ea40 00dc 	orrcs.w	r0, r0, ip, lsr #3
 8000928:	ea55 0e06 	orrs.w	lr, r5, r6
 800092c:	d018      	beq.n	8000960 <__aeabi_ddiv+0x114>
 800092e:	ea4f 1505 	mov.w	r5, r5, lsl #4
 8000932:	ea45 7516 	orr.w	r5, r5, r6, lsr #28
 8000936:	ea4f 1606 	mov.w	r6, r6, lsl #4
 800093a:	ea4f 03c3 	mov.w	r3, r3, lsl #3
 800093e:	ea43 7352 	orr.w	r3, r3, r2, lsr #29
 8000942:	ea4f 02c2 	mov.w	r2, r2, lsl #3
 8000946:	ea5f 1c1c 	movs.w	ip, ip, lsr #4
 800094a:	d1c0      	bne.n	80008ce <__aeabi_ddiv+0x82>
 800094c:	f411 1f80 	tst.w	r1, #1048576	; 0x100000
 8000950:	d10b      	bne.n	800096a <__aeabi_ddiv+0x11e>
 8000952:	ea41 0100 	orr.w	r1, r1, r0
 8000956:	f04f 0000 	mov.w	r0, #0
 800095a:	f04f 4c00 	mov.w	ip, #2147483648	; 0x80000000
 800095e:	e7b6      	b.n	80008ce <__aeabi_ddiv+0x82>
 8000960:	f411 1f80 	tst.w	r1, #1048576	; 0x100000
 8000964:	bf04      	itt	eq
 8000966:	4301      	orreq	r1, r0
 8000968:	2000      	moveq	r0, #0
 800096a:	f1b4 0cfd 	subs.w	ip, r4, #253	; 0xfd
 800096e:	bf88      	it	hi
 8000970:	f5bc 6fe0 	cmphi.w	ip, #1792	; 0x700
 8000974:	f63f aeaf 	bhi.w	80006d6 <__aeabi_dmul+0xde>
 8000978:	ebb5 0c03 	subs.w	ip, r5, r3
 800097c:	bf04      	itt	eq
 800097e:	ebb6 0c02 	subseq.w	ip, r6, r2
 8000982:	ea5f 0c50 	movseq.w	ip, r0, lsr #1
 8000986:	f150 0000 	adcs.w	r0, r0, #0
 800098a:	eb41 5104 	adc.w	r1, r1, r4, lsl #20
 800098e:	bd70      	pop	{r4, r5, r6, pc}
 8000990:	f00e 4e00 	and.w	lr, lr, #2147483648	; 0x80000000
 8000994:	ea4e 3111 	orr.w	r1, lr, r1, lsr #12
 8000998:	eb14 045c 	adds.w	r4, r4, ip, lsr #1
 800099c:	bfc2      	ittt	gt
 800099e:	ebd4 050c 	rsbsgt	r5, r4, ip
 80009a2:	ea41 5104 	orrgt.w	r1, r1, r4, lsl #20
 80009a6:	bd70      	popgt	{r4, r5, r6, pc}
 80009a8:	f441 1180 	orr.w	r1, r1, #1048576	; 0x100000
 80009ac:	f04f 0e00 	mov.w	lr, #0
 80009b0:	3c01      	subs	r4, #1
 80009b2:	e690      	b.n	80006d6 <__aeabi_dmul+0xde>
 80009b4:	ea45 0e06 	orr.w	lr, r5, r6
 80009b8:	e68d      	b.n	80006d6 <__aeabi_dmul+0xde>
 80009ba:	ea0c 5513 	and.w	r5, ip, r3, lsr #20
 80009be:	ea94 0f0c 	teq	r4, ip
 80009c2:	bf08      	it	eq
 80009c4:	ea95 0f0c 	teqeq	r5, ip
 80009c8:	f43f af3b 	beq.w	8000842 <__aeabi_dmul+0x24a>
 80009cc:	ea94 0f0c 	teq	r4, ip
 80009d0:	d10a      	bne.n	80009e8 <__aeabi_ddiv+0x19c>
 80009d2:	ea50 3401 	orrs.w	r4, r0, r1, lsl #12
 80009d6:	f47f af34 	bne.w	8000842 <__aeabi_dmul+0x24a>
 80009da:	ea95 0f0c 	teq	r5, ip
 80009de:	f47f af25 	bne.w	800082c <__aeabi_dmul+0x234>
 80009e2:	4610      	mov	r0, r2
 80009e4:	4619      	mov	r1, r3
 80009e6:	e72c      	b.n	8000842 <__aeabi_dmul+0x24a>
 80009e8:	ea95 0f0c 	teq	r5, ip
 80009ec:	d106      	bne.n	80009fc <__aeabi_ddiv+0x1b0>
 80009ee:	ea52 3503 	orrs.w	r5, r2, r3, lsl #12
 80009f2:	f43f aefd 	beq.w	80007f0 <__aeabi_dmul+0x1f8>
 80009f6:	4610      	mov	r0, r2
 80009f8:	4619      	mov	r1, r3
 80009fa:	e722      	b.n	8000842 <__aeabi_dmul+0x24a>
 80009fc:	ea50 0641 	orrs.w	r6, r0, r1, lsl #1
 8000a00:	bf18      	it	ne
 8000a02:	ea52 0643 	orrsne.w	r6, r2, r3, lsl #1
 8000a06:	f47f aec5 	bne.w	8000794 <__aeabi_dmul+0x19c>
 8000a0a:	ea50 0441 	orrs.w	r4, r0, r1, lsl #1
 8000a0e:	f47f af0d 	bne.w	800082c <__aeabi_dmul+0x234>
 8000a12:	ea52 0543 	orrs.w	r5, r2, r3, lsl #1
 8000a16:	f47f aeeb 	bne.w	80007f0 <__aeabi_dmul+0x1f8>
 8000a1a:	e712      	b.n	8000842 <__aeabi_dmul+0x24a>

08000a1c <__gedf2>:
 8000a1c:	f04f 3cff 	mov.w	ip, #4294967295	; 0xffffffff
 8000a20:	e006      	b.n	8000a30 <__cmpdf2+0x4>
 8000a22:	bf00      	nop

08000a24 <__ledf2>:
 8000a24:	f04f 0c01 	mov.w	ip, #1
 8000a28:	e002      	b.n	8000a30 <__cmpdf2+0x4>
 8000a2a:	bf00      	nop

08000a2c <__cmpdf2>:
 8000a2c:	f04f 0c01 	mov.w	ip, #1
 8000a30:	f84d cd04 	str.w	ip, [sp, #-4]!
 8000a34:	ea4f 0c41 	mov.w	ip, r1, lsl #1
 8000a38:	ea7f 5c6c 	mvns.w	ip, ip, asr #21
 8000a3c:	ea4f 0c43 	mov.w	ip, r3, lsl #1
 8000a40:	bf18      	it	ne
 8000a42:	ea7f 5c6c 	mvnsne.w	ip, ip, asr #21
 8000a46:	d01b      	beq.n	8000a80 <__cmpdf2+0x54>
 8000a48:	b001      	add	sp, #4
 8000a4a:	ea50 0c41 	orrs.w	ip, r0, r1, lsl #1
 8000a4e:	bf0c      	ite	eq
 8000a50:	ea52 0c43 	orrseq.w	ip, r2, r3, lsl #1
 8000a54:	ea91 0f03 	teqne	r1, r3
 8000a58:	bf02      	ittt	eq
 8000a5a:	ea90 0f02 	teqeq	r0, r2
 8000a5e:	2000      	moveq	r0, #0
 8000a60:	4770      	bxeq	lr
 8000a62:	f110 0f00 	cmn.w	r0, #0
 8000a66:	ea91 0f03 	teq	r1, r3
 8000a6a:	bf58      	it	pl
 8000a6c:	4299      	cmppl	r1, r3
 8000a6e:	bf08      	it	eq
 8000a70:	4290      	cmpeq	r0, r2
 8000a72:	bf2c      	ite	cs
 8000a74:	17d8      	asrcs	r0, r3, #31
 8000a76:	ea6f 70e3 	mvncc.w	r0, r3, asr #31
 8000a7a:	f040 0001 	orr.w	r0, r0, #1
 8000a7e:	4770      	bx	lr
 8000a80:	ea4f 0c41 	mov.w	ip, r1, lsl #1
 8000a84:	ea7f 5c6c 	mvns.w	ip, ip, asr #21
 8000a88:	d102      	bne.n	8000a90 <__cmpdf2+0x64>
 8000a8a:	ea50 3c01 	orrs.w	ip, r0, r1, lsl #12
 8000a8e:	d107      	bne.n	8000aa0 <__cmpdf2+0x74>
 8000a90:	ea4f 0c43 	mov.w	ip, r3, lsl #1
 8000a94:	ea7f 5c6c 	mvns.w	ip, ip, asr #21
 8000a98:	d1d6      	bne.n	8000a48 <__cmpdf2+0x1c>
 8000a9a:	ea52 3c03 	orrs.w	ip, r2, r3, lsl #12
 8000a9e:	d0d3      	beq.n	8000a48 <__cmpdf2+0x1c>
 8000aa0:	f85d 0b04 	ldr.w	r0, [sp], #4
 8000aa4:	4770      	bx	lr
 8000aa6:	bf00      	nop

08000aa8 <__aeabi_cdrcmple>:
 8000aa8:	4684      	mov	ip, r0
 8000aaa:	4610      	mov	r0, r2
 8000aac:	4662      	mov	r2, ip
 8000aae:	468c      	mov	ip, r1
 8000ab0:	4619      	mov	r1, r3
 8000ab2:	4663      	mov	r3, ip
 8000ab4:	e000      	b.n	8000ab8 <__aeabi_cdcmpeq>
 8000ab6:	bf00      	nop

08000ab8 <__aeabi_cdcmpeq>:
 8000ab8:	b501      	push	{r0, lr}
 8000aba:	f7ff ffb7 	bl	8000a2c <__cmpdf2>
 8000abe:	2800      	cmp	r0, #0
 8000ac0:	bf48      	it	mi
 8000ac2:	f110 0f00 	cmnmi.w	r0, #0
 8000ac6:	bd01      	pop	{r0, pc}

08000ac8 <__aeabi_dcmpeq>:
 8000ac8:	f84d ed08 	str.w	lr, [sp, #-8]!
 8000acc:	f7ff fff4 	bl	8000ab8 <__aeabi_cdcmpeq>
 8000ad0:	bf0c      	ite	eq
 8000ad2:	2001      	moveq	r0, #1
 8000ad4:	2000      	movne	r0, #0
 8000ad6:	f85d fb08 	ldr.w	pc, [sp], #8
 8000ada:	bf00      	nop

08000adc <__aeabi_dcmplt>:
 8000adc:	f84d ed08 	str.w	lr, [sp, #-8]!
 8000ae0:	f7ff ffea 	bl	8000ab8 <__aeabi_cdcmpeq>
 8000ae4:	bf34      	ite	cc
 8000ae6:	2001      	movcc	r0, #1
 8000ae8:	2000      	movcs	r0, #0
 8000aea:	f85d fb08 	ldr.w	pc, [sp], #8
 8000aee:	bf00      	nop

08000af0 <__aeabi_dcmple>:
 8000af0:	f84d ed08 	str.w	lr, [sp, #-8]!
 8000af4:	f7ff ffe0 	bl	8000ab8 <__aeabi_cdcmpeq>
 8000af8:	bf94      	ite	ls
 8000afa:	2001      	movls	r0, #1
 8000afc:	2000      	movhi	r0, #0
 8000afe:	f85d fb08 	ldr.w	pc, [sp], #8
 8000b02:	bf00      	nop

08000b04 <__aeabi_dcmpge>:
 8000b04:	f84d ed08 	str.w	lr, [sp, #-8]!
 8000b08:	f7ff ffce 	bl	8000aa8 <__aeabi_cdrcmple>
 8000b0c:	bf94      	ite	ls
 8000b0e:	2001      	movls	r0, #1
 8000b10:	2000      	movhi	r0, #0
 8000b12:	f85d fb08 	ldr.w	pc, [sp], #8
 8000b16:	bf00      	nop

08000b18 <__aeabi_dcmpgt>:
 8000b18:	f84d ed08 	str.w	lr, [sp, #-8]!
 8000b1c:	f7ff ffc4 	bl	8000aa8 <__aeabi_cdrcmple>
 8000b20:	bf34      	ite	cc
 8000b22:	2001      	movcc	r0, #1
 8000b24:	2000      	movcs	r0, #0
 8000b26:	f85d fb08 	ldr.w	pc, [sp], #8
 8000b2a:	bf00      	nop

08000b2c <__aeabi_dcmpun>:
 8000b2c:	ea4f 0c41 	mov.w	ip, r1, lsl #1
 8000b30:	ea7f 5c6c 	mvns.w	ip, ip, asr #21
 8000b34:	d102      	bne.n	8000b3c <__aeabi_dcmpun+0x10>
 8000b36:	ea50 3c01 	orrs.w	ip, r0, r1, lsl #12
 8000b3a:	d10a      	bne.n	8000b52 <__aeabi_dcmpun+0x26>
 8000b3c:	ea4f 0c43 	mov.w	ip, r3, lsl #1
 8000b40:	ea7f 5c6c 	mvns.w	ip, ip, asr #21
 8000b44:	d102      	bne.n	8000b4c <__aeabi_dcmpun+0x20>
 8000b46:	ea52 3c03 	orrs.w	ip, r2, r3, lsl #12
 8000b4a:	d102      	bne.n	8000b52 <__aeabi_dcmpun+0x26>
 8000b4c:	f04f 0000 	mov.w	r0, #0
 8000b50:	4770      	bx	lr
 8000b52:	f04f 0001 	mov.w	r0, #1
 8000b56:	4770      	bx	lr

08000b58 <__aeabi_d2iz>:
 8000b58:	ea4f 0241 	mov.w	r2, r1, lsl #1
 8000b5c:	f512 1200 	adds.w	r2, r2, #2097152	; 0x200000
 8000b60:	d215      	bcs.n	8000b8e <__aeabi_d2iz+0x36>
 8000b62:	d511      	bpl.n	8000b88 <__aeabi_d2iz+0x30>
 8000b64:	f46f 7378 	mvn.w	r3, #992	; 0x3e0
 8000b68:	ebb3 5262 	subs.w	r2, r3, r2, asr #21
 8000b6c:	d912      	bls.n	8000b94 <__aeabi_d2iz+0x3c>
 8000b6e:	ea4f 23c1 	mov.w	r3, r1, lsl #11
 8000b72:	f043 4300 	orr.w	r3, r3, #2147483648	; 0x80000000
 8000b76:	ea43 5350 	orr.w	r3, r3, r0, lsr #21
 8000b7a:	f011 4f00 	tst.w	r1, #2147483648	; 0x80000000
 8000b7e:	fa23 f002 	lsr.w	r0, r3, r2
 8000b82:	bf18      	it	ne
 8000b84:	4240      	negne	r0, r0
 8000b86:	4770      	bx	lr
 8000b88:	f04f 0000 	mov.w	r0, #0
 8000b8c:	4770      	bx	lr
 8000b8e:	ea50 3001 	orrs.w	r0, r0, r1, lsl #12
 8000b92:	d105      	bne.n	8000ba0 <__aeabi_d2iz+0x48>
 8000b94:	f011 4000 	ands.w	r0, r1, #2147483648	; 0x80000000
 8000b98:	bf08      	it	eq
 8000b9a:	f06f 4000 	mvneq.w	r0, #2147483648	; 0x80000000
 8000b9e:	4770      	bx	lr
 8000ba0:	f04f 0000 	mov.w	r0, #0
 8000ba4:	4770      	bx	lr
 8000ba6:	bf00      	nop

08000ba8 <__aeabi_uldivmod>:
 8000ba8:	b953      	cbnz	r3, 8000bc0 <__aeabi_uldivmod+0x18>
 8000baa:	b94a      	cbnz	r2, 8000bc0 <__aeabi_uldivmod+0x18>
 8000bac:	2900      	cmp	r1, #0
 8000bae:	bf08      	it	eq
 8000bb0:	2800      	cmpeq	r0, #0
 8000bb2:	bf1c      	itt	ne
 8000bb4:	f04f 31ff 	movne.w	r1, #4294967295	; 0xffffffff
 8000bb8:	f04f 30ff 	movne.w	r0, #4294967295	; 0xffffffff
 8000bbc:	f000 b96e 	b.w	8000e9c <__aeabi_idiv0>
 8000bc0:	f1ad 0c08 	sub.w	ip, sp, #8
 8000bc4:	e96d ce04 	strd	ip, lr, [sp, #-16]!
 8000bc8:	f000 f806 	bl	8000bd8 <__udivmoddi4>
 8000bcc:	f8dd e004 	ldr.w	lr, [sp, #4]
 8000bd0:	e9dd 2302 	ldrd	r2, r3, [sp, #8]
 8000bd4:	b004      	add	sp, #16
 8000bd6:	4770      	bx	lr

08000bd8 <__udivmoddi4>:
 8000bd8:	e92d 47f0 	stmdb	sp!, {r4, r5, r6, r7, r8, r9, sl, lr}
 8000bdc:	9d08      	ldr	r5, [sp, #32]
 8000bde:	4604      	mov	r4, r0
 8000be0:	468c      	mov	ip, r1
 8000be2:	2b00      	cmp	r3, #0
 8000be4:	f040 8083 	bne.w	8000cee <__udivmoddi4+0x116>
 8000be8:	428a      	cmp	r2, r1
 8000bea:	4617      	mov	r7, r2
 8000bec:	d947      	bls.n	8000c7e <__udivmoddi4+0xa6>
 8000bee:	fab2 f282 	clz	r2, r2
 8000bf2:	b142      	cbz	r2, 8000c06 <__udivmoddi4+0x2e>
 8000bf4:	f1c2 0020 	rsb	r0, r2, #32
 8000bf8:	fa24 f000 	lsr.w	r0, r4, r0
 8000bfc:	4091      	lsls	r1, r2
 8000bfe:	4097      	lsls	r7, r2
 8000c00:	ea40 0c01 	orr.w	ip, r0, r1
 8000c04:	4094      	lsls	r4, r2
 8000c06:	ea4f 4817 	mov.w	r8, r7, lsr #16
 8000c0a:	0c23      	lsrs	r3, r4, #16
 8000c0c:	fbbc f6f8 	udiv	r6, ip, r8
 8000c10:	fa1f fe87 	uxth.w	lr, r7
 8000c14:	fb08 c116 	mls	r1, r8, r6, ip
 8000c18:	ea43 4301 	orr.w	r3, r3, r1, lsl #16
 8000c1c:	fb06 f10e 	mul.w	r1, r6, lr
 8000c20:	4299      	cmp	r1, r3
 8000c22:	d909      	bls.n	8000c38 <__udivmoddi4+0x60>
 8000c24:	18fb      	adds	r3, r7, r3
 8000c26:	f106 30ff 	add.w	r0, r6, #4294967295	; 0xffffffff
 8000c2a:	f080 8119 	bcs.w	8000e60 <__udivmoddi4+0x288>
 8000c2e:	4299      	cmp	r1, r3
 8000c30:	f240 8116 	bls.w	8000e60 <__udivmoddi4+0x288>
 8000c34:	3e02      	subs	r6, #2
 8000c36:	443b      	add	r3, r7
 8000c38:	1a5b      	subs	r3, r3, r1
 8000c3a:	b2a4      	uxth	r4, r4
 8000c3c:	fbb3 f0f8 	udiv	r0, r3, r8
 8000c40:	fb08 3310 	mls	r3, r8, r0, r3
 8000c44:	ea44 4403 	orr.w	r4, r4, r3, lsl #16
 8000c48:	fb00 fe0e 	mul.w	lr, r0, lr
 8000c4c:	45a6      	cmp	lr, r4
 8000c4e:	d909      	bls.n	8000c64 <__udivmoddi4+0x8c>
 8000c50:	193c      	adds	r4, r7, r4
 8000c52:	f100 33ff 	add.w	r3, r0, #4294967295	; 0xffffffff
 8000c56:	f080 8105 	bcs.w	8000e64 <__udivmoddi4+0x28c>
 8000c5a:	45a6      	cmp	lr, r4
 8000c5c:	f240 8102 	bls.w	8000e64 <__udivmoddi4+0x28c>
 8000c60:	3802      	subs	r0, #2
 8000c62:	443c      	add	r4, r7
 8000c64:	ea40 4006 	orr.w	r0, r0, r6, lsl #16
 8000c68:	eba4 040e 	sub.w	r4, r4, lr
 8000c6c:	2600      	movs	r6, #0
 8000c6e:	b11d      	cbz	r5, 8000c78 <__udivmoddi4+0xa0>
 8000c70:	40d4      	lsrs	r4, r2
 8000c72:	2300      	movs	r3, #0
 8000c74:	e9c5 4300 	strd	r4, r3, [r5]
 8000c78:	4631      	mov	r1, r6
 8000c7a:	e8bd 87f0 	ldmia.w	sp!, {r4, r5, r6, r7, r8, r9, sl, pc}
 8000c7e:	b902      	cbnz	r2, 8000c82 <__udivmoddi4+0xaa>
 8000c80:	deff      	udf	#255	; 0xff
 8000c82:	fab2 f282 	clz	r2, r2
 8000c86:	2a00      	cmp	r2, #0
 8000c88:	d150      	bne.n	8000d2c <__udivmoddi4+0x154>
 8000c8a:	1bcb      	subs	r3, r1, r7
 8000c8c:	ea4f 4e17 	mov.w	lr, r7, lsr #16
 8000c90:	fa1f f887 	uxth.w	r8, r7
 8000c94:	2601      	movs	r6, #1
 8000c96:	fbb3 fcfe 	udiv	ip, r3, lr
 8000c9a:	0c21      	lsrs	r1, r4, #16
 8000c9c:	fb0e 331c 	mls	r3, lr, ip, r3
 8000ca0:	ea41 4103 	orr.w	r1, r1, r3, lsl #16
 8000ca4:	fb08 f30c 	mul.w	r3, r8, ip
 8000ca8:	428b      	cmp	r3, r1
 8000caa:	d907      	bls.n	8000cbc <__udivmoddi4+0xe4>
 8000cac:	1879      	adds	r1, r7, r1
 8000cae:	f10c 30ff 	add.w	r0, ip, #4294967295	; 0xffffffff
 8000cb2:	d202      	bcs.n	8000cba <__udivmoddi4+0xe2>
 8000cb4:	428b      	cmp	r3, r1
 8000cb6:	f200 80e9 	bhi.w	8000e8c <__udivmoddi4+0x2b4>
 8000cba:	4684      	mov	ip, r0
 8000cbc:	1ac9      	subs	r1, r1, r3
 8000cbe:	b2a3      	uxth	r3, r4
 8000cc0:	fbb1 f0fe 	udiv	r0, r1, lr
 8000cc4:	fb0e 1110 	mls	r1, lr, r0, r1
 8000cc8:	ea43 4401 	orr.w	r4, r3, r1, lsl #16
 8000ccc:	fb08 f800 	mul.w	r8, r8, r0
 8000cd0:	45a0      	cmp	r8, r4
 8000cd2:	d907      	bls.n	8000ce4 <__udivmoddi4+0x10c>
 8000cd4:	193c      	adds	r4, r7, r4
 8000cd6:	f100 33ff 	add.w	r3, r0, #4294967295	; 0xffffffff
 8000cda:	d202      	bcs.n	8000ce2 <__udivmoddi4+0x10a>
 8000cdc:	45a0      	cmp	r8, r4
 8000cde:	f200 80d9 	bhi.w	8000e94 <__udivmoddi4+0x2bc>
 8000ce2:	4618      	mov	r0, r3
 8000ce4:	eba4 0408 	sub.w	r4, r4, r8
 8000ce8:	ea40 400c 	orr.w	r0, r0, ip, lsl #16
 8000cec:	e7bf      	b.n	8000c6e <__udivmoddi4+0x96>
 8000cee:	428b      	cmp	r3, r1
 8000cf0:	d909      	bls.n	8000d06 <__udivmoddi4+0x12e>
 8000cf2:	2d00      	cmp	r5, #0
 8000cf4:	f000 80b1 	beq.w	8000e5a <__udivmoddi4+0x282>
 8000cf8:	2600      	movs	r6, #0
 8000cfa:	e9c5 0100 	strd	r0, r1, [r5]
 8000cfe:	4630      	mov	r0, r6
 8000d00:	4631      	mov	r1, r6
 8000d02:	e8bd 87f0 	ldmia.w	sp!, {r4, r5, r6, r7, r8, r9, sl, pc}
 8000d06:	fab3 f683 	clz	r6, r3
 8000d0a:	2e00      	cmp	r6, #0
 8000d0c:	d14a      	bne.n	8000da4 <__udivmoddi4+0x1cc>
 8000d0e:	428b      	cmp	r3, r1
 8000d10:	d302      	bcc.n	8000d18 <__udivmoddi4+0x140>
 8000d12:	4282      	cmp	r2, r0
 8000d14:	f200 80b8 	bhi.w	8000e88 <__udivmoddi4+0x2b0>
 8000d18:	1a84      	subs	r4, r0, r2
 8000d1a:	eb61 0103 	sbc.w	r1, r1, r3
 8000d1e:	2001      	movs	r0, #1
 8000d20:	468c      	mov	ip, r1
 8000d22:	2d00      	cmp	r5, #0
 8000d24:	d0a8      	beq.n	8000c78 <__udivmoddi4+0xa0>
 8000d26:	e9c5 4c00 	strd	r4, ip, [r5]
 8000d2a:	e7a5      	b.n	8000c78 <__udivmoddi4+0xa0>
 8000d2c:	f1c2 0320 	rsb	r3, r2, #32
 8000d30:	fa20 f603 	lsr.w	r6, r0, r3
 8000d34:	4097      	lsls	r7, r2
 8000d36:	fa01 f002 	lsl.w	r0, r1, r2
 8000d3a:	ea4f 4e17 	mov.w	lr, r7, lsr #16
 8000d3e:	40d9      	lsrs	r1, r3
 8000d40:	4330      	orrs	r0, r6
 8000d42:	0c03      	lsrs	r3, r0, #16
 8000d44:	fbb1 f6fe 	udiv	r6, r1, lr
 8000d48:	fa1f f887 	uxth.w	r8, r7
 8000d4c:	fb0e 1116 	mls	r1, lr, r6, r1
 8000d50:	ea43 4301 	orr.w	r3, r3, r1, lsl #16
 8000d54:	fb06 f108 	mul.w	r1, r6, r8
 8000d58:	4299      	cmp	r1, r3
 8000d5a:	fa04 f402 	lsl.w	r4, r4, r2
 8000d5e:	d909      	bls.n	8000d74 <__udivmoddi4+0x19c>
 8000d60:	18fb      	adds	r3, r7, r3
 8000d62:	f106 3cff 	add.w	ip, r6, #4294967295	; 0xffffffff
 8000d66:	f080 808d 	bcs.w	8000e84 <__udivmoddi4+0x2ac>
 8000d6a:	4299      	cmp	r1, r3
 8000d6c:	f240 808a 	bls.w	8000e84 <__udivmoddi4+0x2ac>
 8000d70:	3e02      	subs	r6, #2
 8000d72:	443b      	add	r3, r7
 8000d74:	1a5b      	subs	r3, r3, r1
 8000d76:	b281      	uxth	r1, r0
 8000d78:	fbb3 f0fe 	udiv	r0, r3, lr
 8000d7c:	fb0e 3310 	mls	r3, lr, r0, r3
 8000d80:	ea41 4103 	orr.w	r1, r1, r3, lsl #16
 8000d84:	fb00 f308 	mul.w	r3, r0, r8
 8000d88:	428b      	cmp	r3, r1
 8000d8a:	d907      	bls.n	8000d9c <__udivmoddi4+0x1c4>
 8000d8c:	1879      	adds	r1, r7, r1
 8000d8e:	f100 3cff 	add.w	ip, r0, #4294967295	; 0xffffffff
 8000d92:	d273      	bcs.n	8000e7c <__udivmoddi4+0x2a4>
 8000d94:	428b      	cmp	r3, r1
 8000d96:	d971      	bls.n	8000e7c <__udivmoddi4+0x2a4>
 8000d98:	3802      	subs	r0, #2
 8000d9a:	4439      	add	r1, r7
 8000d9c:	1acb      	subs	r3, r1, r3
 8000d9e:	ea40 4606 	orr.w	r6, r0, r6, lsl #16
 8000da2:	e778      	b.n	8000c96 <__udivmoddi4+0xbe>
 8000da4:	f1c6 0c20 	rsb	ip, r6, #32
 8000da8:	fa03 f406 	lsl.w	r4, r3, r6
 8000dac:	fa22 f30c 	lsr.w	r3, r2, ip
 8000db0:	431c      	orrs	r4, r3
 8000db2:	fa20 f70c 	lsr.w	r7, r0, ip
 8000db6:	fa01 f306 	lsl.w	r3, r1, r6
 8000dba:	ea4f 4e14 	mov.w	lr, r4, lsr #16
 8000dbe:	fa21 f10c 	lsr.w	r1, r1, ip
 8000dc2:	431f      	orrs	r7, r3
 8000dc4:	0c3b      	lsrs	r3, r7, #16
 8000dc6:	fbb1 f9fe 	udiv	r9, r1, lr
 8000dca:	fa1f f884 	uxth.w	r8, r4
 8000dce:	fb0e 1119 	mls	r1, lr, r9, r1
 8000dd2:	ea43 4101 	orr.w	r1, r3, r1, lsl #16
 8000dd6:	fb09 fa08 	mul.w	sl, r9, r8
 8000dda:	458a      	cmp	sl, r1
 8000ddc:	fa02 f206 	lsl.w	r2, r2, r6
 8000de0:	fa00 f306 	lsl.w	r3, r0, r6
 8000de4:	d908      	bls.n	8000df8 <__udivmoddi4+0x220>
 8000de6:	1861      	adds	r1, r4, r1
 8000de8:	f109 30ff 	add.w	r0, r9, #4294967295	; 0xffffffff
 8000dec:	d248      	bcs.n	8000e80 <__udivmoddi4+0x2a8>
 8000dee:	458a      	cmp	sl, r1
 8000df0:	d946      	bls.n	8000e80 <__udivmoddi4+0x2a8>
 8000df2:	f1a9 0902 	sub.w	r9, r9, #2
 8000df6:	4421      	add	r1, r4
 8000df8:	eba1 010a 	sub.w	r1, r1, sl
 8000dfc:	b2bf      	uxth	r7, r7
 8000dfe:	fbb1 f0fe 	udiv	r0, r1, lr
 8000e02:	fb0e 1110 	mls	r1, lr, r0, r1
 8000e06:	ea47 4701 	orr.w	r7, r7, r1, lsl #16
 8000e0a:	fb00 f808 	mul.w	r8, r0, r8
 8000e0e:	45b8      	cmp	r8, r7
 8000e10:	d907      	bls.n	8000e22 <__udivmoddi4+0x24a>
 8000e12:	19e7      	adds	r7, r4, r7
 8000e14:	f100 31ff 	add.w	r1, r0, #4294967295	; 0xffffffff
 8000e18:	d22e      	bcs.n	8000e78 <__udivmoddi4+0x2a0>
 8000e1a:	45b8      	cmp	r8, r7
 8000e1c:	d92c      	bls.n	8000e78 <__udivmoddi4+0x2a0>
 8000e1e:	3802      	subs	r0, #2
 8000e20:	4427      	add	r7, r4
 8000e22:	ea40 4009 	orr.w	r0, r0, r9, lsl #16
 8000e26:	eba7 0708 	sub.w	r7, r7, r8
 8000e2a:	fba0 8902 	umull	r8, r9, r0, r2
 8000e2e:	454f      	cmp	r7, r9
 8000e30:	46c6      	mov	lr, r8
 8000e32:	4649      	mov	r1, r9
 8000e34:	d31a      	bcc.n	8000e6c <__udivmoddi4+0x294>
 8000e36:	d017      	beq.n	8000e68 <__udivmoddi4+0x290>
 8000e38:	b15d      	cbz	r5, 8000e52 <__udivmoddi4+0x27a>
 8000e3a:	ebb3 020e 	subs.w	r2, r3, lr
 8000e3e:	eb67 0701 	sbc.w	r7, r7, r1
 8000e42:	fa07 fc0c 	lsl.w	ip, r7, ip
 8000e46:	40f2      	lsrs	r2, r6
 8000e48:	ea4c 0202 	orr.w	r2, ip, r2
 8000e4c:	40f7      	lsrs	r7, r6
 8000e4e:	e9c5 2700 	strd	r2, r7, [r5]
 8000e52:	2600      	movs	r6, #0
 8000e54:	4631      	mov	r1, r6
 8000e56:	e8bd 87f0 	ldmia.w	sp!, {r4, r5, r6, r7, r8, r9, sl, pc}
 8000e5a:	462e      	mov	r6, r5
 8000e5c:	4628      	mov	r0, r5
 8000e5e:	e70b      	b.n	8000c78 <__udivmoddi4+0xa0>
 8000e60:	4606      	mov	r6, r0
 8000e62:	e6e9      	b.n	8000c38 <__udivmoddi4+0x60>
 8000e64:	4618      	mov	r0, r3
 8000e66:	e6fd      	b.n	8000c64 <__udivmoddi4+0x8c>
 8000e68:	4543      	cmp	r3, r8
 8000e6a:	d2e5      	bcs.n	8000e38 <__udivmoddi4+0x260>
 8000e6c:	ebb8 0e02 	subs.w	lr, r8, r2
 8000e70:	eb69 0104 	sbc.w	r1, r9, r4
 8000e74:	3801      	subs	r0, #1
 8000e76:	e7df      	b.n	8000e38 <__udivmoddi4+0x260>
 8000e78:	4608      	mov	r0, r1
 8000e7a:	e7d2      	b.n	8000e22 <__udivmoddi4+0x24a>
 8000e7c:	4660      	mov	r0, ip
 8000e7e:	e78d      	b.n	8000d9c <__udivmoddi4+0x1c4>
 8000e80:	4681      	mov	r9, r0
 8000e82:	e7b9      	b.n	8000df8 <__udivmoddi4+0x220>
 8000e84:	4666      	mov	r6, ip
 8000e86:	e775      	b.n	8000d74 <__udivmoddi4+0x19c>
 8000e88:	4630      	mov	r0, r6
 8000e8a:	e74a      	b.n	8000d22 <__udivmoddi4+0x14a>
 8000e8c:	f1ac 0c02 	sub.w	ip, ip, #2
 8000e90:	4439      	add	r1, r7
 8000e92:	e713      	b.n	8000cbc <__udivmoddi4+0xe4>
 8000e94:	3802      	subs	r0, #2
 8000e96:	443c      	add	r4, r7
 8000e98:	e724      	b.n	8000ce4 <__udivmoddi4+0x10c>
 8000e9a:	bf00      	nop

08000e9c <__aeabi_idiv0>:
 8000e9c:	4770      	bx	lr
 8000e9e:	bf00      	nop

08000ea0 <ai_mnist_data_weights_get>:
 8000ea0:	4800      	ldr	r0, [pc, #0]	; (8000ea4 <ai_mnist_data_weights_get+0x4>)
 8000ea2:	4770      	bx	lr
 8000ea4:	0801c088 	.word	0x0801c088

08000ea8 <ai_mnist_create>:
 8000ea8:	b500      	push	{lr}
 8000eaa:	b083      	sub	sp, #12
 8000eac:	2300      	movs	r3, #0
 8000eae:	9301      	str	r3, [sp, #4]
 8000eb0:	2304      	movs	r3, #4
 8000eb2:	9300      	str	r3, [sp, #0]
 8000eb4:	2301      	movs	r3, #1
 8000eb6:	4a03      	ldr	r2, [pc, #12]	; (8000ec4 <ai_mnist_create+0x1c>)
 8000eb8:	f004 fa7a 	bl	80053b0 <ai_platform_network_create>
 8000ebc:	b003      	add	sp, #12
 8000ebe:	f85d fb04 	ldr.w	pc, [sp], #4
 8000ec2:	bf00      	nop
 8000ec4:	2000045c 	.word	0x2000045c

08000ec8 <ai_mnist_init>:
 8000ec8:	b5f0      	push	{r4, r5, r6, r7, lr}
 8000eca:	b083      	sub	sp, #12
 8000ecc:	4606      	mov	r6, r0
 8000ece:	460d      	mov	r5, r1
 8000ed0:	f004 fb44 	bl	800555c <ai_platform_network_init>
 8000ed4:	2800      	cmp	r0, #0
 8000ed6:	d053      	beq.n	8000f80 <ai_mnist_init+0xb8>
 8000ed8:	2300      	movs	r3, #0
 8000eda:	9301      	str	r3, [sp, #4]
 8000edc:	462a      	mov	r2, r5
 8000ede:	2101      	movs	r1, #1
 8000ee0:	a801      	add	r0, sp, #4
 8000ee2:	f004 f9fd 	bl	80052e0 <ai_platform_get_weights_map>
 8000ee6:	4607      	mov	r7, r0
 8000ee8:	b988      	cbnz	r0, 8000f0e <ai_mnist_init+0x46>
 8000eea:	2300      	movs	r3, #0
 8000eec:	9301      	str	r3, [sp, #4]
 8000eee:	462a      	mov	r2, r5
 8000ef0:	2101      	movs	r1, #1
 8000ef2:	a801      	add	r0, sp, #4
 8000ef4:	f004 fa28 	bl	8005348 <ai_platform_get_activations_map>
 8000ef8:	4604      	mov	r4, r0
 8000efa:	2800      	cmp	r0, #0
 8000efc:	d12c      	bne.n	8000f58 <ai_mnist_init+0x90>
 8000efe:	403c      	ands	r4, r7
 8000f00:	b2e4      	uxtb	r4, r4
 8000f02:	4630      	mov	r0, r6
 8000f04:	f004 fc3c 	bl	8005780 <ai_platform_network_post_init>
 8000f08:	4020      	ands	r0, r4
 8000f0a:	b003      	add	sp, #12
 8000f0c:	bdf0      	pop	{r4, r5, r6, r7, pc}
 8000f0e:	4a1d      	ldr	r2, [pc, #116]	; (8000f84 <ai_mnist_init+0xbc>)
 8000f10:	6813      	ldr	r3, [r2, #0]
 8000f12:	f043 4380 	orr.w	r3, r3, #1073741824	; 0x40000000
 8000f16:	6013      	str	r3, [r2, #0]
 8000f18:	9b01      	ldr	r3, [sp, #4]
 8000f1a:	6093      	str	r3, [r2, #8]
 8000f1c:	60d3      	str	r3, [r2, #12]
 8000f1e:	4a1a      	ldr	r2, [pc, #104]	; (8000f88 <ai_mnist_init+0xc0>)
 8000f20:	6811      	ldr	r1, [r2, #0]
 8000f22:	f041 4180 	orr.w	r1, r1, #1073741824	; 0x40000000
 8000f26:	6011      	str	r1, [r2, #0]
 8000f28:	f503 71d8 	add.w	r1, r3, #432	; 0x1b0
 8000f2c:	6091      	str	r1, [r2, #8]
 8000f2e:	60d1      	str	r1, [r2, #12]
 8000f30:	4a16      	ldr	r2, [pc, #88]	; (8000f8c <ai_mnist_init+0xc4>)
 8000f32:	6811      	ldr	r1, [r2, #0]
 8000f34:	f041 4180 	orr.w	r1, r1, #1073741824	; 0x40000000
 8000f38:	6011      	str	r1, [r2, #0]
 8000f3a:	f503 71f0 	add.w	r1, r3, #480	; 0x1e0
 8000f3e:	6091      	str	r1, [r2, #8]
 8000f40:	60d1      	str	r1, [r2, #12]
 8000f42:	4a13      	ldr	r2, [pc, #76]	; (8000f90 <ai_mnist_init+0xc8>)
 8000f44:	6811      	ldr	r1, [r2, #0]
 8000f46:	f041 4180 	orr.w	r1, r1, #1073741824	; 0x40000000
 8000f4a:	6011      	str	r1, [r2, #0]
 8000f4c:	f503 339f 	add.w	r3, r3, #81408	; 0x13e00
 8000f50:	33c0      	adds	r3, #192	; 0xc0
 8000f52:	6093      	str	r3, [r2, #8]
 8000f54:	60d3      	str	r3, [r2, #12]
 8000f56:	e7c8      	b.n	8000eea <ai_mnist_init+0x22>
 8000f58:	4b0e      	ldr	r3, [pc, #56]	; (8000f94 <ai_mnist_init+0xcc>)
 8000f5a:	2200      	movs	r2, #0
 8000f5c:	609a      	str	r2, [r3, #8]
 8000f5e:	60da      	str	r2, [r3, #12]
 8000f60:	9b01      	ldr	r3, [sp, #4]
 8000f62:	f503 601c 	add.w	r0, r3, #2496	; 0x9c0
 8000f66:	490c      	ldr	r1, [pc, #48]	; (8000f98 <ai_mnist_init+0xd0>)
 8000f68:	6088      	str	r0, [r1, #8]
 8000f6a:	60c8      	str	r0, [r1, #12]
 8000f6c:	490b      	ldr	r1, [pc, #44]	; (8000f9c <ai_mnist_init+0xd4>)
 8000f6e:	608b      	str	r3, [r1, #8]
 8000f70:	60cb      	str	r3, [r1, #12]
 8000f72:	490b      	ldr	r1, [pc, #44]	; (8000fa0 <ai_mnist_init+0xd8>)
 8000f74:	608a      	str	r2, [r1, #8]
 8000f76:	60ca      	str	r2, [r1, #12]
 8000f78:	4a0a      	ldr	r2, [pc, #40]	; (8000fa4 <ai_mnist_init+0xdc>)
 8000f7a:	6093      	str	r3, [r2, #8]
 8000f7c:	60d3      	str	r3, [r2, #12]
 8000f7e:	e7be      	b.n	8000efe <ai_mnist_init+0x36>
 8000f80:	2000      	movs	r0, #0
 8000f82:	e7c2      	b.n	8000f0a <ai_mnist_init+0x42>
 8000f84:	20000380 	.word	0x20000380
 8000f88:	20000284 	.word	0x20000284
 8000f8c:	2000044c 	.word	0x2000044c
 8000f90:	200003d8 	.word	0x200003d8
 8000f94:	200003ac 	.word	0x200003ac
 8000f98:	20000328 	.word	0x20000328
 8000f9c:	20000420 	.word	0x20000420
 8000fa0:	200004e0 	.word	0x200004e0
 8000fa4:	20000354 	.word	0x20000354

08000fa8 <ai_mnist_run>:
 8000fa8:	b508      	push	{r3, lr}
 8000faa:	f004 fc7d 	bl	80058a8 <ai_platform_network_process>
 8000fae:	bd08      	pop	{r3, pc}

08000fb0 <Error_Handler>:
 8000fb0:	b672      	cpsid	i
 8000fb2:	e7fe      	b.n	8000fb2 <Error_Handler+0x2>

08000fb4 <SystemClock_Config>:
 8000fb4:	b500      	push	{lr}
 8000fb6:	b095      	sub	sp, #84	; 0x54
 8000fb8:	2230      	movs	r2, #48	; 0x30
 8000fba:	2100      	movs	r1, #0
 8000fbc:	a808      	add	r0, sp, #32
 8000fbe:	f001 faad 	bl	800251c <memset>
 8000fc2:	2300      	movs	r3, #0
 8000fc4:	9303      	str	r3, [sp, #12]
 8000fc6:	9304      	str	r3, [sp, #16]
 8000fc8:	9305      	str	r3, [sp, #20]
 8000fca:	9306      	str	r3, [sp, #24]
 8000fcc:	9307      	str	r3, [sp, #28]
 8000fce:	9301      	str	r3, [sp, #4]
 8000fd0:	4a1e      	ldr	r2, [pc, #120]	; (800104c <SystemClock_Config+0x98>)
 8000fd2:	6c11      	ldr	r1, [r2, #64]	; 0x40
 8000fd4:	f041 5180 	orr.w	r1, r1, #268435456	; 0x10000000
 8000fd8:	6411      	str	r1, [r2, #64]	; 0x40
 8000fda:	6c12      	ldr	r2, [r2, #64]	; 0x40
 8000fdc:	f002 5280 	and.w	r2, r2, #268435456	; 0x10000000
 8000fe0:	9201      	str	r2, [sp, #4]
 8000fe2:	9a01      	ldr	r2, [sp, #4]
 8000fe4:	9302      	str	r3, [sp, #8]
 8000fe6:	4a1a      	ldr	r2, [pc, #104]	; (8001050 <SystemClock_Config+0x9c>)
 8000fe8:	6811      	ldr	r1, [r2, #0]
 8000fea:	f441 4180 	orr.w	r1, r1, #16384	; 0x4000
 8000fee:	6011      	str	r1, [r2, #0]
 8000ff0:	6812      	ldr	r2, [r2, #0]
 8000ff2:	f402 4280 	and.w	r2, r2, #16384	; 0x4000
 8000ff6:	9202      	str	r2, [sp, #8]
 8000ff8:	9a02      	ldr	r2, [sp, #8]
 8000ffa:	2202      	movs	r2, #2
 8000ffc:	9208      	str	r2, [sp, #32]
 8000ffe:	2101      	movs	r1, #1
 8001000:	910b      	str	r1, [sp, #44]	; 0x2c
 8001002:	2110      	movs	r1, #16
 8001004:	910c      	str	r1, [sp, #48]	; 0x30
 8001006:	920e      	str	r2, [sp, #56]	; 0x38
 8001008:	930f      	str	r3, [sp, #60]	; 0x3c
 800100a:	2308      	movs	r3, #8
 800100c:	9310      	str	r3, [sp, #64]	; 0x40
 800100e:	2332      	movs	r3, #50	; 0x32
 8001010:	9311      	str	r3, [sp, #68]	; 0x44
 8001012:	9212      	str	r2, [sp, #72]	; 0x48
 8001014:	2304      	movs	r3, #4
 8001016:	9313      	str	r3, [sp, #76]	; 0x4c
 8001018:	a808      	add	r0, sp, #32
 800101a:	f000 fb2b 	bl	8001674 <HAL_RCC_OscConfig>
 800101e:	b988      	cbnz	r0, 8001044 <SystemClock_Config+0x90>
 8001020:	230f      	movs	r3, #15
 8001022:	9303      	str	r3, [sp, #12]
 8001024:	2302      	movs	r3, #2
 8001026:	9304      	str	r3, [sp, #16]
 8001028:	2300      	movs	r3, #0
 800102a:	9305      	str	r3, [sp, #20]
 800102c:	f44f 5280 	mov.w	r2, #4096	; 0x1000
 8001030:	9206      	str	r2, [sp, #24]
 8001032:	9307      	str	r3, [sp, #28]
 8001034:	2101      	movs	r1, #1
 8001036:	a803      	add	r0, sp, #12
 8001038:	f000 fd68 	bl	8001b0c <HAL_RCC_ClockConfig>
 800103c:	b920      	cbnz	r0, 8001048 <SystemClock_Config+0x94>
 800103e:	b015      	add	sp, #84	; 0x54
 8001040:	f85d fb04 	ldr.w	pc, [sp], #4
 8001044:	f7ff ffb4 	bl	8000fb0 <Error_Handler>
 8001048:	f7ff ffb2 	bl	8000fb0 <Error_Handler>
 800104c:	40023800 	.word	0x40023800
 8001050:	40007000 	.word	0x40007000

08001054 <main>:
 8001054:	b570      	push	{r4, r5, r6, lr}
 8001056:	b08c      	sub	sp, #48	; 0x30
 8001058:	f000 ff7a 	bl	8001f50 <HAL_Init>
 800105c:	f7ff ffaa 	bl	8000fb4 <SystemClock_Config>
 8001060:	f000 f88a 	bl	8001178 <MX_GPIO_Init>
 8001064:	f000 f8e0 	bl	8001228 <MX_CRC_Init>
 8001068:	f000 ffbc 	bl	8001fe4 <MX_SPI1_Init>
 800106c:	f000 fa6a 	bl	8001544 <model_init>
 8001070:	f000 f9a2 	bl	80013b8 <oled_init>
 8001074:	2500      	movs	r5, #0
 8001076:	e068      	b.n	800114a <main+0xf6>
 8001078:	3301      	adds	r3, #1
 800107a:	2b09      	cmp	r3, #9
 800107c:	dc10      	bgt.n	80010a0 <main+0x4c>
 800107e:	aa0c      	add	r2, sp, #48	; 0x30
 8001080:	eb02 0283 	add.w	r2, r2, r3, lsl #2
 8001084:	ed12 7a0a 	vldr	s14, [r2, #-40]	; 0xffffffd8
 8001088:	aa0c      	add	r2, sp, #48	; 0x30
 800108a:	eb02 0284 	add.w	r2, r2, r4, lsl #2
 800108e:	ed52 7a0a 	vldr	s15, [r2, #-40]	; 0xffffffd8
 8001092:	eeb4 7ae7 	vcmpe.f32	s14, s15
 8001096:	eef1 fa10 	vmrs	APSR_nzcv, fpscr
 800109a:	dded      	ble.n	8001078 <main+0x24>
 800109c:	461c      	mov	r4, r3
 800109e:	e7eb      	b.n	8001078 <main+0x24>
 80010a0:	ab0c      	add	r3, sp, #48	; 0x30
 80010a2:	eb03 0384 	add.w	r3, r3, r4, lsl #2
 80010a6:	4e31      	ldr	r6, [pc, #196]	; (800116c <main+0x118>)
 80010a8:	f853 0c28 	ldr.w	r0, [r3, #-40]
 80010ac:	f7ff fa4c 	bl	8000548 <__aeabi_f2d>
 80010b0:	e9cd 0100 	strd	r0, r1, [sp]
 80010b4:	4622      	mov	r2, r4
 80010b6:	492e      	ldr	r1, [pc, #184]	; (8001170 <main+0x11c>)
 80010b8:	4630      	mov	r0, r6
 80010ba:	f001 fea1 	bl	8002e00 <siprintf>
 80010be:	4632      	mov	r2, r6
 80010c0:	2101      	movs	r1, #1
 80010c2:	2020      	movs	r0, #32
 80010c4:	f000 f958 	bl	8001378 <oled_print>
 80010c8:	f44f 6444 	mov.w	r4, #3136	; 0xc40
 80010cc:	fb05 4404 	mla	r4, r5, r4, r4
 80010d0:	4b28      	ldr	r3, [pc, #160]	; (8001174 <main+0x120>)
 80010d2:	441c      	add	r4, r3
 80010d4:	4622      	mov	r2, r4
 80010d6:	2104      	movs	r1, #4
 80010d8:	2000      	movs	r0, #0
 80010da:	f000 f9f5 	bl	80014c8 <oled_draw>
 80010de:	a902      	add	r1, sp, #8
 80010e0:	4620      	mov	r0, r4
 80010e2:	f000 fa65 	bl	80015b0 <model_run>
 80010e6:	2301      	movs	r3, #1
 80010e8:	2400      	movs	r4, #0
 80010ea:	e000      	b.n	80010ee <main+0x9a>
 80010ec:	3301      	adds	r3, #1
 80010ee:	2b09      	cmp	r3, #9
 80010f0:	dc10      	bgt.n	8001114 <main+0xc0>
 80010f2:	aa0c      	add	r2, sp, #48	; 0x30
 80010f4:	eb02 0283 	add.w	r2, r2, r3, lsl #2
 80010f8:	ed12 7a0a 	vldr	s14, [r2, #-40]	; 0xffffffd8
 80010fc:	aa0c      	add	r2, sp, #48	; 0x30
 80010fe:	eb02 0284 	add.w	r2, r2, r4, lsl #2
 8001102:	ed52 7a0a 	vldr	s15, [r2, #-40]	; 0xffffffd8
 8001106:	eeb4 7ae7 	vcmpe.f32	s14, s15
 800110a:	eef1 fa10 	vmrs	APSR_nzcv, fpscr
 800110e:	dded      	ble.n	80010ec <main+0x98>
 8001110:	461c      	mov	r4, r3
 8001112:	e7eb      	b.n	80010ec <main+0x98>
 8001114:	ab0c      	add	r3, sp, #48	; 0x30
 8001116:	eb03 0384 	add.w	r3, r3, r4, lsl #2
 800111a:	4e14      	ldr	r6, [pc, #80]	; (800116c <main+0x118>)
 800111c:	f853 0c28 	ldr.w	r0, [r3, #-40]
 8001120:	f7ff fa12 	bl	8000548 <__aeabi_f2d>
 8001124:	e9cd 0100 	strd	r0, r1, [sp]
 8001128:	4622      	mov	r2, r4
 800112a:	4911      	ldr	r1, [pc, #68]	; (8001170 <main+0x11c>)
 800112c:	4630      	mov	r0, r6
 800112e:	f001 fe67 	bl	8002e00 <siprintf>
 8001132:	4632      	mov	r2, r6
 8001134:	2105      	movs	r1, #5
 8001136:	2020      	movs	r0, #32
 8001138:	f000 f91e 	bl	8001378 <oled_print>
 800113c:	3502      	adds	r5, #2
 800113e:	f005 051f 	and.w	r5, r5, #31
 8001142:	f44f 707a 	mov.w	r0, #1000	; 0x3e8
 8001146:	f000 ff2f 	bl	8001fa8 <HAL_Delay>
 800114a:	f44f 6444 	mov.w	r4, #3136	; 0xc40
 800114e:	4b09      	ldr	r3, [pc, #36]	; (8001174 <main+0x120>)
 8001150:	fb04 3405 	mla	r4, r4, r5, r3
 8001154:	4622      	mov	r2, r4
 8001156:	2100      	movs	r1, #0
 8001158:	4608      	mov	r0, r1
 800115a:	f000 f9b5 	bl	80014c8 <oled_draw>
 800115e:	a902      	add	r1, sp, #8
 8001160:	4620      	mov	r0, r4
 8001162:	f000 fa25 	bl	80015b0 <model_run>
 8001166:	2301      	movs	r3, #1
 8001168:	2400      	movs	r4, #0
 800116a:	e786      	b.n	800107a <main+0x26>
 800116c:	2001b8f8 	.word	0x2001b8f8
 8001170:	0801c0ac 	.word	0x0801c0ac
 8001174:	200004f0 	.word	0x200004f0

08001178 <MX_GPIO_Init>:
 8001178:	b5f0      	push	{r4, r5, r6, r7, lr}
 800117a:	b08b      	sub	sp, #44	; 0x2c
 800117c:	2400      	movs	r4, #0
 800117e:	9405      	str	r4, [sp, #20]
 8001180:	9406      	str	r4, [sp, #24]
 8001182:	9407      	str	r4, [sp, #28]
 8001184:	9408      	str	r4, [sp, #32]
 8001186:	9409      	str	r4, [sp, #36]	; 0x24
 8001188:	9401      	str	r4, [sp, #4]
 800118a:	4b24      	ldr	r3, [pc, #144]	; (800121c <MX_GPIO_Init+0xa4>)
 800118c:	6b1a      	ldr	r2, [r3, #48]	; 0x30
 800118e:	f042 0280 	orr.w	r2, r2, #128	; 0x80
 8001192:	631a      	str	r2, [r3, #48]	; 0x30
 8001194:	6b1a      	ldr	r2, [r3, #48]	; 0x30
 8001196:	f002 0280 	and.w	r2, r2, #128	; 0x80
 800119a:	9201      	str	r2, [sp, #4]
 800119c:	9a01      	ldr	r2, [sp, #4]
 800119e:	9402      	str	r4, [sp, #8]
 80011a0:	6b1a      	ldr	r2, [r3, #48]	; 0x30
 80011a2:	f042 0201 	orr.w	r2, r2, #1
 80011a6:	631a      	str	r2, [r3, #48]	; 0x30
 80011a8:	6b1a      	ldr	r2, [r3, #48]	; 0x30
 80011aa:	f002 0201 	and.w	r2, r2, #1
 80011ae:	9202      	str	r2, [sp, #8]
 80011b0:	9a02      	ldr	r2, [sp, #8]
 80011b2:	9403      	str	r4, [sp, #12]
 80011b4:	6b1a      	ldr	r2, [r3, #48]	; 0x30
 80011b6:	f042 0208 	orr.w	r2, r2, #8
 80011ba:	631a      	str	r2, [r3, #48]	; 0x30
 80011bc:	6b1a      	ldr	r2, [r3, #48]	; 0x30
 80011be:	f002 0208 	and.w	r2, r2, #8
 80011c2:	9203      	str	r2, [sp, #12]
 80011c4:	9a03      	ldr	r2, [sp, #12]
 80011c6:	9404      	str	r4, [sp, #16]
 80011c8:	6b1a      	ldr	r2, [r3, #48]	; 0x30
 80011ca:	f042 0202 	orr.w	r2, r2, #2
 80011ce:	631a      	str	r2, [r3, #48]	; 0x30
 80011d0:	6b1b      	ldr	r3, [r3, #48]	; 0x30
 80011d2:	f003 0302 	and.w	r3, r3, #2
 80011d6:	9304      	str	r3, [sp, #16]
 80011d8:	9b04      	ldr	r3, [sp, #16]
 80011da:	4f11      	ldr	r7, [pc, #68]	; (8001220 <MX_GPIO_Init+0xa8>)
 80011dc:	4622      	mov	r2, r4
 80011de:	2180      	movs	r1, #128	; 0x80
 80011e0:	4638      	mov	r0, r7
 80011e2:	f000 fe2d 	bl	8001e40 <HAL_GPIO_WritePin>
 80011e6:	4d0f      	ldr	r5, [pc, #60]	; (8001224 <MX_GPIO_Init+0xac>)
 80011e8:	4622      	mov	r2, r4
 80011ea:	21a8      	movs	r1, #168	; 0xa8
 80011ec:	4628      	mov	r0, r5
 80011ee:	f000 fe27 	bl	8001e40 <HAL_GPIO_WritePin>
 80011f2:	2380      	movs	r3, #128	; 0x80
 80011f4:	9305      	str	r3, [sp, #20]
 80011f6:	2601      	movs	r6, #1
 80011f8:	9606      	str	r6, [sp, #24]
 80011fa:	9407      	str	r4, [sp, #28]
 80011fc:	9408      	str	r4, [sp, #32]
 80011fe:	a905      	add	r1, sp, #20
 8001200:	4638      	mov	r0, r7
 8001202:	f000 fd33 	bl	8001c6c <HAL_GPIO_Init>
 8001206:	23a8      	movs	r3, #168	; 0xa8
 8001208:	9305      	str	r3, [sp, #20]
 800120a:	9606      	str	r6, [sp, #24]
 800120c:	9407      	str	r4, [sp, #28]
 800120e:	9408      	str	r4, [sp, #32]
 8001210:	a905      	add	r1, sp, #20
 8001212:	4628      	mov	r0, r5
 8001214:	f000 fd2a 	bl	8001c6c <HAL_GPIO_Init>
 8001218:	b00b      	add	sp, #44	; 0x2c
 800121a:	bdf0      	pop	{r4, r5, r6, r7, pc}
 800121c:	40023800 	.word	0x40023800
 8001220:	40020000 	.word	0x40020000
 8001224:	40020c00 	.word	0x40020c00

08001228 <MX_CRC_Init>:
 8001228:	b508      	push	{r3, lr}
 800122a:	4805      	ldr	r0, [pc, #20]	; (8001240 <MX_CRC_Init+0x18>)
 800122c:	4b05      	ldr	r3, [pc, #20]	; (8001244 <MX_CRC_Init+0x1c>)
 800122e:	6003      	str	r3, [r0, #0]
 8001230:	f000 fa10 	bl	8001654 <HAL_CRC_Init>
 8001234:	b900      	cbnz	r0, 8001238 <MX_CRC_Init+0x10>
 8001236:	bd08      	pop	{r3, pc}
 8001238:	f7ff feba 	bl	8000fb0 <Error_Handler>
 800123c:	e7fb      	b.n	8001236 <MX_CRC_Init+0xe>
 800123e:	bf00      	nop
 8001240:	2001b938 	.word	0x2001b938
 8001244:	40023000 	.word	0x40023000

08001248 <HAL_CRC_MspInit>:
 8001248:	6802      	ldr	r2, [r0, #0]
 800124a:	4b09      	ldr	r3, [pc, #36]	; (8001270 <HAL_CRC_MspInit+0x28>)
 800124c:	429a      	cmp	r2, r3
 800124e:	d000      	beq.n	8001252 <HAL_CRC_MspInit+0xa>
 8001250:	4770      	bx	lr
 8001252:	b082      	sub	sp, #8
 8001254:	2300      	movs	r3, #0
 8001256:	9301      	str	r3, [sp, #4]
 8001258:	4b06      	ldr	r3, [pc, #24]	; (8001274 <HAL_CRC_MspInit+0x2c>)
 800125a:	6b1a      	ldr	r2, [r3, #48]	; 0x30
 800125c:	f442 5280 	orr.w	r2, r2, #4096	; 0x1000
 8001260:	631a      	str	r2, [r3, #48]	; 0x30
 8001262:	6b1b      	ldr	r3, [r3, #48]	; 0x30
 8001264:	f403 5380 	and.w	r3, r3, #4096	; 0x1000
 8001268:	9301      	str	r3, [sp, #4]
 800126a:	9b01      	ldr	r3, [sp, #4]
 800126c:	b002      	add	sp, #8
 800126e:	4770      	bx	lr
 8001270:	40023000 	.word	0x40023000
 8001274:	40023800 	.word	0x40023800

08001278 <oled_write_byte>:
 8001278:	b510      	push	{r4, lr}
 800127a:	b082      	sub	sp, #8
 800127c:	f88d 0007 	strb.w	r0, [sp, #7]
 8001280:	b1f1      	cbz	r1, 80012c0 <oled_write_byte+0x48>
 8001282:	2201      	movs	r2, #1
 8001284:	2120      	movs	r1, #32
 8001286:	4811      	ldr	r0, [pc, #68]	; (80012cc <oled_write_byte+0x54>)
 8001288:	f000 fdda 	bl	8001e40 <HAL_GPIO_WritePin>
 800128c:	4c0f      	ldr	r4, [pc, #60]	; (80012cc <oled_write_byte+0x54>)
 800128e:	2200      	movs	r2, #0
 8001290:	2108      	movs	r1, #8
 8001292:	4620      	mov	r0, r4
 8001294:	f000 fdd4 	bl	8001e40 <HAL_GPIO_WritePin>
 8001298:	f04f 33ff 	mov.w	r3, #4294967295	; 0xffffffff
 800129c:	2201      	movs	r2, #1
 800129e:	f10d 0107 	add.w	r1, sp, #7
 80012a2:	480b      	ldr	r0, [pc, #44]	; (80012d0 <oled_write_byte+0x58>)
 80012a4:	f001 f807 	bl	80022b6 <HAL_SPI_Transmit>
 80012a8:	2201      	movs	r2, #1
 80012aa:	2108      	movs	r1, #8
 80012ac:	4620      	mov	r0, r4
 80012ae:	f000 fdc7 	bl	8001e40 <HAL_GPIO_WritePin>
 80012b2:	2201      	movs	r2, #1
 80012b4:	2120      	movs	r1, #32
 80012b6:	4620      	mov	r0, r4
 80012b8:	f000 fdc2 	bl	8001e40 <HAL_GPIO_WritePin>
 80012bc:	b002      	add	sp, #8
 80012be:	bd10      	pop	{r4, pc}
 80012c0:	2200      	movs	r2, #0
 80012c2:	2120      	movs	r1, #32
 80012c4:	4801      	ldr	r0, [pc, #4]	; (80012cc <oled_write_byte+0x54>)
 80012c6:	f000 fdbb 	bl	8001e40 <HAL_GPIO_WritePin>
 80012ca:	e7df      	b.n	800128c <oled_write_byte+0x14>
 80012cc:	40020c00 	.word	0x40020c00
 80012d0:	2001b944 	.word	0x2001b944

080012d4 <oled_set_position>:
 80012d4:	b510      	push	{r4, lr}
 80012d6:	4604      	mov	r4, r0
 80012d8:	f061 004f 	orn	r0, r1, #79	; 0x4f
 80012dc:	2100      	movs	r1, #0
 80012de:	b2c0      	uxtb	r0, r0
 80012e0:	f7ff ffca 	bl	8001278 <oled_write_byte>
 80012e4:	f3c4 1003 	ubfx	r0, r4, #4, #4
 80012e8:	2100      	movs	r1, #0
 80012ea:	f040 0010 	orr.w	r0, r0, #16
 80012ee:	f7ff ffc3 	bl	8001278 <oled_write_byte>
 80012f2:	2100      	movs	r1, #0
 80012f4:	f004 000f 	and.w	r0, r4, #15
 80012f8:	f7ff ffbe 	bl	8001278 <oled_write_byte>
 80012fc:	bd10      	pop	{r4, pc}

080012fe <oled_clear>:
 80012fe:	b538      	push	{r3, r4, r5, lr}
 8001300:	2500      	movs	r5, #0
 8001302:	e000      	b.n	8001306 <oled_clear+0x8>
 8001304:	3501      	adds	r5, #1
 8001306:	2d07      	cmp	r5, #7
 8001308:	dc0c      	bgt.n	8001324 <oled_clear+0x26>
 800130a:	4629      	mov	r1, r5
 800130c:	2000      	movs	r0, #0
 800130e:	f7ff ffe1 	bl	80012d4 <oled_set_position>
 8001312:	2400      	movs	r4, #0
 8001314:	2c7f      	cmp	r4, #127	; 0x7f
 8001316:	dcf5      	bgt.n	8001304 <oled_clear+0x6>
 8001318:	2101      	movs	r1, #1
 800131a:	2000      	movs	r0, #0
 800131c:	f7ff ffac 	bl	8001278 <oled_write_byte>
 8001320:	3401      	adds	r4, #1
 8001322:	e7f7      	b.n	8001314 <oled_clear+0x16>
 8001324:	bd38      	pop	{r3, r4, r5, pc}
	...

08001328 <oled_putchar>:
 8001328:	b5f8      	push	{r3, r4, r5, r6, r7, lr}
 800132a:	4606      	mov	r6, r0
 800132c:	460f      	mov	r7, r1
 800132e:	f1a2 0520 	sub.w	r5, r2, #32
 8001332:	b2ed      	uxtb	r5, r5
 8001334:	f7ff ffce 	bl	80012d4 <oled_set_position>
 8001338:	2400      	movs	r4, #0
 800133a:	e007      	b.n	800134c <oled_putchar+0x24>
 800133c:	eb04 1305 	add.w	r3, r4, r5, lsl #4
 8001340:	2101      	movs	r1, #1
 8001342:	4a0c      	ldr	r2, [pc, #48]	; (8001374 <oled_putchar+0x4c>)
 8001344:	5cd0      	ldrb	r0, [r2, r3]
 8001346:	f7ff ff97 	bl	8001278 <oled_write_byte>
 800134a:	3401      	adds	r4, #1
 800134c:	2c07      	cmp	r4, #7
 800134e:	ddf5      	ble.n	800133c <oled_putchar+0x14>
 8001350:	1c79      	adds	r1, r7, #1
 8001352:	4630      	mov	r0, r6
 8001354:	f7ff ffbe 	bl	80012d4 <oled_set_position>
 8001358:	2400      	movs	r4, #0
 800135a:	e008      	b.n	800136e <oled_putchar+0x46>
 800135c:	eb04 1305 	add.w	r3, r4, r5, lsl #4
 8001360:	3308      	adds	r3, #8
 8001362:	2101      	movs	r1, #1
 8001364:	4a03      	ldr	r2, [pc, #12]	; (8001374 <oled_putchar+0x4c>)
 8001366:	5cd0      	ldrb	r0, [r2, r3]
 8001368:	f7ff ff86 	bl	8001278 <oled_write_byte>
 800136c:	3401      	adds	r4, #1
 800136e:	2c07      	cmp	r4, #7
 8001370:	ddf4      	ble.n	800135c <oled_putchar+0x34>
 8001372:	bdf8      	pop	{r3, r4, r5, r6, r7, pc}
 8001374:	0801c0b8 	.word	0x0801c0b8

08001378 <oled_print>:
 8001378:	b570      	push	{r4, r5, r6, lr}
 800137a:	4604      	mov	r4, r0
 800137c:	460e      	mov	r6, r1
 800137e:	4615      	mov	r5, r2
 8001380:	e005      	b.n	800138e <oled_print+0x16>
 8001382:	4631      	mov	r1, r6
 8001384:	4620      	mov	r0, r4
 8001386:	f7ff ffcf 	bl	8001328 <oled_putchar>
 800138a:	3408      	adds	r4, #8
 800138c:	3501      	adds	r5, #1
 800138e:	782a      	ldrb	r2, [r5, #0]
 8001390:	b162      	cbz	r2, 80013ac <oled_print+0x34>
 8001392:	f104 0308 	add.w	r3, r4, #8
 8001396:	2b80      	cmp	r3, #128	; 0x80
 8001398:	d9f3      	bls.n	8001382 <oled_print+0xa>
 800139a:	3602      	adds	r6, #2
 800139c:	2400      	movs	r4, #0
 800139e:	e7f0      	b.n	8001382 <oled_print+0xa>
 80013a0:	2220      	movs	r2, #32
 80013a2:	4631      	mov	r1, r6
 80013a4:	4620      	mov	r0, r4
 80013a6:	f7ff ffbf 	bl	8001328 <oled_putchar>
 80013aa:	462c      	mov	r4, r5
 80013ac:	f104 0508 	add.w	r5, r4, #8
 80013b0:	2d80      	cmp	r5, #128	; 0x80
 80013b2:	d9f5      	bls.n	80013a0 <oled_print+0x28>
 80013b4:	bd70      	pop	{r4, r5, r6, pc}
	...

080013b8 <oled_init>:
 80013b8:	b510      	push	{r4, lr}
 80013ba:	4c42      	ldr	r4, [pc, #264]	; (80014c4 <oled_init+0x10c>)
 80013bc:	2200      	movs	r2, #0
 80013be:	2180      	movs	r1, #128	; 0x80
 80013c0:	4620      	mov	r0, r4
 80013c2:	f000 fd3d 	bl	8001e40 <HAL_GPIO_WritePin>
 80013c6:	20c8      	movs	r0, #200	; 0xc8
 80013c8:	f000 fdee 	bl	8001fa8 <HAL_Delay>
 80013cc:	2201      	movs	r2, #1
 80013ce:	2180      	movs	r1, #128	; 0x80
 80013d0:	4620      	mov	r0, r4
 80013d2:	f000 fd35 	bl	8001e40 <HAL_GPIO_WritePin>
 80013d6:	2100      	movs	r1, #0
 80013d8:	20ae      	movs	r0, #174	; 0xae
 80013da:	f7ff ff4d 	bl	8001278 <oled_write_byte>
 80013de:	2100      	movs	r1, #0
 80013e0:	20d5      	movs	r0, #213	; 0xd5
 80013e2:	f7ff ff49 	bl	8001278 <oled_write_byte>
 80013e6:	2100      	movs	r1, #0
 80013e8:	2080      	movs	r0, #128	; 0x80
 80013ea:	f7ff ff45 	bl	8001278 <oled_write_byte>
 80013ee:	2100      	movs	r1, #0
 80013f0:	2040      	movs	r0, #64	; 0x40
 80013f2:	f7ff ff41 	bl	8001278 <oled_write_byte>
 80013f6:	2100      	movs	r1, #0
 80013f8:	2081      	movs	r0, #129	; 0x81
 80013fa:	f7ff ff3d 	bl	8001278 <oled_write_byte>
 80013fe:	2100      	movs	r1, #0
 8001400:	20cf      	movs	r0, #207	; 0xcf
 8001402:	f7ff ff39 	bl	8001278 <oled_write_byte>
 8001406:	2100      	movs	r1, #0
 8001408:	20a1      	movs	r0, #161	; 0xa1
 800140a:	f7ff ff35 	bl	8001278 <oled_write_byte>
 800140e:	2100      	movs	r1, #0
 8001410:	20c8      	movs	r0, #200	; 0xc8
 8001412:	f7ff ff31 	bl	8001278 <oled_write_byte>
 8001416:	2100      	movs	r1, #0
 8001418:	20a6      	movs	r0, #166	; 0xa6
 800141a:	f7ff ff2d 	bl	8001278 <oled_write_byte>
 800141e:	2100      	movs	r1, #0
 8001420:	20a8      	movs	r0, #168	; 0xa8
 8001422:	f7ff ff29 	bl	8001278 <oled_write_byte>
 8001426:	2100      	movs	r1, #0
 8001428:	203f      	movs	r0, #63	; 0x3f
 800142a:	f7ff ff25 	bl	8001278 <oled_write_byte>
 800142e:	2100      	movs	r1, #0
 8001430:	20d3      	movs	r0, #211	; 0xd3
 8001432:	f7ff ff21 	bl	8001278 <oled_write_byte>
 8001436:	2100      	movs	r1, #0
 8001438:	4608      	mov	r0, r1
 800143a:	f7ff ff1d 	bl	8001278 <oled_write_byte>
 800143e:	2100      	movs	r1, #0
 8001440:	20d5      	movs	r0, #213	; 0xd5
 8001442:	f7ff ff19 	bl	8001278 <oled_write_byte>
 8001446:	2100      	movs	r1, #0
 8001448:	2080      	movs	r0, #128	; 0x80
 800144a:	f7ff ff15 	bl	8001278 <oled_write_byte>
 800144e:	2100      	movs	r1, #0
 8001450:	20d9      	movs	r0, #217	; 0xd9
 8001452:	f7ff ff11 	bl	8001278 <oled_write_byte>
 8001456:	2100      	movs	r1, #0
 8001458:	20f1      	movs	r0, #241	; 0xf1
 800145a:	f7ff ff0d 	bl	8001278 <oled_write_byte>
 800145e:	2100      	movs	r1, #0
 8001460:	20da      	movs	r0, #218	; 0xda
 8001462:	f7ff ff09 	bl	8001278 <oled_write_byte>
 8001466:	2100      	movs	r1, #0
 8001468:	2012      	movs	r0, #18
 800146a:	f7ff ff05 	bl	8001278 <oled_write_byte>
 800146e:	2100      	movs	r1, #0
 8001470:	20db      	movs	r0, #219	; 0xdb
 8001472:	f7ff ff01 	bl	8001278 <oled_write_byte>
 8001476:	2100      	movs	r1, #0
 8001478:	2040      	movs	r0, #64	; 0x40
 800147a:	f7ff fefd 	bl	8001278 <oled_write_byte>
 800147e:	2100      	movs	r1, #0
 8001480:	2020      	movs	r0, #32
 8001482:	f7ff fef9 	bl	8001278 <oled_write_byte>
 8001486:	2100      	movs	r1, #0
 8001488:	2002      	movs	r0, #2
 800148a:	f7ff fef5 	bl	8001278 <oled_write_byte>
 800148e:	2100      	movs	r1, #0
 8001490:	208d      	movs	r0, #141	; 0x8d
 8001492:	f7ff fef1 	bl	8001278 <oled_write_byte>
 8001496:	2100      	movs	r1, #0
 8001498:	2014      	movs	r0, #20
 800149a:	f7ff feed 	bl	8001278 <oled_write_byte>
 800149e:	2100      	movs	r1, #0
 80014a0:	20a4      	movs	r0, #164	; 0xa4
 80014a2:	f7ff fee9 	bl	8001278 <oled_write_byte>
 80014a6:	2100      	movs	r1, #0
 80014a8:	20a6      	movs	r0, #166	; 0xa6
 80014aa:	f7ff fee5 	bl	8001278 <oled_write_byte>
 80014ae:	2100      	movs	r1, #0
 80014b0:	20af      	movs	r0, #175	; 0xaf
 80014b2:	f7ff fee1 	bl	8001278 <oled_write_byte>
 80014b6:	2100      	movs	r1, #0
 80014b8:	20af      	movs	r0, #175	; 0xaf
 80014ba:	f7ff fedd 	bl	8001278 <oled_write_byte>
 80014be:	f7ff ff1e 	bl	80012fe <oled_clear>
 80014c2:	bd10      	pop	{r4, pc}
 80014c4:	40020c00 	.word	0x40020c00

080014c8 <oled_draw>:
 80014c8:	e92d 41f0 	stmdb	sp!, {r4, r5, r6, r7, r8, lr}
 80014cc:	4680      	mov	r8, r0
 80014ce:	460f      	mov	r7, r1
 80014d0:	4616      	mov	r6, r2
 80014d2:	2500      	movs	r5, #0
 80014d4:	e02b      	b.n	800152e <oled_draw+0x66>
 80014d6:	3301      	adds	r3, #1
 80014d8:	1c69      	adds	r1, r5, #1
 80014da:	ebb3 0fc1 	cmp.w	r3, r1, lsl #3
 80014de:	da1c      	bge.n	800151a <oled_draw+0x52>
 80014e0:	2b1b      	cmp	r3, #27
 80014e2:	dc1a      	bgt.n	800151a <oled_draw+0x52>
 80014e4:	ebc3 02c3 	rsb	r2, r3, r3, lsl #3
 80014e8:	eb06 1202 	add.w	r2, r6, r2, lsl #4
 80014ec:	eb02 0284 	add.w	r2, r2, r4, lsl #2
 80014f0:	ed92 7a00 	vldr	s14, [r2]
 80014f4:	eef6 7a00 	vmov.f32	s15, #96	; 0x3f000000  0.5
 80014f8:	eeb4 7ae7 	vcmpe.f32	s14, s15
 80014fc:	eef1 fa10 	vmrs	APSR_nzcv, fpscr
 8001500:	dde9      	ble.n	80014d6 <oled_draw+0xe>
 8001502:	425a      	negs	r2, r3
 8001504:	f003 0107 	and.w	r1, r3, #7
 8001508:	f002 0207 	and.w	r2, r2, #7
 800150c:	bf58      	it	pl
 800150e:	4251      	negpl	r1, r2
 8001510:	2201      	movs	r2, #1
 8001512:	408a      	lsls	r2, r1
 8001514:	4302      	orrs	r2, r0
 8001516:	b2d0      	uxtb	r0, r2
 8001518:	e7dd      	b.n	80014d6 <oled_draw+0xe>
 800151a:	2101      	movs	r1, #1
 800151c:	f7ff feac 	bl	8001278 <oled_write_byte>
 8001520:	3401      	adds	r4, #1
 8001522:	2c1b      	cmp	r4, #27
 8001524:	dc02      	bgt.n	800152c <oled_draw+0x64>
 8001526:	00eb      	lsls	r3, r5, #3
 8001528:	2000      	movs	r0, #0
 800152a:	e7d5      	b.n	80014d8 <oled_draw+0x10>
 800152c:	3501      	adds	r5, #1
 800152e:	2d03      	cmp	r5, #3
 8001530:	dc05      	bgt.n	800153e <oled_draw+0x76>
 8001532:	19e9      	adds	r1, r5, r7
 8001534:	4640      	mov	r0, r8
 8001536:	f7ff fecd 	bl	80012d4 <oled_set_position>
 800153a:	2400      	movs	r4, #0
 800153c:	e7f1      	b.n	8001522 <oled_draw+0x5a>
 800153e:	e8bd 81f0 	ldmia.w	sp!, {r4, r5, r6, r7, r8, pc}
	...

08001544 <model_init>:
 8001544:	b530      	push	{r4, r5, lr}
 8001546:	b08d      	sub	sp, #52	; 0x34
 8001548:	4d14      	ldr	r5, [pc, #80]	; (800159c <model_init+0x58>)
 800154a:	2100      	movs	r1, #0
 800154c:	4628      	mov	r0, r5
 800154e:	f7ff fcab 	bl	8000ea8 <ai_mnist_create>
 8001552:	4b13      	ldr	r3, [pc, #76]	; (80015a0 <model_init+0x5c>)
 8001554:	9300      	str	r3, [sp, #0]
 8001556:	2401      	movs	r4, #1
 8001558:	f8ad 4004 	strh.w	r4, [sp, #4]
 800155c:	f8ad 4006 	strh.w	r4, [sp, #6]
 8001560:	f8ad 4008 	strh.w	r4, [sp, #8]
 8001564:	4b0f      	ldr	r3, [pc, #60]	; (80015a4 <model_init+0x60>)
 8001566:	9303      	str	r3, [sp, #12]
 8001568:	f7ff fc9a 	bl	8000ea0 <ai_mnist_data_weights_get>
 800156c:	9004      	str	r0, [sp, #16]
 800156e:	2300      	movs	r3, #0
 8001570:	9305      	str	r3, [sp, #20]
 8001572:	4a0d      	ldr	r2, [pc, #52]	; (80015a8 <model_init+0x64>)
 8001574:	9206      	str	r2, [sp, #24]
 8001576:	f8ad 401c 	strh.w	r4, [sp, #28]
 800157a:	f8ad 401e 	strh.w	r4, [sp, #30]
 800157e:	f8ad 4020 	strh.w	r4, [sp, #32]
 8001582:	f642 1270 	movw	r2, #10608	; 0x2970
 8001586:	9209      	str	r2, [sp, #36]	; 0x24
 8001588:	4a08      	ldr	r2, [pc, #32]	; (80015ac <model_init+0x68>)
 800158a:	920a      	str	r2, [sp, #40]	; 0x28
 800158c:	930b      	str	r3, [sp, #44]	; 0x2c
 800158e:	4669      	mov	r1, sp
 8001590:	6828      	ldr	r0, [r5, #0]
 8001592:	f7ff fc99 	bl	8000ec8 <ai_mnist_init>
 8001596:	b00d      	add	sp, #52	; 0x34
 8001598:	bd30      	pop	{r4, r5, pc}
 800159a:	bf00      	nop
 800159c:	2001b8e8 	.word	0x2001b8e8
 80015a0:	40040440 	.word	0x40040440
 80015a4:	00013ee8 	.word	0x00013ee8
 80015a8:	00040440 	.word	0x00040440
 80015ac:	20018f78 	.word	0x20018f78

080015b0 <model_run>:
 80015b0:	b5f0      	push	{r4, r5, r6, r7, lr}
 80015b2:	b08d      	sub	sp, #52	; 0x34
 80015b4:	4684      	mov	ip, r0
 80015b6:	460f      	mov	r7, r1
 80015b8:	4c10      	ldr	r4, [pc, #64]	; (80015fc <model_run+0x4c>)
 80015ba:	ad06      	add	r5, sp, #24
 80015bc:	4626      	mov	r6, r4
 80015be:	ce0f      	ldmia	r6!, {r0, r1, r2, r3}
 80015c0:	c50f      	stmia	r5!, {r0, r1, r2, r3}
 80015c2:	e896 0003 	ldmia.w	r6, {r0, r1}
 80015c6:	e885 0003 	stmia.w	r5, {r0, r1}
 80015ca:	466d      	mov	r5, sp
 80015cc:	3418      	adds	r4, #24
 80015ce:	cc0f      	ldmia	r4!, {r0, r1, r2, r3}
 80015d0:	c50f      	stmia	r5!, {r0, r1, r2, r3}
 80015d2:	e894 0003 	ldmia.w	r4, {r0, r1}
 80015d6:	e885 0003 	stmia.w	r5, {r0, r1}
 80015da:	2301      	movs	r3, #1
 80015dc:	f8ad 301c 	strh.w	r3, [sp, #28]
 80015e0:	f8cd c028 	str.w	ip, [sp, #40]	; 0x28
 80015e4:	f8ad 3004 	strh.w	r3, [sp, #4]
 80015e8:	9704      	str	r7, [sp, #16]
 80015ea:	466a      	mov	r2, sp
 80015ec:	a906      	add	r1, sp, #24
 80015ee:	4b04      	ldr	r3, [pc, #16]	; (8001600 <model_run+0x50>)
 80015f0:	6818      	ldr	r0, [r3, #0]
 80015f2:	f7ff fcd9 	bl	8000fa8 <ai_mnist_run>
 80015f6:	b00d      	add	sp, #52	; 0x34
 80015f8:	bdf0      	pop	{r4, r5, r6, r7, pc}
 80015fa:	bf00      	nop
 80015fc:	08008160 	.word	0x08008160
 8001600:	2001b8e8 	.word	0x2001b8e8

08001604 <NMI_Handler>:
 8001604:	e7fe      	b.n	8001604 <NMI_Handler>

08001606 <HardFault_Handler>:
 8001606:	e7fe      	b.n	8001606 <HardFault_Handler>

08001608 <MemManage_Handler>:
 8001608:	e7fe      	b.n	8001608 <MemManage_Handler>

0800160a <BusFault_Handler>:
 800160a:	e7fe      	b.n	800160a <BusFault_Handler>

0800160c <UsageFault_Handler>:
 800160c:	e7fe      	b.n	800160c <UsageFault_Handler>

0800160e <SVC_Handler>:
 800160e:	4770      	bx	lr

08001610 <DebugMon_Handler>:
 8001610:	4770      	bx	lr

08001612 <PendSV_Handler>:
 8001612:	4770      	bx	lr

08001614 <SysTick_Handler>:
 8001614:	b508      	push	{r3, lr}
 8001616:	f000 fcb5 	bl	8001f84 <HAL_IncTick>
 800161a:	bd08      	pop	{r3, pc}

0800161c <HAL_MspInit>:
 800161c:	b082      	sub	sp, #8
 800161e:	2100      	movs	r1, #0
 8001620:	9100      	str	r1, [sp, #0]
 8001622:	4b0b      	ldr	r3, [pc, #44]	; (8001650 <HAL_MspInit+0x34>)
 8001624:	6c5a      	ldr	r2, [r3, #68]	; 0x44
 8001626:	f442 4280 	orr.w	r2, r2, #16384	; 0x4000
 800162a:	645a      	str	r2, [r3, #68]	; 0x44
 800162c:	6c5a      	ldr	r2, [r3, #68]	; 0x44
 800162e:	f402 4280 	and.w	r2, r2, #16384	; 0x4000
 8001632:	9200      	str	r2, [sp, #0]
 8001634:	9a00      	ldr	r2, [sp, #0]
 8001636:	9101      	str	r1, [sp, #4]
 8001638:	6c1a      	ldr	r2, [r3, #64]	; 0x40
 800163a:	f042 5280 	orr.w	r2, r2, #268435456	; 0x10000000
 800163e:	641a      	str	r2, [r3, #64]	; 0x40
 8001640:	6c1b      	ldr	r3, [r3, #64]	; 0x40
 8001642:	f003 5380 	and.w	r3, r3, #268435456	; 0x10000000
 8001646:	9301      	str	r3, [sp, #4]
 8001648:	9b01      	ldr	r3, [sp, #4]
 800164a:	b002      	add	sp, #8
 800164c:	4770      	bx	lr
 800164e:	bf00      	nop
 8001650:	40023800 	.word	0x40023800

08001654 <HAL_CRC_Init>:
 8001654:	b158      	cbz	r0, 800166e <HAL_CRC_Init+0x1a>
 8001656:	b510      	push	{r4, lr}
 8001658:	4604      	mov	r4, r0
 800165a:	7943      	ldrb	r3, [r0, #5]
 800165c:	b11b      	cbz	r3, 8001666 <HAL_CRC_Init+0x12>
 800165e:	2301      	movs	r3, #1
 8001660:	7163      	strb	r3, [r4, #5]
 8001662:	2000      	movs	r0, #0
 8001664:	bd10      	pop	{r4, pc}
 8001666:	7103      	strb	r3, [r0, #4]
 8001668:	f7ff fdee 	bl	8001248 <HAL_CRC_MspInit>
 800166c:	e7f7      	b.n	800165e <HAL_CRC_Init+0xa>
 800166e:	2001      	movs	r0, #1
 8001670:	4770      	bx	lr
	...

08001674 <HAL_RCC_OscConfig>:
 8001674:	2800      	cmp	r0, #0
 8001676:	f000 81df 	beq.w	8001a38 <HAL_RCC_OscConfig+0x3c4>
 800167a:	b570      	push	{r4, r5, r6, lr}
 800167c:	b082      	sub	sp, #8
 800167e:	4604      	mov	r4, r0
 8001680:	6803      	ldr	r3, [r0, #0]
 8001682:	f013 0f01 	tst.w	r3, #1
 8001686:	d03b      	beq.n	8001700 <HAL_RCC_OscConfig+0x8c>
 8001688:	4ba6      	ldr	r3, [pc, #664]	; (8001924 <HAL_RCC_OscConfig+0x2b0>)
 800168a:	689b      	ldr	r3, [r3, #8]
 800168c:	f003 030c 	and.w	r3, r3, #12
 8001690:	2b04      	cmp	r3, #4
 8001692:	d02c      	beq.n	80016ee <HAL_RCC_OscConfig+0x7a>
 8001694:	4ba3      	ldr	r3, [pc, #652]	; (8001924 <HAL_RCC_OscConfig+0x2b0>)
 8001696:	689b      	ldr	r3, [r3, #8]
 8001698:	f003 030c 	and.w	r3, r3, #12
 800169c:	2b08      	cmp	r3, #8
 800169e:	d021      	beq.n	80016e4 <HAL_RCC_OscConfig+0x70>
 80016a0:	6863      	ldr	r3, [r4, #4]
 80016a2:	f5b3 3f80 	cmp.w	r3, #65536	; 0x10000
 80016a6:	d04f      	beq.n	8001748 <HAL_RCC_OscConfig+0xd4>
 80016a8:	f5b3 2fa0 	cmp.w	r3, #327680	; 0x50000
 80016ac:	d052      	beq.n	8001754 <HAL_RCC_OscConfig+0xe0>
 80016ae:	4b9d      	ldr	r3, [pc, #628]	; (8001924 <HAL_RCC_OscConfig+0x2b0>)
 80016b0:	681a      	ldr	r2, [r3, #0]
 80016b2:	f422 3280 	bic.w	r2, r2, #65536	; 0x10000
 80016b6:	601a      	str	r2, [r3, #0]
 80016b8:	681a      	ldr	r2, [r3, #0]
 80016ba:	f422 2280 	bic.w	r2, r2, #262144	; 0x40000
 80016be:	601a      	str	r2, [r3, #0]
 80016c0:	6863      	ldr	r3, [r4, #4]
 80016c2:	2b00      	cmp	r3, #0
 80016c4:	d050      	beq.n	8001768 <HAL_RCC_OscConfig+0xf4>
 80016c6:	f000 fc69 	bl	8001f9c <HAL_GetTick>
 80016ca:	4605      	mov	r5, r0
 80016cc:	4b95      	ldr	r3, [pc, #596]	; (8001924 <HAL_RCC_OscConfig+0x2b0>)
 80016ce:	681b      	ldr	r3, [r3, #0]
 80016d0:	f413 3f00 	tst.w	r3, #131072	; 0x20000
 80016d4:	d114      	bne.n	8001700 <HAL_RCC_OscConfig+0x8c>
 80016d6:	f000 fc61 	bl	8001f9c <HAL_GetTick>
 80016da:	1b40      	subs	r0, r0, r5
 80016dc:	2864      	cmp	r0, #100	; 0x64
 80016de:	d9f5      	bls.n	80016cc <HAL_RCC_OscConfig+0x58>
 80016e0:	2003      	movs	r0, #3
 80016e2:	e1b0      	b.n	8001a46 <HAL_RCC_OscConfig+0x3d2>
 80016e4:	4b8f      	ldr	r3, [pc, #572]	; (8001924 <HAL_RCC_OscConfig+0x2b0>)
 80016e6:	685b      	ldr	r3, [r3, #4]
 80016e8:	f413 0f80 	tst.w	r3, #4194304	; 0x400000
 80016ec:	d0d8      	beq.n	80016a0 <HAL_RCC_OscConfig+0x2c>
 80016ee:	4b8d      	ldr	r3, [pc, #564]	; (8001924 <HAL_RCC_OscConfig+0x2b0>)
 80016f0:	681b      	ldr	r3, [r3, #0]
 80016f2:	f413 3f00 	tst.w	r3, #131072	; 0x20000
 80016f6:	d003      	beq.n	8001700 <HAL_RCC_OscConfig+0x8c>
 80016f8:	6863      	ldr	r3, [r4, #4]
 80016fa:	2b00      	cmp	r3, #0
 80016fc:	f000 819e 	beq.w	8001a3c <HAL_RCC_OscConfig+0x3c8>
 8001700:	6823      	ldr	r3, [r4, #0]
 8001702:	f013 0f02 	tst.w	r3, #2
 8001706:	d054      	beq.n	80017b2 <HAL_RCC_OscConfig+0x13e>
 8001708:	4b86      	ldr	r3, [pc, #536]	; (8001924 <HAL_RCC_OscConfig+0x2b0>)
 800170a:	689b      	ldr	r3, [r3, #8]
 800170c:	f013 0f0c 	tst.w	r3, #12
 8001710:	d03e      	beq.n	8001790 <HAL_RCC_OscConfig+0x11c>
 8001712:	4b84      	ldr	r3, [pc, #528]	; (8001924 <HAL_RCC_OscConfig+0x2b0>)
 8001714:	689b      	ldr	r3, [r3, #8]
 8001716:	f003 030c 	and.w	r3, r3, #12
 800171a:	2b08      	cmp	r3, #8
 800171c:	d033      	beq.n	8001786 <HAL_RCC_OscConfig+0x112>
 800171e:	68e3      	ldr	r3, [r4, #12]
 8001720:	2b00      	cmp	r3, #0
 8001722:	d067      	beq.n	80017f4 <HAL_RCC_OscConfig+0x180>
 8001724:	4b80      	ldr	r3, [pc, #512]	; (8001928 <HAL_RCC_OscConfig+0x2b4>)
 8001726:	2201      	movs	r2, #1
 8001728:	601a      	str	r2, [r3, #0]
 800172a:	f000 fc37 	bl	8001f9c <HAL_GetTick>
 800172e:	4605      	mov	r5, r0
 8001730:	4b7c      	ldr	r3, [pc, #496]	; (8001924 <HAL_RCC_OscConfig+0x2b0>)
 8001732:	681b      	ldr	r3, [r3, #0]
 8001734:	f013 0f02 	tst.w	r3, #2
 8001738:	d153      	bne.n	80017e2 <HAL_RCC_OscConfig+0x16e>
 800173a:	f000 fc2f 	bl	8001f9c <HAL_GetTick>
 800173e:	1b40      	subs	r0, r0, r5
 8001740:	2802      	cmp	r0, #2
 8001742:	d9f5      	bls.n	8001730 <HAL_RCC_OscConfig+0xbc>
 8001744:	2003      	movs	r0, #3
 8001746:	e17e      	b.n	8001a46 <HAL_RCC_OscConfig+0x3d2>
 8001748:	4a76      	ldr	r2, [pc, #472]	; (8001924 <HAL_RCC_OscConfig+0x2b0>)
 800174a:	6813      	ldr	r3, [r2, #0]
 800174c:	f443 3380 	orr.w	r3, r3, #65536	; 0x10000
 8001750:	6013      	str	r3, [r2, #0]
 8001752:	e7b5      	b.n	80016c0 <HAL_RCC_OscConfig+0x4c>
 8001754:	4b73      	ldr	r3, [pc, #460]	; (8001924 <HAL_RCC_OscConfig+0x2b0>)
 8001756:	681a      	ldr	r2, [r3, #0]
 8001758:	f442 2280 	orr.w	r2, r2, #262144	; 0x40000
 800175c:	601a      	str	r2, [r3, #0]
 800175e:	681a      	ldr	r2, [r3, #0]
 8001760:	f442 3280 	orr.w	r2, r2, #65536	; 0x10000
 8001764:	601a      	str	r2, [r3, #0]
 8001766:	e7ab      	b.n	80016c0 <HAL_RCC_OscConfig+0x4c>
 8001768:	f000 fc18 	bl	8001f9c <HAL_GetTick>
 800176c:	4605      	mov	r5, r0
 800176e:	4b6d      	ldr	r3, [pc, #436]	; (8001924 <HAL_RCC_OscConfig+0x2b0>)
 8001770:	681b      	ldr	r3, [r3, #0]
 8001772:	f413 3f00 	tst.w	r3, #131072	; 0x20000
 8001776:	d0c3      	beq.n	8001700 <HAL_RCC_OscConfig+0x8c>
 8001778:	f000 fc10 	bl	8001f9c <HAL_GetTick>
 800177c:	1b40      	subs	r0, r0, r5
 800177e:	2864      	cmp	r0, #100	; 0x64
 8001780:	d9f5      	bls.n	800176e <HAL_RCC_OscConfig+0xfa>
 8001782:	2003      	movs	r0, #3
 8001784:	e15f      	b.n	8001a46 <HAL_RCC_OscConfig+0x3d2>
 8001786:	4b67      	ldr	r3, [pc, #412]	; (8001924 <HAL_RCC_OscConfig+0x2b0>)
 8001788:	685b      	ldr	r3, [r3, #4]
 800178a:	f413 0f80 	tst.w	r3, #4194304	; 0x400000
 800178e:	d1c6      	bne.n	800171e <HAL_RCC_OscConfig+0xaa>
 8001790:	4b64      	ldr	r3, [pc, #400]	; (8001924 <HAL_RCC_OscConfig+0x2b0>)
 8001792:	681b      	ldr	r3, [r3, #0]
 8001794:	f013 0f02 	tst.w	r3, #2
 8001798:	d003      	beq.n	80017a2 <HAL_RCC_OscConfig+0x12e>
 800179a:	68e3      	ldr	r3, [r4, #12]
 800179c:	2b01      	cmp	r3, #1
 800179e:	f040 814f 	bne.w	8001a40 <HAL_RCC_OscConfig+0x3cc>
 80017a2:	4a60      	ldr	r2, [pc, #384]	; (8001924 <HAL_RCC_OscConfig+0x2b0>)
 80017a4:	6813      	ldr	r3, [r2, #0]
 80017a6:	f023 03f8 	bic.w	r3, r3, #248	; 0xf8
 80017aa:	6921      	ldr	r1, [r4, #16]
 80017ac:	ea43 03c1 	orr.w	r3, r3, r1, lsl #3
 80017b0:	6013      	str	r3, [r2, #0]
 80017b2:	6823      	ldr	r3, [r4, #0]
 80017b4:	f013 0f08 	tst.w	r3, #8
 80017b8:	d040      	beq.n	800183c <HAL_RCC_OscConfig+0x1c8>
 80017ba:	6963      	ldr	r3, [r4, #20]
 80017bc:	b363      	cbz	r3, 8001818 <HAL_RCC_OscConfig+0x1a4>
 80017be:	4b5b      	ldr	r3, [pc, #364]	; (800192c <HAL_RCC_OscConfig+0x2b8>)
 80017c0:	2201      	movs	r2, #1
 80017c2:	601a      	str	r2, [r3, #0]
 80017c4:	f000 fbea 	bl	8001f9c <HAL_GetTick>
 80017c8:	4605      	mov	r5, r0
 80017ca:	4b56      	ldr	r3, [pc, #344]	; (8001924 <HAL_RCC_OscConfig+0x2b0>)
 80017cc:	6f5b      	ldr	r3, [r3, #116]	; 0x74
 80017ce:	f013 0f02 	tst.w	r3, #2
 80017d2:	d133      	bne.n	800183c <HAL_RCC_OscConfig+0x1c8>
 80017d4:	f000 fbe2 	bl	8001f9c <HAL_GetTick>
 80017d8:	1b40      	subs	r0, r0, r5
 80017da:	2802      	cmp	r0, #2
 80017dc:	d9f5      	bls.n	80017ca <HAL_RCC_OscConfig+0x156>
 80017de:	2003      	movs	r0, #3
 80017e0:	e131      	b.n	8001a46 <HAL_RCC_OscConfig+0x3d2>
 80017e2:	4a50      	ldr	r2, [pc, #320]	; (8001924 <HAL_RCC_OscConfig+0x2b0>)
 80017e4:	6813      	ldr	r3, [r2, #0]
 80017e6:	f023 03f8 	bic.w	r3, r3, #248	; 0xf8
 80017ea:	6921      	ldr	r1, [r4, #16]
 80017ec:	ea43 03c1 	orr.w	r3, r3, r1, lsl #3
 80017f0:	6013      	str	r3, [r2, #0]
 80017f2:	e7de      	b.n	80017b2 <HAL_RCC_OscConfig+0x13e>
 80017f4:	4b4c      	ldr	r3, [pc, #304]	; (8001928 <HAL_RCC_OscConfig+0x2b4>)
 80017f6:	2200      	movs	r2, #0
 80017f8:	601a      	str	r2, [r3, #0]
 80017fa:	f000 fbcf 	bl	8001f9c <HAL_GetTick>
 80017fe:	4605      	mov	r5, r0
 8001800:	4b48      	ldr	r3, [pc, #288]	; (8001924 <HAL_RCC_OscConfig+0x2b0>)
 8001802:	681b      	ldr	r3, [r3, #0]
 8001804:	f013 0f02 	tst.w	r3, #2
 8001808:	d0d3      	beq.n	80017b2 <HAL_RCC_OscConfig+0x13e>
 800180a:	f000 fbc7 	bl	8001f9c <HAL_GetTick>
 800180e:	1b40      	subs	r0, r0, r5
 8001810:	2802      	cmp	r0, #2
 8001812:	d9f5      	bls.n	8001800 <HAL_RCC_OscConfig+0x18c>
 8001814:	2003      	movs	r0, #3
 8001816:	e116      	b.n	8001a46 <HAL_RCC_OscConfig+0x3d2>
 8001818:	4b44      	ldr	r3, [pc, #272]	; (800192c <HAL_RCC_OscConfig+0x2b8>)
 800181a:	2200      	movs	r2, #0
 800181c:	601a      	str	r2, [r3, #0]
 800181e:	f000 fbbd 	bl	8001f9c <HAL_GetTick>
 8001822:	4605      	mov	r5, r0
 8001824:	4b3f      	ldr	r3, [pc, #252]	; (8001924 <HAL_RCC_OscConfig+0x2b0>)
 8001826:	6f5b      	ldr	r3, [r3, #116]	; 0x74
 8001828:	f013 0f02 	tst.w	r3, #2
 800182c:	d006      	beq.n	800183c <HAL_RCC_OscConfig+0x1c8>
 800182e:	f000 fbb5 	bl	8001f9c <HAL_GetTick>
 8001832:	1b40      	subs	r0, r0, r5
 8001834:	2802      	cmp	r0, #2
 8001836:	d9f5      	bls.n	8001824 <HAL_RCC_OscConfig+0x1b0>
 8001838:	2003      	movs	r0, #3
 800183a:	e104      	b.n	8001a46 <HAL_RCC_OscConfig+0x3d2>
 800183c:	6823      	ldr	r3, [r4, #0]
 800183e:	f013 0f04 	tst.w	r3, #4
 8001842:	d078      	beq.n	8001936 <HAL_RCC_OscConfig+0x2c2>
 8001844:	4b37      	ldr	r3, [pc, #220]	; (8001924 <HAL_RCC_OscConfig+0x2b0>)
 8001846:	6c1b      	ldr	r3, [r3, #64]	; 0x40
 8001848:	f013 5f80 	tst.w	r3, #268435456	; 0x10000000
 800184c:	d10d      	bne.n	800186a <HAL_RCC_OscConfig+0x1f6>
 800184e:	2300      	movs	r3, #0
 8001850:	9301      	str	r3, [sp, #4]
 8001852:	4b34      	ldr	r3, [pc, #208]	; (8001924 <HAL_RCC_OscConfig+0x2b0>)
 8001854:	6c1a      	ldr	r2, [r3, #64]	; 0x40
 8001856:	f042 5280 	orr.w	r2, r2, #268435456	; 0x10000000
 800185a:	641a      	str	r2, [r3, #64]	; 0x40
 800185c:	6c1b      	ldr	r3, [r3, #64]	; 0x40
 800185e:	f003 5380 	and.w	r3, r3, #268435456	; 0x10000000
 8001862:	9301      	str	r3, [sp, #4]
 8001864:	9b01      	ldr	r3, [sp, #4]
 8001866:	2501      	movs	r5, #1
 8001868:	e000      	b.n	800186c <HAL_RCC_OscConfig+0x1f8>
 800186a:	2500      	movs	r5, #0
 800186c:	4b30      	ldr	r3, [pc, #192]	; (8001930 <HAL_RCC_OscConfig+0x2bc>)
 800186e:	681b      	ldr	r3, [r3, #0]
 8001870:	f413 7f80 	tst.w	r3, #256	; 0x100
 8001874:	d021      	beq.n	80018ba <HAL_RCC_OscConfig+0x246>
 8001876:	68a3      	ldr	r3, [r4, #8]
 8001878:	2b01      	cmp	r3, #1
 800187a:	d032      	beq.n	80018e2 <HAL_RCC_OscConfig+0x26e>
 800187c:	2b05      	cmp	r3, #5
 800187e:	d036      	beq.n	80018ee <HAL_RCC_OscConfig+0x27a>
 8001880:	4b28      	ldr	r3, [pc, #160]	; (8001924 <HAL_RCC_OscConfig+0x2b0>)
 8001882:	6f1a      	ldr	r2, [r3, #112]	; 0x70
 8001884:	f022 0201 	bic.w	r2, r2, #1
 8001888:	671a      	str	r2, [r3, #112]	; 0x70
 800188a:	6f1a      	ldr	r2, [r3, #112]	; 0x70
 800188c:	f022 0204 	bic.w	r2, r2, #4
 8001890:	671a      	str	r2, [r3, #112]	; 0x70
 8001892:	68a3      	ldr	r3, [r4, #8]
 8001894:	2b00      	cmp	r3, #0
 8001896:	d034      	beq.n	8001902 <HAL_RCC_OscConfig+0x28e>
 8001898:	f000 fb80 	bl	8001f9c <HAL_GetTick>
 800189c:	4606      	mov	r6, r0
 800189e:	4b21      	ldr	r3, [pc, #132]	; (8001924 <HAL_RCC_OscConfig+0x2b0>)
 80018a0:	6f1b      	ldr	r3, [r3, #112]	; 0x70
 80018a2:	f013 0f02 	tst.w	r3, #2
 80018a6:	d145      	bne.n	8001934 <HAL_RCC_OscConfig+0x2c0>
 80018a8:	f000 fb78 	bl	8001f9c <HAL_GetTick>
 80018ac:	1b80      	subs	r0, r0, r6
 80018ae:	f241 3388 	movw	r3, #5000	; 0x1388
 80018b2:	4298      	cmp	r0, r3
 80018b4:	d9f3      	bls.n	800189e <HAL_RCC_OscConfig+0x22a>
 80018b6:	2003      	movs	r0, #3
 80018b8:	e0c5      	b.n	8001a46 <HAL_RCC_OscConfig+0x3d2>
 80018ba:	4a1d      	ldr	r2, [pc, #116]	; (8001930 <HAL_RCC_OscConfig+0x2bc>)
 80018bc:	6813      	ldr	r3, [r2, #0]
 80018be:	f443 7380 	orr.w	r3, r3, #256	; 0x100
 80018c2:	6013      	str	r3, [r2, #0]
 80018c4:	f000 fb6a 	bl	8001f9c <HAL_GetTick>
 80018c8:	4606      	mov	r6, r0
 80018ca:	4b19      	ldr	r3, [pc, #100]	; (8001930 <HAL_RCC_OscConfig+0x2bc>)
 80018cc:	681b      	ldr	r3, [r3, #0]
 80018ce:	f413 7f80 	tst.w	r3, #256	; 0x100
 80018d2:	d1d0      	bne.n	8001876 <HAL_RCC_OscConfig+0x202>
 80018d4:	f000 fb62 	bl	8001f9c <HAL_GetTick>
 80018d8:	1b80      	subs	r0, r0, r6
 80018da:	2802      	cmp	r0, #2
 80018dc:	d9f5      	bls.n	80018ca <HAL_RCC_OscConfig+0x256>
 80018de:	2003      	movs	r0, #3
 80018e0:	e0b1      	b.n	8001a46 <HAL_RCC_OscConfig+0x3d2>
 80018e2:	4a10      	ldr	r2, [pc, #64]	; (8001924 <HAL_RCC_OscConfig+0x2b0>)
 80018e4:	6f13      	ldr	r3, [r2, #112]	; 0x70
 80018e6:	f043 0301 	orr.w	r3, r3, #1
 80018ea:	6713      	str	r3, [r2, #112]	; 0x70
 80018ec:	e7d1      	b.n	8001892 <HAL_RCC_OscConfig+0x21e>
 80018ee:	4b0d      	ldr	r3, [pc, #52]	; (8001924 <HAL_RCC_OscConfig+0x2b0>)
 80018f0:	6f1a      	ldr	r2, [r3, #112]	; 0x70
 80018f2:	f042 0204 	orr.w	r2, r2, #4
 80018f6:	671a      	str	r2, [r3, #112]	; 0x70
 80018f8:	6f1a      	ldr	r2, [r3, #112]	; 0x70
 80018fa:	f042 0201 	orr.w	r2, r2, #1
 80018fe:	671a      	str	r2, [r3, #112]	; 0x70
 8001900:	e7c7      	b.n	8001892 <HAL_RCC_OscConfig+0x21e>
 8001902:	f000 fb4b 	bl	8001f9c <HAL_GetTick>
 8001906:	4606      	mov	r6, r0
 8001908:	4b06      	ldr	r3, [pc, #24]	; (8001924 <HAL_RCC_OscConfig+0x2b0>)
 800190a:	6f1b      	ldr	r3, [r3, #112]	; 0x70
 800190c:	f013 0f02 	tst.w	r3, #2
 8001910:	d010      	beq.n	8001934 <HAL_RCC_OscConfig+0x2c0>
 8001912:	f000 fb43 	bl	8001f9c <HAL_GetTick>
 8001916:	1b80      	subs	r0, r0, r6
 8001918:	f241 3388 	movw	r3, #5000	; 0x1388
 800191c:	4298      	cmp	r0, r3
 800191e:	d9f3      	bls.n	8001908 <HAL_RCC_OscConfig+0x294>
 8001920:	2003      	movs	r0, #3
 8001922:	e090      	b.n	8001a46 <HAL_RCC_OscConfig+0x3d2>
 8001924:	40023800 	.word	0x40023800
 8001928:	42470000 	.word	0x42470000
 800192c:	42470e80 	.word	0x42470e80
 8001930:	40007000 	.word	0x40007000
 8001934:	b9ed      	cbnz	r5, 8001972 <HAL_RCC_OscConfig+0x2fe>
 8001936:	69a3      	ldr	r3, [r4, #24]
 8001938:	2b00      	cmp	r3, #0
 800193a:	f000 8083 	beq.w	8001a44 <HAL_RCC_OscConfig+0x3d0>
 800193e:	4a49      	ldr	r2, [pc, #292]	; (8001a64 <HAL_RCC_OscConfig+0x3f0>)
 8001940:	6892      	ldr	r2, [r2, #8]
 8001942:	f002 020c 	and.w	r2, r2, #12
 8001946:	2a08      	cmp	r2, #8
 8001948:	d051      	beq.n	80019ee <HAL_RCC_OscConfig+0x37a>
 800194a:	2b02      	cmp	r3, #2
 800194c:	d017      	beq.n	800197e <HAL_RCC_OscConfig+0x30a>
 800194e:	4b46      	ldr	r3, [pc, #280]	; (8001a68 <HAL_RCC_OscConfig+0x3f4>)
 8001950:	2200      	movs	r2, #0
 8001952:	601a      	str	r2, [r3, #0]
 8001954:	f000 fb22 	bl	8001f9c <HAL_GetTick>
 8001958:	4604      	mov	r4, r0
 800195a:	4b42      	ldr	r3, [pc, #264]	; (8001a64 <HAL_RCC_OscConfig+0x3f0>)
 800195c:	681b      	ldr	r3, [r3, #0]
 800195e:	f013 7f00 	tst.w	r3, #33554432	; 0x2000000
 8001962:	d042      	beq.n	80019ea <HAL_RCC_OscConfig+0x376>
 8001964:	f000 fb1a 	bl	8001f9c <HAL_GetTick>
 8001968:	1b00      	subs	r0, r0, r4
 800196a:	2802      	cmp	r0, #2
 800196c:	d9f5      	bls.n	800195a <HAL_RCC_OscConfig+0x2e6>
 800196e:	2003      	movs	r0, #3
 8001970:	e069      	b.n	8001a46 <HAL_RCC_OscConfig+0x3d2>
 8001972:	4a3c      	ldr	r2, [pc, #240]	; (8001a64 <HAL_RCC_OscConfig+0x3f0>)
 8001974:	6c13      	ldr	r3, [r2, #64]	; 0x40
 8001976:	f023 5380 	bic.w	r3, r3, #268435456	; 0x10000000
 800197a:	6413      	str	r3, [r2, #64]	; 0x40
 800197c:	e7db      	b.n	8001936 <HAL_RCC_OscConfig+0x2c2>
 800197e:	4b3a      	ldr	r3, [pc, #232]	; (8001a68 <HAL_RCC_OscConfig+0x3f4>)
 8001980:	2200      	movs	r2, #0
 8001982:	601a      	str	r2, [r3, #0]
 8001984:	f000 fb0a 	bl	8001f9c <HAL_GetTick>
 8001988:	4605      	mov	r5, r0
 800198a:	4b36      	ldr	r3, [pc, #216]	; (8001a64 <HAL_RCC_OscConfig+0x3f0>)
 800198c:	681b      	ldr	r3, [r3, #0]
 800198e:	f013 7f00 	tst.w	r3, #33554432	; 0x2000000
 8001992:	d006      	beq.n	80019a2 <HAL_RCC_OscConfig+0x32e>
 8001994:	f000 fb02 	bl	8001f9c <HAL_GetTick>
 8001998:	1b40      	subs	r0, r0, r5
 800199a:	2802      	cmp	r0, #2
 800199c:	d9f5      	bls.n	800198a <HAL_RCC_OscConfig+0x316>
 800199e:	2003      	movs	r0, #3
 80019a0:	e051      	b.n	8001a46 <HAL_RCC_OscConfig+0x3d2>
 80019a2:	69e3      	ldr	r3, [r4, #28]
 80019a4:	6a22      	ldr	r2, [r4, #32]
 80019a6:	4313      	orrs	r3, r2
 80019a8:	6a62      	ldr	r2, [r4, #36]	; 0x24
 80019aa:	ea43 1382 	orr.w	r3, r3, r2, lsl #6
 80019ae:	6aa2      	ldr	r2, [r4, #40]	; 0x28
 80019b0:	0852      	lsrs	r2, r2, #1
 80019b2:	3a01      	subs	r2, #1
 80019b4:	ea43 4302 	orr.w	r3, r3, r2, lsl #16
 80019b8:	6ae2      	ldr	r2, [r4, #44]	; 0x2c
 80019ba:	ea43 6302 	orr.w	r3, r3, r2, lsl #24
 80019be:	4a29      	ldr	r2, [pc, #164]	; (8001a64 <HAL_RCC_OscConfig+0x3f0>)
 80019c0:	6053      	str	r3, [r2, #4]
 80019c2:	4b29      	ldr	r3, [pc, #164]	; (8001a68 <HAL_RCC_OscConfig+0x3f4>)
 80019c4:	2201      	movs	r2, #1
 80019c6:	601a      	str	r2, [r3, #0]
 80019c8:	f000 fae8 	bl	8001f9c <HAL_GetTick>
 80019cc:	4604      	mov	r4, r0
 80019ce:	4b25      	ldr	r3, [pc, #148]	; (8001a64 <HAL_RCC_OscConfig+0x3f0>)
 80019d0:	681b      	ldr	r3, [r3, #0]
 80019d2:	f013 7f00 	tst.w	r3, #33554432	; 0x2000000
 80019d6:	d106      	bne.n	80019e6 <HAL_RCC_OscConfig+0x372>
 80019d8:	f000 fae0 	bl	8001f9c <HAL_GetTick>
 80019dc:	1b00      	subs	r0, r0, r4
 80019de:	2802      	cmp	r0, #2
 80019e0:	d9f5      	bls.n	80019ce <HAL_RCC_OscConfig+0x35a>
 80019e2:	2003      	movs	r0, #3
 80019e4:	e02f      	b.n	8001a46 <HAL_RCC_OscConfig+0x3d2>
 80019e6:	2000      	movs	r0, #0
 80019e8:	e02d      	b.n	8001a46 <HAL_RCC_OscConfig+0x3d2>
 80019ea:	2000      	movs	r0, #0
 80019ec:	e02b      	b.n	8001a46 <HAL_RCC_OscConfig+0x3d2>
 80019ee:	2b01      	cmp	r3, #1
 80019f0:	d02b      	beq.n	8001a4a <HAL_RCC_OscConfig+0x3d6>
 80019f2:	4b1c      	ldr	r3, [pc, #112]	; (8001a64 <HAL_RCC_OscConfig+0x3f0>)
 80019f4:	685b      	ldr	r3, [r3, #4]
 80019f6:	f403 0180 	and.w	r1, r3, #4194304	; 0x400000
 80019fa:	69e2      	ldr	r2, [r4, #28]
 80019fc:	4291      	cmp	r1, r2
 80019fe:	d126      	bne.n	8001a4e <HAL_RCC_OscConfig+0x3da>
 8001a00:	f003 023f 	and.w	r2, r3, #63	; 0x3f
 8001a04:	6a21      	ldr	r1, [r4, #32]
 8001a06:	428a      	cmp	r2, r1
 8001a08:	d123      	bne.n	8001a52 <HAL_RCC_OscConfig+0x3de>
 8001a0a:	6a61      	ldr	r1, [r4, #36]	; 0x24
 8001a0c:	f647 72c0 	movw	r2, #32704	; 0x7fc0
 8001a10:	401a      	ands	r2, r3
 8001a12:	ebb2 1f81 	cmp.w	r2, r1, lsl #6
 8001a16:	d11e      	bne.n	8001a56 <HAL_RCC_OscConfig+0x3e2>
 8001a18:	f403 3140 	and.w	r1, r3, #196608	; 0x30000
 8001a1c:	6aa2      	ldr	r2, [r4, #40]	; 0x28
 8001a1e:	0852      	lsrs	r2, r2, #1
 8001a20:	3a01      	subs	r2, #1
 8001a22:	ebb1 4f02 	cmp.w	r1, r2, lsl #16
 8001a26:	d118      	bne.n	8001a5a <HAL_RCC_OscConfig+0x3e6>
 8001a28:	f003 6370 	and.w	r3, r3, #251658240	; 0xf000000
 8001a2c:	6ae2      	ldr	r2, [r4, #44]	; 0x2c
 8001a2e:	ebb3 6f02 	cmp.w	r3, r2, lsl #24
 8001a32:	d114      	bne.n	8001a5e <HAL_RCC_OscConfig+0x3ea>
 8001a34:	2000      	movs	r0, #0
 8001a36:	e006      	b.n	8001a46 <HAL_RCC_OscConfig+0x3d2>
 8001a38:	2001      	movs	r0, #1
 8001a3a:	4770      	bx	lr
 8001a3c:	2001      	movs	r0, #1
 8001a3e:	e002      	b.n	8001a46 <HAL_RCC_OscConfig+0x3d2>
 8001a40:	2001      	movs	r0, #1
 8001a42:	e000      	b.n	8001a46 <HAL_RCC_OscConfig+0x3d2>
 8001a44:	2000      	movs	r0, #0
 8001a46:	b002      	add	sp, #8
 8001a48:	bd70      	pop	{r4, r5, r6, pc}
 8001a4a:	2001      	movs	r0, #1
 8001a4c:	e7fb      	b.n	8001a46 <HAL_RCC_OscConfig+0x3d2>
 8001a4e:	2001      	movs	r0, #1
 8001a50:	e7f9      	b.n	8001a46 <HAL_RCC_OscConfig+0x3d2>
 8001a52:	2001      	movs	r0, #1
 8001a54:	e7f7      	b.n	8001a46 <HAL_RCC_OscConfig+0x3d2>
 8001a56:	2001      	movs	r0, #1
 8001a58:	e7f5      	b.n	8001a46 <HAL_RCC_OscConfig+0x3d2>
 8001a5a:	2001      	movs	r0, #1
 8001a5c:	e7f3      	b.n	8001a46 <HAL_RCC_OscConfig+0x3d2>
 8001a5e:	2001      	movs	r0, #1
 8001a60:	e7f1      	b.n	8001a46 <HAL_RCC_OscConfig+0x3d2>
 8001a62:	bf00      	nop
 8001a64:	40023800 	.word	0x40023800
 8001a68:	42470060 	.word	0x42470060

08001a6c <HAL_RCC_GetSysClockFreq>:
 8001a6c:	b5f8      	push	{r3, r4, r5, r6, r7, lr}
 8001a6e:	4b24      	ldr	r3, [pc, #144]	; (8001b00 <HAL_RCC_GetSysClockFreq+0x94>)
 8001a70:	689b      	ldr	r3, [r3, #8]
 8001a72:	f003 030c 	and.w	r3, r3, #12
 8001a76:	2b04      	cmp	r3, #4
 8001a78:	d03d      	beq.n	8001af6 <HAL_RCC_GetSysClockFreq+0x8a>
 8001a7a:	2b08      	cmp	r3, #8
 8001a7c:	d13d      	bne.n	8001afa <HAL_RCC_GetSysClockFreq+0x8e>
 8001a7e:	4b20      	ldr	r3, [pc, #128]	; (8001b00 <HAL_RCC_GetSysClockFreq+0x94>)
 8001a80:	685a      	ldr	r2, [r3, #4]
 8001a82:	f002 023f 	and.w	r2, r2, #63	; 0x3f
 8001a86:	685b      	ldr	r3, [r3, #4]
 8001a88:	f413 0f80 	tst.w	r3, #4194304	; 0x400000
 8001a8c:	d012      	beq.n	8001ab4 <HAL_RCC_GetSysClockFreq+0x48>
 8001a8e:	4b1c      	ldr	r3, [pc, #112]	; (8001b00 <HAL_RCC_GetSysClockFreq+0x94>)
 8001a90:	6859      	ldr	r1, [r3, #4]
 8001a92:	f3c1 1188 	ubfx	r1, r1, #6, #9
 8001a96:	2300      	movs	r3, #0
 8001a98:	481a      	ldr	r0, [pc, #104]	; (8001b04 <HAL_RCC_GetSysClockFreq+0x98>)
 8001a9a:	fba1 0100 	umull	r0, r1, r1, r0
 8001a9e:	f7ff f883 	bl	8000ba8 <__aeabi_uldivmod>
 8001aa2:	4b17      	ldr	r3, [pc, #92]	; (8001b00 <HAL_RCC_GetSysClockFreq+0x94>)
 8001aa4:	685b      	ldr	r3, [r3, #4]
 8001aa6:	f3c3 4301 	ubfx	r3, r3, #16, #2
 8001aaa:	3301      	adds	r3, #1
 8001aac:	005b      	lsls	r3, r3, #1
 8001aae:	fbb0 f0f3 	udiv	r0, r0, r3
 8001ab2:	e023      	b.n	8001afc <HAL_RCC_GetSysClockFreq+0x90>
 8001ab4:	4b12      	ldr	r3, [pc, #72]	; (8001b00 <HAL_RCC_GetSysClockFreq+0x94>)
 8001ab6:	685b      	ldr	r3, [r3, #4]
 8001ab8:	f3c3 1388 	ubfx	r3, r3, #6, #9
 8001abc:	015c      	lsls	r4, r3, #5
 8001abe:	2500      	movs	r5, #0
 8001ac0:	1ae4      	subs	r4, r4, r3
 8001ac2:	f165 0500 	sbc.w	r5, r5, #0
 8001ac6:	01ae      	lsls	r6, r5, #6
 8001ac8:	ea46 6694 	orr.w	r6, r6, r4, lsr #26
 8001acc:	01a7      	lsls	r7, r4, #6
 8001ace:	1b38      	subs	r0, r7, r4
 8001ad0:	eb66 0105 	sbc.w	r1, r6, r5
 8001ad4:	00cc      	lsls	r4, r1, #3
 8001ad6:	ea44 7450 	orr.w	r4, r4, r0, lsr #29
 8001ada:	00c5      	lsls	r5, r0, #3
 8001adc:	18e8      	adds	r0, r5, r3
 8001ade:	f144 0100 	adc.w	r1, r4, #0
 8001ae2:	028b      	lsls	r3, r1, #10
 8001ae4:	ea43 5390 	orr.w	r3, r3, r0, lsr #22
 8001ae8:	0284      	lsls	r4, r0, #10
 8001aea:	4620      	mov	r0, r4
 8001aec:	4619      	mov	r1, r3
 8001aee:	2300      	movs	r3, #0
 8001af0:	f7ff f85a 	bl	8000ba8 <__aeabi_uldivmod>
 8001af4:	e7d5      	b.n	8001aa2 <HAL_RCC_GetSysClockFreq+0x36>
 8001af6:	4803      	ldr	r0, [pc, #12]	; (8001b04 <HAL_RCC_GetSysClockFreq+0x98>)
 8001af8:	e000      	b.n	8001afc <HAL_RCC_GetSysClockFreq+0x90>
 8001afa:	4803      	ldr	r0, [pc, #12]	; (8001b08 <HAL_RCC_GetSysClockFreq+0x9c>)
 8001afc:	bdf8      	pop	{r3, r4, r5, r6, r7, pc}
 8001afe:	bf00      	nop
 8001b00:	40023800 	.word	0x40023800
 8001b04:	017d7840 	.word	0x017d7840
 8001b08:	00f42400 	.word	0x00f42400

08001b0c <HAL_RCC_ClockConfig>:
 8001b0c:	2800      	cmp	r0, #0
 8001b0e:	f000 809b 	beq.w	8001c48 <HAL_RCC_ClockConfig+0x13c>
 8001b12:	b570      	push	{r4, r5, r6, lr}
 8001b14:	460d      	mov	r5, r1
 8001b16:	4604      	mov	r4, r0
 8001b18:	4b4f      	ldr	r3, [pc, #316]	; (8001c58 <HAL_RCC_ClockConfig+0x14c>)
 8001b1a:	681b      	ldr	r3, [r3, #0]
 8001b1c:	f003 0307 	and.w	r3, r3, #7
 8001b20:	428b      	cmp	r3, r1
 8001b22:	d208      	bcs.n	8001b36 <HAL_RCC_ClockConfig+0x2a>
 8001b24:	b2cb      	uxtb	r3, r1
 8001b26:	4a4c      	ldr	r2, [pc, #304]	; (8001c58 <HAL_RCC_ClockConfig+0x14c>)
 8001b28:	7013      	strb	r3, [r2, #0]
 8001b2a:	6813      	ldr	r3, [r2, #0]
 8001b2c:	f003 0307 	and.w	r3, r3, #7
 8001b30:	428b      	cmp	r3, r1
 8001b32:	f040 808b 	bne.w	8001c4c <HAL_RCC_ClockConfig+0x140>
 8001b36:	6823      	ldr	r3, [r4, #0]
 8001b38:	f013 0f02 	tst.w	r3, #2
 8001b3c:	d017      	beq.n	8001b6e <HAL_RCC_ClockConfig+0x62>
 8001b3e:	f013 0f04 	tst.w	r3, #4
 8001b42:	d004      	beq.n	8001b4e <HAL_RCC_ClockConfig+0x42>
 8001b44:	4a45      	ldr	r2, [pc, #276]	; (8001c5c <HAL_RCC_ClockConfig+0x150>)
 8001b46:	6893      	ldr	r3, [r2, #8]
 8001b48:	f443 53e0 	orr.w	r3, r3, #7168	; 0x1c00
 8001b4c:	6093      	str	r3, [r2, #8]
 8001b4e:	6823      	ldr	r3, [r4, #0]
 8001b50:	f013 0f08 	tst.w	r3, #8
 8001b54:	d004      	beq.n	8001b60 <HAL_RCC_ClockConfig+0x54>
 8001b56:	4a41      	ldr	r2, [pc, #260]	; (8001c5c <HAL_RCC_ClockConfig+0x150>)
 8001b58:	6893      	ldr	r3, [r2, #8]
 8001b5a:	f443 4360 	orr.w	r3, r3, #57344	; 0xe000
 8001b5e:	6093      	str	r3, [r2, #8]
 8001b60:	4a3e      	ldr	r2, [pc, #248]	; (8001c5c <HAL_RCC_ClockConfig+0x150>)
 8001b62:	6893      	ldr	r3, [r2, #8]
 8001b64:	f023 03f0 	bic.w	r3, r3, #240	; 0xf0
 8001b68:	68a1      	ldr	r1, [r4, #8]
 8001b6a:	430b      	orrs	r3, r1
 8001b6c:	6093      	str	r3, [r2, #8]
 8001b6e:	6823      	ldr	r3, [r4, #0]
 8001b70:	f013 0f01 	tst.w	r3, #1
 8001b74:	d032      	beq.n	8001bdc <HAL_RCC_ClockConfig+0xd0>
 8001b76:	6863      	ldr	r3, [r4, #4]
 8001b78:	2b01      	cmp	r3, #1
 8001b7a:	d021      	beq.n	8001bc0 <HAL_RCC_ClockConfig+0xb4>
 8001b7c:	1e9a      	subs	r2, r3, #2
 8001b7e:	2a01      	cmp	r2, #1
 8001b80:	d925      	bls.n	8001bce <HAL_RCC_ClockConfig+0xc2>
 8001b82:	4a36      	ldr	r2, [pc, #216]	; (8001c5c <HAL_RCC_ClockConfig+0x150>)
 8001b84:	6812      	ldr	r2, [r2, #0]
 8001b86:	f012 0f02 	tst.w	r2, #2
 8001b8a:	d061      	beq.n	8001c50 <HAL_RCC_ClockConfig+0x144>
 8001b8c:	4933      	ldr	r1, [pc, #204]	; (8001c5c <HAL_RCC_ClockConfig+0x150>)
 8001b8e:	688a      	ldr	r2, [r1, #8]
 8001b90:	f022 0203 	bic.w	r2, r2, #3
 8001b94:	4313      	orrs	r3, r2
 8001b96:	608b      	str	r3, [r1, #8]
 8001b98:	f000 fa00 	bl	8001f9c <HAL_GetTick>
 8001b9c:	4606      	mov	r6, r0
 8001b9e:	4b2f      	ldr	r3, [pc, #188]	; (8001c5c <HAL_RCC_ClockConfig+0x150>)
 8001ba0:	689b      	ldr	r3, [r3, #8]
 8001ba2:	f003 030c 	and.w	r3, r3, #12
 8001ba6:	6862      	ldr	r2, [r4, #4]
 8001ba8:	ebb3 0f82 	cmp.w	r3, r2, lsl #2
 8001bac:	d016      	beq.n	8001bdc <HAL_RCC_ClockConfig+0xd0>
 8001bae:	f000 f9f5 	bl	8001f9c <HAL_GetTick>
 8001bb2:	1b80      	subs	r0, r0, r6
 8001bb4:	f241 3388 	movw	r3, #5000	; 0x1388
 8001bb8:	4298      	cmp	r0, r3
 8001bba:	d9f0      	bls.n	8001b9e <HAL_RCC_ClockConfig+0x92>
 8001bbc:	2003      	movs	r0, #3
 8001bbe:	e042      	b.n	8001c46 <HAL_RCC_ClockConfig+0x13a>
 8001bc0:	4a26      	ldr	r2, [pc, #152]	; (8001c5c <HAL_RCC_ClockConfig+0x150>)
 8001bc2:	6812      	ldr	r2, [r2, #0]
 8001bc4:	f412 3f00 	tst.w	r2, #131072	; 0x20000
 8001bc8:	d1e0      	bne.n	8001b8c <HAL_RCC_ClockConfig+0x80>
 8001bca:	2001      	movs	r0, #1
 8001bcc:	e03b      	b.n	8001c46 <HAL_RCC_ClockConfig+0x13a>
 8001bce:	4a23      	ldr	r2, [pc, #140]	; (8001c5c <HAL_RCC_ClockConfig+0x150>)
 8001bd0:	6812      	ldr	r2, [r2, #0]
 8001bd2:	f012 7f00 	tst.w	r2, #33554432	; 0x2000000
 8001bd6:	d1d9      	bne.n	8001b8c <HAL_RCC_ClockConfig+0x80>
 8001bd8:	2001      	movs	r0, #1
 8001bda:	e034      	b.n	8001c46 <HAL_RCC_ClockConfig+0x13a>
 8001bdc:	4b1e      	ldr	r3, [pc, #120]	; (8001c58 <HAL_RCC_ClockConfig+0x14c>)
 8001bde:	681b      	ldr	r3, [r3, #0]
 8001be0:	f003 0307 	and.w	r3, r3, #7
 8001be4:	42ab      	cmp	r3, r5
 8001be6:	d907      	bls.n	8001bf8 <HAL_RCC_ClockConfig+0xec>
 8001be8:	b2ea      	uxtb	r2, r5
 8001bea:	4b1b      	ldr	r3, [pc, #108]	; (8001c58 <HAL_RCC_ClockConfig+0x14c>)
 8001bec:	701a      	strb	r2, [r3, #0]
 8001bee:	681b      	ldr	r3, [r3, #0]
 8001bf0:	f003 0307 	and.w	r3, r3, #7
 8001bf4:	42ab      	cmp	r3, r5
 8001bf6:	d12d      	bne.n	8001c54 <HAL_RCC_ClockConfig+0x148>
 8001bf8:	6823      	ldr	r3, [r4, #0]
 8001bfa:	f013 0f04 	tst.w	r3, #4
 8001bfe:	d006      	beq.n	8001c0e <HAL_RCC_ClockConfig+0x102>
 8001c00:	4a16      	ldr	r2, [pc, #88]	; (8001c5c <HAL_RCC_ClockConfig+0x150>)
 8001c02:	6893      	ldr	r3, [r2, #8]
 8001c04:	f423 53e0 	bic.w	r3, r3, #7168	; 0x1c00
 8001c08:	68e1      	ldr	r1, [r4, #12]
 8001c0a:	430b      	orrs	r3, r1
 8001c0c:	6093      	str	r3, [r2, #8]
 8001c0e:	6823      	ldr	r3, [r4, #0]
 8001c10:	f013 0f08 	tst.w	r3, #8
 8001c14:	d007      	beq.n	8001c26 <HAL_RCC_ClockConfig+0x11a>
 8001c16:	4a11      	ldr	r2, [pc, #68]	; (8001c5c <HAL_RCC_ClockConfig+0x150>)
 8001c18:	6893      	ldr	r3, [r2, #8]
 8001c1a:	f423 4360 	bic.w	r3, r3, #57344	; 0xe000
 8001c1e:	6921      	ldr	r1, [r4, #16]
 8001c20:	ea43 03c1 	orr.w	r3, r3, r1, lsl #3
 8001c24:	6093      	str	r3, [r2, #8]
 8001c26:	f7ff ff21 	bl	8001a6c <HAL_RCC_GetSysClockFreq>
 8001c2a:	4b0c      	ldr	r3, [pc, #48]	; (8001c5c <HAL_RCC_ClockConfig+0x150>)
 8001c2c:	689b      	ldr	r3, [r3, #8]
 8001c2e:	f3c3 1303 	ubfx	r3, r3, #4, #4
 8001c32:	4a0b      	ldr	r2, [pc, #44]	; (8001c60 <HAL_RCC_ClockConfig+0x154>)
 8001c34:	5cd3      	ldrb	r3, [r2, r3]
 8001c36:	40d8      	lsrs	r0, r3
 8001c38:	4b0a      	ldr	r3, [pc, #40]	; (8001c64 <HAL_RCC_ClockConfig+0x158>)
 8001c3a:	6018      	str	r0, [r3, #0]
 8001c3c:	4b0a      	ldr	r3, [pc, #40]	; (8001c68 <HAL_RCC_ClockConfig+0x15c>)
 8001c3e:	6818      	ldr	r0, [r3, #0]
 8001c40:	f000 f960 	bl	8001f04 <HAL_InitTick>
 8001c44:	2000      	movs	r0, #0
 8001c46:	bd70      	pop	{r4, r5, r6, pc}
 8001c48:	2001      	movs	r0, #1
 8001c4a:	4770      	bx	lr
 8001c4c:	2001      	movs	r0, #1
 8001c4e:	e7fa      	b.n	8001c46 <HAL_RCC_ClockConfig+0x13a>
 8001c50:	2001      	movs	r0, #1
 8001c52:	e7f8      	b.n	8001c46 <HAL_RCC_ClockConfig+0x13a>
 8001c54:	2001      	movs	r0, #1
 8001c56:	e7f6      	b.n	8001c46 <HAL_RCC_ClockConfig+0x13a>
 8001c58:	40023c00 	.word	0x40023c00
 8001c5c:	40023800 	.word	0x40023800
 8001c60:	0801c6a8 	.word	0x0801c6a8
 8001c64:	20018cf8 	.word	0x20018cf8
 8001c68:	20018cf4 	.word	0x20018cf4

08001c6c <HAL_GPIO_Init>:
 8001c6c:	2300      	movs	r3, #0
 8001c6e:	2b0f      	cmp	r3, #15
 8001c70:	f200 80dd 	bhi.w	8001e2e <HAL_GPIO_Init+0x1c2>
 8001c74:	b4f0      	push	{r4, r5, r6, r7}
 8001c76:	b082      	sub	sp, #8
 8001c78:	e05d      	b.n	8001d36 <HAL_GPIO_Init+0xca>
 8001c7a:	6886      	ldr	r6, [r0, #8]
 8001c7c:	005f      	lsls	r7, r3, #1
 8001c7e:	2403      	movs	r4, #3
 8001c80:	40bc      	lsls	r4, r7
 8001c82:	ea26 0604 	bic.w	r6, r6, r4
 8001c86:	68cc      	ldr	r4, [r1, #12]
 8001c88:	40bc      	lsls	r4, r7
 8001c8a:	4334      	orrs	r4, r6
 8001c8c:	6084      	str	r4, [r0, #8]
 8001c8e:	6846      	ldr	r6, [r0, #4]
 8001c90:	ea26 0602 	bic.w	r6, r6, r2
 8001c94:	684c      	ldr	r4, [r1, #4]
 8001c96:	f3c4 1200 	ubfx	r2, r4, #4, #1
 8001c9a:	409a      	lsls	r2, r3
 8001c9c:	4332      	orrs	r2, r6
 8001c9e:	6042      	str	r2, [r0, #4]
 8001ca0:	e057      	b.n	8001d52 <HAL_GPIO_Init+0xe6>
 8001ca2:	08dc      	lsrs	r4, r3, #3
 8001ca4:	3408      	adds	r4, #8
 8001ca6:	f850 7024 	ldr.w	r7, [r0, r4, lsl #2]
 8001caa:	f003 0207 	and.w	r2, r3, #7
 8001cae:	0096      	lsls	r6, r2, #2
 8001cb0:	220f      	movs	r2, #15
 8001cb2:	40b2      	lsls	r2, r6
 8001cb4:	ea27 0702 	bic.w	r7, r7, r2
 8001cb8:	690a      	ldr	r2, [r1, #16]
 8001cba:	40b2      	lsls	r2, r6
 8001cbc:	433a      	orrs	r2, r7
 8001cbe:	f840 2024 	str.w	r2, [r0, r4, lsl #2]
 8001cc2:	e05a      	b.n	8001d7a <HAL_GPIO_Init+0x10e>
 8001cc4:	2207      	movs	r2, #7
 8001cc6:	e000      	b.n	8001cca <HAL_GPIO_Init+0x5e>
 8001cc8:	2200      	movs	r2, #0
 8001cca:	40b2      	lsls	r2, r6
 8001ccc:	433a      	orrs	r2, r7
 8001cce:	3402      	adds	r4, #2
 8001cd0:	4e57      	ldr	r6, [pc, #348]	; (8001e30 <HAL_GPIO_Init+0x1c4>)
 8001cd2:	f846 2024 	str.w	r2, [r6, r4, lsl #2]
 8001cd6:	4a57      	ldr	r2, [pc, #348]	; (8001e34 <HAL_GPIO_Init+0x1c8>)
 8001cd8:	6814      	ldr	r4, [r2, #0]
 8001cda:	43ea      	mvns	r2, r5
 8001cdc:	ea24 0605 	bic.w	r6, r4, r5
 8001ce0:	684f      	ldr	r7, [r1, #4]
 8001ce2:	f417 3f80 	tst.w	r7, #65536	; 0x10000
 8001ce6:	d001      	beq.n	8001cec <HAL_GPIO_Init+0x80>
 8001ce8:	ea45 0604 	orr.w	r6, r5, r4
 8001cec:	4c51      	ldr	r4, [pc, #324]	; (8001e34 <HAL_GPIO_Init+0x1c8>)
 8001cee:	6026      	str	r6, [r4, #0]
 8001cf0:	6864      	ldr	r4, [r4, #4]
 8001cf2:	ea02 0604 	and.w	r6, r2, r4
 8001cf6:	684f      	ldr	r7, [r1, #4]
 8001cf8:	f417 3f00 	tst.w	r7, #131072	; 0x20000
 8001cfc:	d001      	beq.n	8001d02 <HAL_GPIO_Init+0x96>
 8001cfe:	ea45 0604 	orr.w	r6, r5, r4
 8001d02:	4c4c      	ldr	r4, [pc, #304]	; (8001e34 <HAL_GPIO_Init+0x1c8>)
 8001d04:	6066      	str	r6, [r4, #4]
 8001d06:	68a4      	ldr	r4, [r4, #8]
 8001d08:	ea02 0604 	and.w	r6, r2, r4
 8001d0c:	684f      	ldr	r7, [r1, #4]
 8001d0e:	f417 1f80 	tst.w	r7, #1048576	; 0x100000
 8001d12:	d001      	beq.n	8001d18 <HAL_GPIO_Init+0xac>
 8001d14:	ea45 0604 	orr.w	r6, r5, r4
 8001d18:	4c46      	ldr	r4, [pc, #280]	; (8001e34 <HAL_GPIO_Init+0x1c8>)
 8001d1a:	60a6      	str	r6, [r4, #8]
 8001d1c:	68e4      	ldr	r4, [r4, #12]
 8001d1e:	4022      	ands	r2, r4
 8001d20:	684e      	ldr	r6, [r1, #4]
 8001d22:	f416 1f00 	tst.w	r6, #2097152	; 0x200000
 8001d26:	d001      	beq.n	8001d2c <HAL_GPIO_Init+0xc0>
 8001d28:	ea45 0204 	orr.w	r2, r5, r4
 8001d2c:	4c41      	ldr	r4, [pc, #260]	; (8001e34 <HAL_GPIO_Init+0x1c8>)
 8001d2e:	60e2      	str	r2, [r4, #12]
 8001d30:	3301      	adds	r3, #1
 8001d32:	2b0f      	cmp	r3, #15
 8001d34:	d878      	bhi.n	8001e28 <HAL_GPIO_Init+0x1bc>
 8001d36:	2201      	movs	r2, #1
 8001d38:	409a      	lsls	r2, r3
 8001d3a:	680c      	ldr	r4, [r1, #0]
 8001d3c:	ea04 0502 	and.w	r5, r4, r2
 8001d40:	ea32 0404 	bics.w	r4, r2, r4
 8001d44:	d1f4      	bne.n	8001d30 <HAL_GPIO_Init+0xc4>
 8001d46:	684c      	ldr	r4, [r1, #4]
 8001d48:	f004 0403 	and.w	r4, r4, #3
 8001d4c:	3c01      	subs	r4, #1
 8001d4e:	2c01      	cmp	r4, #1
 8001d50:	d993      	bls.n	8001c7a <HAL_GPIO_Init+0xe>
 8001d52:	684a      	ldr	r2, [r1, #4]
 8001d54:	f002 0203 	and.w	r2, r2, #3
 8001d58:	2a03      	cmp	r2, #3
 8001d5a:	d009      	beq.n	8001d70 <HAL_GPIO_Init+0x104>
 8001d5c:	68c4      	ldr	r4, [r0, #12]
 8001d5e:	005e      	lsls	r6, r3, #1
 8001d60:	2203      	movs	r2, #3
 8001d62:	40b2      	lsls	r2, r6
 8001d64:	ea24 0402 	bic.w	r4, r4, r2
 8001d68:	688a      	ldr	r2, [r1, #8]
 8001d6a:	40b2      	lsls	r2, r6
 8001d6c:	4322      	orrs	r2, r4
 8001d6e:	60c2      	str	r2, [r0, #12]
 8001d70:	684a      	ldr	r2, [r1, #4]
 8001d72:	f002 0203 	and.w	r2, r2, #3
 8001d76:	2a02      	cmp	r2, #2
 8001d78:	d093      	beq.n	8001ca2 <HAL_GPIO_Init+0x36>
 8001d7a:	6804      	ldr	r4, [r0, #0]
 8001d7c:	005e      	lsls	r6, r3, #1
 8001d7e:	2203      	movs	r2, #3
 8001d80:	40b2      	lsls	r2, r6
 8001d82:	ea24 0402 	bic.w	r4, r4, r2
 8001d86:	684a      	ldr	r2, [r1, #4]
 8001d88:	f002 0203 	and.w	r2, r2, #3
 8001d8c:	40b2      	lsls	r2, r6
 8001d8e:	4322      	orrs	r2, r4
 8001d90:	6002      	str	r2, [r0, #0]
 8001d92:	684a      	ldr	r2, [r1, #4]
 8001d94:	f012 5f80 	tst.w	r2, #268435456	; 0x10000000
 8001d98:	d0ca      	beq.n	8001d30 <HAL_GPIO_Init+0xc4>
 8001d9a:	2200      	movs	r2, #0
 8001d9c:	9201      	str	r2, [sp, #4]
 8001d9e:	4a26      	ldr	r2, [pc, #152]	; (8001e38 <HAL_GPIO_Init+0x1cc>)
 8001da0:	6c54      	ldr	r4, [r2, #68]	; 0x44
 8001da2:	f444 4480 	orr.w	r4, r4, #16384	; 0x4000
 8001da6:	6454      	str	r4, [r2, #68]	; 0x44
 8001da8:	6c52      	ldr	r2, [r2, #68]	; 0x44
 8001daa:	f402 4280 	and.w	r2, r2, #16384	; 0x4000
 8001dae:	9201      	str	r2, [sp, #4]
 8001db0:	9a01      	ldr	r2, [sp, #4]
 8001db2:	089c      	lsrs	r4, r3, #2
 8001db4:	1ca6      	adds	r6, r4, #2
 8001db6:	4a1e      	ldr	r2, [pc, #120]	; (8001e30 <HAL_GPIO_Init+0x1c4>)
 8001db8:	f852 7026 	ldr.w	r7, [r2, r6, lsl #2]
 8001dbc:	f003 0203 	and.w	r2, r3, #3
 8001dc0:	0096      	lsls	r6, r2, #2
 8001dc2:	220f      	movs	r2, #15
 8001dc4:	40b2      	lsls	r2, r6
 8001dc6:	ea27 0702 	bic.w	r7, r7, r2
 8001dca:	4a1c      	ldr	r2, [pc, #112]	; (8001e3c <HAL_GPIO_Init+0x1d0>)
 8001dcc:	4290      	cmp	r0, r2
 8001dce:	f43f af7b 	beq.w	8001cc8 <HAL_GPIO_Init+0x5c>
 8001dd2:	f502 6280 	add.w	r2, r2, #1024	; 0x400
 8001dd6:	4290      	cmp	r0, r2
 8001dd8:	d01a      	beq.n	8001e10 <HAL_GPIO_Init+0x1a4>
 8001dda:	f502 6280 	add.w	r2, r2, #1024	; 0x400
 8001dde:	4290      	cmp	r0, r2
 8001de0:	d018      	beq.n	8001e14 <HAL_GPIO_Init+0x1a8>
 8001de2:	f502 6280 	add.w	r2, r2, #1024	; 0x400
 8001de6:	4290      	cmp	r0, r2
 8001de8:	d016      	beq.n	8001e18 <HAL_GPIO_Init+0x1ac>
 8001dea:	f502 6280 	add.w	r2, r2, #1024	; 0x400
 8001dee:	4290      	cmp	r0, r2
 8001df0:	d014      	beq.n	8001e1c <HAL_GPIO_Init+0x1b0>
 8001df2:	f502 6280 	add.w	r2, r2, #1024	; 0x400
 8001df6:	4290      	cmp	r0, r2
 8001df8:	d012      	beq.n	8001e20 <HAL_GPIO_Init+0x1b4>
 8001dfa:	f502 6280 	add.w	r2, r2, #1024	; 0x400
 8001dfe:	4290      	cmp	r0, r2
 8001e00:	d010      	beq.n	8001e24 <HAL_GPIO_Init+0x1b8>
 8001e02:	f502 6280 	add.w	r2, r2, #1024	; 0x400
 8001e06:	4290      	cmp	r0, r2
 8001e08:	f43f af5c 	beq.w	8001cc4 <HAL_GPIO_Init+0x58>
 8001e0c:	2208      	movs	r2, #8
 8001e0e:	e75c      	b.n	8001cca <HAL_GPIO_Init+0x5e>
 8001e10:	2201      	movs	r2, #1
 8001e12:	e75a      	b.n	8001cca <HAL_GPIO_Init+0x5e>
 8001e14:	2202      	movs	r2, #2
 8001e16:	e758      	b.n	8001cca <HAL_GPIO_Init+0x5e>
 8001e18:	2203      	movs	r2, #3
 8001e1a:	e756      	b.n	8001cca <HAL_GPIO_Init+0x5e>
 8001e1c:	2204      	movs	r2, #4
 8001e1e:	e754      	b.n	8001cca <HAL_GPIO_Init+0x5e>
 8001e20:	2205      	movs	r2, #5
 8001e22:	e752      	b.n	8001cca <HAL_GPIO_Init+0x5e>
 8001e24:	2206      	movs	r2, #6
 8001e26:	e750      	b.n	8001cca <HAL_GPIO_Init+0x5e>
 8001e28:	b002      	add	sp, #8
 8001e2a:	bcf0      	pop	{r4, r5, r6, r7}
 8001e2c:	4770      	bx	lr
 8001e2e:	4770      	bx	lr
 8001e30:	40013800 	.word	0x40013800
 8001e34:	40013c00 	.word	0x40013c00
 8001e38:	40023800 	.word	0x40023800
 8001e3c:	40020000 	.word	0x40020000

08001e40 <HAL_GPIO_WritePin>:
 8001e40:	b10a      	cbz	r2, 8001e46 <HAL_GPIO_WritePin+0x6>
 8001e42:	6181      	str	r1, [r0, #24]
 8001e44:	4770      	bx	lr
 8001e46:	0409      	lsls	r1, r1, #16
 8001e48:	6181      	str	r1, [r0, #24]
 8001e4a:	4770      	bx	lr

08001e4c <HAL_NVIC_SetPriorityGrouping>:
 8001e4c:	4a07      	ldr	r2, [pc, #28]	; (8001e6c <HAL_NVIC_SetPriorityGrouping+0x20>)
 8001e4e:	68d3      	ldr	r3, [r2, #12]
 8001e50:	f423 63e0 	bic.w	r3, r3, #1792	; 0x700
 8001e54:	041b      	lsls	r3, r3, #16
 8001e56:	0c1b      	lsrs	r3, r3, #16
 8001e58:	0200      	lsls	r0, r0, #8
 8001e5a:	f400 60e0 	and.w	r0, r0, #1792	; 0x700
 8001e5e:	4303      	orrs	r3, r0
 8001e60:	f043 63bf 	orr.w	r3, r3, #100139008	; 0x5f80000
 8001e64:	f443 3300 	orr.w	r3, r3, #131072	; 0x20000
 8001e68:	60d3      	str	r3, [r2, #12]
 8001e6a:	4770      	bx	lr
 8001e6c:	e000ed00 	.word	0xe000ed00

08001e70 <HAL_NVIC_SetPriority>:
 8001e70:	b430      	push	{r4, r5}
 8001e72:	4b17      	ldr	r3, [pc, #92]	; (8001ed0 <HAL_NVIC_SetPriority+0x60>)
 8001e74:	68db      	ldr	r3, [r3, #12]
 8001e76:	f3c3 2302 	ubfx	r3, r3, #8, #3
 8001e7a:	f1c3 0407 	rsb	r4, r3, #7
 8001e7e:	2c04      	cmp	r4, #4
 8001e80:	bf28      	it	cs
 8001e82:	2404      	movcs	r4, #4
 8001e84:	1d1d      	adds	r5, r3, #4
 8001e86:	2d06      	cmp	r5, #6
 8001e88:	d918      	bls.n	8001ebc <HAL_NVIC_SetPriority+0x4c>
 8001e8a:	3b03      	subs	r3, #3
 8001e8c:	f04f 35ff 	mov.w	r5, #4294967295	; 0xffffffff
 8001e90:	fa05 f404 	lsl.w	r4, r5, r4
 8001e94:	ea21 0104 	bic.w	r1, r1, r4
 8001e98:	4099      	lsls	r1, r3
 8001e9a:	fa05 f303 	lsl.w	r3, r5, r3
 8001e9e:	ea22 0303 	bic.w	r3, r2, r3
 8001ea2:	4319      	orrs	r1, r3
 8001ea4:	2800      	cmp	r0, #0
 8001ea6:	db0b      	blt.n	8001ec0 <HAL_NVIC_SetPriority+0x50>
 8001ea8:	0109      	lsls	r1, r1, #4
 8001eaa:	b2c9      	uxtb	r1, r1
 8001eac:	f100 4060 	add.w	r0, r0, #3758096384	; 0xe0000000
 8001eb0:	f500 4061 	add.w	r0, r0, #57600	; 0xe100
 8001eb4:	f880 1300 	strb.w	r1, [r0, #768]	; 0x300
 8001eb8:	bc30      	pop	{r4, r5}
 8001eba:	4770      	bx	lr
 8001ebc:	2300      	movs	r3, #0
 8001ebe:	e7e5      	b.n	8001e8c <HAL_NVIC_SetPriority+0x1c>
 8001ec0:	f000 000f 	and.w	r0, r0, #15
 8001ec4:	0109      	lsls	r1, r1, #4
 8001ec6:	b2c9      	uxtb	r1, r1
 8001ec8:	4b02      	ldr	r3, [pc, #8]	; (8001ed4 <HAL_NVIC_SetPriority+0x64>)
 8001eca:	5419      	strb	r1, [r3, r0]
 8001ecc:	e7f4      	b.n	8001eb8 <HAL_NVIC_SetPriority+0x48>
 8001ece:	bf00      	nop
 8001ed0:	e000ed00 	.word	0xe000ed00
 8001ed4:	e000ed14 	.word	0xe000ed14

08001ed8 <HAL_SYSTICK_Config>:
 8001ed8:	3801      	subs	r0, #1
 8001eda:	f1b0 7f80 	cmp.w	r0, #16777216	; 0x1000000
 8001ede:	d20a      	bcs.n	8001ef6 <HAL_SYSTICK_Config+0x1e>
 8001ee0:	4b06      	ldr	r3, [pc, #24]	; (8001efc <HAL_SYSTICK_Config+0x24>)
 8001ee2:	6058      	str	r0, [r3, #4]
 8001ee4:	4a06      	ldr	r2, [pc, #24]	; (8001f00 <HAL_SYSTICK_Config+0x28>)
 8001ee6:	21f0      	movs	r1, #240	; 0xf0
 8001ee8:	f882 1023 	strb.w	r1, [r2, #35]	; 0x23
 8001eec:	2000      	movs	r0, #0
 8001eee:	6098      	str	r0, [r3, #8]
 8001ef0:	2207      	movs	r2, #7
 8001ef2:	601a      	str	r2, [r3, #0]
 8001ef4:	4770      	bx	lr
 8001ef6:	2001      	movs	r0, #1
 8001ef8:	4770      	bx	lr
 8001efa:	bf00      	nop
 8001efc:	e000e010 	.word	0xe000e010
 8001f00:	e000ed00 	.word	0xe000ed00

08001f04 <HAL_InitTick>:
 8001f04:	b510      	push	{r4, lr}
 8001f06:	4604      	mov	r4, r0
 8001f08:	4b0e      	ldr	r3, [pc, #56]	; (8001f44 <HAL_InitTick+0x40>)
 8001f0a:	7818      	ldrb	r0, [r3, #0]
 8001f0c:	f44f 737a 	mov.w	r3, #1000	; 0x3e8
 8001f10:	fbb3 f3f0 	udiv	r3, r3, r0
 8001f14:	4a0c      	ldr	r2, [pc, #48]	; (8001f48 <HAL_InitTick+0x44>)
 8001f16:	6810      	ldr	r0, [r2, #0]
 8001f18:	fbb0 f0f3 	udiv	r0, r0, r3
 8001f1c:	f7ff ffdc 	bl	8001ed8 <HAL_SYSTICK_Config>
 8001f20:	b968      	cbnz	r0, 8001f3e <HAL_InitTick+0x3a>
 8001f22:	2c0f      	cmp	r4, #15
 8001f24:	d901      	bls.n	8001f2a <HAL_InitTick+0x26>
 8001f26:	2001      	movs	r0, #1
 8001f28:	e00a      	b.n	8001f40 <HAL_InitTick+0x3c>
 8001f2a:	2200      	movs	r2, #0
 8001f2c:	4621      	mov	r1, r4
 8001f2e:	f04f 30ff 	mov.w	r0, #4294967295	; 0xffffffff
 8001f32:	f7ff ff9d 	bl	8001e70 <HAL_NVIC_SetPriority>
 8001f36:	4b05      	ldr	r3, [pc, #20]	; (8001f4c <HAL_InitTick+0x48>)
 8001f38:	601c      	str	r4, [r3, #0]
 8001f3a:	2000      	movs	r0, #0
 8001f3c:	e000      	b.n	8001f40 <HAL_InitTick+0x3c>
 8001f3e:	2001      	movs	r0, #1
 8001f40:	bd10      	pop	{r4, pc}
 8001f42:	bf00      	nop
 8001f44:	20018cf0 	.word	0x20018cf0
 8001f48:	20018cf8 	.word	0x20018cf8
 8001f4c:	20018cf4 	.word	0x20018cf4

08001f50 <HAL_Init>:
 8001f50:	b508      	push	{r3, lr}
 8001f52:	4b0b      	ldr	r3, [pc, #44]	; (8001f80 <HAL_Init+0x30>)
 8001f54:	681a      	ldr	r2, [r3, #0]
 8001f56:	f442 7200 	orr.w	r2, r2, #512	; 0x200
 8001f5a:	601a      	str	r2, [r3, #0]
 8001f5c:	681a      	ldr	r2, [r3, #0]
 8001f5e:	f442 6280 	orr.w	r2, r2, #1024	; 0x400
 8001f62:	601a      	str	r2, [r3, #0]
 8001f64:	681a      	ldr	r2, [r3, #0]
 8001f66:	f442 7280 	orr.w	r2, r2, #256	; 0x100
 8001f6a:	601a      	str	r2, [r3, #0]
 8001f6c:	2003      	movs	r0, #3
 8001f6e:	f7ff ff6d 	bl	8001e4c <HAL_NVIC_SetPriorityGrouping>
 8001f72:	2000      	movs	r0, #0
 8001f74:	f7ff ffc6 	bl	8001f04 <HAL_InitTick>
 8001f78:	f7ff fb50 	bl	800161c <HAL_MspInit>
 8001f7c:	2000      	movs	r0, #0
 8001f7e:	bd08      	pop	{r3, pc}
 8001f80:	40023c00 	.word	0x40023c00

08001f84 <HAL_IncTick>:
 8001f84:	4a03      	ldr	r2, [pc, #12]	; (8001f94 <HAL_IncTick+0x10>)
 8001f86:	6811      	ldr	r1, [r2, #0]
 8001f88:	4b03      	ldr	r3, [pc, #12]	; (8001f98 <HAL_IncTick+0x14>)
 8001f8a:	781b      	ldrb	r3, [r3, #0]
 8001f8c:	440b      	add	r3, r1
 8001f8e:	6013      	str	r3, [r2, #0]
 8001f90:	4770      	bx	lr
 8001f92:	bf00      	nop
 8001f94:	2001b940 	.word	0x2001b940
 8001f98:	20018cf0 	.word	0x20018cf0

08001f9c <HAL_GetTick>:
 8001f9c:	4b01      	ldr	r3, [pc, #4]	; (8001fa4 <HAL_GetTick+0x8>)
 8001f9e:	6818      	ldr	r0, [r3, #0]
 8001fa0:	4770      	bx	lr
 8001fa2:	bf00      	nop
 8001fa4:	2001b940 	.word	0x2001b940

08001fa8 <HAL_Delay>:
 8001fa8:	b538      	push	{r3, r4, r5, lr}
 8001faa:	4604      	mov	r4, r0
 8001fac:	f7ff fff6 	bl	8001f9c <HAL_GetTick>
 8001fb0:	4605      	mov	r5, r0
 8001fb2:	f1b4 3fff 	cmp.w	r4, #4294967295	; 0xffffffff
 8001fb6:	d002      	beq.n	8001fbe <HAL_Delay+0x16>
 8001fb8:	4b04      	ldr	r3, [pc, #16]	; (8001fcc <HAL_Delay+0x24>)
 8001fba:	781b      	ldrb	r3, [r3, #0]
 8001fbc:	441c      	add	r4, r3
 8001fbe:	f7ff ffed 	bl	8001f9c <HAL_GetTick>
 8001fc2:	1b40      	subs	r0, r0, r5
 8001fc4:	42a0      	cmp	r0, r4
 8001fc6:	d3fa      	bcc.n	8001fbe <HAL_Delay+0x16>
 8001fc8:	bd38      	pop	{r3, r4, r5, pc}
 8001fca:	bf00      	nop
 8001fcc:	20018cf0 	.word	0x20018cf0

08001fd0 <SystemInit>:
 8001fd0:	4a03      	ldr	r2, [pc, #12]	; (8001fe0 <SystemInit+0x10>)
 8001fd2:	f8d2 3088 	ldr.w	r3, [r2, #136]	; 0x88
 8001fd6:	f443 0370 	orr.w	r3, r3, #15728640	; 0xf00000
 8001fda:	f8c2 3088 	str.w	r3, [r2, #136]	; 0x88
 8001fde:	4770      	bx	lr
 8001fe0:	e000ed00 	.word	0xe000ed00

08001fe4 <MX_SPI1_Init>:
 8001fe4:	b508      	push	{r3, lr}
 8001fe6:	480d      	ldr	r0, [pc, #52]	; (800201c <MX_SPI1_Init+0x38>)
 8001fe8:	4b0d      	ldr	r3, [pc, #52]	; (8002020 <MX_SPI1_Init+0x3c>)
 8001fea:	6003      	str	r3, [r0, #0]
 8001fec:	f44f 7382 	mov.w	r3, #260	; 0x104
 8001ff0:	6043      	str	r3, [r0, #4]
 8001ff2:	2300      	movs	r3, #0
 8001ff4:	6083      	str	r3, [r0, #8]
 8001ff6:	60c3      	str	r3, [r0, #12]
 8001ff8:	6103      	str	r3, [r0, #16]
 8001ffa:	6143      	str	r3, [r0, #20]
 8001ffc:	f44f 7200 	mov.w	r2, #512	; 0x200
 8002000:	6182      	str	r2, [r0, #24]
 8002002:	61c3      	str	r3, [r0, #28]
 8002004:	6203      	str	r3, [r0, #32]
 8002006:	6243      	str	r3, [r0, #36]	; 0x24
 8002008:	6283      	str	r3, [r0, #40]	; 0x28
 800200a:	230a      	movs	r3, #10
 800200c:	62c3      	str	r3, [r0, #44]	; 0x2c
 800200e:	f000 f8f3 	bl	80021f8 <HAL_SPI_Init>
 8002012:	b900      	cbnz	r0, 8002016 <MX_SPI1_Init+0x32>
 8002014:	bd08      	pop	{r3, pc}
 8002016:	f7fe ffcb 	bl	8000fb0 <Error_Handler>
 800201a:	e7fb      	b.n	8002014 <MX_SPI1_Init+0x30>
 800201c:	2001b944 	.word	0x2001b944
 8002020:	40013000 	.word	0x40013000

08002024 <HAL_SPI_MspInit>:
 8002024:	b5f0      	push	{r4, r5, r6, r7, lr}
 8002026:	b089      	sub	sp, #36	; 0x24
 8002028:	2300      	movs	r3, #0
 800202a:	9303      	str	r3, [sp, #12]
 800202c:	9304      	str	r3, [sp, #16]
 800202e:	9305      	str	r3, [sp, #20]
 8002030:	9306      	str	r3, [sp, #24]
 8002032:	9307      	str	r3, [sp, #28]
 8002034:	6802      	ldr	r2, [r0, #0]
 8002036:	4b1f      	ldr	r3, [pc, #124]	; (80020b4 <HAL_SPI_MspInit+0x90>)
 8002038:	429a      	cmp	r2, r3
 800203a:	d001      	beq.n	8002040 <HAL_SPI_MspInit+0x1c>
 800203c:	b009      	add	sp, #36	; 0x24
 800203e:	bdf0      	pop	{r4, r5, r6, r7, pc}
 8002040:	2400      	movs	r4, #0
 8002042:	9400      	str	r4, [sp, #0]
 8002044:	f503 3384 	add.w	r3, r3, #67584	; 0x10800
 8002048:	6c5a      	ldr	r2, [r3, #68]	; 0x44
 800204a:	f442 5280 	orr.w	r2, r2, #4096	; 0x1000
 800204e:	645a      	str	r2, [r3, #68]	; 0x44
 8002050:	6c5a      	ldr	r2, [r3, #68]	; 0x44
 8002052:	f402 5280 	and.w	r2, r2, #4096	; 0x1000
 8002056:	9200      	str	r2, [sp, #0]
 8002058:	9a00      	ldr	r2, [sp, #0]
 800205a:	9401      	str	r4, [sp, #4]
 800205c:	6b1a      	ldr	r2, [r3, #48]	; 0x30
 800205e:	f042 0201 	orr.w	r2, r2, #1
 8002062:	631a      	str	r2, [r3, #48]	; 0x30
 8002064:	6b1a      	ldr	r2, [r3, #48]	; 0x30
 8002066:	f002 0201 	and.w	r2, r2, #1
 800206a:	9201      	str	r2, [sp, #4]
 800206c:	9a01      	ldr	r2, [sp, #4]
 800206e:	9402      	str	r4, [sp, #8]
 8002070:	6b1a      	ldr	r2, [r3, #48]	; 0x30
 8002072:	f042 0202 	orr.w	r2, r2, #2
 8002076:	631a      	str	r2, [r3, #48]	; 0x30
 8002078:	6b1b      	ldr	r3, [r3, #48]	; 0x30
 800207a:	f003 0302 	and.w	r3, r3, #2
 800207e:	9302      	str	r3, [sp, #8]
 8002080:	9b02      	ldr	r3, [sp, #8]
 8002082:	2360      	movs	r3, #96	; 0x60
 8002084:	9303      	str	r3, [sp, #12]
 8002086:	2702      	movs	r7, #2
 8002088:	9704      	str	r7, [sp, #16]
 800208a:	9405      	str	r4, [sp, #20]
 800208c:	2603      	movs	r6, #3
 800208e:	9606      	str	r6, [sp, #24]
 8002090:	2505      	movs	r5, #5
 8002092:	9507      	str	r5, [sp, #28]
 8002094:	a903      	add	r1, sp, #12
 8002096:	4808      	ldr	r0, [pc, #32]	; (80020b8 <HAL_SPI_MspInit+0x94>)
 8002098:	f7ff fde8 	bl	8001c6c <HAL_GPIO_Init>
 800209c:	2320      	movs	r3, #32
 800209e:	9303      	str	r3, [sp, #12]
 80020a0:	9704      	str	r7, [sp, #16]
 80020a2:	9405      	str	r4, [sp, #20]
 80020a4:	9606      	str	r6, [sp, #24]
 80020a6:	9507      	str	r5, [sp, #28]
 80020a8:	a903      	add	r1, sp, #12
 80020aa:	4804      	ldr	r0, [pc, #16]	; (80020bc <HAL_SPI_MspInit+0x98>)
 80020ac:	f7ff fdde 	bl	8001c6c <HAL_GPIO_Init>
 80020b0:	e7c4      	b.n	800203c <HAL_SPI_MspInit+0x18>
 80020b2:	bf00      	nop
 80020b4:	40013000 	.word	0x40013000
 80020b8:	40020000 	.word	0x40020000
 80020bc:	40020400 	.word	0x40020400

080020c0 <SPI_WaitFlagStateUntilTimeout>:
 80020c0:	e92d 47f0 	stmdb	sp!, {r4, r5, r6, r7, r8, r9, sl, lr}
 80020c4:	b082      	sub	sp, #8
 80020c6:	4605      	mov	r5, r0
 80020c8:	4688      	mov	r8, r1
 80020ca:	4617      	mov	r7, r2
 80020cc:	461e      	mov	r6, r3
 80020ce:	f7ff ff65 	bl	8001f9c <HAL_GetTick>
 80020d2:	9b0a      	ldr	r3, [sp, #40]	; 0x28
 80020d4:	1a1b      	subs	r3, r3, r0
 80020d6:	eb03 0906 	add.w	r9, r3, r6
 80020da:	f7ff ff5f 	bl	8001f9c <HAL_GetTick>
 80020de:	4682      	mov	sl, r0
 80020e0:	4b2a      	ldr	r3, [pc, #168]	; (800218c <SPI_WaitFlagStateUntilTimeout+0xcc>)
 80020e2:	681b      	ldr	r3, [r3, #0]
 80020e4:	f3c3 33cb 	ubfx	r3, r3, #15, #12
 80020e8:	fb09 f303 	mul.w	r3, r9, r3
 80020ec:	9301      	str	r3, [sp, #4]
 80020ee:	682b      	ldr	r3, [r5, #0]
 80020f0:	689c      	ldr	r4, [r3, #8]
 80020f2:	ea38 0304 	bics.w	r3, r8, r4
 80020f6:	bf0c      	ite	eq
 80020f8:	2401      	moveq	r4, #1
 80020fa:	2400      	movne	r4, #0
 80020fc:	42bc      	cmp	r4, r7
 80020fe:	d040      	beq.n	8002182 <SPI_WaitFlagStateUntilTimeout+0xc2>
 8002100:	f1b6 3fff 	cmp.w	r6, #4294967295	; 0xffffffff
 8002104:	d0f3      	beq.n	80020ee <SPI_WaitFlagStateUntilTimeout+0x2e>
 8002106:	f7ff ff49 	bl	8001f9c <HAL_GetTick>
 800210a:	eba0 000a 	sub.w	r0, r0, sl
 800210e:	4548      	cmp	r0, r9
 8002110:	d20a      	bcs.n	8002128 <SPI_WaitFlagStateUntilTimeout+0x68>
 8002112:	f1b9 0f00 	cmp.w	r9, #0
 8002116:	d007      	beq.n	8002128 <SPI_WaitFlagStateUntilTimeout+0x68>
 8002118:	9a01      	ldr	r2, [sp, #4]
 800211a:	b102      	cbz	r2, 800211e <SPI_WaitFlagStateUntilTimeout+0x5e>
 800211c:	464a      	mov	r2, r9
 800211e:	9b01      	ldr	r3, [sp, #4]
 8002120:	3b01      	subs	r3, #1
 8002122:	9301      	str	r3, [sp, #4]
 8002124:	4691      	mov	r9, r2
 8002126:	e7e2      	b.n	80020ee <SPI_WaitFlagStateUntilTimeout+0x2e>
 8002128:	682a      	ldr	r2, [r5, #0]
 800212a:	6853      	ldr	r3, [r2, #4]
 800212c:	f023 03e0 	bic.w	r3, r3, #224	; 0xe0
 8002130:	6053      	str	r3, [r2, #4]
 8002132:	686b      	ldr	r3, [r5, #4]
 8002134:	f5b3 7f82 	cmp.w	r3, #260	; 0x104
 8002138:	d00b      	beq.n	8002152 <SPI_WaitFlagStateUntilTimeout+0x92>
 800213a:	6aab      	ldr	r3, [r5, #40]	; 0x28
 800213c:	f5b3 5f00 	cmp.w	r3, #8192	; 0x2000
 8002140:	d014      	beq.n	800216c <SPI_WaitFlagStateUntilTimeout+0xac>
 8002142:	2301      	movs	r3, #1
 8002144:	f885 3051 	strb.w	r3, [r5, #81]	; 0x51
 8002148:	2300      	movs	r3, #0
 800214a:	f885 3050 	strb.w	r3, [r5, #80]	; 0x50
 800214e:	2003      	movs	r0, #3
 8002150:	e018      	b.n	8002184 <SPI_WaitFlagStateUntilTimeout+0xc4>
 8002152:	68ab      	ldr	r3, [r5, #8]
 8002154:	f5b3 4f00 	cmp.w	r3, #32768	; 0x8000
 8002158:	d002      	beq.n	8002160 <SPI_WaitFlagStateUntilTimeout+0xa0>
 800215a:	f5b3 6f80 	cmp.w	r3, #1024	; 0x400
 800215e:	d1ec      	bne.n	800213a <SPI_WaitFlagStateUntilTimeout+0x7a>
 8002160:	682a      	ldr	r2, [r5, #0]
 8002162:	6813      	ldr	r3, [r2, #0]
 8002164:	f023 0340 	bic.w	r3, r3, #64	; 0x40
 8002168:	6013      	str	r3, [r2, #0]
 800216a:	e7e6      	b.n	800213a <SPI_WaitFlagStateUntilTimeout+0x7a>
 800216c:	682a      	ldr	r2, [r5, #0]
 800216e:	6813      	ldr	r3, [r2, #0]
 8002170:	f423 5300 	bic.w	r3, r3, #8192	; 0x2000
 8002174:	6013      	str	r3, [r2, #0]
 8002176:	682a      	ldr	r2, [r5, #0]
 8002178:	6813      	ldr	r3, [r2, #0]
 800217a:	f443 5300 	orr.w	r3, r3, #8192	; 0x2000
 800217e:	6013      	str	r3, [r2, #0]
 8002180:	e7df      	b.n	8002142 <SPI_WaitFlagStateUntilTimeout+0x82>
 8002182:	2000      	movs	r0, #0
 8002184:	b002      	add	sp, #8
 8002186:	e8bd 87f0 	ldmia.w	sp!, {r4, r5, r6, r7, r8, r9, sl, pc}
 800218a:	bf00      	nop
 800218c:	20018cf8 	.word	0x20018cf8

08002190 <SPI_EndRxTxTransaction>:
 8002190:	b530      	push	{r4, r5, lr}
 8002192:	b085      	sub	sp, #20
 8002194:	4604      	mov	r4, r0
 8002196:	4b16      	ldr	r3, [pc, #88]	; (80021f0 <SPI_EndRxTxTransaction+0x60>)
 8002198:	6818      	ldr	r0, [r3, #0]
 800219a:	4b16      	ldr	r3, [pc, #88]	; (80021f4 <SPI_EndRxTxTransaction+0x64>)
 800219c:	fba3 3000 	umull	r3, r0, r3, r0
 80021a0:	0d40      	lsrs	r0, r0, #21
 80021a2:	f44f 757a 	mov.w	r5, #1000	; 0x3e8
 80021a6:	fb05 f000 	mul.w	r0, r5, r0
 80021aa:	9003      	str	r0, [sp, #12]
 80021ac:	6863      	ldr	r3, [r4, #4]
 80021ae:	f5b3 7f82 	cmp.w	r3, #260	; 0x104
 80021b2:	d00b      	beq.n	80021cc <SPI_EndRxTxTransaction+0x3c>
 80021b4:	9b03      	ldr	r3, [sp, #12]
 80021b6:	b1bb      	cbz	r3, 80021e8 <SPI_EndRxTxTransaction+0x58>
 80021b8:	9b03      	ldr	r3, [sp, #12]
 80021ba:	3b01      	subs	r3, #1
 80021bc:	9303      	str	r3, [sp, #12]
 80021be:	6823      	ldr	r3, [r4, #0]
 80021c0:	689b      	ldr	r3, [r3, #8]
 80021c2:	f013 0f80 	tst.w	r3, #128	; 0x80
 80021c6:	d1f5      	bne.n	80021b4 <SPI_EndRxTxTransaction+0x24>
 80021c8:	2000      	movs	r0, #0
 80021ca:	e00e      	b.n	80021ea <SPI_EndRxTxTransaction+0x5a>
 80021cc:	9200      	str	r2, [sp, #0]
 80021ce:	460b      	mov	r3, r1
 80021d0:	2200      	movs	r2, #0
 80021d2:	2180      	movs	r1, #128	; 0x80
 80021d4:	4620      	mov	r0, r4
 80021d6:	f7ff ff73 	bl	80020c0 <SPI_WaitFlagStateUntilTimeout>
 80021da:	b130      	cbz	r0, 80021ea <SPI_EndRxTxTransaction+0x5a>
 80021dc:	6d63      	ldr	r3, [r4, #84]	; 0x54
 80021de:	f043 0320 	orr.w	r3, r3, #32
 80021e2:	6563      	str	r3, [r4, #84]	; 0x54
 80021e4:	2003      	movs	r0, #3
 80021e6:	e000      	b.n	80021ea <SPI_EndRxTxTransaction+0x5a>
 80021e8:	2000      	movs	r0, #0
 80021ea:	b005      	add	sp, #20
 80021ec:	bd30      	pop	{r4, r5, pc}
 80021ee:	bf00      	nop
 80021f0:	20018cf8 	.word	0x20018cf8
 80021f4:	165e9f81 	.word	0x165e9f81

080021f8 <HAL_SPI_Init>:
 80021f8:	2800      	cmp	r0, #0
 80021fa:	d05a      	beq.n	80022b2 <HAL_SPI_Init+0xba>
 80021fc:	b510      	push	{r4, lr}
 80021fe:	4604      	mov	r4, r0
 8002200:	6a43      	ldr	r3, [r0, #36]	; 0x24
 8002202:	b933      	cbnz	r3, 8002212 <HAL_SPI_Init+0x1a>
 8002204:	6843      	ldr	r3, [r0, #4]
 8002206:	f5b3 7f82 	cmp.w	r3, #260	; 0x104
 800220a:	d005      	beq.n	8002218 <HAL_SPI_Init+0x20>
 800220c:	2300      	movs	r3, #0
 800220e:	61c3      	str	r3, [r0, #28]
 8002210:	e002      	b.n	8002218 <HAL_SPI_Init+0x20>
 8002212:	2300      	movs	r3, #0
 8002214:	6103      	str	r3, [r0, #16]
 8002216:	6143      	str	r3, [r0, #20]
 8002218:	2300      	movs	r3, #0
 800221a:	62a3      	str	r3, [r4, #40]	; 0x28
 800221c:	f894 3051 	ldrb.w	r3, [r4, #81]	; 0x51
 8002220:	2b00      	cmp	r3, #0
 8002222:	d040      	beq.n	80022a6 <HAL_SPI_Init+0xae>
 8002224:	2302      	movs	r3, #2
 8002226:	f884 3051 	strb.w	r3, [r4, #81]	; 0x51
 800222a:	6822      	ldr	r2, [r4, #0]
 800222c:	6813      	ldr	r3, [r2, #0]
 800222e:	f023 0340 	bic.w	r3, r3, #64	; 0x40
 8002232:	6013      	str	r3, [r2, #0]
 8002234:	6863      	ldr	r3, [r4, #4]
 8002236:	f403 7382 	and.w	r3, r3, #260	; 0x104
 800223a:	68a2      	ldr	r2, [r4, #8]
 800223c:	f402 4204 	and.w	r2, r2, #33792	; 0x8400
 8002240:	4313      	orrs	r3, r2
 8002242:	68e2      	ldr	r2, [r4, #12]
 8002244:	f402 6200 	and.w	r2, r2, #2048	; 0x800
 8002248:	4313      	orrs	r3, r2
 800224a:	6922      	ldr	r2, [r4, #16]
 800224c:	f002 0202 	and.w	r2, r2, #2
 8002250:	4313      	orrs	r3, r2
 8002252:	6962      	ldr	r2, [r4, #20]
 8002254:	f002 0201 	and.w	r2, r2, #1
 8002258:	4313      	orrs	r3, r2
 800225a:	69a2      	ldr	r2, [r4, #24]
 800225c:	f402 7200 	and.w	r2, r2, #512	; 0x200
 8002260:	4313      	orrs	r3, r2
 8002262:	69e2      	ldr	r2, [r4, #28]
 8002264:	f002 0238 	and.w	r2, r2, #56	; 0x38
 8002268:	4313      	orrs	r3, r2
 800226a:	6a22      	ldr	r2, [r4, #32]
 800226c:	f002 0280 	and.w	r2, r2, #128	; 0x80
 8002270:	4313      	orrs	r3, r2
 8002272:	6aa2      	ldr	r2, [r4, #40]	; 0x28
 8002274:	f402 5200 	and.w	r2, r2, #8192	; 0x2000
 8002278:	6821      	ldr	r1, [r4, #0]
 800227a:	4313      	orrs	r3, r2
 800227c:	600b      	str	r3, [r1, #0]
 800227e:	8b63      	ldrh	r3, [r4, #26]
 8002280:	f003 0304 	and.w	r3, r3, #4
 8002284:	6a62      	ldr	r2, [r4, #36]	; 0x24
 8002286:	f002 0210 	and.w	r2, r2, #16
 800228a:	6821      	ldr	r1, [r4, #0]
 800228c:	4313      	orrs	r3, r2
 800228e:	604b      	str	r3, [r1, #4]
 8002290:	6822      	ldr	r2, [r4, #0]
 8002292:	69d3      	ldr	r3, [r2, #28]
 8002294:	f423 6300 	bic.w	r3, r3, #2048	; 0x800
 8002298:	61d3      	str	r3, [r2, #28]
 800229a:	2000      	movs	r0, #0
 800229c:	6560      	str	r0, [r4, #84]	; 0x54
 800229e:	2301      	movs	r3, #1
 80022a0:	f884 3051 	strb.w	r3, [r4, #81]	; 0x51
 80022a4:	bd10      	pop	{r4, pc}
 80022a6:	f884 3050 	strb.w	r3, [r4, #80]	; 0x50
 80022aa:	4620      	mov	r0, r4
 80022ac:	f7ff feba 	bl	8002024 <HAL_SPI_MspInit>
 80022b0:	e7b8      	b.n	8002224 <HAL_SPI_Init+0x2c>
 80022b2:	2001      	movs	r0, #1
 80022b4:	4770      	bx	lr

080022b6 <HAL_SPI_Transmit>:
 80022b6:	e92d 43f0 	stmdb	sp!, {r4, r5, r6, r7, r8, r9, lr}
 80022ba:	b083      	sub	sp, #12
 80022bc:	461d      	mov	r5, r3
 80022be:	f890 3050 	ldrb.w	r3, [r0, #80]	; 0x50
 80022c2:	2b01      	cmp	r3, #1
 80022c4:	f000 80cc 	beq.w	8002460 <HAL_SPI_Transmit+0x1aa>
 80022c8:	4604      	mov	r4, r0
 80022ca:	4688      	mov	r8, r1
 80022cc:	4691      	mov	r9, r2
 80022ce:	2301      	movs	r3, #1
 80022d0:	f880 3050 	strb.w	r3, [r0, #80]	; 0x50
 80022d4:	f7ff fe62 	bl	8001f9c <HAL_GetTick>
 80022d8:	4607      	mov	r7, r0
 80022da:	f894 6051 	ldrb.w	r6, [r4, #81]	; 0x51
 80022de:	b2f6      	uxtb	r6, r6
 80022e0:	2e01      	cmp	r6, #1
 80022e2:	f040 80aa 	bne.w	800243a <HAL_SPI_Transmit+0x184>
 80022e6:	f1b8 0f00 	cmp.w	r8, #0
 80022ea:	f000 80a7 	beq.w	800243c <HAL_SPI_Transmit+0x186>
 80022ee:	f1b9 0f00 	cmp.w	r9, #0
 80022f2:	f000 80a3 	beq.w	800243c <HAL_SPI_Transmit+0x186>
 80022f6:	2303      	movs	r3, #3
 80022f8:	f884 3051 	strb.w	r3, [r4, #81]	; 0x51
 80022fc:	2300      	movs	r3, #0
 80022fe:	6563      	str	r3, [r4, #84]	; 0x54
 8002300:	f8c4 8030 	str.w	r8, [r4, #48]	; 0x30
 8002304:	f8a4 9034 	strh.w	r9, [r4, #52]	; 0x34
 8002308:	f8a4 9036 	strh.w	r9, [r4, #54]	; 0x36
 800230c:	63a3      	str	r3, [r4, #56]	; 0x38
 800230e:	87a3      	strh	r3, [r4, #60]	; 0x3c
 8002310:	87e3      	strh	r3, [r4, #62]	; 0x3e
 8002312:	6463      	str	r3, [r4, #68]	; 0x44
 8002314:	6423      	str	r3, [r4, #64]	; 0x40
 8002316:	68a3      	ldr	r3, [r4, #8]
 8002318:	f5b3 4f00 	cmp.w	r3, #32768	; 0x8000
 800231c:	d01e      	beq.n	800235c <HAL_SPI_Transmit+0xa6>
 800231e:	6823      	ldr	r3, [r4, #0]
 8002320:	681a      	ldr	r2, [r3, #0]
 8002322:	f012 0f40 	tst.w	r2, #64	; 0x40
 8002326:	d103      	bne.n	8002330 <HAL_SPI_Transmit+0x7a>
 8002328:	681a      	ldr	r2, [r3, #0]
 800232a:	f042 0240 	orr.w	r2, r2, #64	; 0x40
 800232e:	601a      	str	r2, [r3, #0]
 8002330:	68e3      	ldr	r3, [r4, #12]
 8002332:	f5b3 6f00 	cmp.w	r3, #2048	; 0x800
 8002336:	d01c      	beq.n	8002372 <HAL_SPI_Transmit+0xbc>
 8002338:	6863      	ldr	r3, [r4, #4]
 800233a:	b113      	cbz	r3, 8002342 <HAL_SPI_Transmit+0x8c>
 800233c:	f1b9 0f01 	cmp.w	r9, #1
 8002340:	d152      	bne.n	80023e8 <HAL_SPI_Transmit+0x132>
 8002342:	6b22      	ldr	r2, [r4, #48]	; 0x30
 8002344:	6823      	ldr	r3, [r4, #0]
 8002346:	7812      	ldrb	r2, [r2, #0]
 8002348:	731a      	strb	r2, [r3, #12]
 800234a:	6b23      	ldr	r3, [r4, #48]	; 0x30
 800234c:	3301      	adds	r3, #1
 800234e:	6323      	str	r3, [r4, #48]	; 0x30
 8002350:	8ee3      	ldrh	r3, [r4, #54]	; 0x36
 8002352:	b29b      	uxth	r3, r3
 8002354:	3b01      	subs	r3, #1
 8002356:	b29b      	uxth	r3, r3
 8002358:	86e3      	strh	r3, [r4, #54]	; 0x36
 800235a:	e045      	b.n	80023e8 <HAL_SPI_Transmit+0x132>
 800235c:	6822      	ldr	r2, [r4, #0]
 800235e:	6813      	ldr	r3, [r2, #0]
 8002360:	f023 0340 	bic.w	r3, r3, #64	; 0x40
 8002364:	6013      	str	r3, [r2, #0]
 8002366:	6822      	ldr	r2, [r4, #0]
 8002368:	6813      	ldr	r3, [r2, #0]
 800236a:	f443 4380 	orr.w	r3, r3, #16384	; 0x4000
 800236e:	6013      	str	r3, [r2, #0]
 8002370:	e7d5      	b.n	800231e <HAL_SPI_Transmit+0x68>
 8002372:	6863      	ldr	r3, [r4, #4]
 8002374:	b113      	cbz	r3, 800237c <HAL_SPI_Transmit+0xc6>
 8002376:	f1b9 0f01 	cmp.w	r9, #1
 800237a:	d116      	bne.n	80023aa <HAL_SPI_Transmit+0xf4>
 800237c:	6b22      	ldr	r2, [r4, #48]	; 0x30
 800237e:	6823      	ldr	r3, [r4, #0]
 8002380:	8812      	ldrh	r2, [r2, #0]
 8002382:	60da      	str	r2, [r3, #12]
 8002384:	6b23      	ldr	r3, [r4, #48]	; 0x30
 8002386:	3302      	adds	r3, #2
 8002388:	6323      	str	r3, [r4, #48]	; 0x30
 800238a:	8ee3      	ldrh	r3, [r4, #54]	; 0x36
 800238c:	b29b      	uxth	r3, r3
 800238e:	3b01      	subs	r3, #1
 8002390:	b29b      	uxth	r3, r3
 8002392:	86e3      	strh	r3, [r4, #54]	; 0x36
 8002394:	e009      	b.n	80023aa <HAL_SPI_Transmit+0xf4>
 8002396:	f7ff fe01 	bl	8001f9c <HAL_GetTick>
 800239a:	1bc0      	subs	r0, r0, r7
 800239c:	42a8      	cmp	r0, r5
 800239e:	d302      	bcc.n	80023a6 <HAL_SPI_Transmit+0xf0>
 80023a0:	f1b5 3fff 	cmp.w	r5, #4294967295	; 0xffffffff
 80023a4:	d154      	bne.n	8002450 <HAL_SPI_Transmit+0x19a>
 80023a6:	2d00      	cmp	r5, #0
 80023a8:	d054      	beq.n	8002454 <HAL_SPI_Transmit+0x19e>
 80023aa:	8ee3      	ldrh	r3, [r4, #54]	; 0x36
 80023ac:	b29b      	uxth	r3, r3
 80023ae:	2b00      	cmp	r3, #0
 80023b0:	d02e      	beq.n	8002410 <HAL_SPI_Transmit+0x15a>
 80023b2:	6823      	ldr	r3, [r4, #0]
 80023b4:	689a      	ldr	r2, [r3, #8]
 80023b6:	f012 0f02 	tst.w	r2, #2
 80023ba:	d0ec      	beq.n	8002396 <HAL_SPI_Transmit+0xe0>
 80023bc:	6b22      	ldr	r2, [r4, #48]	; 0x30
 80023be:	8812      	ldrh	r2, [r2, #0]
 80023c0:	60da      	str	r2, [r3, #12]
 80023c2:	6b23      	ldr	r3, [r4, #48]	; 0x30
 80023c4:	3302      	adds	r3, #2
 80023c6:	6323      	str	r3, [r4, #48]	; 0x30
 80023c8:	8ee3      	ldrh	r3, [r4, #54]	; 0x36
 80023ca:	b29b      	uxth	r3, r3
 80023cc:	3b01      	subs	r3, #1
 80023ce:	b29b      	uxth	r3, r3
 80023d0:	86e3      	strh	r3, [r4, #54]	; 0x36
 80023d2:	e7ea      	b.n	80023aa <HAL_SPI_Transmit+0xf4>
 80023d4:	f7ff fde2 	bl	8001f9c <HAL_GetTick>
 80023d8:	1bc0      	subs	r0, r0, r7
 80023da:	42a8      	cmp	r0, r5
 80023dc:	d302      	bcc.n	80023e4 <HAL_SPI_Transmit+0x12e>
 80023de:	f1b5 3fff 	cmp.w	r5, #4294967295	; 0xffffffff
 80023e2:	d139      	bne.n	8002458 <HAL_SPI_Transmit+0x1a2>
 80023e4:	2d00      	cmp	r5, #0
 80023e6:	d039      	beq.n	800245c <HAL_SPI_Transmit+0x1a6>
 80023e8:	8ee3      	ldrh	r3, [r4, #54]	; 0x36
 80023ea:	b29b      	uxth	r3, r3
 80023ec:	b183      	cbz	r3, 8002410 <HAL_SPI_Transmit+0x15a>
 80023ee:	6823      	ldr	r3, [r4, #0]
 80023f0:	689a      	ldr	r2, [r3, #8]
 80023f2:	f012 0f02 	tst.w	r2, #2
 80023f6:	d0ed      	beq.n	80023d4 <HAL_SPI_Transmit+0x11e>
 80023f8:	6b22      	ldr	r2, [r4, #48]	; 0x30
 80023fa:	7812      	ldrb	r2, [r2, #0]
 80023fc:	731a      	strb	r2, [r3, #12]
 80023fe:	6b23      	ldr	r3, [r4, #48]	; 0x30
 8002400:	3301      	adds	r3, #1
 8002402:	6323      	str	r3, [r4, #48]	; 0x30
 8002404:	8ee2      	ldrh	r2, [r4, #54]	; 0x36
 8002406:	b292      	uxth	r2, r2
 8002408:	3a01      	subs	r2, #1
 800240a:	b292      	uxth	r2, r2
 800240c:	86e2      	strh	r2, [r4, #54]	; 0x36
 800240e:	e7eb      	b.n	80023e8 <HAL_SPI_Transmit+0x132>
 8002410:	463a      	mov	r2, r7
 8002412:	4629      	mov	r1, r5
 8002414:	4620      	mov	r0, r4
 8002416:	f7ff febb 	bl	8002190 <SPI_EndRxTxTransaction>
 800241a:	b108      	cbz	r0, 8002420 <HAL_SPI_Transmit+0x16a>
 800241c:	2320      	movs	r3, #32
 800241e:	6563      	str	r3, [r4, #84]	; 0x54
 8002420:	68a3      	ldr	r3, [r4, #8]
 8002422:	b933      	cbnz	r3, 8002432 <HAL_SPI_Transmit+0x17c>
 8002424:	9301      	str	r3, [sp, #4]
 8002426:	6823      	ldr	r3, [r4, #0]
 8002428:	68da      	ldr	r2, [r3, #12]
 800242a:	9201      	str	r2, [sp, #4]
 800242c:	689b      	ldr	r3, [r3, #8]
 800242e:	9301      	str	r3, [sp, #4]
 8002430:	9b01      	ldr	r3, [sp, #4]
 8002432:	6d63      	ldr	r3, [r4, #84]	; 0x54
 8002434:	b913      	cbnz	r3, 800243c <HAL_SPI_Transmit+0x186>
 8002436:	2600      	movs	r6, #0
 8002438:	e000      	b.n	800243c <HAL_SPI_Transmit+0x186>
 800243a:	2602      	movs	r6, #2
 800243c:	2301      	movs	r3, #1
 800243e:	f884 3051 	strb.w	r3, [r4, #81]	; 0x51
 8002442:	2300      	movs	r3, #0
 8002444:	f884 3050 	strb.w	r3, [r4, #80]	; 0x50
 8002448:	4630      	mov	r0, r6
 800244a:	b003      	add	sp, #12
 800244c:	e8bd 83f0 	ldmia.w	sp!, {r4, r5, r6, r7, r8, r9, pc}
 8002450:	2603      	movs	r6, #3
 8002452:	e7f3      	b.n	800243c <HAL_SPI_Transmit+0x186>
 8002454:	2603      	movs	r6, #3
 8002456:	e7f1      	b.n	800243c <HAL_SPI_Transmit+0x186>
 8002458:	2603      	movs	r6, #3
 800245a:	e7ef      	b.n	800243c <HAL_SPI_Transmit+0x186>
 800245c:	2603      	movs	r6, #3
 800245e:	e7ed      	b.n	800243c <HAL_SPI_Transmit+0x186>
 8002460:	2602      	movs	r6, #2
 8002462:	e7f1      	b.n	8002448 <HAL_SPI_Transmit+0x192>

08002464 <Reset_Handler>:
 8002464:	f8df d034 	ldr.w	sp, [pc, #52]	; 800249c <LoopFillZerobss+0x12>
 8002468:	480d      	ldr	r0, [pc, #52]	; (80024a0 <LoopFillZerobss+0x16>)
 800246a:	490e      	ldr	r1, [pc, #56]	; (80024a4 <LoopFillZerobss+0x1a>)
 800246c:	4a0e      	ldr	r2, [pc, #56]	; (80024a8 <LoopFillZerobss+0x1e>)
 800246e:	2300      	movs	r3, #0
 8002470:	e002      	b.n	8002478 <LoopCopyDataInit>

08002472 <CopyDataInit>:
 8002472:	58d4      	ldr	r4, [r2, r3]
 8002474:	50c4      	str	r4, [r0, r3]
 8002476:	3304      	adds	r3, #4

08002478 <LoopCopyDataInit>:
 8002478:	18c4      	adds	r4, r0, r3
 800247a:	428c      	cmp	r4, r1
 800247c:	d3f9      	bcc.n	8002472 <CopyDataInit>
 800247e:	4a0b      	ldr	r2, [pc, #44]	; (80024ac <LoopFillZerobss+0x22>)
 8002480:	4c0b      	ldr	r4, [pc, #44]	; (80024b0 <LoopFillZerobss+0x26>)
 8002482:	2300      	movs	r3, #0
 8002484:	e001      	b.n	800248a <LoopFillZerobss>

08002486 <FillZerobss>:
 8002486:	6013      	str	r3, [r2, #0]
 8002488:	3204      	adds	r2, #4

0800248a <LoopFillZerobss>:
 800248a:	42a2      	cmp	r2, r4
 800248c:	d3fb      	bcc.n	8002486 <FillZerobss>
 800248e:	f7ff fd9f 	bl	8001fd0 <SystemInit>
 8002492:	f000 f811 	bl	80024b8 <__libc_init_array>
 8002496:	f7fe fddd 	bl	8001054 <main>
 800249a:	4770      	bx	lr
 800249c:	20020000 	.word	0x20020000
 80024a0:	20000000 	.word	0x20000000
 80024a4:	20018ed0 	.word	0x20018ed0
 80024a8:	0801cafc 	.word	0x0801cafc
 80024ac:	20018ed0 	.word	0x20018ed0
 80024b0:	2001b9ac 	.word	0x2001b9ac

080024b4 <ADC_IRQHandler>:
 80024b4:	e7fe      	b.n	80024b4 <ADC_IRQHandler>
	...

080024b8 <__libc_init_array>:
 80024b8:	b570      	push	{r4, r5, r6, lr}
 80024ba:	4d0d      	ldr	r5, [pc, #52]	; (80024f0 <__libc_init_array+0x38>)
 80024bc:	4c0d      	ldr	r4, [pc, #52]	; (80024f4 <__libc_init_array+0x3c>)
 80024be:	1b64      	subs	r4, r4, r5
 80024c0:	10a4      	asrs	r4, r4, #2
 80024c2:	2600      	movs	r6, #0
 80024c4:	42a6      	cmp	r6, r4
 80024c6:	d109      	bne.n	80024dc <__libc_init_array+0x24>
 80024c8:	4d0b      	ldr	r5, [pc, #44]	; (80024f8 <__libc_init_array+0x40>)
 80024ca:	4c0c      	ldr	r4, [pc, #48]	; (80024fc <__libc_init_array+0x44>)
 80024cc:	f005 fe3c 	bl	8008148 <_init>
 80024d0:	1b64      	subs	r4, r4, r5
 80024d2:	10a4      	asrs	r4, r4, #2
 80024d4:	2600      	movs	r6, #0
 80024d6:	42a6      	cmp	r6, r4
 80024d8:	d105      	bne.n	80024e6 <__libc_init_array+0x2e>
 80024da:	bd70      	pop	{r4, r5, r6, pc}
 80024dc:	f855 3b04 	ldr.w	r3, [r5], #4
 80024e0:	4798      	blx	r3
 80024e2:	3601      	adds	r6, #1
 80024e4:	e7ee      	b.n	80024c4 <__libc_init_array+0xc>
 80024e6:	f855 3b04 	ldr.w	r3, [r5], #4
 80024ea:	4798      	blx	r3
 80024ec:	3601      	adds	r6, #1
 80024ee:	e7f2      	b.n	80024d6 <__libc_init_array+0x1e>
 80024f0:	0801caf4 	.word	0x0801caf4
 80024f4:	0801caf4 	.word	0x0801caf4
 80024f8:	0801caf4 	.word	0x0801caf4
 80024fc:	0801caf8 	.word	0x0801caf8

08002500 <memcpy>:
 8002500:	440a      	add	r2, r1
 8002502:	4291      	cmp	r1, r2
 8002504:	f100 33ff 	add.w	r3, r0, #4294967295	; 0xffffffff
 8002508:	d100      	bne.n	800250c <memcpy+0xc>
 800250a:	4770      	bx	lr
 800250c:	b510      	push	{r4, lr}
 800250e:	f811 4b01 	ldrb.w	r4, [r1], #1
 8002512:	f803 4f01 	strb.w	r4, [r3, #1]!
 8002516:	4291      	cmp	r1, r2
 8002518:	d1f9      	bne.n	800250e <memcpy+0xe>
 800251a:	bd10      	pop	{r4, pc}

0800251c <memset>:
 800251c:	4402      	add	r2, r0
 800251e:	4603      	mov	r3, r0
 8002520:	4293      	cmp	r3, r2
 8002522:	d100      	bne.n	8002526 <memset+0xa>
 8002524:	4770      	bx	lr
 8002526:	f803 1b01 	strb.w	r1, [r3], #1
 800252a:	e7f9      	b.n	8002520 <memset+0x4>

0800252c <__cvt>:
 800252c:	e92d 47ff 	stmdb	sp!, {r0, r1, r2, r3, r4, r5, r6, r7, r8, r9, sl, lr}
 8002530:	ec55 4b10 	vmov	r4, r5, d0
 8002534:	2d00      	cmp	r5, #0
 8002536:	460e      	mov	r6, r1
 8002538:	4619      	mov	r1, r3
 800253a:	462b      	mov	r3, r5
 800253c:	bfbb      	ittet	lt
 800253e:	f105 4300 	addlt.w	r3, r5, #2147483648	; 0x80000000
 8002542:	461d      	movlt	r5, r3
 8002544:	2300      	movge	r3, #0
 8002546:	232d      	movlt	r3, #45	; 0x2d
 8002548:	700b      	strb	r3, [r1, #0]
 800254a:	9b0d      	ldr	r3, [sp, #52]	; 0x34
 800254c:	f8dd a030 	ldr.w	sl, [sp, #48]	; 0x30
 8002550:	4691      	mov	r9, r2
 8002552:	f023 0820 	bic.w	r8, r3, #32
 8002556:	bfbc      	itt	lt
 8002558:	4622      	movlt	r2, r4
 800255a:	4614      	movlt	r4, r2
 800255c:	f1b8 0f46 	cmp.w	r8, #70	; 0x46
 8002560:	d005      	beq.n	800256e <__cvt+0x42>
 8002562:	f1b8 0f45 	cmp.w	r8, #69	; 0x45
 8002566:	d100      	bne.n	800256a <__cvt+0x3e>
 8002568:	3601      	adds	r6, #1
 800256a:	2102      	movs	r1, #2
 800256c:	e000      	b.n	8002570 <__cvt+0x44>
 800256e:	2103      	movs	r1, #3
 8002570:	ab03      	add	r3, sp, #12
 8002572:	9301      	str	r3, [sp, #4]
 8002574:	ab02      	add	r3, sp, #8
 8002576:	9300      	str	r3, [sp, #0]
 8002578:	ec45 4b10 	vmov	d0, r4, r5
 800257c:	4653      	mov	r3, sl
 800257e:	4632      	mov	r2, r6
 8002580:	f000 fcea 	bl	8002f58 <_dtoa_r>
 8002584:	f1b8 0f47 	cmp.w	r8, #71	; 0x47
 8002588:	4607      	mov	r7, r0
 800258a:	d102      	bne.n	8002592 <__cvt+0x66>
 800258c:	f019 0f01 	tst.w	r9, #1
 8002590:	d022      	beq.n	80025d8 <__cvt+0xac>
 8002592:	f1b8 0f46 	cmp.w	r8, #70	; 0x46
 8002596:	eb07 0906 	add.w	r9, r7, r6
 800259a:	d110      	bne.n	80025be <__cvt+0x92>
 800259c:	783b      	ldrb	r3, [r7, #0]
 800259e:	2b30      	cmp	r3, #48	; 0x30
 80025a0:	d10a      	bne.n	80025b8 <__cvt+0x8c>
 80025a2:	2200      	movs	r2, #0
 80025a4:	2300      	movs	r3, #0
 80025a6:	4620      	mov	r0, r4
 80025a8:	4629      	mov	r1, r5
 80025aa:	f7fe fa8d 	bl	8000ac8 <__aeabi_dcmpeq>
 80025ae:	b918      	cbnz	r0, 80025b8 <__cvt+0x8c>
 80025b0:	f1c6 0601 	rsb	r6, r6, #1
 80025b4:	f8ca 6000 	str.w	r6, [sl]
 80025b8:	f8da 3000 	ldr.w	r3, [sl]
 80025bc:	4499      	add	r9, r3
 80025be:	2200      	movs	r2, #0
 80025c0:	2300      	movs	r3, #0
 80025c2:	4620      	mov	r0, r4
 80025c4:	4629      	mov	r1, r5
 80025c6:	f7fe fa7f 	bl	8000ac8 <__aeabi_dcmpeq>
 80025ca:	b108      	cbz	r0, 80025d0 <__cvt+0xa4>
 80025cc:	f8cd 900c 	str.w	r9, [sp, #12]
 80025d0:	2230      	movs	r2, #48	; 0x30
 80025d2:	9b03      	ldr	r3, [sp, #12]
 80025d4:	454b      	cmp	r3, r9
 80025d6:	d307      	bcc.n	80025e8 <__cvt+0xbc>
 80025d8:	9b03      	ldr	r3, [sp, #12]
 80025da:	9a0e      	ldr	r2, [sp, #56]	; 0x38
 80025dc:	1bdb      	subs	r3, r3, r7
 80025de:	4638      	mov	r0, r7
 80025e0:	6013      	str	r3, [r2, #0]
 80025e2:	b004      	add	sp, #16
 80025e4:	e8bd 87f0 	ldmia.w	sp!, {r4, r5, r6, r7, r8, r9, sl, pc}
 80025e8:	1c59      	adds	r1, r3, #1
 80025ea:	9103      	str	r1, [sp, #12]
 80025ec:	701a      	strb	r2, [r3, #0]
 80025ee:	e7f0      	b.n	80025d2 <__cvt+0xa6>

080025f0 <__exponent>:
 80025f0:	b5f7      	push	{r0, r1, r2, r4, r5, r6, r7, lr}
 80025f2:	4603      	mov	r3, r0
 80025f4:	2900      	cmp	r1, #0
 80025f6:	bfb8      	it	lt
 80025f8:	4249      	neglt	r1, r1
 80025fa:	f803 2b02 	strb.w	r2, [r3], #2
 80025fe:	bfb4      	ite	lt
 8002600:	222d      	movlt	r2, #45	; 0x2d
 8002602:	222b      	movge	r2, #43	; 0x2b
 8002604:	2909      	cmp	r1, #9
 8002606:	7042      	strb	r2, [r0, #1]
 8002608:	dd2a      	ble.n	8002660 <__exponent+0x70>
 800260a:	f10d 0407 	add.w	r4, sp, #7
 800260e:	46a4      	mov	ip, r4
 8002610:	270a      	movs	r7, #10
 8002612:	46a6      	mov	lr, r4
 8002614:	460a      	mov	r2, r1
 8002616:	fb91 f6f7 	sdiv	r6, r1, r7
 800261a:	fb07 1516 	mls	r5, r7, r6, r1
 800261e:	3530      	adds	r5, #48	; 0x30
 8002620:	2a63      	cmp	r2, #99	; 0x63
 8002622:	f104 34ff 	add.w	r4, r4, #4294967295	; 0xffffffff
 8002626:	f80e 5c01 	strb.w	r5, [lr, #-1]
 800262a:	4631      	mov	r1, r6
 800262c:	dcf1      	bgt.n	8002612 <__exponent+0x22>
 800262e:	3130      	adds	r1, #48	; 0x30
 8002630:	f1ae 0502 	sub.w	r5, lr, #2
 8002634:	f804 1c01 	strb.w	r1, [r4, #-1]
 8002638:	1c44      	adds	r4, r0, #1
 800263a:	4629      	mov	r1, r5
 800263c:	4561      	cmp	r1, ip
 800263e:	d30a      	bcc.n	8002656 <__exponent+0x66>
 8002640:	f10d 0209 	add.w	r2, sp, #9
 8002644:	eba2 020e 	sub.w	r2, r2, lr
 8002648:	4565      	cmp	r5, ip
 800264a:	bf88      	it	hi
 800264c:	2200      	movhi	r2, #0
 800264e:	4413      	add	r3, r2
 8002650:	1a18      	subs	r0, r3, r0
 8002652:	b003      	add	sp, #12
 8002654:	bdf0      	pop	{r4, r5, r6, r7, pc}
 8002656:	f811 2b01 	ldrb.w	r2, [r1], #1
 800265a:	f804 2f01 	strb.w	r2, [r4, #1]!
 800265e:	e7ed      	b.n	800263c <__exponent+0x4c>
 8002660:	2330      	movs	r3, #48	; 0x30
 8002662:	3130      	adds	r1, #48	; 0x30
 8002664:	7083      	strb	r3, [r0, #2]
 8002666:	70c1      	strb	r1, [r0, #3]
 8002668:	1d03      	adds	r3, r0, #4
 800266a:	e7f1      	b.n	8002650 <__exponent+0x60>

0800266c <_printf_float>:
 800266c:	e92d 4ff0 	stmdb	sp!, {r4, r5, r6, r7, r8, r9, sl, fp, lr}
 8002670:	ed2d 8b02 	vpush	{d8}
 8002674:	b08d      	sub	sp, #52	; 0x34
 8002676:	460c      	mov	r4, r1
 8002678:	f8dd 8060 	ldr.w	r8, [sp, #96]	; 0x60
 800267c:	4616      	mov	r6, r2
 800267e:	461f      	mov	r7, r3
 8002680:	4605      	mov	r5, r0
 8002682:	f001 fa55 	bl	8003b30 <_localeconv_r>
 8002686:	f8d0 a000 	ldr.w	sl, [r0]
 800268a:	4650      	mov	r0, sl
 800268c:	f7fd fda0 	bl	80001d0 <strlen>
 8002690:	2300      	movs	r3, #0
 8002692:	930a      	str	r3, [sp, #40]	; 0x28
 8002694:	6823      	ldr	r3, [r4, #0]
 8002696:	9305      	str	r3, [sp, #20]
 8002698:	f8d8 3000 	ldr.w	r3, [r8]
 800269c:	f894 b018 	ldrb.w	fp, [r4, #24]
 80026a0:	3307      	adds	r3, #7
 80026a2:	f023 0307 	bic.w	r3, r3, #7
 80026a6:	f103 0208 	add.w	r2, r3, #8
 80026aa:	f8c8 2000 	str.w	r2, [r8]
 80026ae:	e9d3 2300 	ldrd	r2, r3, [r3]
 80026b2:	e9c4 2312 	strd	r2, r3, [r4, #72]	; 0x48
 80026b6:	e9d4 8912 	ldrd	r8, r9, [r4, #72]	; 0x48
 80026ba:	f029 4300 	bic.w	r3, r9, #2147483648	; 0x80000000
 80026be:	9307      	str	r3, [sp, #28]
 80026c0:	f8cd 8018 	str.w	r8, [sp, #24]
 80026c4:	ee08 0a10 	vmov	s16, r0
 80026c8:	4b9f      	ldr	r3, [pc, #636]	; (8002948 <_printf_float+0x2dc>)
 80026ca:	e9dd 0106 	ldrd	r0, r1, [sp, #24]
 80026ce:	f04f 32ff 	mov.w	r2, #4294967295	; 0xffffffff
 80026d2:	f7fe fa2b 	bl	8000b2c <__aeabi_dcmpun>
 80026d6:	bb88      	cbnz	r0, 800273c <_printf_float+0xd0>
 80026d8:	e9dd 0106 	ldrd	r0, r1, [sp, #24]
 80026dc:	4b9a      	ldr	r3, [pc, #616]	; (8002948 <_printf_float+0x2dc>)
 80026de:	f04f 32ff 	mov.w	r2, #4294967295	; 0xffffffff
 80026e2:	f7fe fa05 	bl	8000af0 <__aeabi_dcmple>
 80026e6:	bb48      	cbnz	r0, 800273c <_printf_float+0xd0>
 80026e8:	2200      	movs	r2, #0
 80026ea:	2300      	movs	r3, #0
 80026ec:	4640      	mov	r0, r8
 80026ee:	4649      	mov	r1, r9
 80026f0:	f7fe f9f4 	bl	8000adc <__aeabi_dcmplt>
 80026f4:	b110      	cbz	r0, 80026fc <_printf_float+0x90>
 80026f6:	232d      	movs	r3, #45	; 0x2d
 80026f8:	f884 3043 	strb.w	r3, [r4, #67]	; 0x43
 80026fc:	4b93      	ldr	r3, [pc, #588]	; (800294c <_printf_float+0x2e0>)
 80026fe:	4894      	ldr	r0, [pc, #592]	; (8002950 <_printf_float+0x2e4>)
 8002700:	f1bb 0f47 	cmp.w	fp, #71	; 0x47
 8002704:	bf94      	ite	ls
 8002706:	4698      	movls	r8, r3
 8002708:	4680      	movhi	r8, r0
 800270a:	2303      	movs	r3, #3
 800270c:	6123      	str	r3, [r4, #16]
 800270e:	9b05      	ldr	r3, [sp, #20]
 8002710:	f023 0204 	bic.w	r2, r3, #4
 8002714:	6022      	str	r2, [r4, #0]
 8002716:	f04f 0900 	mov.w	r9, #0
 800271a:	9700      	str	r7, [sp, #0]
 800271c:	4633      	mov	r3, r6
 800271e:	aa0b      	add	r2, sp, #44	; 0x2c
 8002720:	4621      	mov	r1, r4
 8002722:	4628      	mov	r0, r5
 8002724:	f000 f9d8 	bl	8002ad8 <_printf_common>
 8002728:	3001      	adds	r0, #1
 800272a:	f040 8090 	bne.w	800284e <_printf_float+0x1e2>
 800272e:	f04f 30ff 	mov.w	r0, #4294967295	; 0xffffffff
 8002732:	b00d      	add	sp, #52	; 0x34
 8002734:	ecbd 8b02 	vpop	{d8}
 8002738:	e8bd 8ff0 	ldmia.w	sp!, {r4, r5, r6, r7, r8, r9, sl, fp, pc}
 800273c:	4642      	mov	r2, r8
 800273e:	464b      	mov	r3, r9
 8002740:	4640      	mov	r0, r8
 8002742:	4649      	mov	r1, r9
 8002744:	f7fe f9f2 	bl	8000b2c <__aeabi_dcmpun>
 8002748:	b140      	cbz	r0, 800275c <_printf_float+0xf0>
 800274a:	464b      	mov	r3, r9
 800274c:	2b00      	cmp	r3, #0
 800274e:	bfbc      	itt	lt
 8002750:	232d      	movlt	r3, #45	; 0x2d
 8002752:	f884 3043 	strblt.w	r3, [r4, #67]	; 0x43
 8002756:	487f      	ldr	r0, [pc, #508]	; (8002954 <_printf_float+0x2e8>)
 8002758:	4b7f      	ldr	r3, [pc, #508]	; (8002958 <_printf_float+0x2ec>)
 800275a:	e7d1      	b.n	8002700 <_printf_float+0x94>
 800275c:	6863      	ldr	r3, [r4, #4]
 800275e:	f00b 02df 	and.w	r2, fp, #223	; 0xdf
 8002762:	9206      	str	r2, [sp, #24]
 8002764:	1c5a      	adds	r2, r3, #1
 8002766:	d13f      	bne.n	80027e8 <_printf_float+0x17c>
 8002768:	2306      	movs	r3, #6
 800276a:	6063      	str	r3, [r4, #4]
 800276c:	9b05      	ldr	r3, [sp, #20]
 800276e:	6861      	ldr	r1, [r4, #4]
 8002770:	f443 6280 	orr.w	r2, r3, #1024	; 0x400
 8002774:	2300      	movs	r3, #0
 8002776:	9303      	str	r3, [sp, #12]
 8002778:	ab0a      	add	r3, sp, #40	; 0x28
 800277a:	e9cd b301 	strd	fp, r3, [sp, #4]
 800277e:	ab09      	add	r3, sp, #36	; 0x24
 8002780:	ec49 8b10 	vmov	d0, r8, r9
 8002784:	9300      	str	r3, [sp, #0]
 8002786:	6022      	str	r2, [r4, #0]
 8002788:	f10d 0323 	add.w	r3, sp, #35	; 0x23
 800278c:	4628      	mov	r0, r5
 800278e:	f7ff fecd 	bl	800252c <__cvt>
 8002792:	9b06      	ldr	r3, [sp, #24]
 8002794:	9909      	ldr	r1, [sp, #36]	; 0x24
 8002796:	2b47      	cmp	r3, #71	; 0x47
 8002798:	4680      	mov	r8, r0
 800279a:	d108      	bne.n	80027ae <_printf_float+0x142>
 800279c:	1cc8      	adds	r0, r1, #3
 800279e:	db02      	blt.n	80027a6 <_printf_float+0x13a>
 80027a0:	6863      	ldr	r3, [r4, #4]
 80027a2:	4299      	cmp	r1, r3
 80027a4:	dd41      	ble.n	800282a <_printf_float+0x1be>
 80027a6:	f1ab 0b02 	sub.w	fp, fp, #2
 80027aa:	fa5f fb8b 	uxtb.w	fp, fp
 80027ae:	f1bb 0f65 	cmp.w	fp, #101	; 0x65
 80027b2:	d820      	bhi.n	80027f6 <_printf_float+0x18a>
 80027b4:	3901      	subs	r1, #1
 80027b6:	465a      	mov	r2, fp
 80027b8:	f104 0050 	add.w	r0, r4, #80	; 0x50
 80027bc:	9109      	str	r1, [sp, #36]	; 0x24
 80027be:	f7ff ff17 	bl	80025f0 <__exponent>
 80027c2:	9a0a      	ldr	r2, [sp, #40]	; 0x28
 80027c4:	1813      	adds	r3, r2, r0
 80027c6:	2a01      	cmp	r2, #1
 80027c8:	4681      	mov	r9, r0
 80027ca:	6123      	str	r3, [r4, #16]
 80027cc:	dc02      	bgt.n	80027d4 <_printf_float+0x168>
 80027ce:	6822      	ldr	r2, [r4, #0]
 80027d0:	07d2      	lsls	r2, r2, #31
 80027d2:	d501      	bpl.n	80027d8 <_printf_float+0x16c>
 80027d4:	3301      	adds	r3, #1
 80027d6:	6123      	str	r3, [r4, #16]
 80027d8:	f89d 3023 	ldrb.w	r3, [sp, #35]	; 0x23
 80027dc:	2b00      	cmp	r3, #0
 80027de:	d09c      	beq.n	800271a <_printf_float+0xae>
 80027e0:	232d      	movs	r3, #45	; 0x2d
 80027e2:	f884 3043 	strb.w	r3, [r4, #67]	; 0x43
 80027e6:	e798      	b.n	800271a <_printf_float+0xae>
 80027e8:	9a06      	ldr	r2, [sp, #24]
 80027ea:	2a47      	cmp	r2, #71	; 0x47
 80027ec:	d1be      	bne.n	800276c <_printf_float+0x100>
 80027ee:	2b00      	cmp	r3, #0
 80027f0:	d1bc      	bne.n	800276c <_printf_float+0x100>
 80027f2:	2301      	movs	r3, #1
 80027f4:	e7b9      	b.n	800276a <_printf_float+0xfe>
 80027f6:	f1bb 0f66 	cmp.w	fp, #102	; 0x66
 80027fa:	d118      	bne.n	800282e <_printf_float+0x1c2>
 80027fc:	2900      	cmp	r1, #0
 80027fe:	6863      	ldr	r3, [r4, #4]
 8002800:	dd0b      	ble.n	800281a <_printf_float+0x1ae>
 8002802:	6121      	str	r1, [r4, #16]
 8002804:	b913      	cbnz	r3, 800280c <_printf_float+0x1a0>
 8002806:	6822      	ldr	r2, [r4, #0]
 8002808:	07d0      	lsls	r0, r2, #31
 800280a:	d502      	bpl.n	8002812 <_printf_float+0x1a6>
 800280c:	3301      	adds	r3, #1
 800280e:	440b      	add	r3, r1
 8002810:	6123      	str	r3, [r4, #16]
 8002812:	65a1      	str	r1, [r4, #88]	; 0x58
 8002814:	f04f 0900 	mov.w	r9, #0
 8002818:	e7de      	b.n	80027d8 <_printf_float+0x16c>
 800281a:	b913      	cbnz	r3, 8002822 <_printf_float+0x1b6>
 800281c:	6822      	ldr	r2, [r4, #0]
 800281e:	07d2      	lsls	r2, r2, #31
 8002820:	d501      	bpl.n	8002826 <_printf_float+0x1ba>
 8002822:	3302      	adds	r3, #2
 8002824:	e7f4      	b.n	8002810 <_printf_float+0x1a4>
 8002826:	2301      	movs	r3, #1
 8002828:	e7f2      	b.n	8002810 <_printf_float+0x1a4>
 800282a:	f04f 0b67 	mov.w	fp, #103	; 0x67
 800282e:	9b0a      	ldr	r3, [sp, #40]	; 0x28
 8002830:	4299      	cmp	r1, r3
 8002832:	db05      	blt.n	8002840 <_printf_float+0x1d4>
 8002834:	6823      	ldr	r3, [r4, #0]
 8002836:	6121      	str	r1, [r4, #16]
 8002838:	07d8      	lsls	r0, r3, #31
 800283a:	d5ea      	bpl.n	8002812 <_printf_float+0x1a6>
 800283c:	1c4b      	adds	r3, r1, #1
 800283e:	e7e7      	b.n	8002810 <_printf_float+0x1a4>
 8002840:	2900      	cmp	r1, #0
 8002842:	bfd4      	ite	le
 8002844:	f1c1 0202 	rsble	r2, r1, #2
 8002848:	2201      	movgt	r2, #1
 800284a:	4413      	add	r3, r2
 800284c:	e7e0      	b.n	8002810 <_printf_float+0x1a4>
 800284e:	6823      	ldr	r3, [r4, #0]
 8002850:	055a      	lsls	r2, r3, #21
 8002852:	d407      	bmi.n	8002864 <_printf_float+0x1f8>
 8002854:	6923      	ldr	r3, [r4, #16]
 8002856:	4642      	mov	r2, r8
 8002858:	4631      	mov	r1, r6
 800285a:	4628      	mov	r0, r5
 800285c:	47b8      	blx	r7
 800285e:	3001      	adds	r0, #1
 8002860:	d12c      	bne.n	80028bc <_printf_float+0x250>
 8002862:	e764      	b.n	800272e <_printf_float+0xc2>
 8002864:	f1bb 0f65 	cmp.w	fp, #101	; 0x65
 8002868:	f240 80e0 	bls.w	8002a2c <_printf_float+0x3c0>
 800286c:	e9d4 0112 	ldrd	r0, r1, [r4, #72]	; 0x48
 8002870:	2200      	movs	r2, #0
 8002872:	2300      	movs	r3, #0
 8002874:	f7fe f928 	bl	8000ac8 <__aeabi_dcmpeq>
 8002878:	2800      	cmp	r0, #0
 800287a:	d034      	beq.n	80028e6 <_printf_float+0x27a>
 800287c:	4a37      	ldr	r2, [pc, #220]	; (800295c <_printf_float+0x2f0>)
 800287e:	2301      	movs	r3, #1
 8002880:	4631      	mov	r1, r6
 8002882:	4628      	mov	r0, r5
 8002884:	47b8      	blx	r7
 8002886:	3001      	adds	r0, #1
 8002888:	f43f af51 	beq.w	800272e <_printf_float+0xc2>
 800288c:	e9dd 2309 	ldrd	r2, r3, [sp, #36]	; 0x24
 8002890:	429a      	cmp	r2, r3
 8002892:	db02      	blt.n	800289a <_printf_float+0x22e>
 8002894:	6823      	ldr	r3, [r4, #0]
 8002896:	07d8      	lsls	r0, r3, #31
 8002898:	d510      	bpl.n	80028bc <_printf_float+0x250>
 800289a:	ee18 3a10 	vmov	r3, s16
 800289e:	4652      	mov	r2, sl
 80028a0:	4631      	mov	r1, r6
 80028a2:	4628      	mov	r0, r5
 80028a4:	47b8      	blx	r7
 80028a6:	3001      	adds	r0, #1
 80028a8:	f43f af41 	beq.w	800272e <_printf_float+0xc2>
 80028ac:	f04f 0800 	mov.w	r8, #0
 80028b0:	f104 091a 	add.w	r9, r4, #26
 80028b4:	9b0a      	ldr	r3, [sp, #40]	; 0x28
 80028b6:	3b01      	subs	r3, #1
 80028b8:	4543      	cmp	r3, r8
 80028ba:	dc09      	bgt.n	80028d0 <_printf_float+0x264>
 80028bc:	6823      	ldr	r3, [r4, #0]
 80028be:	079b      	lsls	r3, r3, #30
 80028c0:	f100 8105 	bmi.w	8002ace <_printf_float+0x462>
 80028c4:	68e0      	ldr	r0, [r4, #12]
 80028c6:	9b0b      	ldr	r3, [sp, #44]	; 0x2c
 80028c8:	4298      	cmp	r0, r3
 80028ca:	bfb8      	it	lt
 80028cc:	4618      	movlt	r0, r3
 80028ce:	e730      	b.n	8002732 <_printf_float+0xc6>
 80028d0:	2301      	movs	r3, #1
 80028d2:	464a      	mov	r2, r9
 80028d4:	4631      	mov	r1, r6
 80028d6:	4628      	mov	r0, r5
 80028d8:	47b8      	blx	r7
 80028da:	3001      	adds	r0, #1
 80028dc:	f43f af27 	beq.w	800272e <_printf_float+0xc2>
 80028e0:	f108 0801 	add.w	r8, r8, #1
 80028e4:	e7e6      	b.n	80028b4 <_printf_float+0x248>
 80028e6:	9b09      	ldr	r3, [sp, #36]	; 0x24
 80028e8:	2b00      	cmp	r3, #0
 80028ea:	dc39      	bgt.n	8002960 <_printf_float+0x2f4>
 80028ec:	4a1b      	ldr	r2, [pc, #108]	; (800295c <_printf_float+0x2f0>)
 80028ee:	2301      	movs	r3, #1
 80028f0:	4631      	mov	r1, r6
 80028f2:	4628      	mov	r0, r5
 80028f4:	47b8      	blx	r7
 80028f6:	3001      	adds	r0, #1
 80028f8:	f43f af19 	beq.w	800272e <_printf_float+0xc2>
 80028fc:	e9dd 2309 	ldrd	r2, r3, [sp, #36]	; 0x24
 8002900:	4313      	orrs	r3, r2
 8002902:	d102      	bne.n	800290a <_printf_float+0x29e>
 8002904:	6823      	ldr	r3, [r4, #0]
 8002906:	07d9      	lsls	r1, r3, #31
 8002908:	d5d8      	bpl.n	80028bc <_printf_float+0x250>
 800290a:	ee18 3a10 	vmov	r3, s16
 800290e:	4652      	mov	r2, sl
 8002910:	4631      	mov	r1, r6
 8002912:	4628      	mov	r0, r5
 8002914:	47b8      	blx	r7
 8002916:	3001      	adds	r0, #1
 8002918:	f43f af09 	beq.w	800272e <_printf_float+0xc2>
 800291c:	f04f 0900 	mov.w	r9, #0
 8002920:	f104 0a1a 	add.w	sl, r4, #26
 8002924:	9b09      	ldr	r3, [sp, #36]	; 0x24
 8002926:	425b      	negs	r3, r3
 8002928:	454b      	cmp	r3, r9
 800292a:	dc01      	bgt.n	8002930 <_printf_float+0x2c4>
 800292c:	9b0a      	ldr	r3, [sp, #40]	; 0x28
 800292e:	e792      	b.n	8002856 <_printf_float+0x1ea>
 8002930:	2301      	movs	r3, #1
 8002932:	4652      	mov	r2, sl
 8002934:	4631      	mov	r1, r6
 8002936:	4628      	mov	r0, r5
 8002938:	47b8      	blx	r7
 800293a:	3001      	adds	r0, #1
 800293c:	f43f aef7 	beq.w	800272e <_printf_float+0xc2>
 8002940:	f109 0901 	add.w	r9, r9, #1
 8002944:	e7ee      	b.n	8002924 <_printf_float+0x2b8>
 8002946:	bf00      	nop
 8002948:	7fefffff 	.word	0x7fefffff
 800294c:	0801c6bc 	.word	0x0801c6bc
 8002950:	0801c6c0 	.word	0x0801c6c0
 8002954:	0801c6c8 	.word	0x0801c6c8
 8002958:	0801c6c4 	.word	0x0801c6c4
 800295c:	0801c6cc 	.word	0x0801c6cc
 8002960:	9a0a      	ldr	r2, [sp, #40]	; 0x28
 8002962:	6da3      	ldr	r3, [r4, #88]	; 0x58
 8002964:	429a      	cmp	r2, r3
 8002966:	bfa8      	it	ge
 8002968:	461a      	movge	r2, r3
 800296a:	2a00      	cmp	r2, #0
 800296c:	4691      	mov	r9, r2
 800296e:	dc37      	bgt.n	80029e0 <_printf_float+0x374>
 8002970:	f04f 0b00 	mov.w	fp, #0
 8002974:	ea29 79e9 	bic.w	r9, r9, r9, asr #31
 8002978:	f104 021a 	add.w	r2, r4, #26
 800297c:	6da3      	ldr	r3, [r4, #88]	; 0x58
 800297e:	9305      	str	r3, [sp, #20]
 8002980:	eba3 0309 	sub.w	r3, r3, r9
 8002984:	455b      	cmp	r3, fp
 8002986:	dc33      	bgt.n	80029f0 <_printf_float+0x384>
 8002988:	e9dd 2309 	ldrd	r2, r3, [sp, #36]	; 0x24
 800298c:	429a      	cmp	r2, r3
 800298e:	db3b      	blt.n	8002a08 <_printf_float+0x39c>
 8002990:	6823      	ldr	r3, [r4, #0]
 8002992:	07da      	lsls	r2, r3, #31
 8002994:	d438      	bmi.n	8002a08 <_printf_float+0x39c>
 8002996:	9a0a      	ldr	r2, [sp, #40]	; 0x28
 8002998:	9b05      	ldr	r3, [sp, #20]
 800299a:	9909      	ldr	r1, [sp, #36]	; 0x24
 800299c:	1ad3      	subs	r3, r2, r3
 800299e:	eba2 0901 	sub.w	r9, r2, r1
 80029a2:	4599      	cmp	r9, r3
 80029a4:	bfa8      	it	ge
 80029a6:	4699      	movge	r9, r3
 80029a8:	f1b9 0f00 	cmp.w	r9, #0
 80029ac:	dc35      	bgt.n	8002a1a <_printf_float+0x3ae>
 80029ae:	f04f 0800 	mov.w	r8, #0
 80029b2:	ea29 79e9 	bic.w	r9, r9, r9, asr #31
 80029b6:	f104 0a1a 	add.w	sl, r4, #26
 80029ba:	e9dd 2309 	ldrd	r2, r3, [sp, #36]	; 0x24
 80029be:	1a9b      	subs	r3, r3, r2
 80029c0:	eba3 0309 	sub.w	r3, r3, r9
 80029c4:	4543      	cmp	r3, r8
 80029c6:	f77f af79 	ble.w	80028bc <_printf_float+0x250>
 80029ca:	2301      	movs	r3, #1
 80029cc:	4652      	mov	r2, sl
 80029ce:	4631      	mov	r1, r6
 80029d0:	4628      	mov	r0, r5
 80029d2:	47b8      	blx	r7
 80029d4:	3001      	adds	r0, #1
 80029d6:	f43f aeaa 	beq.w	800272e <_printf_float+0xc2>
 80029da:	f108 0801 	add.w	r8, r8, #1
 80029de:	e7ec      	b.n	80029ba <_printf_float+0x34e>
 80029e0:	4613      	mov	r3, r2
 80029e2:	4631      	mov	r1, r6
 80029e4:	4642      	mov	r2, r8
 80029e6:	4628      	mov	r0, r5
 80029e8:	47b8      	blx	r7
 80029ea:	3001      	adds	r0, #1
 80029ec:	d1c0      	bne.n	8002970 <_printf_float+0x304>
 80029ee:	e69e      	b.n	800272e <_printf_float+0xc2>
 80029f0:	2301      	movs	r3, #1
 80029f2:	4631      	mov	r1, r6
 80029f4:	4628      	mov	r0, r5
 80029f6:	9205      	str	r2, [sp, #20]
 80029f8:	47b8      	blx	r7
 80029fa:	3001      	adds	r0, #1
 80029fc:	f43f ae97 	beq.w	800272e <_printf_float+0xc2>
 8002a00:	9a05      	ldr	r2, [sp, #20]
 8002a02:	f10b 0b01 	add.w	fp, fp, #1
 8002a06:	e7b9      	b.n	800297c <_printf_float+0x310>
 8002a08:	ee18 3a10 	vmov	r3, s16
 8002a0c:	4652      	mov	r2, sl
 8002a0e:	4631      	mov	r1, r6
 8002a10:	4628      	mov	r0, r5
 8002a12:	47b8      	blx	r7
 8002a14:	3001      	adds	r0, #1
 8002a16:	d1be      	bne.n	8002996 <_printf_float+0x32a>
 8002a18:	e689      	b.n	800272e <_printf_float+0xc2>
 8002a1a:	9a05      	ldr	r2, [sp, #20]
 8002a1c:	464b      	mov	r3, r9
 8002a1e:	4442      	add	r2, r8
 8002a20:	4631      	mov	r1, r6
 8002a22:	4628      	mov	r0, r5
 8002a24:	47b8      	blx	r7
 8002a26:	3001      	adds	r0, #1
 8002a28:	d1c1      	bne.n	80029ae <_printf_float+0x342>
 8002a2a:	e680      	b.n	800272e <_printf_float+0xc2>
 8002a2c:	9a0a      	ldr	r2, [sp, #40]	; 0x28
 8002a2e:	2a01      	cmp	r2, #1
 8002a30:	dc01      	bgt.n	8002a36 <_printf_float+0x3ca>
 8002a32:	07db      	lsls	r3, r3, #31
 8002a34:	d538      	bpl.n	8002aa8 <_printf_float+0x43c>
 8002a36:	2301      	movs	r3, #1
 8002a38:	4642      	mov	r2, r8
 8002a3a:	4631      	mov	r1, r6
 8002a3c:	4628      	mov	r0, r5
 8002a3e:	47b8      	blx	r7
 8002a40:	3001      	adds	r0, #1
 8002a42:	f43f ae74 	beq.w	800272e <_printf_float+0xc2>
 8002a46:	ee18 3a10 	vmov	r3, s16
 8002a4a:	4652      	mov	r2, sl
 8002a4c:	4631      	mov	r1, r6
 8002a4e:	4628      	mov	r0, r5
 8002a50:	47b8      	blx	r7
 8002a52:	3001      	adds	r0, #1
 8002a54:	f43f ae6b 	beq.w	800272e <_printf_float+0xc2>
 8002a58:	e9d4 0112 	ldrd	r0, r1, [r4, #72]	; 0x48
 8002a5c:	2200      	movs	r2, #0
 8002a5e:	2300      	movs	r3, #0
 8002a60:	f7fe f832 	bl	8000ac8 <__aeabi_dcmpeq>
 8002a64:	b9d8      	cbnz	r0, 8002a9e <_printf_float+0x432>
 8002a66:	9b0a      	ldr	r3, [sp, #40]	; 0x28
 8002a68:	f108 0201 	add.w	r2, r8, #1
 8002a6c:	3b01      	subs	r3, #1
 8002a6e:	4631      	mov	r1, r6
 8002a70:	4628      	mov	r0, r5
 8002a72:	47b8      	blx	r7
 8002a74:	3001      	adds	r0, #1
 8002a76:	d10e      	bne.n	8002a96 <_printf_float+0x42a>
 8002a78:	e659      	b.n	800272e <_printf_float+0xc2>
 8002a7a:	2301      	movs	r3, #1
 8002a7c:	4652      	mov	r2, sl
 8002a7e:	4631      	mov	r1, r6
 8002a80:	4628      	mov	r0, r5
 8002a82:	47b8      	blx	r7
 8002a84:	3001      	adds	r0, #1
 8002a86:	f43f ae52 	beq.w	800272e <_printf_float+0xc2>
 8002a8a:	f108 0801 	add.w	r8, r8, #1
 8002a8e:	9b0a      	ldr	r3, [sp, #40]	; 0x28
 8002a90:	3b01      	subs	r3, #1
 8002a92:	4543      	cmp	r3, r8
 8002a94:	dcf1      	bgt.n	8002a7a <_printf_float+0x40e>
 8002a96:	464b      	mov	r3, r9
 8002a98:	f104 0250 	add.w	r2, r4, #80	; 0x50
 8002a9c:	e6dc      	b.n	8002858 <_printf_float+0x1ec>
 8002a9e:	f04f 0800 	mov.w	r8, #0
 8002aa2:	f104 0a1a 	add.w	sl, r4, #26
 8002aa6:	e7f2      	b.n	8002a8e <_printf_float+0x422>
 8002aa8:	2301      	movs	r3, #1
 8002aaa:	4642      	mov	r2, r8
 8002aac:	e7df      	b.n	8002a6e <_printf_float+0x402>
 8002aae:	2301      	movs	r3, #1
 8002ab0:	464a      	mov	r2, r9
 8002ab2:	4631      	mov	r1, r6
 8002ab4:	4628      	mov	r0, r5
 8002ab6:	47b8      	blx	r7
 8002ab8:	3001      	adds	r0, #1
 8002aba:	f43f ae38 	beq.w	800272e <_printf_float+0xc2>
 8002abe:	f108 0801 	add.w	r8, r8, #1
 8002ac2:	68e3      	ldr	r3, [r4, #12]
 8002ac4:	990b      	ldr	r1, [sp, #44]	; 0x2c
 8002ac6:	1a5b      	subs	r3, r3, r1
 8002ac8:	4543      	cmp	r3, r8
 8002aca:	dcf0      	bgt.n	8002aae <_printf_float+0x442>
 8002acc:	e6fa      	b.n	80028c4 <_printf_float+0x258>
 8002ace:	f04f 0800 	mov.w	r8, #0
 8002ad2:	f104 0919 	add.w	r9, r4, #25
 8002ad6:	e7f4      	b.n	8002ac2 <_printf_float+0x456>

08002ad8 <_printf_common>:
 8002ad8:	e92d 47f0 	stmdb	sp!, {r4, r5, r6, r7, r8, r9, sl, lr}
 8002adc:	4616      	mov	r6, r2
 8002ade:	4699      	mov	r9, r3
 8002ae0:	688a      	ldr	r2, [r1, #8]
 8002ae2:	690b      	ldr	r3, [r1, #16]
 8002ae4:	f8dd 8020 	ldr.w	r8, [sp, #32]
 8002ae8:	4293      	cmp	r3, r2
 8002aea:	bfb8      	it	lt
 8002aec:	4613      	movlt	r3, r2
 8002aee:	6033      	str	r3, [r6, #0]
 8002af0:	f891 2043 	ldrb.w	r2, [r1, #67]	; 0x43
 8002af4:	4607      	mov	r7, r0
 8002af6:	460c      	mov	r4, r1
 8002af8:	b10a      	cbz	r2, 8002afe <_printf_common+0x26>
 8002afa:	3301      	adds	r3, #1
 8002afc:	6033      	str	r3, [r6, #0]
 8002afe:	6823      	ldr	r3, [r4, #0]
 8002b00:	0699      	lsls	r1, r3, #26
 8002b02:	bf42      	ittt	mi
 8002b04:	6833      	ldrmi	r3, [r6, #0]
 8002b06:	3302      	addmi	r3, #2
 8002b08:	6033      	strmi	r3, [r6, #0]
 8002b0a:	6825      	ldr	r5, [r4, #0]
 8002b0c:	f015 0506 	ands.w	r5, r5, #6
 8002b10:	d106      	bne.n	8002b20 <_printf_common+0x48>
 8002b12:	f104 0a19 	add.w	sl, r4, #25
 8002b16:	68e3      	ldr	r3, [r4, #12]
 8002b18:	6832      	ldr	r2, [r6, #0]
 8002b1a:	1a9b      	subs	r3, r3, r2
 8002b1c:	42ab      	cmp	r3, r5
 8002b1e:	dc26      	bgt.n	8002b6e <_printf_common+0x96>
 8002b20:	f894 2043 	ldrb.w	r2, [r4, #67]	; 0x43
 8002b24:	1e13      	subs	r3, r2, #0
 8002b26:	6822      	ldr	r2, [r4, #0]
 8002b28:	bf18      	it	ne
 8002b2a:	2301      	movne	r3, #1
 8002b2c:	0692      	lsls	r2, r2, #26
 8002b2e:	d42b      	bmi.n	8002b88 <_printf_common+0xb0>
 8002b30:	f104 0243 	add.w	r2, r4, #67	; 0x43
 8002b34:	4649      	mov	r1, r9
 8002b36:	4638      	mov	r0, r7
 8002b38:	47c0      	blx	r8
 8002b3a:	3001      	adds	r0, #1
 8002b3c:	d01e      	beq.n	8002b7c <_printf_common+0xa4>
 8002b3e:	6823      	ldr	r3, [r4, #0]
 8002b40:	68e5      	ldr	r5, [r4, #12]
 8002b42:	6832      	ldr	r2, [r6, #0]
 8002b44:	f003 0306 	and.w	r3, r3, #6
 8002b48:	2b04      	cmp	r3, #4
 8002b4a:	bf08      	it	eq
 8002b4c:	1aad      	subeq	r5, r5, r2
 8002b4e:	68a3      	ldr	r3, [r4, #8]
 8002b50:	6922      	ldr	r2, [r4, #16]
 8002b52:	bf0c      	ite	eq
 8002b54:	ea25 75e5 	biceq.w	r5, r5, r5, asr #31
 8002b58:	2500      	movne	r5, #0
 8002b5a:	4293      	cmp	r3, r2
 8002b5c:	bfc4      	itt	gt
 8002b5e:	1a9b      	subgt	r3, r3, r2
 8002b60:	18ed      	addgt	r5, r5, r3
 8002b62:	2600      	movs	r6, #0
 8002b64:	341a      	adds	r4, #26
 8002b66:	42b5      	cmp	r5, r6
 8002b68:	d11a      	bne.n	8002ba0 <_printf_common+0xc8>
 8002b6a:	2000      	movs	r0, #0
 8002b6c:	e008      	b.n	8002b80 <_printf_common+0xa8>
 8002b6e:	2301      	movs	r3, #1
 8002b70:	4652      	mov	r2, sl
 8002b72:	4649      	mov	r1, r9
 8002b74:	4638      	mov	r0, r7
 8002b76:	47c0      	blx	r8
 8002b78:	3001      	adds	r0, #1
 8002b7a:	d103      	bne.n	8002b84 <_printf_common+0xac>
 8002b7c:	f04f 30ff 	mov.w	r0, #4294967295	; 0xffffffff
 8002b80:	e8bd 87f0 	ldmia.w	sp!, {r4, r5, r6, r7, r8, r9, sl, pc}
 8002b84:	3501      	adds	r5, #1
 8002b86:	e7c6      	b.n	8002b16 <_printf_common+0x3e>
 8002b88:	18e1      	adds	r1, r4, r3
 8002b8a:	1c5a      	adds	r2, r3, #1
 8002b8c:	2030      	movs	r0, #48	; 0x30
 8002b8e:	f881 0043 	strb.w	r0, [r1, #67]	; 0x43
 8002b92:	4422      	add	r2, r4
 8002b94:	f894 1045 	ldrb.w	r1, [r4, #69]	; 0x45
 8002b98:	f882 1043 	strb.w	r1, [r2, #67]	; 0x43
 8002b9c:	3302      	adds	r3, #2
 8002b9e:	e7c7      	b.n	8002b30 <_printf_common+0x58>
 8002ba0:	2301      	movs	r3, #1
 8002ba2:	4622      	mov	r2, r4
 8002ba4:	4649      	mov	r1, r9
 8002ba6:	4638      	mov	r0, r7
 8002ba8:	47c0      	blx	r8
 8002baa:	3001      	adds	r0, #1
 8002bac:	d0e6      	beq.n	8002b7c <_printf_common+0xa4>
 8002bae:	3601      	adds	r6, #1
 8002bb0:	e7d9      	b.n	8002b66 <_printf_common+0x8e>
	...

08002bb4 <_printf_i>:
 8002bb4:	e92d 47ff 	stmdb	sp!, {r0, r1, r2, r3, r4, r5, r6, r7, r8, r9, sl, lr}
 8002bb8:	460c      	mov	r4, r1
 8002bba:	4691      	mov	r9, r2
 8002bbc:	7e27      	ldrb	r7, [r4, #24]
 8002bbe:	990c      	ldr	r1, [sp, #48]	; 0x30
 8002bc0:	2f78      	cmp	r7, #120	; 0x78
 8002bc2:	4680      	mov	r8, r0
 8002bc4:	469a      	mov	sl, r3
 8002bc6:	f104 0243 	add.w	r2, r4, #67	; 0x43
 8002bca:	d807      	bhi.n	8002bdc <_printf_i+0x28>
 8002bcc:	2f62      	cmp	r7, #98	; 0x62
 8002bce:	d80a      	bhi.n	8002be6 <_printf_i+0x32>
 8002bd0:	2f00      	cmp	r7, #0
 8002bd2:	f000 80d8 	beq.w	8002d86 <_printf_i+0x1d2>
 8002bd6:	2f58      	cmp	r7, #88	; 0x58
 8002bd8:	f000 80a3 	beq.w	8002d22 <_printf_i+0x16e>
 8002bdc:	f104 0642 	add.w	r6, r4, #66	; 0x42
 8002be0:	f884 7042 	strb.w	r7, [r4, #66]	; 0x42
 8002be4:	e03a      	b.n	8002c5c <_printf_i+0xa8>
 8002be6:	f1a7 0363 	sub.w	r3, r7, #99	; 0x63
 8002bea:	2b15      	cmp	r3, #21
 8002bec:	d8f6      	bhi.n	8002bdc <_printf_i+0x28>
 8002bee:	a001      	add	r0, pc, #4	; (adr r0, 8002bf4 <_printf_i+0x40>)
 8002bf0:	f850 f023 	ldr.w	pc, [r0, r3, lsl #2]
 8002bf4:	08002c4d 	.word	0x08002c4d
 8002bf8:	08002c61 	.word	0x08002c61
 8002bfc:	08002bdd 	.word	0x08002bdd
 8002c00:	08002bdd 	.word	0x08002bdd
 8002c04:	08002bdd 	.word	0x08002bdd
 8002c08:	08002bdd 	.word	0x08002bdd
 8002c0c:	08002c61 	.word	0x08002c61
 8002c10:	08002bdd 	.word	0x08002bdd
 8002c14:	08002bdd 	.word	0x08002bdd
 8002c18:	08002bdd 	.word	0x08002bdd
 8002c1c:	08002bdd 	.word	0x08002bdd
 8002c20:	08002d6d 	.word	0x08002d6d
 8002c24:	08002c91 	.word	0x08002c91
 8002c28:	08002d4f 	.word	0x08002d4f
 8002c2c:	08002bdd 	.word	0x08002bdd
 8002c30:	08002bdd 	.word	0x08002bdd
 8002c34:	08002d8f 	.word	0x08002d8f
 8002c38:	08002bdd 	.word	0x08002bdd
 8002c3c:	08002c91 	.word	0x08002c91
 8002c40:	08002bdd 	.word	0x08002bdd
 8002c44:	08002bdd 	.word	0x08002bdd
 8002c48:	08002d57 	.word	0x08002d57
 8002c4c:	680b      	ldr	r3, [r1, #0]
 8002c4e:	1d1a      	adds	r2, r3, #4
 8002c50:	681b      	ldr	r3, [r3, #0]
 8002c52:	600a      	str	r2, [r1, #0]
 8002c54:	f104 0642 	add.w	r6, r4, #66	; 0x42
 8002c58:	f884 3042 	strb.w	r3, [r4, #66]	; 0x42
 8002c5c:	2301      	movs	r3, #1
 8002c5e:	e0a3      	b.n	8002da8 <_printf_i+0x1f4>
 8002c60:	6825      	ldr	r5, [r4, #0]
 8002c62:	6808      	ldr	r0, [r1, #0]
 8002c64:	062e      	lsls	r6, r5, #24
 8002c66:	f100 0304 	add.w	r3, r0, #4
 8002c6a:	d50a      	bpl.n	8002c82 <_printf_i+0xce>
 8002c6c:	6805      	ldr	r5, [r0, #0]
 8002c6e:	600b      	str	r3, [r1, #0]
 8002c70:	2d00      	cmp	r5, #0
 8002c72:	da03      	bge.n	8002c7c <_printf_i+0xc8>
 8002c74:	232d      	movs	r3, #45	; 0x2d
 8002c76:	426d      	negs	r5, r5
 8002c78:	f884 3043 	strb.w	r3, [r4, #67]	; 0x43
 8002c7c:	485e      	ldr	r0, [pc, #376]	; (8002df8 <_printf_i+0x244>)
 8002c7e:	230a      	movs	r3, #10
 8002c80:	e019      	b.n	8002cb6 <_printf_i+0x102>
 8002c82:	f015 0f40 	tst.w	r5, #64	; 0x40
 8002c86:	6805      	ldr	r5, [r0, #0]
 8002c88:	600b      	str	r3, [r1, #0]
 8002c8a:	bf18      	it	ne
 8002c8c:	b22d      	sxthne	r5, r5
 8002c8e:	e7ef      	b.n	8002c70 <_printf_i+0xbc>
 8002c90:	680b      	ldr	r3, [r1, #0]
 8002c92:	6825      	ldr	r5, [r4, #0]
 8002c94:	1d18      	adds	r0, r3, #4
 8002c96:	6008      	str	r0, [r1, #0]
 8002c98:	0628      	lsls	r0, r5, #24
 8002c9a:	d501      	bpl.n	8002ca0 <_printf_i+0xec>
 8002c9c:	681d      	ldr	r5, [r3, #0]
 8002c9e:	e002      	b.n	8002ca6 <_printf_i+0xf2>
 8002ca0:	0669      	lsls	r1, r5, #25
 8002ca2:	d5fb      	bpl.n	8002c9c <_printf_i+0xe8>
 8002ca4:	881d      	ldrh	r5, [r3, #0]
 8002ca6:	4854      	ldr	r0, [pc, #336]	; (8002df8 <_printf_i+0x244>)
 8002ca8:	2f6f      	cmp	r7, #111	; 0x6f
 8002caa:	bf0c      	ite	eq
 8002cac:	2308      	moveq	r3, #8
 8002cae:	230a      	movne	r3, #10
 8002cb0:	2100      	movs	r1, #0
 8002cb2:	f884 1043 	strb.w	r1, [r4, #67]	; 0x43
 8002cb6:	6866      	ldr	r6, [r4, #4]
 8002cb8:	60a6      	str	r6, [r4, #8]
 8002cba:	2e00      	cmp	r6, #0
 8002cbc:	bfa2      	ittt	ge
 8002cbe:	6821      	ldrge	r1, [r4, #0]
 8002cc0:	f021 0104 	bicge.w	r1, r1, #4
 8002cc4:	6021      	strge	r1, [r4, #0]
 8002cc6:	b90d      	cbnz	r5, 8002ccc <_printf_i+0x118>
 8002cc8:	2e00      	cmp	r6, #0
 8002cca:	d04d      	beq.n	8002d68 <_printf_i+0x1b4>
 8002ccc:	4616      	mov	r6, r2
 8002cce:	fbb5 f1f3 	udiv	r1, r5, r3
 8002cd2:	fb03 5711 	mls	r7, r3, r1, r5
 8002cd6:	5dc7      	ldrb	r7, [r0, r7]
 8002cd8:	f806 7d01 	strb.w	r7, [r6, #-1]!
 8002cdc:	462f      	mov	r7, r5
 8002cde:	42bb      	cmp	r3, r7
 8002ce0:	460d      	mov	r5, r1
 8002ce2:	d9f4      	bls.n	8002cce <_printf_i+0x11a>
 8002ce4:	2b08      	cmp	r3, #8
 8002ce6:	d10b      	bne.n	8002d00 <_printf_i+0x14c>
 8002ce8:	6823      	ldr	r3, [r4, #0]
 8002cea:	07df      	lsls	r7, r3, #31
 8002cec:	d508      	bpl.n	8002d00 <_printf_i+0x14c>
 8002cee:	6923      	ldr	r3, [r4, #16]
 8002cf0:	6861      	ldr	r1, [r4, #4]
 8002cf2:	4299      	cmp	r1, r3
 8002cf4:	bfde      	ittt	le
 8002cf6:	2330      	movle	r3, #48	; 0x30
 8002cf8:	f806 3c01 	strble.w	r3, [r6, #-1]
 8002cfc:	f106 36ff 	addle.w	r6, r6, #4294967295	; 0xffffffff
 8002d00:	1b92      	subs	r2, r2, r6
 8002d02:	6122      	str	r2, [r4, #16]
 8002d04:	f8cd a000 	str.w	sl, [sp]
 8002d08:	464b      	mov	r3, r9
 8002d0a:	aa03      	add	r2, sp, #12
 8002d0c:	4621      	mov	r1, r4
 8002d0e:	4640      	mov	r0, r8
 8002d10:	f7ff fee2 	bl	8002ad8 <_printf_common>
 8002d14:	3001      	adds	r0, #1
 8002d16:	d14c      	bne.n	8002db2 <_printf_i+0x1fe>
 8002d18:	f04f 30ff 	mov.w	r0, #4294967295	; 0xffffffff
 8002d1c:	b004      	add	sp, #16
 8002d1e:	e8bd 87f0 	ldmia.w	sp!, {r4, r5, r6, r7, r8, r9, sl, pc}
 8002d22:	4835      	ldr	r0, [pc, #212]	; (8002df8 <_printf_i+0x244>)
 8002d24:	f884 7045 	strb.w	r7, [r4, #69]	; 0x45
 8002d28:	6823      	ldr	r3, [r4, #0]
 8002d2a:	680e      	ldr	r6, [r1, #0]
 8002d2c:	061f      	lsls	r7, r3, #24
 8002d2e:	f856 5b04 	ldr.w	r5, [r6], #4
 8002d32:	600e      	str	r6, [r1, #0]
 8002d34:	d514      	bpl.n	8002d60 <_printf_i+0x1ac>
 8002d36:	07d9      	lsls	r1, r3, #31
 8002d38:	bf44      	itt	mi
 8002d3a:	f043 0320 	orrmi.w	r3, r3, #32
 8002d3e:	6023      	strmi	r3, [r4, #0]
 8002d40:	b91d      	cbnz	r5, 8002d4a <_printf_i+0x196>
 8002d42:	6823      	ldr	r3, [r4, #0]
 8002d44:	f023 0320 	bic.w	r3, r3, #32
 8002d48:	6023      	str	r3, [r4, #0]
 8002d4a:	2310      	movs	r3, #16
 8002d4c:	e7b0      	b.n	8002cb0 <_printf_i+0xfc>
 8002d4e:	6823      	ldr	r3, [r4, #0]
 8002d50:	f043 0320 	orr.w	r3, r3, #32
 8002d54:	6023      	str	r3, [r4, #0]
 8002d56:	2378      	movs	r3, #120	; 0x78
 8002d58:	4828      	ldr	r0, [pc, #160]	; (8002dfc <_printf_i+0x248>)
 8002d5a:	f884 3045 	strb.w	r3, [r4, #69]	; 0x45
 8002d5e:	e7e3      	b.n	8002d28 <_printf_i+0x174>
 8002d60:	065e      	lsls	r6, r3, #25
 8002d62:	bf48      	it	mi
 8002d64:	b2ad      	uxthmi	r5, r5
 8002d66:	e7e6      	b.n	8002d36 <_printf_i+0x182>
 8002d68:	4616      	mov	r6, r2
 8002d6a:	e7bb      	b.n	8002ce4 <_printf_i+0x130>
 8002d6c:	680b      	ldr	r3, [r1, #0]
 8002d6e:	6826      	ldr	r6, [r4, #0]
 8002d70:	6960      	ldr	r0, [r4, #20]
 8002d72:	1d1d      	adds	r5, r3, #4
 8002d74:	600d      	str	r5, [r1, #0]
 8002d76:	0635      	lsls	r5, r6, #24
 8002d78:	681b      	ldr	r3, [r3, #0]
 8002d7a:	d501      	bpl.n	8002d80 <_printf_i+0x1cc>
 8002d7c:	6018      	str	r0, [r3, #0]
 8002d7e:	e002      	b.n	8002d86 <_printf_i+0x1d2>
 8002d80:	0671      	lsls	r1, r6, #25
 8002d82:	d5fb      	bpl.n	8002d7c <_printf_i+0x1c8>
 8002d84:	8018      	strh	r0, [r3, #0]
 8002d86:	2300      	movs	r3, #0
 8002d88:	6123      	str	r3, [r4, #16]
 8002d8a:	4616      	mov	r6, r2
 8002d8c:	e7ba      	b.n	8002d04 <_printf_i+0x150>
 8002d8e:	680b      	ldr	r3, [r1, #0]
 8002d90:	1d1a      	adds	r2, r3, #4
 8002d92:	600a      	str	r2, [r1, #0]
 8002d94:	681e      	ldr	r6, [r3, #0]
 8002d96:	6862      	ldr	r2, [r4, #4]
 8002d98:	2100      	movs	r1, #0
 8002d9a:	4630      	mov	r0, r6
 8002d9c:	f7fd fa20 	bl	80001e0 <memchr>
 8002da0:	b108      	cbz	r0, 8002da6 <_printf_i+0x1f2>
 8002da2:	1b80      	subs	r0, r0, r6
 8002da4:	6060      	str	r0, [r4, #4]
 8002da6:	6863      	ldr	r3, [r4, #4]
 8002da8:	6123      	str	r3, [r4, #16]
 8002daa:	2300      	movs	r3, #0
 8002dac:	f884 3043 	strb.w	r3, [r4, #67]	; 0x43
 8002db0:	e7a8      	b.n	8002d04 <_printf_i+0x150>
 8002db2:	6923      	ldr	r3, [r4, #16]
 8002db4:	4632      	mov	r2, r6
 8002db6:	4649      	mov	r1, r9
 8002db8:	4640      	mov	r0, r8
 8002dba:	47d0      	blx	sl
 8002dbc:	3001      	adds	r0, #1
 8002dbe:	d0ab      	beq.n	8002d18 <_printf_i+0x164>
 8002dc0:	6823      	ldr	r3, [r4, #0]
 8002dc2:	079b      	lsls	r3, r3, #30
 8002dc4:	d413      	bmi.n	8002dee <_printf_i+0x23a>
 8002dc6:	68e0      	ldr	r0, [r4, #12]
 8002dc8:	9b03      	ldr	r3, [sp, #12]
 8002dca:	4298      	cmp	r0, r3
 8002dcc:	bfb8      	it	lt
 8002dce:	4618      	movlt	r0, r3
 8002dd0:	e7a4      	b.n	8002d1c <_printf_i+0x168>
 8002dd2:	2301      	movs	r3, #1
 8002dd4:	4632      	mov	r2, r6
 8002dd6:	4649      	mov	r1, r9
 8002dd8:	4640      	mov	r0, r8
 8002dda:	47d0      	blx	sl
 8002ddc:	3001      	adds	r0, #1
 8002dde:	d09b      	beq.n	8002d18 <_printf_i+0x164>
 8002de0:	3501      	adds	r5, #1
 8002de2:	68e3      	ldr	r3, [r4, #12]
 8002de4:	9903      	ldr	r1, [sp, #12]
 8002de6:	1a5b      	subs	r3, r3, r1
 8002de8:	42ab      	cmp	r3, r5
 8002dea:	dcf2      	bgt.n	8002dd2 <_printf_i+0x21e>
 8002dec:	e7eb      	b.n	8002dc6 <_printf_i+0x212>
 8002dee:	2500      	movs	r5, #0
 8002df0:	f104 0619 	add.w	r6, r4, #25
 8002df4:	e7f5      	b.n	8002de2 <_printf_i+0x22e>
 8002df6:	bf00      	nop
 8002df8:	0801c6ce 	.word	0x0801c6ce
 8002dfc:	0801c6df 	.word	0x0801c6df

08002e00 <siprintf>:
 8002e00:	b40e      	push	{r1, r2, r3}
 8002e02:	b500      	push	{lr}
 8002e04:	b09c      	sub	sp, #112	; 0x70
 8002e06:	ab1d      	add	r3, sp, #116	; 0x74
 8002e08:	9002      	str	r0, [sp, #8]
 8002e0a:	9006      	str	r0, [sp, #24]
 8002e0c:	f06f 4100 	mvn.w	r1, #2147483648	; 0x80000000
 8002e10:	4809      	ldr	r0, [pc, #36]	; (8002e38 <siprintf+0x38>)
 8002e12:	9107      	str	r1, [sp, #28]
 8002e14:	9104      	str	r1, [sp, #16]
 8002e16:	4909      	ldr	r1, [pc, #36]	; (8002e3c <siprintf+0x3c>)
 8002e18:	f853 2b04 	ldr.w	r2, [r3], #4
 8002e1c:	9105      	str	r1, [sp, #20]
 8002e1e:	6800      	ldr	r0, [r0, #0]
 8002e20:	9301      	str	r3, [sp, #4]
 8002e22:	a902      	add	r1, sp, #8
 8002e24:	f001 fb24 	bl	8004470 <_svfiprintf_r>
 8002e28:	9b02      	ldr	r3, [sp, #8]
 8002e2a:	2200      	movs	r2, #0
 8002e2c:	701a      	strb	r2, [r3, #0]
 8002e2e:	b01c      	add	sp, #112	; 0x70
 8002e30:	f85d eb04 	ldr.w	lr, [sp], #4
 8002e34:	b003      	add	sp, #12
 8002e36:	4770      	bx	lr
 8002e38:	20018cfc 	.word	0x20018cfc
 8002e3c:	ffff0208 	.word	0xffff0208

08002e40 <quorem>:
 8002e40:	e92d 4ff7 	stmdb	sp!, {r0, r1, r2, r4, r5, r6, r7, r8, r9, sl, fp, lr}
 8002e44:	6903      	ldr	r3, [r0, #16]
 8002e46:	690c      	ldr	r4, [r1, #16]
 8002e48:	42a3      	cmp	r3, r4
 8002e4a:	4607      	mov	r7, r0
 8002e4c:	f2c0 8081 	blt.w	8002f52 <quorem+0x112>
 8002e50:	3c01      	subs	r4, #1
 8002e52:	f101 0814 	add.w	r8, r1, #20
 8002e56:	f100 0514 	add.w	r5, r0, #20
 8002e5a:	eb05 0384 	add.w	r3, r5, r4, lsl #2
 8002e5e:	9301      	str	r3, [sp, #4]
 8002e60:	f858 3024 	ldr.w	r3, [r8, r4, lsl #2]
 8002e64:	f855 2024 	ldr.w	r2, [r5, r4, lsl #2]
 8002e68:	3301      	adds	r3, #1
 8002e6a:	429a      	cmp	r2, r3
 8002e6c:	ea4f 0b84 	mov.w	fp, r4, lsl #2
 8002e70:	eb08 0984 	add.w	r9, r8, r4, lsl #2
 8002e74:	fbb2 f6f3 	udiv	r6, r2, r3
 8002e78:	d331      	bcc.n	8002ede <quorem+0x9e>
 8002e7a:	f04f 0e00 	mov.w	lr, #0
 8002e7e:	4640      	mov	r0, r8
 8002e80:	46ac      	mov	ip, r5
 8002e82:	46f2      	mov	sl, lr
 8002e84:	f850 2b04 	ldr.w	r2, [r0], #4
 8002e88:	b293      	uxth	r3, r2
 8002e8a:	fb06 e303 	mla	r3, r6, r3, lr
 8002e8e:	ea4f 4e13 	mov.w	lr, r3, lsr #16
 8002e92:	b29b      	uxth	r3, r3
 8002e94:	ebaa 0303 	sub.w	r3, sl, r3
 8002e98:	0c12      	lsrs	r2, r2, #16
 8002e9a:	f8dc a000 	ldr.w	sl, [ip]
 8002e9e:	fb06 e202 	mla	r2, r6, r2, lr
 8002ea2:	fa13 f38a 	uxtah	r3, r3, sl
 8002ea6:	ea4f 4e12 	mov.w	lr, r2, lsr #16
 8002eaa:	fa1f fa82 	uxth.w	sl, r2
 8002eae:	f8dc 2000 	ldr.w	r2, [ip]
 8002eb2:	ebca 4212 	rsb	r2, sl, r2, lsr #16
 8002eb6:	eb02 4223 	add.w	r2, r2, r3, asr #16
 8002eba:	b29b      	uxth	r3, r3
 8002ebc:	ea43 4302 	orr.w	r3, r3, r2, lsl #16
 8002ec0:	4581      	cmp	r9, r0
 8002ec2:	f84c 3b04 	str.w	r3, [ip], #4
 8002ec6:	ea4f 4a22 	mov.w	sl, r2, asr #16
 8002eca:	d2db      	bcs.n	8002e84 <quorem+0x44>
 8002ecc:	f855 300b 	ldr.w	r3, [r5, fp]
 8002ed0:	b92b      	cbnz	r3, 8002ede <quorem+0x9e>
 8002ed2:	9b01      	ldr	r3, [sp, #4]
 8002ed4:	3b04      	subs	r3, #4
 8002ed6:	429d      	cmp	r5, r3
 8002ed8:	461a      	mov	r2, r3
 8002eda:	d32e      	bcc.n	8002f3a <quorem+0xfa>
 8002edc:	613c      	str	r4, [r7, #16]
 8002ede:	4638      	mov	r0, r7
 8002ee0:	f001 f8b0 	bl	8004044 <__mcmp>
 8002ee4:	2800      	cmp	r0, #0
 8002ee6:	db24      	blt.n	8002f32 <quorem+0xf2>
 8002ee8:	3601      	adds	r6, #1
 8002eea:	4628      	mov	r0, r5
 8002eec:	f04f 0c00 	mov.w	ip, #0
 8002ef0:	f858 2b04 	ldr.w	r2, [r8], #4
 8002ef4:	f8d0 e000 	ldr.w	lr, [r0]
 8002ef8:	b293      	uxth	r3, r2
 8002efa:	ebac 0303 	sub.w	r3, ip, r3
 8002efe:	0c12      	lsrs	r2, r2, #16
 8002f00:	fa13 f38e 	uxtah	r3, r3, lr
 8002f04:	ebc2 421e 	rsb	r2, r2, lr, lsr #16
 8002f08:	eb02 4223 	add.w	r2, r2, r3, asr #16
 8002f0c:	b29b      	uxth	r3, r3
 8002f0e:	ea43 4302 	orr.w	r3, r3, r2, lsl #16
 8002f12:	45c1      	cmp	r9, r8
 8002f14:	f840 3b04 	str.w	r3, [r0], #4
 8002f18:	ea4f 4c22 	mov.w	ip, r2, asr #16
 8002f1c:	d2e8      	bcs.n	8002ef0 <quorem+0xb0>
 8002f1e:	f855 2024 	ldr.w	r2, [r5, r4, lsl #2]
 8002f22:	eb05 0384 	add.w	r3, r5, r4, lsl #2
 8002f26:	b922      	cbnz	r2, 8002f32 <quorem+0xf2>
 8002f28:	3b04      	subs	r3, #4
 8002f2a:	429d      	cmp	r5, r3
 8002f2c:	461a      	mov	r2, r3
 8002f2e:	d30a      	bcc.n	8002f46 <quorem+0x106>
 8002f30:	613c      	str	r4, [r7, #16]
 8002f32:	4630      	mov	r0, r6
 8002f34:	b003      	add	sp, #12
 8002f36:	e8bd 8ff0 	ldmia.w	sp!, {r4, r5, r6, r7, r8, r9, sl, fp, pc}
 8002f3a:	6812      	ldr	r2, [r2, #0]
 8002f3c:	3b04      	subs	r3, #4
 8002f3e:	2a00      	cmp	r2, #0
 8002f40:	d1cc      	bne.n	8002edc <quorem+0x9c>
 8002f42:	3c01      	subs	r4, #1
 8002f44:	e7c7      	b.n	8002ed6 <quorem+0x96>
 8002f46:	6812      	ldr	r2, [r2, #0]
 8002f48:	3b04      	subs	r3, #4
 8002f4a:	2a00      	cmp	r2, #0
 8002f4c:	d1f0      	bne.n	8002f30 <quorem+0xf0>
 8002f4e:	3c01      	subs	r4, #1
 8002f50:	e7eb      	b.n	8002f2a <quorem+0xea>
 8002f52:	2000      	movs	r0, #0
 8002f54:	e7ee      	b.n	8002f34 <quorem+0xf4>
	...

08002f58 <_dtoa_r>:
 8002f58:	e92d 4ff0 	stmdb	sp!, {r4, r5, r6, r7, r8, r9, sl, fp, lr}
 8002f5c:	ed2d 8b02 	vpush	{d8}
 8002f60:	ec57 6b10 	vmov	r6, r7, d0
 8002f64:	b095      	sub	sp, #84	; 0x54
 8002f66:	6a45      	ldr	r5, [r0, #36]	; 0x24
 8002f68:	f8dd 8080 	ldr.w	r8, [sp, #128]	; 0x80
 8002f6c:	9105      	str	r1, [sp, #20]
 8002f6e:	e9cd 6702 	strd	r6, r7, [sp, #8]
 8002f72:	4604      	mov	r4, r0
 8002f74:	9209      	str	r2, [sp, #36]	; 0x24
 8002f76:	930f      	str	r3, [sp, #60]	; 0x3c
 8002f78:	b975      	cbnz	r5, 8002f98 <_dtoa_r+0x40>
 8002f7a:	2010      	movs	r0, #16
 8002f7c:	f000 fddc 	bl	8003b38 <malloc>
 8002f80:	4602      	mov	r2, r0
 8002f82:	6260      	str	r0, [r4, #36]	; 0x24
 8002f84:	b920      	cbnz	r0, 8002f90 <_dtoa_r+0x38>
 8002f86:	4bb2      	ldr	r3, [pc, #712]	; (8003250 <_dtoa_r+0x2f8>)
 8002f88:	21ea      	movs	r1, #234	; 0xea
 8002f8a:	48b2      	ldr	r0, [pc, #712]	; (8003254 <_dtoa_r+0x2fc>)
 8002f8c:	f001 fb80 	bl	8004690 <__assert_func>
 8002f90:	e9c0 5501 	strd	r5, r5, [r0, #4]
 8002f94:	6005      	str	r5, [r0, #0]
 8002f96:	60c5      	str	r5, [r0, #12]
 8002f98:	6a63      	ldr	r3, [r4, #36]	; 0x24
 8002f9a:	6819      	ldr	r1, [r3, #0]
 8002f9c:	b151      	cbz	r1, 8002fb4 <_dtoa_r+0x5c>
 8002f9e:	685a      	ldr	r2, [r3, #4]
 8002fa0:	604a      	str	r2, [r1, #4]
 8002fa2:	2301      	movs	r3, #1
 8002fa4:	4093      	lsls	r3, r2
 8002fa6:	608b      	str	r3, [r1, #8]
 8002fa8:	4620      	mov	r0, r4
 8002faa:	f000 fe0d 	bl	8003bc8 <_Bfree>
 8002fae:	6a63      	ldr	r3, [r4, #36]	; 0x24
 8002fb0:	2200      	movs	r2, #0
 8002fb2:	601a      	str	r2, [r3, #0]
 8002fb4:	1e3b      	subs	r3, r7, #0
 8002fb6:	bfb9      	ittee	lt
 8002fb8:	f023 4300 	biclt.w	r3, r3, #2147483648	; 0x80000000
 8002fbc:	9303      	strlt	r3, [sp, #12]
 8002fbe:	2300      	movge	r3, #0
 8002fc0:	f8c8 3000 	strge.w	r3, [r8]
 8002fc4:	f8dd 900c 	ldr.w	r9, [sp, #12]
 8002fc8:	4ba3      	ldr	r3, [pc, #652]	; (8003258 <_dtoa_r+0x300>)
 8002fca:	bfbc      	itt	lt
 8002fcc:	2201      	movlt	r2, #1
 8002fce:	f8c8 2000 	strlt.w	r2, [r8]
 8002fd2:	ea33 0309 	bics.w	r3, r3, r9
 8002fd6:	d11b      	bne.n	8003010 <_dtoa_r+0xb8>
 8002fd8:	9a0f      	ldr	r2, [sp, #60]	; 0x3c
 8002fda:	f242 730f 	movw	r3, #9999	; 0x270f
 8002fde:	6013      	str	r3, [r2, #0]
 8002fe0:	f3c9 0313 	ubfx	r3, r9, #0, #20
 8002fe4:	4333      	orrs	r3, r6
 8002fe6:	f000 857a 	beq.w	8003ade <_dtoa_r+0xb86>
 8002fea:	9b21      	ldr	r3, [sp, #132]	; 0x84
 8002fec:	b963      	cbnz	r3, 8003008 <_dtoa_r+0xb0>
 8002fee:	4b9b      	ldr	r3, [pc, #620]	; (800325c <_dtoa_r+0x304>)
 8002ff0:	e024      	b.n	800303c <_dtoa_r+0xe4>
 8002ff2:	4b9b      	ldr	r3, [pc, #620]	; (8003260 <_dtoa_r+0x308>)
 8002ff4:	9300      	str	r3, [sp, #0]
 8002ff6:	3308      	adds	r3, #8
 8002ff8:	9a21      	ldr	r2, [sp, #132]	; 0x84
 8002ffa:	6013      	str	r3, [r2, #0]
 8002ffc:	9800      	ldr	r0, [sp, #0]
 8002ffe:	b015      	add	sp, #84	; 0x54
 8003000:	ecbd 8b02 	vpop	{d8}
 8003004:	e8bd 8ff0 	ldmia.w	sp!, {r4, r5, r6, r7, r8, r9, sl, fp, pc}
 8003008:	4b94      	ldr	r3, [pc, #592]	; (800325c <_dtoa_r+0x304>)
 800300a:	9300      	str	r3, [sp, #0]
 800300c:	3303      	adds	r3, #3
 800300e:	e7f3      	b.n	8002ff8 <_dtoa_r+0xa0>
 8003010:	ed9d 7b02 	vldr	d7, [sp, #8]
 8003014:	2200      	movs	r2, #0
 8003016:	ec51 0b17 	vmov	r0, r1, d7
 800301a:	2300      	movs	r3, #0
 800301c:	ed8d 7b0a 	vstr	d7, [sp, #40]	; 0x28
 8003020:	f7fd fd52 	bl	8000ac8 <__aeabi_dcmpeq>
 8003024:	4680      	mov	r8, r0
 8003026:	b158      	cbz	r0, 8003040 <_dtoa_r+0xe8>
 8003028:	9a0f      	ldr	r2, [sp, #60]	; 0x3c
 800302a:	2301      	movs	r3, #1
 800302c:	6013      	str	r3, [r2, #0]
 800302e:	9b21      	ldr	r3, [sp, #132]	; 0x84
 8003030:	2b00      	cmp	r3, #0
 8003032:	f000 8551 	beq.w	8003ad8 <_dtoa_r+0xb80>
 8003036:	488b      	ldr	r0, [pc, #556]	; (8003264 <_dtoa_r+0x30c>)
 8003038:	6018      	str	r0, [r3, #0]
 800303a:	1e43      	subs	r3, r0, #1
 800303c:	9300      	str	r3, [sp, #0]
 800303e:	e7dd      	b.n	8002ffc <_dtoa_r+0xa4>
 8003040:	ed9d 0b0a 	vldr	d0, [sp, #40]	; 0x28
 8003044:	aa12      	add	r2, sp, #72	; 0x48
 8003046:	a913      	add	r1, sp, #76	; 0x4c
 8003048:	4620      	mov	r0, r4
 800304a:	f001 f89f 	bl	800418c <__d2b>
 800304e:	f3c9 550a 	ubfx	r5, r9, #20, #11
 8003052:	4683      	mov	fp, r0
 8003054:	2d00      	cmp	r5, #0
 8003056:	d07c      	beq.n	8003152 <_dtoa_r+0x1fa>
 8003058:	9b0b      	ldr	r3, [sp, #44]	; 0x2c
 800305a:	f8cd 8040 	str.w	r8, [sp, #64]	; 0x40
 800305e:	f3c3 0313 	ubfx	r3, r3, #0, #20
 8003062:	e9dd 670a 	ldrd	r6, r7, [sp, #40]	; 0x28
 8003066:	f043 577f 	orr.w	r7, r3, #1069547520	; 0x3fc00000
 800306a:	f447 1740 	orr.w	r7, r7, #3145728	; 0x300000
 800306e:	f2a5 35ff 	subw	r5, r5, #1023	; 0x3ff
 8003072:	4b7d      	ldr	r3, [pc, #500]	; (8003268 <_dtoa_r+0x310>)
 8003074:	2200      	movs	r2, #0
 8003076:	4630      	mov	r0, r6
 8003078:	4639      	mov	r1, r7
 800307a:	f7fd f905 	bl	8000288 <__aeabi_dsub>
 800307e:	a36e      	add	r3, pc, #440	; (adr r3, 8003238 <_dtoa_r+0x2e0>)
 8003080:	e9d3 2300 	ldrd	r2, r3, [r3]
 8003084:	f7fd fab8 	bl	80005f8 <__aeabi_dmul>
 8003088:	a36d      	add	r3, pc, #436	; (adr r3, 8003240 <_dtoa_r+0x2e8>)
 800308a:	e9d3 2300 	ldrd	r2, r3, [r3]
 800308e:	f7fd f8fd 	bl	800028c <__adddf3>
 8003092:	4606      	mov	r6, r0
 8003094:	4628      	mov	r0, r5
 8003096:	460f      	mov	r7, r1
 8003098:	f7fd fa44 	bl	8000524 <__aeabi_i2d>
 800309c:	a36a      	add	r3, pc, #424	; (adr r3, 8003248 <_dtoa_r+0x2f0>)
 800309e:	e9d3 2300 	ldrd	r2, r3, [r3]
 80030a2:	f7fd faa9 	bl	80005f8 <__aeabi_dmul>
 80030a6:	4602      	mov	r2, r0
 80030a8:	460b      	mov	r3, r1
 80030aa:	4630      	mov	r0, r6
 80030ac:	4639      	mov	r1, r7
 80030ae:	f7fd f8ed 	bl	800028c <__adddf3>
 80030b2:	4606      	mov	r6, r0
 80030b4:	460f      	mov	r7, r1
 80030b6:	f7fd fd4f 	bl	8000b58 <__aeabi_d2iz>
 80030ba:	2200      	movs	r2, #0
 80030bc:	4682      	mov	sl, r0
 80030be:	2300      	movs	r3, #0
 80030c0:	4630      	mov	r0, r6
 80030c2:	4639      	mov	r1, r7
 80030c4:	f7fd fd0a 	bl	8000adc <__aeabi_dcmplt>
 80030c8:	b148      	cbz	r0, 80030de <_dtoa_r+0x186>
 80030ca:	4650      	mov	r0, sl
 80030cc:	f7fd fa2a 	bl	8000524 <__aeabi_i2d>
 80030d0:	4632      	mov	r2, r6
 80030d2:	463b      	mov	r3, r7
 80030d4:	f7fd fcf8 	bl	8000ac8 <__aeabi_dcmpeq>
 80030d8:	b908      	cbnz	r0, 80030de <_dtoa_r+0x186>
 80030da:	f10a 3aff 	add.w	sl, sl, #4294967295	; 0xffffffff
 80030de:	f1ba 0f16 	cmp.w	sl, #22
 80030e2:	d854      	bhi.n	800318e <_dtoa_r+0x236>
 80030e4:	4b61      	ldr	r3, [pc, #388]	; (800326c <_dtoa_r+0x314>)
 80030e6:	eb03 03ca 	add.w	r3, r3, sl, lsl #3
 80030ea:	e9d3 2300 	ldrd	r2, r3, [r3]
 80030ee:	e9dd 010a 	ldrd	r0, r1, [sp, #40]	; 0x28
 80030f2:	f7fd fcf3 	bl	8000adc <__aeabi_dcmplt>
 80030f6:	2800      	cmp	r0, #0
 80030f8:	d04b      	beq.n	8003192 <_dtoa_r+0x23a>
 80030fa:	f10a 3aff 	add.w	sl, sl, #4294967295	; 0xffffffff
 80030fe:	2300      	movs	r3, #0
 8003100:	930e      	str	r3, [sp, #56]	; 0x38
 8003102:	9b12      	ldr	r3, [sp, #72]	; 0x48
 8003104:	1b5d      	subs	r5, r3, r5
 8003106:	1e6b      	subs	r3, r5, #1
 8003108:	9304      	str	r3, [sp, #16]
 800310a:	bf43      	ittte	mi
 800310c:	2300      	movmi	r3, #0
 800310e:	f1c5 0801 	rsbmi	r8, r5, #1
 8003112:	9304      	strmi	r3, [sp, #16]
 8003114:	f04f 0800 	movpl.w	r8, #0
 8003118:	f1ba 0f00 	cmp.w	sl, #0
 800311c:	db3b      	blt.n	8003196 <_dtoa_r+0x23e>
 800311e:	9b04      	ldr	r3, [sp, #16]
 8003120:	f8cd a034 	str.w	sl, [sp, #52]	; 0x34
 8003124:	4453      	add	r3, sl
 8003126:	9304      	str	r3, [sp, #16]
 8003128:	2300      	movs	r3, #0
 800312a:	9306      	str	r3, [sp, #24]
 800312c:	9b05      	ldr	r3, [sp, #20]
 800312e:	2b09      	cmp	r3, #9
 8003130:	d869      	bhi.n	8003206 <_dtoa_r+0x2ae>
 8003132:	2b05      	cmp	r3, #5
 8003134:	bfc4      	itt	gt
 8003136:	3b04      	subgt	r3, #4
 8003138:	9305      	strgt	r3, [sp, #20]
 800313a:	9b05      	ldr	r3, [sp, #20]
 800313c:	f1a3 0302 	sub.w	r3, r3, #2
 8003140:	bfcc      	ite	gt
 8003142:	2500      	movgt	r5, #0
 8003144:	2501      	movle	r5, #1
 8003146:	2b03      	cmp	r3, #3
 8003148:	d869      	bhi.n	800321e <_dtoa_r+0x2c6>
 800314a:	e8df f003 	tbb	[pc, r3]
 800314e:	4e2c      	.short	0x4e2c
 8003150:	5a4c      	.short	0x5a4c
 8003152:	e9dd 5312 	ldrd	r5, r3, [sp, #72]	; 0x48
 8003156:	441d      	add	r5, r3
 8003158:	f205 4332 	addw	r3, r5, #1074	; 0x432
 800315c:	2b20      	cmp	r3, #32
 800315e:	bfc1      	itttt	gt
 8003160:	f1c3 0340 	rsbgt	r3, r3, #64	; 0x40
 8003164:	f205 4012 	addwgt	r0, r5, #1042	; 0x412
 8003168:	fa09 f303 	lslgt.w	r3, r9, r3
 800316c:	fa26 f000 	lsrgt.w	r0, r6, r0
 8003170:	bfda      	itte	le
 8003172:	f1c3 0320 	rsble	r3, r3, #32
 8003176:	fa06 f003 	lslle.w	r0, r6, r3
 800317a:	4318      	orrgt	r0, r3
 800317c:	f7fd f9c2 	bl	8000504 <__aeabi_ui2d>
 8003180:	2301      	movs	r3, #1
 8003182:	4606      	mov	r6, r0
 8003184:	f1a1 77f8 	sub.w	r7, r1, #32505856	; 0x1f00000
 8003188:	3d01      	subs	r5, #1
 800318a:	9310      	str	r3, [sp, #64]	; 0x40
 800318c:	e771      	b.n	8003072 <_dtoa_r+0x11a>
 800318e:	2301      	movs	r3, #1
 8003190:	e7b6      	b.n	8003100 <_dtoa_r+0x1a8>
 8003192:	900e      	str	r0, [sp, #56]	; 0x38
 8003194:	e7b5      	b.n	8003102 <_dtoa_r+0x1aa>
 8003196:	f1ca 0300 	rsb	r3, sl, #0
 800319a:	9306      	str	r3, [sp, #24]
 800319c:	2300      	movs	r3, #0
 800319e:	eba8 080a 	sub.w	r8, r8, sl
 80031a2:	930d      	str	r3, [sp, #52]	; 0x34
 80031a4:	e7c2      	b.n	800312c <_dtoa_r+0x1d4>
 80031a6:	2300      	movs	r3, #0
 80031a8:	9308      	str	r3, [sp, #32]
 80031aa:	9b09      	ldr	r3, [sp, #36]	; 0x24
 80031ac:	2b00      	cmp	r3, #0
 80031ae:	dc39      	bgt.n	8003224 <_dtoa_r+0x2cc>
 80031b0:	f04f 0901 	mov.w	r9, #1
 80031b4:	f8cd 9004 	str.w	r9, [sp, #4]
 80031b8:	464b      	mov	r3, r9
 80031ba:	f8cd 9024 	str.w	r9, [sp, #36]	; 0x24
 80031be:	6a60      	ldr	r0, [r4, #36]	; 0x24
 80031c0:	2200      	movs	r2, #0
 80031c2:	6042      	str	r2, [r0, #4]
 80031c4:	2204      	movs	r2, #4
 80031c6:	f102 0614 	add.w	r6, r2, #20
 80031ca:	429e      	cmp	r6, r3
 80031cc:	6841      	ldr	r1, [r0, #4]
 80031ce:	d92f      	bls.n	8003230 <_dtoa_r+0x2d8>
 80031d0:	4620      	mov	r0, r4
 80031d2:	f000 fcb9 	bl	8003b48 <_Balloc>
 80031d6:	9000      	str	r0, [sp, #0]
 80031d8:	2800      	cmp	r0, #0
 80031da:	d14b      	bne.n	8003274 <_dtoa_r+0x31c>
 80031dc:	4b24      	ldr	r3, [pc, #144]	; (8003270 <_dtoa_r+0x318>)
 80031de:	4602      	mov	r2, r0
 80031e0:	f44f 71d5 	mov.w	r1, #426	; 0x1aa
 80031e4:	e6d1      	b.n	8002f8a <_dtoa_r+0x32>
 80031e6:	2301      	movs	r3, #1
 80031e8:	e7de      	b.n	80031a8 <_dtoa_r+0x250>
 80031ea:	2300      	movs	r3, #0
 80031ec:	9308      	str	r3, [sp, #32]
 80031ee:	9b09      	ldr	r3, [sp, #36]	; 0x24
 80031f0:	eb0a 0903 	add.w	r9, sl, r3
 80031f4:	f109 0301 	add.w	r3, r9, #1
 80031f8:	2b01      	cmp	r3, #1
 80031fa:	9301      	str	r3, [sp, #4]
 80031fc:	bfb8      	it	lt
 80031fe:	2301      	movlt	r3, #1
 8003200:	e7dd      	b.n	80031be <_dtoa_r+0x266>
 8003202:	2301      	movs	r3, #1
 8003204:	e7f2      	b.n	80031ec <_dtoa_r+0x294>
 8003206:	2501      	movs	r5, #1
 8003208:	2300      	movs	r3, #0
 800320a:	9305      	str	r3, [sp, #20]
 800320c:	9508      	str	r5, [sp, #32]
 800320e:	f04f 39ff 	mov.w	r9, #4294967295	; 0xffffffff
 8003212:	2200      	movs	r2, #0
 8003214:	f8cd 9004 	str.w	r9, [sp, #4]
 8003218:	2312      	movs	r3, #18
 800321a:	9209      	str	r2, [sp, #36]	; 0x24
 800321c:	e7cf      	b.n	80031be <_dtoa_r+0x266>
 800321e:	2301      	movs	r3, #1
 8003220:	9308      	str	r3, [sp, #32]
 8003222:	e7f4      	b.n	800320e <_dtoa_r+0x2b6>
 8003224:	f8dd 9024 	ldr.w	r9, [sp, #36]	; 0x24
 8003228:	f8cd 9004 	str.w	r9, [sp, #4]
 800322c:	464b      	mov	r3, r9
 800322e:	e7c6      	b.n	80031be <_dtoa_r+0x266>
 8003230:	3101      	adds	r1, #1
 8003232:	6041      	str	r1, [r0, #4]
 8003234:	0052      	lsls	r2, r2, #1
 8003236:	e7c6      	b.n	80031c6 <_dtoa_r+0x26e>
 8003238:	636f4361 	.word	0x636f4361
 800323c:	3fd287a7 	.word	0x3fd287a7
 8003240:	8b60c8b3 	.word	0x8b60c8b3
 8003244:	3fc68a28 	.word	0x3fc68a28
 8003248:	509f79fb 	.word	0x509f79fb
 800324c:	3fd34413 	.word	0x3fd34413
 8003250:	0801c6fd 	.word	0x0801c6fd
 8003254:	0801c714 	.word	0x0801c714
 8003258:	7ff00000 	.word	0x7ff00000
 800325c:	0801c6f9 	.word	0x0801c6f9
 8003260:	0801c6f0 	.word	0x0801c6f0
 8003264:	0801c6cd 	.word	0x0801c6cd
 8003268:	3ff80000 	.word	0x3ff80000
 800326c:	0801c848 	.word	0x0801c848
 8003270:	0801c790 	.word	0x0801c790
 8003274:	6a63      	ldr	r3, [r4, #36]	; 0x24
 8003276:	9a00      	ldr	r2, [sp, #0]
 8003278:	601a      	str	r2, [r3, #0]
 800327a:	9b01      	ldr	r3, [sp, #4]
 800327c:	2b0e      	cmp	r3, #14
 800327e:	f200 80ad 	bhi.w	80033dc <_dtoa_r+0x484>
 8003282:	2d00      	cmp	r5, #0
 8003284:	f000 80aa 	beq.w	80033dc <_dtoa_r+0x484>
 8003288:	f1ba 0f00 	cmp.w	sl, #0
 800328c:	dd36      	ble.n	80032fc <_dtoa_r+0x3a4>
 800328e:	4ac3      	ldr	r2, [pc, #780]	; (800359c <_dtoa_r+0x644>)
 8003290:	f00a 030f 	and.w	r3, sl, #15
 8003294:	eb02 03c3 	add.w	r3, r2, r3, lsl #3
 8003298:	ed93 7b00 	vldr	d7, [r3]
 800329c:	f41a 7f80 	tst.w	sl, #256	; 0x100
 80032a0:	ea4f 172a 	mov.w	r7, sl, asr #4
 80032a4:	eeb0 8a47 	vmov.f32	s16, s14
 80032a8:	eef0 8a67 	vmov.f32	s17, s15
 80032ac:	d016      	beq.n	80032dc <_dtoa_r+0x384>
 80032ae:	4bbc      	ldr	r3, [pc, #752]	; (80035a0 <_dtoa_r+0x648>)
 80032b0:	e9dd 010a 	ldrd	r0, r1, [sp, #40]	; 0x28
 80032b4:	e9d3 2308 	ldrd	r2, r3, [r3, #32]
 80032b8:	f7fd fac8 	bl	800084c <__aeabi_ddiv>
 80032bc:	e9cd 0102 	strd	r0, r1, [sp, #8]
 80032c0:	f007 070f 	and.w	r7, r7, #15
 80032c4:	2503      	movs	r5, #3
 80032c6:	4eb6      	ldr	r6, [pc, #728]	; (80035a0 <_dtoa_r+0x648>)
 80032c8:	b957      	cbnz	r7, 80032e0 <_dtoa_r+0x388>
 80032ca:	e9dd 0102 	ldrd	r0, r1, [sp, #8]
 80032ce:	ec53 2b18 	vmov	r2, r3, d8
 80032d2:	f7fd fabb 	bl	800084c <__aeabi_ddiv>
 80032d6:	e9cd 0102 	strd	r0, r1, [sp, #8]
 80032da:	e029      	b.n	8003330 <_dtoa_r+0x3d8>
 80032dc:	2502      	movs	r5, #2
 80032de:	e7f2      	b.n	80032c6 <_dtoa_r+0x36e>
 80032e0:	07f9      	lsls	r1, r7, #31
 80032e2:	d508      	bpl.n	80032f6 <_dtoa_r+0x39e>
 80032e4:	ec51 0b18 	vmov	r0, r1, d8
 80032e8:	e9d6 2300 	ldrd	r2, r3, [r6]
 80032ec:	f7fd f984 	bl	80005f8 <__aeabi_dmul>
 80032f0:	ec41 0b18 	vmov	d8, r0, r1
 80032f4:	3501      	adds	r5, #1
 80032f6:	107f      	asrs	r7, r7, #1
 80032f8:	3608      	adds	r6, #8
 80032fa:	e7e5      	b.n	80032c8 <_dtoa_r+0x370>
 80032fc:	f000 80a6 	beq.w	800344c <_dtoa_r+0x4f4>
 8003300:	f1ca 0600 	rsb	r6, sl, #0
 8003304:	4ba5      	ldr	r3, [pc, #660]	; (800359c <_dtoa_r+0x644>)
 8003306:	4fa6      	ldr	r7, [pc, #664]	; (80035a0 <_dtoa_r+0x648>)
 8003308:	f006 020f 	and.w	r2, r6, #15
 800330c:	eb03 03c2 	add.w	r3, r3, r2, lsl #3
 8003310:	e9d3 2300 	ldrd	r2, r3, [r3]
 8003314:	e9dd 010a 	ldrd	r0, r1, [sp, #40]	; 0x28
 8003318:	f7fd f96e 	bl	80005f8 <__aeabi_dmul>
 800331c:	e9cd 0102 	strd	r0, r1, [sp, #8]
 8003320:	1136      	asrs	r6, r6, #4
 8003322:	2300      	movs	r3, #0
 8003324:	2502      	movs	r5, #2
 8003326:	2e00      	cmp	r6, #0
 8003328:	f040 8085 	bne.w	8003436 <_dtoa_r+0x4de>
 800332c:	2b00      	cmp	r3, #0
 800332e:	d1d2      	bne.n	80032d6 <_dtoa_r+0x37e>
 8003330:	9b0e      	ldr	r3, [sp, #56]	; 0x38
 8003332:	2b00      	cmp	r3, #0
 8003334:	f000 808c 	beq.w	8003450 <_dtoa_r+0x4f8>
 8003338:	e9dd 6702 	ldrd	r6, r7, [sp, #8]
 800333c:	4b99      	ldr	r3, [pc, #612]	; (80035a4 <_dtoa_r+0x64c>)
 800333e:	2200      	movs	r2, #0
 8003340:	4630      	mov	r0, r6
 8003342:	4639      	mov	r1, r7
 8003344:	f7fd fbca 	bl	8000adc <__aeabi_dcmplt>
 8003348:	2800      	cmp	r0, #0
 800334a:	f000 8081 	beq.w	8003450 <_dtoa_r+0x4f8>
 800334e:	9b01      	ldr	r3, [sp, #4]
 8003350:	2b00      	cmp	r3, #0
 8003352:	d07d      	beq.n	8003450 <_dtoa_r+0x4f8>
 8003354:	f1b9 0f00 	cmp.w	r9, #0
 8003358:	dd3c      	ble.n	80033d4 <_dtoa_r+0x47c>
 800335a:	f10a 33ff 	add.w	r3, sl, #4294967295	; 0xffffffff
 800335e:	9307      	str	r3, [sp, #28]
 8003360:	2200      	movs	r2, #0
 8003362:	4b91      	ldr	r3, [pc, #580]	; (80035a8 <_dtoa_r+0x650>)
 8003364:	4630      	mov	r0, r6
 8003366:	4639      	mov	r1, r7
 8003368:	f7fd f946 	bl	80005f8 <__aeabi_dmul>
 800336c:	e9cd 0102 	strd	r0, r1, [sp, #8]
 8003370:	3501      	adds	r5, #1
 8003372:	f8cd 9030 	str.w	r9, [sp, #48]	; 0x30
 8003376:	e9dd 6702 	ldrd	r6, r7, [sp, #8]
 800337a:	4628      	mov	r0, r5
 800337c:	f7fd f8d2 	bl	8000524 <__aeabi_i2d>
 8003380:	4632      	mov	r2, r6
 8003382:	463b      	mov	r3, r7
 8003384:	f7fd f938 	bl	80005f8 <__aeabi_dmul>
 8003388:	4b88      	ldr	r3, [pc, #544]	; (80035ac <_dtoa_r+0x654>)
 800338a:	2200      	movs	r2, #0
 800338c:	f7fc ff7e 	bl	800028c <__adddf3>
 8003390:	f1a1 7350 	sub.w	r3, r1, #54525952	; 0x3400000
 8003394:	e9cd 0102 	strd	r0, r1, [sp, #8]
 8003398:	9303      	str	r3, [sp, #12]
 800339a:	9b0c      	ldr	r3, [sp, #48]	; 0x30
 800339c:	2b00      	cmp	r3, #0
 800339e:	d15c      	bne.n	800345a <_dtoa_r+0x502>
 80033a0:	4b83      	ldr	r3, [pc, #524]	; (80035b0 <_dtoa_r+0x658>)
 80033a2:	2200      	movs	r2, #0
 80033a4:	4630      	mov	r0, r6
 80033a6:	4639      	mov	r1, r7
 80033a8:	f7fc ff6e 	bl	8000288 <__aeabi_dsub>
 80033ac:	e9dd 2302 	ldrd	r2, r3, [sp, #8]
 80033b0:	4606      	mov	r6, r0
 80033b2:	460f      	mov	r7, r1
 80033b4:	f7fd fbb0 	bl	8000b18 <__aeabi_dcmpgt>
 80033b8:	2800      	cmp	r0, #0
 80033ba:	f040 8296 	bne.w	80038ea <_dtoa_r+0x992>
 80033be:	e9dd 2102 	ldrd	r2, r1, [sp, #8]
 80033c2:	4630      	mov	r0, r6
 80033c4:	f101 4300 	add.w	r3, r1, #2147483648	; 0x80000000
 80033c8:	4639      	mov	r1, r7
 80033ca:	f7fd fb87 	bl	8000adc <__aeabi_dcmplt>
 80033ce:	2800      	cmp	r0, #0
 80033d0:	f040 8288 	bne.w	80038e4 <_dtoa_r+0x98c>
 80033d4:	e9dd 230a 	ldrd	r2, r3, [sp, #40]	; 0x28
 80033d8:	e9cd 2302 	strd	r2, r3, [sp, #8]
 80033dc:	9b13      	ldr	r3, [sp, #76]	; 0x4c
 80033de:	2b00      	cmp	r3, #0
 80033e0:	f2c0 8158 	blt.w	8003694 <_dtoa_r+0x73c>
 80033e4:	f1ba 0f0e 	cmp.w	sl, #14
 80033e8:	f300 8154 	bgt.w	8003694 <_dtoa_r+0x73c>
 80033ec:	4b6b      	ldr	r3, [pc, #428]	; (800359c <_dtoa_r+0x644>)
 80033ee:	eb03 03ca 	add.w	r3, r3, sl, lsl #3
 80033f2:	e9d3 8900 	ldrd	r8, r9, [r3]
 80033f6:	9b09      	ldr	r3, [sp, #36]	; 0x24
 80033f8:	2b00      	cmp	r3, #0
 80033fa:	f280 80e3 	bge.w	80035c4 <_dtoa_r+0x66c>
 80033fe:	9b01      	ldr	r3, [sp, #4]
 8003400:	2b00      	cmp	r3, #0
 8003402:	f300 80df 	bgt.w	80035c4 <_dtoa_r+0x66c>
 8003406:	f040 826d 	bne.w	80038e4 <_dtoa_r+0x98c>
 800340a:	4b69      	ldr	r3, [pc, #420]	; (80035b0 <_dtoa_r+0x658>)
 800340c:	2200      	movs	r2, #0
 800340e:	4640      	mov	r0, r8
 8003410:	4649      	mov	r1, r9
 8003412:	f7fd f8f1 	bl	80005f8 <__aeabi_dmul>
 8003416:	e9dd 2302 	ldrd	r2, r3, [sp, #8]
 800341a:	f7fd fb73 	bl	8000b04 <__aeabi_dcmpge>
 800341e:	9e01      	ldr	r6, [sp, #4]
 8003420:	4637      	mov	r7, r6
 8003422:	2800      	cmp	r0, #0
 8003424:	f040 8243 	bne.w	80038ae <_dtoa_r+0x956>
 8003428:	9d00      	ldr	r5, [sp, #0]
 800342a:	2331      	movs	r3, #49	; 0x31
 800342c:	f805 3b01 	strb.w	r3, [r5], #1
 8003430:	f10a 0a01 	add.w	sl, sl, #1
 8003434:	e23f      	b.n	80038b6 <_dtoa_r+0x95e>
 8003436:	07f2      	lsls	r2, r6, #31
 8003438:	d505      	bpl.n	8003446 <_dtoa_r+0x4ee>
 800343a:	e9d7 2300 	ldrd	r2, r3, [r7]
 800343e:	f7fd f8db 	bl	80005f8 <__aeabi_dmul>
 8003442:	3501      	adds	r5, #1
 8003444:	2301      	movs	r3, #1
 8003446:	1076      	asrs	r6, r6, #1
 8003448:	3708      	adds	r7, #8
 800344a:	e76c      	b.n	8003326 <_dtoa_r+0x3ce>
 800344c:	2502      	movs	r5, #2
 800344e:	e76f      	b.n	8003330 <_dtoa_r+0x3d8>
 8003450:	9b01      	ldr	r3, [sp, #4]
 8003452:	f8cd a01c 	str.w	sl, [sp, #28]
 8003456:	930c      	str	r3, [sp, #48]	; 0x30
 8003458:	e78d      	b.n	8003376 <_dtoa_r+0x41e>
 800345a:	9900      	ldr	r1, [sp, #0]
 800345c:	980c      	ldr	r0, [sp, #48]	; 0x30
 800345e:	9a0c      	ldr	r2, [sp, #48]	; 0x30
 8003460:	4b4e      	ldr	r3, [pc, #312]	; (800359c <_dtoa_r+0x644>)
 8003462:	ed9d 7b02 	vldr	d7, [sp, #8]
 8003466:	4401      	add	r1, r0
 8003468:	9102      	str	r1, [sp, #8]
 800346a:	9908      	ldr	r1, [sp, #32]
 800346c:	eeb0 8a47 	vmov.f32	s16, s14
 8003470:	eef0 8a67 	vmov.f32	s17, s15
 8003474:	eb03 03c2 	add.w	r3, r3, r2, lsl #3
 8003478:	e953 2302 	ldrd	r2, r3, [r3, #-8]
 800347c:	2900      	cmp	r1, #0
 800347e:	d045      	beq.n	800350c <_dtoa_r+0x5b4>
 8003480:	494c      	ldr	r1, [pc, #304]	; (80035b4 <_dtoa_r+0x65c>)
 8003482:	2000      	movs	r0, #0
 8003484:	f7fd f9e2 	bl	800084c <__aeabi_ddiv>
 8003488:	ec53 2b18 	vmov	r2, r3, d8
 800348c:	f7fc fefc 	bl	8000288 <__aeabi_dsub>
 8003490:	9d00      	ldr	r5, [sp, #0]
 8003492:	ec41 0b18 	vmov	d8, r0, r1
 8003496:	4639      	mov	r1, r7
 8003498:	4630      	mov	r0, r6
 800349a:	f7fd fb5d 	bl	8000b58 <__aeabi_d2iz>
 800349e:	900c      	str	r0, [sp, #48]	; 0x30
 80034a0:	f7fd f840 	bl	8000524 <__aeabi_i2d>
 80034a4:	4602      	mov	r2, r0
 80034a6:	460b      	mov	r3, r1
 80034a8:	4630      	mov	r0, r6
 80034aa:	4639      	mov	r1, r7
 80034ac:	f7fc feec 	bl	8000288 <__aeabi_dsub>
 80034b0:	9b0c      	ldr	r3, [sp, #48]	; 0x30
 80034b2:	3330      	adds	r3, #48	; 0x30
 80034b4:	f805 3b01 	strb.w	r3, [r5], #1
 80034b8:	ec53 2b18 	vmov	r2, r3, d8
 80034bc:	4606      	mov	r6, r0
 80034be:	460f      	mov	r7, r1
 80034c0:	f7fd fb0c 	bl	8000adc <__aeabi_dcmplt>
 80034c4:	2800      	cmp	r0, #0
 80034c6:	d165      	bne.n	8003594 <_dtoa_r+0x63c>
 80034c8:	4632      	mov	r2, r6
 80034ca:	463b      	mov	r3, r7
 80034cc:	4935      	ldr	r1, [pc, #212]	; (80035a4 <_dtoa_r+0x64c>)
 80034ce:	2000      	movs	r0, #0
 80034d0:	f7fc feda 	bl	8000288 <__aeabi_dsub>
 80034d4:	ec53 2b18 	vmov	r2, r3, d8
 80034d8:	f7fd fb00 	bl	8000adc <__aeabi_dcmplt>
 80034dc:	2800      	cmp	r0, #0
 80034de:	f040 80b9 	bne.w	8003654 <_dtoa_r+0x6fc>
 80034e2:	9b02      	ldr	r3, [sp, #8]
 80034e4:	429d      	cmp	r5, r3
 80034e6:	f43f af75 	beq.w	80033d4 <_dtoa_r+0x47c>
 80034ea:	4b2f      	ldr	r3, [pc, #188]	; (80035a8 <_dtoa_r+0x650>)
 80034ec:	ec51 0b18 	vmov	r0, r1, d8
 80034f0:	2200      	movs	r2, #0
 80034f2:	f7fd f881 	bl	80005f8 <__aeabi_dmul>
 80034f6:	4b2c      	ldr	r3, [pc, #176]	; (80035a8 <_dtoa_r+0x650>)
 80034f8:	ec41 0b18 	vmov	d8, r0, r1
 80034fc:	2200      	movs	r2, #0
 80034fe:	4630      	mov	r0, r6
 8003500:	4639      	mov	r1, r7
 8003502:	f7fd f879 	bl	80005f8 <__aeabi_dmul>
 8003506:	4606      	mov	r6, r0
 8003508:	460f      	mov	r7, r1
 800350a:	e7c4      	b.n	8003496 <_dtoa_r+0x53e>
 800350c:	ec51 0b17 	vmov	r0, r1, d7
 8003510:	f7fd f872 	bl	80005f8 <__aeabi_dmul>
 8003514:	9b02      	ldr	r3, [sp, #8]
 8003516:	9d00      	ldr	r5, [sp, #0]
 8003518:	930c      	str	r3, [sp, #48]	; 0x30
 800351a:	ec41 0b18 	vmov	d8, r0, r1
 800351e:	4639      	mov	r1, r7
 8003520:	4630      	mov	r0, r6
 8003522:	f7fd fb19 	bl	8000b58 <__aeabi_d2iz>
 8003526:	9011      	str	r0, [sp, #68]	; 0x44
 8003528:	f7fc fffc 	bl	8000524 <__aeabi_i2d>
 800352c:	4602      	mov	r2, r0
 800352e:	460b      	mov	r3, r1
 8003530:	4630      	mov	r0, r6
 8003532:	4639      	mov	r1, r7
 8003534:	f7fc fea8 	bl	8000288 <__aeabi_dsub>
 8003538:	9b11      	ldr	r3, [sp, #68]	; 0x44
 800353a:	3330      	adds	r3, #48	; 0x30
 800353c:	f805 3b01 	strb.w	r3, [r5], #1
 8003540:	9b02      	ldr	r3, [sp, #8]
 8003542:	429d      	cmp	r5, r3
 8003544:	4606      	mov	r6, r0
 8003546:	460f      	mov	r7, r1
 8003548:	f04f 0200 	mov.w	r2, #0
 800354c:	d134      	bne.n	80035b8 <_dtoa_r+0x660>
 800354e:	4b19      	ldr	r3, [pc, #100]	; (80035b4 <_dtoa_r+0x65c>)
 8003550:	ec51 0b18 	vmov	r0, r1, d8
 8003554:	f7fc fe9a 	bl	800028c <__adddf3>
 8003558:	4602      	mov	r2, r0
 800355a:	460b      	mov	r3, r1
 800355c:	4630      	mov	r0, r6
 800355e:	4639      	mov	r1, r7
 8003560:	f7fd fada 	bl	8000b18 <__aeabi_dcmpgt>
 8003564:	2800      	cmp	r0, #0
 8003566:	d175      	bne.n	8003654 <_dtoa_r+0x6fc>
 8003568:	ec53 2b18 	vmov	r2, r3, d8
 800356c:	4911      	ldr	r1, [pc, #68]	; (80035b4 <_dtoa_r+0x65c>)
 800356e:	2000      	movs	r0, #0
 8003570:	f7fc fe8a 	bl	8000288 <__aeabi_dsub>
 8003574:	4602      	mov	r2, r0
 8003576:	460b      	mov	r3, r1
 8003578:	4630      	mov	r0, r6
 800357a:	4639      	mov	r1, r7
 800357c:	f7fd faae 	bl	8000adc <__aeabi_dcmplt>
 8003580:	2800      	cmp	r0, #0
 8003582:	f43f af27 	beq.w	80033d4 <_dtoa_r+0x47c>
 8003586:	9d0c      	ldr	r5, [sp, #48]	; 0x30
 8003588:	1e6b      	subs	r3, r5, #1
 800358a:	930c      	str	r3, [sp, #48]	; 0x30
 800358c:	f815 3c01 	ldrb.w	r3, [r5, #-1]
 8003590:	2b30      	cmp	r3, #48	; 0x30
 8003592:	d0f8      	beq.n	8003586 <_dtoa_r+0x62e>
 8003594:	f8dd a01c 	ldr.w	sl, [sp, #28]
 8003598:	e04a      	b.n	8003630 <_dtoa_r+0x6d8>
 800359a:	bf00      	nop
 800359c:	0801c848 	.word	0x0801c848
 80035a0:	0801c820 	.word	0x0801c820
 80035a4:	3ff00000 	.word	0x3ff00000
 80035a8:	40240000 	.word	0x40240000
 80035ac:	401c0000 	.word	0x401c0000
 80035b0:	40140000 	.word	0x40140000
 80035b4:	3fe00000 	.word	0x3fe00000
 80035b8:	4baf      	ldr	r3, [pc, #700]	; (8003878 <_dtoa_r+0x920>)
 80035ba:	f7fd f81d 	bl	80005f8 <__aeabi_dmul>
 80035be:	4606      	mov	r6, r0
 80035c0:	460f      	mov	r7, r1
 80035c2:	e7ac      	b.n	800351e <_dtoa_r+0x5c6>
 80035c4:	e9dd 6702 	ldrd	r6, r7, [sp, #8]
 80035c8:	9d00      	ldr	r5, [sp, #0]
 80035ca:	4642      	mov	r2, r8
 80035cc:	464b      	mov	r3, r9
 80035ce:	4630      	mov	r0, r6
 80035d0:	4639      	mov	r1, r7
 80035d2:	f7fd f93b 	bl	800084c <__aeabi_ddiv>
 80035d6:	f7fd fabf 	bl	8000b58 <__aeabi_d2iz>
 80035da:	9002      	str	r0, [sp, #8]
 80035dc:	f7fc ffa2 	bl	8000524 <__aeabi_i2d>
 80035e0:	4642      	mov	r2, r8
 80035e2:	464b      	mov	r3, r9
 80035e4:	f7fd f808 	bl	80005f8 <__aeabi_dmul>
 80035e8:	4602      	mov	r2, r0
 80035ea:	460b      	mov	r3, r1
 80035ec:	4630      	mov	r0, r6
 80035ee:	4639      	mov	r1, r7
 80035f0:	f7fc fe4a 	bl	8000288 <__aeabi_dsub>
 80035f4:	9e02      	ldr	r6, [sp, #8]
 80035f6:	9f01      	ldr	r7, [sp, #4]
 80035f8:	3630      	adds	r6, #48	; 0x30
 80035fa:	f805 6b01 	strb.w	r6, [r5], #1
 80035fe:	9e00      	ldr	r6, [sp, #0]
 8003600:	1bae      	subs	r6, r5, r6
 8003602:	42b7      	cmp	r7, r6
 8003604:	4602      	mov	r2, r0
 8003606:	460b      	mov	r3, r1
 8003608:	d137      	bne.n	800367a <_dtoa_r+0x722>
 800360a:	f7fc fe3f 	bl	800028c <__adddf3>
 800360e:	4642      	mov	r2, r8
 8003610:	464b      	mov	r3, r9
 8003612:	4606      	mov	r6, r0
 8003614:	460f      	mov	r7, r1
 8003616:	f7fd fa7f 	bl	8000b18 <__aeabi_dcmpgt>
 800361a:	b9c8      	cbnz	r0, 8003650 <_dtoa_r+0x6f8>
 800361c:	4642      	mov	r2, r8
 800361e:	464b      	mov	r3, r9
 8003620:	4630      	mov	r0, r6
 8003622:	4639      	mov	r1, r7
 8003624:	f7fd fa50 	bl	8000ac8 <__aeabi_dcmpeq>
 8003628:	b110      	cbz	r0, 8003630 <_dtoa_r+0x6d8>
 800362a:	9b02      	ldr	r3, [sp, #8]
 800362c:	07d9      	lsls	r1, r3, #31
 800362e:	d40f      	bmi.n	8003650 <_dtoa_r+0x6f8>
 8003630:	4620      	mov	r0, r4
 8003632:	4659      	mov	r1, fp
 8003634:	f000 fac8 	bl	8003bc8 <_Bfree>
 8003638:	2300      	movs	r3, #0
 800363a:	702b      	strb	r3, [r5, #0]
 800363c:	9b0f      	ldr	r3, [sp, #60]	; 0x3c
 800363e:	f10a 0001 	add.w	r0, sl, #1
 8003642:	6018      	str	r0, [r3, #0]
 8003644:	9b21      	ldr	r3, [sp, #132]	; 0x84
 8003646:	2b00      	cmp	r3, #0
 8003648:	f43f acd8 	beq.w	8002ffc <_dtoa_r+0xa4>
 800364c:	601d      	str	r5, [r3, #0]
 800364e:	e4d5      	b.n	8002ffc <_dtoa_r+0xa4>
 8003650:	f8cd a01c 	str.w	sl, [sp, #28]
 8003654:	462b      	mov	r3, r5
 8003656:	461d      	mov	r5, r3
 8003658:	f813 2d01 	ldrb.w	r2, [r3, #-1]!
 800365c:	2a39      	cmp	r2, #57	; 0x39
 800365e:	d108      	bne.n	8003672 <_dtoa_r+0x71a>
 8003660:	9a00      	ldr	r2, [sp, #0]
 8003662:	429a      	cmp	r2, r3
 8003664:	d1f7      	bne.n	8003656 <_dtoa_r+0x6fe>
 8003666:	9a07      	ldr	r2, [sp, #28]
 8003668:	9900      	ldr	r1, [sp, #0]
 800366a:	3201      	adds	r2, #1
 800366c:	9207      	str	r2, [sp, #28]
 800366e:	2230      	movs	r2, #48	; 0x30
 8003670:	700a      	strb	r2, [r1, #0]
 8003672:	781a      	ldrb	r2, [r3, #0]
 8003674:	3201      	adds	r2, #1
 8003676:	701a      	strb	r2, [r3, #0]
 8003678:	e78c      	b.n	8003594 <_dtoa_r+0x63c>
 800367a:	4b7f      	ldr	r3, [pc, #508]	; (8003878 <_dtoa_r+0x920>)
 800367c:	2200      	movs	r2, #0
 800367e:	f7fc ffbb 	bl	80005f8 <__aeabi_dmul>
 8003682:	2200      	movs	r2, #0
 8003684:	2300      	movs	r3, #0
 8003686:	4606      	mov	r6, r0
 8003688:	460f      	mov	r7, r1
 800368a:	f7fd fa1d 	bl	8000ac8 <__aeabi_dcmpeq>
 800368e:	2800      	cmp	r0, #0
 8003690:	d09b      	beq.n	80035ca <_dtoa_r+0x672>
 8003692:	e7cd      	b.n	8003630 <_dtoa_r+0x6d8>
 8003694:	9a08      	ldr	r2, [sp, #32]
 8003696:	2a00      	cmp	r2, #0
 8003698:	f000 80c4 	beq.w	8003824 <_dtoa_r+0x8cc>
 800369c:	9a05      	ldr	r2, [sp, #20]
 800369e:	2a01      	cmp	r2, #1
 80036a0:	f300 80a8 	bgt.w	80037f4 <_dtoa_r+0x89c>
 80036a4:	9a10      	ldr	r2, [sp, #64]	; 0x40
 80036a6:	2a00      	cmp	r2, #0
 80036a8:	f000 80a0 	beq.w	80037ec <_dtoa_r+0x894>
 80036ac:	f203 4333 	addw	r3, r3, #1075	; 0x433
 80036b0:	9e06      	ldr	r6, [sp, #24]
 80036b2:	4645      	mov	r5, r8
 80036b4:	9a04      	ldr	r2, [sp, #16]
 80036b6:	2101      	movs	r1, #1
 80036b8:	441a      	add	r2, r3
 80036ba:	4620      	mov	r0, r4
 80036bc:	4498      	add	r8, r3
 80036be:	9204      	str	r2, [sp, #16]
 80036c0:	f000 fb3e 	bl	8003d40 <__i2b>
 80036c4:	4607      	mov	r7, r0
 80036c6:	2d00      	cmp	r5, #0
 80036c8:	dd0b      	ble.n	80036e2 <_dtoa_r+0x78a>
 80036ca:	9b04      	ldr	r3, [sp, #16]
 80036cc:	2b00      	cmp	r3, #0
 80036ce:	dd08      	ble.n	80036e2 <_dtoa_r+0x78a>
 80036d0:	42ab      	cmp	r3, r5
 80036d2:	9a04      	ldr	r2, [sp, #16]
 80036d4:	bfa8      	it	ge
 80036d6:	462b      	movge	r3, r5
 80036d8:	eba8 0803 	sub.w	r8, r8, r3
 80036dc:	1aed      	subs	r5, r5, r3
 80036de:	1ad3      	subs	r3, r2, r3
 80036e0:	9304      	str	r3, [sp, #16]
 80036e2:	9b06      	ldr	r3, [sp, #24]
 80036e4:	b1fb      	cbz	r3, 8003726 <_dtoa_r+0x7ce>
 80036e6:	9b08      	ldr	r3, [sp, #32]
 80036e8:	2b00      	cmp	r3, #0
 80036ea:	f000 809f 	beq.w	800382c <_dtoa_r+0x8d4>
 80036ee:	2e00      	cmp	r6, #0
 80036f0:	dd11      	ble.n	8003716 <_dtoa_r+0x7be>
 80036f2:	4639      	mov	r1, r7
 80036f4:	4632      	mov	r2, r6
 80036f6:	4620      	mov	r0, r4
 80036f8:	f000 fbde 	bl	8003eb8 <__pow5mult>
 80036fc:	465a      	mov	r2, fp
 80036fe:	4601      	mov	r1, r0
 8003700:	4607      	mov	r7, r0
 8003702:	4620      	mov	r0, r4
 8003704:	f000 fb32 	bl	8003d6c <__multiply>
 8003708:	4659      	mov	r1, fp
 800370a:	9007      	str	r0, [sp, #28]
 800370c:	4620      	mov	r0, r4
 800370e:	f000 fa5b 	bl	8003bc8 <_Bfree>
 8003712:	9b07      	ldr	r3, [sp, #28]
 8003714:	469b      	mov	fp, r3
 8003716:	9b06      	ldr	r3, [sp, #24]
 8003718:	1b9a      	subs	r2, r3, r6
 800371a:	d004      	beq.n	8003726 <_dtoa_r+0x7ce>
 800371c:	4659      	mov	r1, fp
 800371e:	4620      	mov	r0, r4
 8003720:	f000 fbca 	bl	8003eb8 <__pow5mult>
 8003724:	4683      	mov	fp, r0
 8003726:	2101      	movs	r1, #1
 8003728:	4620      	mov	r0, r4
 800372a:	f000 fb09 	bl	8003d40 <__i2b>
 800372e:	9b0d      	ldr	r3, [sp, #52]	; 0x34
 8003730:	2b00      	cmp	r3, #0
 8003732:	4606      	mov	r6, r0
 8003734:	dd7c      	ble.n	8003830 <_dtoa_r+0x8d8>
 8003736:	461a      	mov	r2, r3
 8003738:	4601      	mov	r1, r0
 800373a:	4620      	mov	r0, r4
 800373c:	f000 fbbc 	bl	8003eb8 <__pow5mult>
 8003740:	9b05      	ldr	r3, [sp, #20]
 8003742:	2b01      	cmp	r3, #1
 8003744:	4606      	mov	r6, r0
 8003746:	dd76      	ble.n	8003836 <_dtoa_r+0x8de>
 8003748:	2300      	movs	r3, #0
 800374a:	9306      	str	r3, [sp, #24]
 800374c:	6933      	ldr	r3, [r6, #16]
 800374e:	eb06 0383 	add.w	r3, r6, r3, lsl #2
 8003752:	6918      	ldr	r0, [r3, #16]
 8003754:	f000 faa4 	bl	8003ca0 <__hi0bits>
 8003758:	f1c0 0020 	rsb	r0, r0, #32
 800375c:	9b04      	ldr	r3, [sp, #16]
 800375e:	4418      	add	r0, r3
 8003760:	f010 001f 	ands.w	r0, r0, #31
 8003764:	f000 8086 	beq.w	8003874 <_dtoa_r+0x91c>
 8003768:	f1c0 0320 	rsb	r3, r0, #32
 800376c:	2b04      	cmp	r3, #4
 800376e:	dd7f      	ble.n	8003870 <_dtoa_r+0x918>
 8003770:	f1c0 001c 	rsb	r0, r0, #28
 8003774:	9b04      	ldr	r3, [sp, #16]
 8003776:	4403      	add	r3, r0
 8003778:	4480      	add	r8, r0
 800377a:	4405      	add	r5, r0
 800377c:	9304      	str	r3, [sp, #16]
 800377e:	f1b8 0f00 	cmp.w	r8, #0
 8003782:	dd05      	ble.n	8003790 <_dtoa_r+0x838>
 8003784:	4659      	mov	r1, fp
 8003786:	4642      	mov	r2, r8
 8003788:	4620      	mov	r0, r4
 800378a:	f000 fbef 	bl	8003f6c <__lshift>
 800378e:	4683      	mov	fp, r0
 8003790:	9b04      	ldr	r3, [sp, #16]
 8003792:	2b00      	cmp	r3, #0
 8003794:	dd05      	ble.n	80037a2 <_dtoa_r+0x84a>
 8003796:	4631      	mov	r1, r6
 8003798:	461a      	mov	r2, r3
 800379a:	4620      	mov	r0, r4
 800379c:	f000 fbe6 	bl	8003f6c <__lshift>
 80037a0:	4606      	mov	r6, r0
 80037a2:	9b0e      	ldr	r3, [sp, #56]	; 0x38
 80037a4:	2b00      	cmp	r3, #0
 80037a6:	d069      	beq.n	800387c <_dtoa_r+0x924>
 80037a8:	4631      	mov	r1, r6
 80037aa:	4658      	mov	r0, fp
 80037ac:	f000 fc4a 	bl	8004044 <__mcmp>
 80037b0:	2800      	cmp	r0, #0
 80037b2:	da63      	bge.n	800387c <_dtoa_r+0x924>
 80037b4:	2300      	movs	r3, #0
 80037b6:	4659      	mov	r1, fp
 80037b8:	220a      	movs	r2, #10
 80037ba:	4620      	mov	r0, r4
 80037bc:	f000 fa26 	bl	8003c0c <__multadd>
 80037c0:	9b08      	ldr	r3, [sp, #32]
 80037c2:	f10a 3aff 	add.w	sl, sl, #4294967295	; 0xffffffff
 80037c6:	4683      	mov	fp, r0
 80037c8:	2b00      	cmp	r3, #0
 80037ca:	f000 818f 	beq.w	8003aec <_dtoa_r+0xb94>
 80037ce:	4639      	mov	r1, r7
 80037d0:	2300      	movs	r3, #0
 80037d2:	220a      	movs	r2, #10
 80037d4:	4620      	mov	r0, r4
 80037d6:	f000 fa19 	bl	8003c0c <__multadd>
 80037da:	f1b9 0f00 	cmp.w	r9, #0
 80037de:	4607      	mov	r7, r0
 80037e0:	f300 808e 	bgt.w	8003900 <_dtoa_r+0x9a8>
 80037e4:	9b05      	ldr	r3, [sp, #20]
 80037e6:	2b02      	cmp	r3, #2
 80037e8:	dc50      	bgt.n	800388c <_dtoa_r+0x934>
 80037ea:	e089      	b.n	8003900 <_dtoa_r+0x9a8>
 80037ec:	9b12      	ldr	r3, [sp, #72]	; 0x48
 80037ee:	f1c3 0336 	rsb	r3, r3, #54	; 0x36
 80037f2:	e75d      	b.n	80036b0 <_dtoa_r+0x758>
 80037f4:	9b01      	ldr	r3, [sp, #4]
 80037f6:	1e5e      	subs	r6, r3, #1
 80037f8:	9b06      	ldr	r3, [sp, #24]
 80037fa:	42b3      	cmp	r3, r6
 80037fc:	bfbf      	itttt	lt
 80037fe:	9b06      	ldrlt	r3, [sp, #24]
 8003800:	9606      	strlt	r6, [sp, #24]
 8003802:	1af2      	sublt	r2, r6, r3
 8003804:	9b0d      	ldrlt	r3, [sp, #52]	; 0x34
 8003806:	bfb6      	itet	lt
 8003808:	189b      	addlt	r3, r3, r2
 800380a:	1b9e      	subge	r6, r3, r6
 800380c:	930d      	strlt	r3, [sp, #52]	; 0x34
 800380e:	9b01      	ldr	r3, [sp, #4]
 8003810:	bfb8      	it	lt
 8003812:	2600      	movlt	r6, #0
 8003814:	2b00      	cmp	r3, #0
 8003816:	bfb5      	itete	lt
 8003818:	eba8 0503 	sublt.w	r5, r8, r3
 800381c:	9b01      	ldrge	r3, [sp, #4]
 800381e:	2300      	movlt	r3, #0
 8003820:	4645      	movge	r5, r8
 8003822:	e747      	b.n	80036b4 <_dtoa_r+0x75c>
 8003824:	9e06      	ldr	r6, [sp, #24]
 8003826:	9f08      	ldr	r7, [sp, #32]
 8003828:	4645      	mov	r5, r8
 800382a:	e74c      	b.n	80036c6 <_dtoa_r+0x76e>
 800382c:	9a06      	ldr	r2, [sp, #24]
 800382e:	e775      	b.n	800371c <_dtoa_r+0x7c4>
 8003830:	9b05      	ldr	r3, [sp, #20]
 8003832:	2b01      	cmp	r3, #1
 8003834:	dc18      	bgt.n	8003868 <_dtoa_r+0x910>
 8003836:	9b02      	ldr	r3, [sp, #8]
 8003838:	b9b3      	cbnz	r3, 8003868 <_dtoa_r+0x910>
 800383a:	9b03      	ldr	r3, [sp, #12]
 800383c:	f3c3 0313 	ubfx	r3, r3, #0, #20
 8003840:	b9a3      	cbnz	r3, 800386c <_dtoa_r+0x914>
 8003842:	9b03      	ldr	r3, [sp, #12]
 8003844:	f023 4300 	bic.w	r3, r3, #2147483648	; 0x80000000
 8003848:	0d1b      	lsrs	r3, r3, #20
 800384a:	051b      	lsls	r3, r3, #20
 800384c:	b12b      	cbz	r3, 800385a <_dtoa_r+0x902>
 800384e:	9b04      	ldr	r3, [sp, #16]
 8003850:	3301      	adds	r3, #1
 8003852:	9304      	str	r3, [sp, #16]
 8003854:	f108 0801 	add.w	r8, r8, #1
 8003858:	2301      	movs	r3, #1
 800385a:	9306      	str	r3, [sp, #24]
 800385c:	9b0d      	ldr	r3, [sp, #52]	; 0x34
 800385e:	2b00      	cmp	r3, #0
 8003860:	f47f af74 	bne.w	800374c <_dtoa_r+0x7f4>
 8003864:	2001      	movs	r0, #1
 8003866:	e779      	b.n	800375c <_dtoa_r+0x804>
 8003868:	2300      	movs	r3, #0
 800386a:	e7f6      	b.n	800385a <_dtoa_r+0x902>
 800386c:	9b02      	ldr	r3, [sp, #8]
 800386e:	e7f4      	b.n	800385a <_dtoa_r+0x902>
 8003870:	d085      	beq.n	800377e <_dtoa_r+0x826>
 8003872:	4618      	mov	r0, r3
 8003874:	301c      	adds	r0, #28
 8003876:	e77d      	b.n	8003774 <_dtoa_r+0x81c>
 8003878:	40240000 	.word	0x40240000
 800387c:	9b01      	ldr	r3, [sp, #4]
 800387e:	2b00      	cmp	r3, #0
 8003880:	dc38      	bgt.n	80038f4 <_dtoa_r+0x99c>
 8003882:	9b05      	ldr	r3, [sp, #20]
 8003884:	2b02      	cmp	r3, #2
 8003886:	dd35      	ble.n	80038f4 <_dtoa_r+0x99c>
 8003888:	f8dd 9004 	ldr.w	r9, [sp, #4]
 800388c:	f1b9 0f00 	cmp.w	r9, #0
 8003890:	d10d      	bne.n	80038ae <_dtoa_r+0x956>
 8003892:	4631      	mov	r1, r6
 8003894:	464b      	mov	r3, r9
 8003896:	2205      	movs	r2, #5
 8003898:	4620      	mov	r0, r4
 800389a:	f000 f9b7 	bl	8003c0c <__multadd>
 800389e:	4601      	mov	r1, r0
 80038a0:	4606      	mov	r6, r0
 80038a2:	4658      	mov	r0, fp
 80038a4:	f000 fbce 	bl	8004044 <__mcmp>
 80038a8:	2800      	cmp	r0, #0
 80038aa:	f73f adbd 	bgt.w	8003428 <_dtoa_r+0x4d0>
 80038ae:	9b09      	ldr	r3, [sp, #36]	; 0x24
 80038b0:	9d00      	ldr	r5, [sp, #0]
 80038b2:	ea6f 0a03 	mvn.w	sl, r3
 80038b6:	f04f 0800 	mov.w	r8, #0
 80038ba:	4631      	mov	r1, r6
 80038bc:	4620      	mov	r0, r4
 80038be:	f000 f983 	bl	8003bc8 <_Bfree>
 80038c2:	2f00      	cmp	r7, #0
 80038c4:	f43f aeb4 	beq.w	8003630 <_dtoa_r+0x6d8>
 80038c8:	f1b8 0f00 	cmp.w	r8, #0
 80038cc:	d005      	beq.n	80038da <_dtoa_r+0x982>
 80038ce:	45b8      	cmp	r8, r7
 80038d0:	d003      	beq.n	80038da <_dtoa_r+0x982>
 80038d2:	4641      	mov	r1, r8
 80038d4:	4620      	mov	r0, r4
 80038d6:	f000 f977 	bl	8003bc8 <_Bfree>
 80038da:	4639      	mov	r1, r7
 80038dc:	4620      	mov	r0, r4
 80038de:	f000 f973 	bl	8003bc8 <_Bfree>
 80038e2:	e6a5      	b.n	8003630 <_dtoa_r+0x6d8>
 80038e4:	2600      	movs	r6, #0
 80038e6:	4637      	mov	r7, r6
 80038e8:	e7e1      	b.n	80038ae <_dtoa_r+0x956>
 80038ea:	9e0c      	ldr	r6, [sp, #48]	; 0x30
 80038ec:	f8dd a01c 	ldr.w	sl, [sp, #28]
 80038f0:	4637      	mov	r7, r6
 80038f2:	e599      	b.n	8003428 <_dtoa_r+0x4d0>
 80038f4:	9b08      	ldr	r3, [sp, #32]
 80038f6:	f8dd 9004 	ldr.w	r9, [sp, #4]
 80038fa:	2b00      	cmp	r3, #0
 80038fc:	f000 80fd 	beq.w	8003afa <_dtoa_r+0xba2>
 8003900:	2d00      	cmp	r5, #0
 8003902:	dd05      	ble.n	8003910 <_dtoa_r+0x9b8>
 8003904:	4639      	mov	r1, r7
 8003906:	462a      	mov	r2, r5
 8003908:	4620      	mov	r0, r4
 800390a:	f000 fb2f 	bl	8003f6c <__lshift>
 800390e:	4607      	mov	r7, r0
 8003910:	9b06      	ldr	r3, [sp, #24]
 8003912:	2b00      	cmp	r3, #0
 8003914:	d05c      	beq.n	80039d0 <_dtoa_r+0xa78>
 8003916:	6879      	ldr	r1, [r7, #4]
 8003918:	4620      	mov	r0, r4
 800391a:	f000 f915 	bl	8003b48 <_Balloc>
 800391e:	4605      	mov	r5, r0
 8003920:	b928      	cbnz	r0, 800392e <_dtoa_r+0x9d6>
 8003922:	4b80      	ldr	r3, [pc, #512]	; (8003b24 <_dtoa_r+0xbcc>)
 8003924:	4602      	mov	r2, r0
 8003926:	f240 21ea 	movw	r1, #746	; 0x2ea
 800392a:	f7ff bb2e 	b.w	8002f8a <_dtoa_r+0x32>
 800392e:	693a      	ldr	r2, [r7, #16]
 8003930:	3202      	adds	r2, #2
 8003932:	0092      	lsls	r2, r2, #2
 8003934:	f107 010c 	add.w	r1, r7, #12
 8003938:	300c      	adds	r0, #12
 800393a:	f7fe fde1 	bl	8002500 <memcpy>
 800393e:	2201      	movs	r2, #1
 8003940:	4629      	mov	r1, r5
 8003942:	4620      	mov	r0, r4
 8003944:	f000 fb12 	bl	8003f6c <__lshift>
 8003948:	9b00      	ldr	r3, [sp, #0]
 800394a:	3301      	adds	r3, #1
 800394c:	9301      	str	r3, [sp, #4]
 800394e:	9b00      	ldr	r3, [sp, #0]
 8003950:	444b      	add	r3, r9
 8003952:	9307      	str	r3, [sp, #28]
 8003954:	9b02      	ldr	r3, [sp, #8]
 8003956:	f003 0301 	and.w	r3, r3, #1
 800395a:	46b8      	mov	r8, r7
 800395c:	9306      	str	r3, [sp, #24]
 800395e:	4607      	mov	r7, r0
 8003960:	9b01      	ldr	r3, [sp, #4]
 8003962:	4631      	mov	r1, r6
 8003964:	3b01      	subs	r3, #1
 8003966:	4658      	mov	r0, fp
 8003968:	9302      	str	r3, [sp, #8]
 800396a:	f7ff fa69 	bl	8002e40 <quorem>
 800396e:	4603      	mov	r3, r0
 8003970:	3330      	adds	r3, #48	; 0x30
 8003972:	9004      	str	r0, [sp, #16]
 8003974:	4641      	mov	r1, r8
 8003976:	4658      	mov	r0, fp
 8003978:	9308      	str	r3, [sp, #32]
 800397a:	f000 fb63 	bl	8004044 <__mcmp>
 800397e:	463a      	mov	r2, r7
 8003980:	4681      	mov	r9, r0
 8003982:	4631      	mov	r1, r6
 8003984:	4620      	mov	r0, r4
 8003986:	f000 fb79 	bl	800407c <__mdiff>
 800398a:	68c2      	ldr	r2, [r0, #12]
 800398c:	9b08      	ldr	r3, [sp, #32]
 800398e:	4605      	mov	r5, r0
 8003990:	bb02      	cbnz	r2, 80039d4 <_dtoa_r+0xa7c>
 8003992:	4601      	mov	r1, r0
 8003994:	4658      	mov	r0, fp
 8003996:	f000 fb55 	bl	8004044 <__mcmp>
 800399a:	9b08      	ldr	r3, [sp, #32]
 800399c:	4602      	mov	r2, r0
 800399e:	4629      	mov	r1, r5
 80039a0:	4620      	mov	r0, r4
 80039a2:	e9cd 3208 	strd	r3, r2, [sp, #32]
 80039a6:	f000 f90f 	bl	8003bc8 <_Bfree>
 80039aa:	9b05      	ldr	r3, [sp, #20]
 80039ac:	9a09      	ldr	r2, [sp, #36]	; 0x24
 80039ae:	9d01      	ldr	r5, [sp, #4]
 80039b0:	ea43 0102 	orr.w	r1, r3, r2
 80039b4:	9b06      	ldr	r3, [sp, #24]
 80039b6:	430b      	orrs	r3, r1
 80039b8:	9b08      	ldr	r3, [sp, #32]
 80039ba:	d10d      	bne.n	80039d8 <_dtoa_r+0xa80>
 80039bc:	2b39      	cmp	r3, #57	; 0x39
 80039be:	d029      	beq.n	8003a14 <_dtoa_r+0xabc>
 80039c0:	f1b9 0f00 	cmp.w	r9, #0
 80039c4:	dd01      	ble.n	80039ca <_dtoa_r+0xa72>
 80039c6:	9b04      	ldr	r3, [sp, #16]
 80039c8:	3331      	adds	r3, #49	; 0x31
 80039ca:	9a02      	ldr	r2, [sp, #8]
 80039cc:	7013      	strb	r3, [r2, #0]
 80039ce:	e774      	b.n	80038ba <_dtoa_r+0x962>
 80039d0:	4638      	mov	r0, r7
 80039d2:	e7b9      	b.n	8003948 <_dtoa_r+0x9f0>
 80039d4:	2201      	movs	r2, #1
 80039d6:	e7e2      	b.n	800399e <_dtoa_r+0xa46>
 80039d8:	f1b9 0f00 	cmp.w	r9, #0
 80039dc:	db06      	blt.n	80039ec <_dtoa_r+0xa94>
 80039de:	9905      	ldr	r1, [sp, #20]
 80039e0:	ea41 0909 	orr.w	r9, r1, r9
 80039e4:	9906      	ldr	r1, [sp, #24]
 80039e6:	ea59 0101 	orrs.w	r1, r9, r1
 80039ea:	d120      	bne.n	8003a2e <_dtoa_r+0xad6>
 80039ec:	2a00      	cmp	r2, #0
 80039ee:	ddec      	ble.n	80039ca <_dtoa_r+0xa72>
 80039f0:	4659      	mov	r1, fp
 80039f2:	2201      	movs	r2, #1
 80039f4:	4620      	mov	r0, r4
 80039f6:	9301      	str	r3, [sp, #4]
 80039f8:	f000 fab8 	bl	8003f6c <__lshift>
 80039fc:	4631      	mov	r1, r6
 80039fe:	4683      	mov	fp, r0
 8003a00:	f000 fb20 	bl	8004044 <__mcmp>
 8003a04:	2800      	cmp	r0, #0
 8003a06:	9b01      	ldr	r3, [sp, #4]
 8003a08:	dc02      	bgt.n	8003a10 <_dtoa_r+0xab8>
 8003a0a:	d1de      	bne.n	80039ca <_dtoa_r+0xa72>
 8003a0c:	07da      	lsls	r2, r3, #31
 8003a0e:	d5dc      	bpl.n	80039ca <_dtoa_r+0xa72>
 8003a10:	2b39      	cmp	r3, #57	; 0x39
 8003a12:	d1d8      	bne.n	80039c6 <_dtoa_r+0xa6e>
 8003a14:	9a02      	ldr	r2, [sp, #8]
 8003a16:	2339      	movs	r3, #57	; 0x39
 8003a18:	7013      	strb	r3, [r2, #0]
 8003a1a:	462b      	mov	r3, r5
 8003a1c:	461d      	mov	r5, r3
 8003a1e:	3b01      	subs	r3, #1
 8003a20:	f815 2c01 	ldrb.w	r2, [r5, #-1]
 8003a24:	2a39      	cmp	r2, #57	; 0x39
 8003a26:	d050      	beq.n	8003aca <_dtoa_r+0xb72>
 8003a28:	3201      	adds	r2, #1
 8003a2a:	701a      	strb	r2, [r3, #0]
 8003a2c:	e745      	b.n	80038ba <_dtoa_r+0x962>
 8003a2e:	2a00      	cmp	r2, #0
 8003a30:	dd03      	ble.n	8003a3a <_dtoa_r+0xae2>
 8003a32:	2b39      	cmp	r3, #57	; 0x39
 8003a34:	d0ee      	beq.n	8003a14 <_dtoa_r+0xabc>
 8003a36:	3301      	adds	r3, #1
 8003a38:	e7c7      	b.n	80039ca <_dtoa_r+0xa72>
 8003a3a:	9a01      	ldr	r2, [sp, #4]
 8003a3c:	9907      	ldr	r1, [sp, #28]
 8003a3e:	f802 3c01 	strb.w	r3, [r2, #-1]
 8003a42:	428a      	cmp	r2, r1
 8003a44:	d02a      	beq.n	8003a9c <_dtoa_r+0xb44>
 8003a46:	4659      	mov	r1, fp
 8003a48:	2300      	movs	r3, #0
 8003a4a:	220a      	movs	r2, #10
 8003a4c:	4620      	mov	r0, r4
 8003a4e:	f000 f8dd 	bl	8003c0c <__multadd>
 8003a52:	45b8      	cmp	r8, r7
 8003a54:	4683      	mov	fp, r0
 8003a56:	f04f 0300 	mov.w	r3, #0
 8003a5a:	f04f 020a 	mov.w	r2, #10
 8003a5e:	4641      	mov	r1, r8
 8003a60:	4620      	mov	r0, r4
 8003a62:	d107      	bne.n	8003a74 <_dtoa_r+0xb1c>
 8003a64:	f000 f8d2 	bl	8003c0c <__multadd>
 8003a68:	4680      	mov	r8, r0
 8003a6a:	4607      	mov	r7, r0
 8003a6c:	9b01      	ldr	r3, [sp, #4]
 8003a6e:	3301      	adds	r3, #1
 8003a70:	9301      	str	r3, [sp, #4]
 8003a72:	e775      	b.n	8003960 <_dtoa_r+0xa08>
 8003a74:	f000 f8ca 	bl	8003c0c <__multadd>
 8003a78:	4639      	mov	r1, r7
 8003a7a:	4680      	mov	r8, r0
 8003a7c:	2300      	movs	r3, #0
 8003a7e:	220a      	movs	r2, #10
 8003a80:	4620      	mov	r0, r4
 8003a82:	f000 f8c3 	bl	8003c0c <__multadd>
 8003a86:	4607      	mov	r7, r0
 8003a88:	e7f0      	b.n	8003a6c <_dtoa_r+0xb14>
 8003a8a:	f1b9 0f00 	cmp.w	r9, #0
 8003a8e:	9a00      	ldr	r2, [sp, #0]
 8003a90:	bfcc      	ite	gt
 8003a92:	464d      	movgt	r5, r9
 8003a94:	2501      	movle	r5, #1
 8003a96:	4415      	add	r5, r2
 8003a98:	f04f 0800 	mov.w	r8, #0
 8003a9c:	4659      	mov	r1, fp
 8003a9e:	2201      	movs	r2, #1
 8003aa0:	4620      	mov	r0, r4
 8003aa2:	9301      	str	r3, [sp, #4]
 8003aa4:	f000 fa62 	bl	8003f6c <__lshift>
 8003aa8:	4631      	mov	r1, r6
 8003aaa:	4683      	mov	fp, r0
 8003aac:	f000 faca 	bl	8004044 <__mcmp>
 8003ab0:	2800      	cmp	r0, #0
 8003ab2:	dcb2      	bgt.n	8003a1a <_dtoa_r+0xac2>
 8003ab4:	d102      	bne.n	8003abc <_dtoa_r+0xb64>
 8003ab6:	9b01      	ldr	r3, [sp, #4]
 8003ab8:	07db      	lsls	r3, r3, #31
 8003aba:	d4ae      	bmi.n	8003a1a <_dtoa_r+0xac2>
 8003abc:	462b      	mov	r3, r5
 8003abe:	461d      	mov	r5, r3
 8003ac0:	f813 2d01 	ldrb.w	r2, [r3, #-1]!
 8003ac4:	2a30      	cmp	r2, #48	; 0x30
 8003ac6:	d0fa      	beq.n	8003abe <_dtoa_r+0xb66>
 8003ac8:	e6f7      	b.n	80038ba <_dtoa_r+0x962>
 8003aca:	9a00      	ldr	r2, [sp, #0]
 8003acc:	429a      	cmp	r2, r3
 8003ace:	d1a5      	bne.n	8003a1c <_dtoa_r+0xac4>
 8003ad0:	f10a 0a01 	add.w	sl, sl, #1
 8003ad4:	2331      	movs	r3, #49	; 0x31
 8003ad6:	e779      	b.n	80039cc <_dtoa_r+0xa74>
 8003ad8:	4b13      	ldr	r3, [pc, #76]	; (8003b28 <_dtoa_r+0xbd0>)
 8003ada:	f7ff baaf 	b.w	800303c <_dtoa_r+0xe4>
 8003ade:	9b21      	ldr	r3, [sp, #132]	; 0x84
 8003ae0:	2b00      	cmp	r3, #0
 8003ae2:	f47f aa86 	bne.w	8002ff2 <_dtoa_r+0x9a>
 8003ae6:	4b11      	ldr	r3, [pc, #68]	; (8003b2c <_dtoa_r+0xbd4>)
 8003ae8:	f7ff baa8 	b.w	800303c <_dtoa_r+0xe4>
 8003aec:	f1b9 0f00 	cmp.w	r9, #0
 8003af0:	dc03      	bgt.n	8003afa <_dtoa_r+0xba2>
 8003af2:	9b05      	ldr	r3, [sp, #20]
 8003af4:	2b02      	cmp	r3, #2
 8003af6:	f73f aec9 	bgt.w	800388c <_dtoa_r+0x934>
 8003afa:	9d00      	ldr	r5, [sp, #0]
 8003afc:	4631      	mov	r1, r6
 8003afe:	4658      	mov	r0, fp
 8003b00:	f7ff f99e 	bl	8002e40 <quorem>
 8003b04:	f100 0330 	add.w	r3, r0, #48	; 0x30
 8003b08:	f805 3b01 	strb.w	r3, [r5], #1
 8003b0c:	9a00      	ldr	r2, [sp, #0]
 8003b0e:	1aaa      	subs	r2, r5, r2
 8003b10:	4591      	cmp	r9, r2
 8003b12:	ddba      	ble.n	8003a8a <_dtoa_r+0xb32>
 8003b14:	4659      	mov	r1, fp
 8003b16:	2300      	movs	r3, #0
 8003b18:	220a      	movs	r2, #10
 8003b1a:	4620      	mov	r0, r4
 8003b1c:	f000 f876 	bl	8003c0c <__multadd>
 8003b20:	4683      	mov	fp, r0
 8003b22:	e7eb      	b.n	8003afc <_dtoa_r+0xba4>
 8003b24:	0801c790 	.word	0x0801c790
 8003b28:	0801c6cc 	.word	0x0801c6cc
 8003b2c:	0801c6f0 	.word	0x0801c6f0

08003b30 <_localeconv_r>:
 8003b30:	4800      	ldr	r0, [pc, #0]	; (8003b34 <_localeconv_r+0x4>)
 8003b32:	4770      	bx	lr
 8003b34:	20018e50 	.word	0x20018e50

08003b38 <malloc>:
 8003b38:	4b02      	ldr	r3, [pc, #8]	; (8003b44 <malloc+0xc>)
 8003b3a:	4601      	mov	r1, r0
 8003b3c:	6818      	ldr	r0, [r3, #0]
 8003b3e:	f000 bbe1 	b.w	8004304 <_malloc_r>
 8003b42:	bf00      	nop
 8003b44:	20018cfc 	.word	0x20018cfc

08003b48 <_Balloc>:
 8003b48:	b570      	push	{r4, r5, r6, lr}
 8003b4a:	6a46      	ldr	r6, [r0, #36]	; 0x24
 8003b4c:	4604      	mov	r4, r0
 8003b4e:	460d      	mov	r5, r1
 8003b50:	b976      	cbnz	r6, 8003b70 <_Balloc+0x28>
 8003b52:	2010      	movs	r0, #16
 8003b54:	f7ff fff0 	bl	8003b38 <malloc>
 8003b58:	4602      	mov	r2, r0
 8003b5a:	6260      	str	r0, [r4, #36]	; 0x24
 8003b5c:	b920      	cbnz	r0, 8003b68 <_Balloc+0x20>
 8003b5e:	4b18      	ldr	r3, [pc, #96]	; (8003bc0 <_Balloc+0x78>)
 8003b60:	4818      	ldr	r0, [pc, #96]	; (8003bc4 <_Balloc+0x7c>)
 8003b62:	2166      	movs	r1, #102	; 0x66
 8003b64:	f000 fd94 	bl	8004690 <__assert_func>
 8003b68:	e9c0 6601 	strd	r6, r6, [r0, #4]
 8003b6c:	6006      	str	r6, [r0, #0]
 8003b6e:	60c6      	str	r6, [r0, #12]
 8003b70:	6a66      	ldr	r6, [r4, #36]	; 0x24
 8003b72:	68f3      	ldr	r3, [r6, #12]
 8003b74:	b183      	cbz	r3, 8003b98 <_Balloc+0x50>
 8003b76:	6a63      	ldr	r3, [r4, #36]	; 0x24
 8003b78:	68db      	ldr	r3, [r3, #12]
 8003b7a:	f853 0025 	ldr.w	r0, [r3, r5, lsl #2]
 8003b7e:	b9b8      	cbnz	r0, 8003bb0 <_Balloc+0x68>
 8003b80:	2101      	movs	r1, #1
 8003b82:	fa01 f605 	lsl.w	r6, r1, r5
 8003b86:	1d72      	adds	r2, r6, #5
 8003b88:	0092      	lsls	r2, r2, #2
 8003b8a:	4620      	mov	r0, r4
 8003b8c:	f000 fb5a 	bl	8004244 <_calloc_r>
 8003b90:	b160      	cbz	r0, 8003bac <_Balloc+0x64>
 8003b92:	e9c0 5601 	strd	r5, r6, [r0, #4]
 8003b96:	e00e      	b.n	8003bb6 <_Balloc+0x6e>
 8003b98:	2221      	movs	r2, #33	; 0x21
 8003b9a:	2104      	movs	r1, #4
 8003b9c:	4620      	mov	r0, r4
 8003b9e:	f000 fb51 	bl	8004244 <_calloc_r>
 8003ba2:	6a63      	ldr	r3, [r4, #36]	; 0x24
 8003ba4:	60f0      	str	r0, [r6, #12]
 8003ba6:	68db      	ldr	r3, [r3, #12]
 8003ba8:	2b00      	cmp	r3, #0
 8003baa:	d1e4      	bne.n	8003b76 <_Balloc+0x2e>
 8003bac:	2000      	movs	r0, #0
 8003bae:	bd70      	pop	{r4, r5, r6, pc}
 8003bb0:	6802      	ldr	r2, [r0, #0]
 8003bb2:	f843 2025 	str.w	r2, [r3, r5, lsl #2]
 8003bb6:	2300      	movs	r3, #0
 8003bb8:	e9c0 3303 	strd	r3, r3, [r0, #12]
 8003bbc:	e7f7      	b.n	8003bae <_Balloc+0x66>
 8003bbe:	bf00      	nop
 8003bc0:	0801c6fd 	.word	0x0801c6fd
 8003bc4:	0801c7a1 	.word	0x0801c7a1

08003bc8 <_Bfree>:
 8003bc8:	b570      	push	{r4, r5, r6, lr}
 8003bca:	6a46      	ldr	r6, [r0, #36]	; 0x24
 8003bcc:	4605      	mov	r5, r0
 8003bce:	460c      	mov	r4, r1
 8003bd0:	b976      	cbnz	r6, 8003bf0 <_Bfree+0x28>
 8003bd2:	2010      	movs	r0, #16
 8003bd4:	f7ff ffb0 	bl	8003b38 <malloc>
 8003bd8:	4602      	mov	r2, r0
 8003bda:	6268      	str	r0, [r5, #36]	; 0x24
 8003bdc:	b920      	cbnz	r0, 8003be8 <_Bfree+0x20>
 8003bde:	4b09      	ldr	r3, [pc, #36]	; (8003c04 <_Bfree+0x3c>)
 8003be0:	4809      	ldr	r0, [pc, #36]	; (8003c08 <_Bfree+0x40>)
 8003be2:	218a      	movs	r1, #138	; 0x8a
 8003be4:	f000 fd54 	bl	8004690 <__assert_func>
 8003be8:	e9c0 6601 	strd	r6, r6, [r0, #4]
 8003bec:	6006      	str	r6, [r0, #0]
 8003bee:	60c6      	str	r6, [r0, #12]
 8003bf0:	b13c      	cbz	r4, 8003c02 <_Bfree+0x3a>
 8003bf2:	6a6b      	ldr	r3, [r5, #36]	; 0x24
 8003bf4:	6862      	ldr	r2, [r4, #4]
 8003bf6:	68db      	ldr	r3, [r3, #12]
 8003bf8:	f853 1022 	ldr.w	r1, [r3, r2, lsl #2]
 8003bfc:	6021      	str	r1, [r4, #0]
 8003bfe:	f843 4022 	str.w	r4, [r3, r2, lsl #2]
 8003c02:	bd70      	pop	{r4, r5, r6, pc}
 8003c04:	0801c6fd 	.word	0x0801c6fd
 8003c08:	0801c7a1 	.word	0x0801c7a1

08003c0c <__multadd>:
 8003c0c:	e92d 41f0 	stmdb	sp!, {r4, r5, r6, r7, r8, lr}
 8003c10:	690e      	ldr	r6, [r1, #16]
 8003c12:	4607      	mov	r7, r0
 8003c14:	4698      	mov	r8, r3
 8003c16:	460c      	mov	r4, r1
 8003c18:	f101 0014 	add.w	r0, r1, #20
 8003c1c:	2300      	movs	r3, #0
 8003c1e:	6805      	ldr	r5, [r0, #0]
 8003c20:	b2a9      	uxth	r1, r5
 8003c22:	fb02 8101 	mla	r1, r2, r1, r8
 8003c26:	ea4f 4c11 	mov.w	ip, r1, lsr #16
 8003c2a:	0c2d      	lsrs	r5, r5, #16
 8003c2c:	fb02 c505 	mla	r5, r2, r5, ip
 8003c30:	b289      	uxth	r1, r1
 8003c32:	3301      	adds	r3, #1
 8003c34:	eb01 4105 	add.w	r1, r1, r5, lsl #16
 8003c38:	429e      	cmp	r6, r3
 8003c3a:	f840 1b04 	str.w	r1, [r0], #4
 8003c3e:	ea4f 4815 	mov.w	r8, r5, lsr #16
 8003c42:	dcec      	bgt.n	8003c1e <__multadd+0x12>
 8003c44:	f1b8 0f00 	cmp.w	r8, #0
 8003c48:	d022      	beq.n	8003c90 <__multadd+0x84>
 8003c4a:	68a3      	ldr	r3, [r4, #8]
 8003c4c:	42b3      	cmp	r3, r6
 8003c4e:	dc19      	bgt.n	8003c84 <__multadd+0x78>
 8003c50:	6861      	ldr	r1, [r4, #4]
 8003c52:	4638      	mov	r0, r7
 8003c54:	3101      	adds	r1, #1
 8003c56:	f7ff ff77 	bl	8003b48 <_Balloc>
 8003c5a:	4605      	mov	r5, r0
 8003c5c:	b928      	cbnz	r0, 8003c6a <__multadd+0x5e>
 8003c5e:	4602      	mov	r2, r0
 8003c60:	4b0d      	ldr	r3, [pc, #52]	; (8003c98 <__multadd+0x8c>)
 8003c62:	480e      	ldr	r0, [pc, #56]	; (8003c9c <__multadd+0x90>)
 8003c64:	21b5      	movs	r1, #181	; 0xb5
 8003c66:	f000 fd13 	bl	8004690 <__assert_func>
 8003c6a:	6922      	ldr	r2, [r4, #16]
 8003c6c:	3202      	adds	r2, #2
 8003c6e:	f104 010c 	add.w	r1, r4, #12
 8003c72:	0092      	lsls	r2, r2, #2
 8003c74:	300c      	adds	r0, #12
 8003c76:	f7fe fc43 	bl	8002500 <memcpy>
 8003c7a:	4621      	mov	r1, r4
 8003c7c:	4638      	mov	r0, r7
 8003c7e:	f7ff ffa3 	bl	8003bc8 <_Bfree>
 8003c82:	462c      	mov	r4, r5
 8003c84:	eb04 0386 	add.w	r3, r4, r6, lsl #2
 8003c88:	3601      	adds	r6, #1
 8003c8a:	f8c3 8014 	str.w	r8, [r3, #20]
 8003c8e:	6126      	str	r6, [r4, #16]
 8003c90:	4620      	mov	r0, r4
 8003c92:	e8bd 81f0 	ldmia.w	sp!, {r4, r5, r6, r7, r8, pc}
 8003c96:	bf00      	nop
 8003c98:	0801c790 	.word	0x0801c790
 8003c9c:	0801c7a1 	.word	0x0801c7a1

08003ca0 <__hi0bits>:
 8003ca0:	0c03      	lsrs	r3, r0, #16
 8003ca2:	041b      	lsls	r3, r3, #16
 8003ca4:	b9d3      	cbnz	r3, 8003cdc <__hi0bits+0x3c>
 8003ca6:	0400      	lsls	r0, r0, #16
 8003ca8:	2310      	movs	r3, #16
 8003caa:	f010 4f7f 	tst.w	r0, #4278190080	; 0xff000000
 8003cae:	bf04      	itt	eq
 8003cb0:	0200      	lsleq	r0, r0, #8
 8003cb2:	3308      	addeq	r3, #8
 8003cb4:	f010 4f70 	tst.w	r0, #4026531840	; 0xf0000000
 8003cb8:	bf04      	itt	eq
 8003cba:	0100      	lsleq	r0, r0, #4
 8003cbc:	3304      	addeq	r3, #4
 8003cbe:	f010 4f40 	tst.w	r0, #3221225472	; 0xc0000000
 8003cc2:	bf04      	itt	eq
 8003cc4:	0080      	lsleq	r0, r0, #2
 8003cc6:	3302      	addeq	r3, #2
 8003cc8:	2800      	cmp	r0, #0
 8003cca:	db05      	blt.n	8003cd8 <__hi0bits+0x38>
 8003ccc:	f010 4f80 	tst.w	r0, #1073741824	; 0x40000000
 8003cd0:	f103 0301 	add.w	r3, r3, #1
 8003cd4:	bf08      	it	eq
 8003cd6:	2320      	moveq	r3, #32
 8003cd8:	4618      	mov	r0, r3
 8003cda:	4770      	bx	lr
 8003cdc:	2300      	movs	r3, #0
 8003cde:	e7e4      	b.n	8003caa <__hi0bits+0xa>

08003ce0 <__lo0bits>:
 8003ce0:	6803      	ldr	r3, [r0, #0]
 8003ce2:	f013 0207 	ands.w	r2, r3, #7
 8003ce6:	4601      	mov	r1, r0
 8003ce8:	d00b      	beq.n	8003d02 <__lo0bits+0x22>
 8003cea:	07da      	lsls	r2, r3, #31
 8003cec:	d424      	bmi.n	8003d38 <__lo0bits+0x58>
 8003cee:	0798      	lsls	r0, r3, #30
 8003cf0:	bf49      	itett	mi
 8003cf2:	085b      	lsrmi	r3, r3, #1
 8003cf4:	089b      	lsrpl	r3, r3, #2
 8003cf6:	2001      	movmi	r0, #1
 8003cf8:	600b      	strmi	r3, [r1, #0]
 8003cfa:	bf5c      	itt	pl
 8003cfc:	600b      	strpl	r3, [r1, #0]
 8003cfe:	2002      	movpl	r0, #2
 8003d00:	4770      	bx	lr
 8003d02:	b298      	uxth	r0, r3
 8003d04:	b9b0      	cbnz	r0, 8003d34 <__lo0bits+0x54>
 8003d06:	0c1b      	lsrs	r3, r3, #16
 8003d08:	2010      	movs	r0, #16
 8003d0a:	f013 0fff 	tst.w	r3, #255	; 0xff
 8003d0e:	bf04      	itt	eq
 8003d10:	0a1b      	lsreq	r3, r3, #8
 8003d12:	3008      	addeq	r0, #8
 8003d14:	071a      	lsls	r2, r3, #28
 8003d16:	bf04      	itt	eq
 8003d18:	091b      	lsreq	r3, r3, #4
 8003d1a:	3004      	addeq	r0, #4
 8003d1c:	079a      	lsls	r2, r3, #30
 8003d1e:	bf04      	itt	eq
 8003d20:	089b      	lsreq	r3, r3, #2
 8003d22:	3002      	addeq	r0, #2
 8003d24:	07da      	lsls	r2, r3, #31
 8003d26:	d403      	bmi.n	8003d30 <__lo0bits+0x50>
 8003d28:	085b      	lsrs	r3, r3, #1
 8003d2a:	f100 0001 	add.w	r0, r0, #1
 8003d2e:	d005      	beq.n	8003d3c <__lo0bits+0x5c>
 8003d30:	600b      	str	r3, [r1, #0]
 8003d32:	4770      	bx	lr
 8003d34:	4610      	mov	r0, r2
 8003d36:	e7e8      	b.n	8003d0a <__lo0bits+0x2a>
 8003d38:	2000      	movs	r0, #0
 8003d3a:	4770      	bx	lr
 8003d3c:	2020      	movs	r0, #32
 8003d3e:	4770      	bx	lr

08003d40 <__i2b>:
 8003d40:	b510      	push	{r4, lr}
 8003d42:	460c      	mov	r4, r1
 8003d44:	2101      	movs	r1, #1
 8003d46:	f7ff feff 	bl	8003b48 <_Balloc>
 8003d4a:	4602      	mov	r2, r0
 8003d4c:	b928      	cbnz	r0, 8003d5a <__i2b+0x1a>
 8003d4e:	4b05      	ldr	r3, [pc, #20]	; (8003d64 <__i2b+0x24>)
 8003d50:	4805      	ldr	r0, [pc, #20]	; (8003d68 <__i2b+0x28>)
 8003d52:	f44f 71a0 	mov.w	r1, #320	; 0x140
 8003d56:	f000 fc9b 	bl	8004690 <__assert_func>
 8003d5a:	2301      	movs	r3, #1
 8003d5c:	6144      	str	r4, [r0, #20]
 8003d5e:	6103      	str	r3, [r0, #16]
 8003d60:	bd10      	pop	{r4, pc}
 8003d62:	bf00      	nop
 8003d64:	0801c790 	.word	0x0801c790
 8003d68:	0801c7a1 	.word	0x0801c7a1

08003d6c <__multiply>:
 8003d6c:	e92d 4ff0 	stmdb	sp!, {r4, r5, r6, r7, r8, r9, sl, fp, lr}
 8003d70:	4614      	mov	r4, r2
 8003d72:	690a      	ldr	r2, [r1, #16]
 8003d74:	6923      	ldr	r3, [r4, #16]
 8003d76:	429a      	cmp	r2, r3
 8003d78:	bfb8      	it	lt
 8003d7a:	460b      	movlt	r3, r1
 8003d7c:	460d      	mov	r5, r1
 8003d7e:	bfbc      	itt	lt
 8003d80:	4625      	movlt	r5, r4
 8003d82:	461c      	movlt	r4, r3
 8003d84:	f8d5 a010 	ldr.w	sl, [r5, #16]
 8003d88:	f8d4 9010 	ldr.w	r9, [r4, #16]
 8003d8c:	68ab      	ldr	r3, [r5, #8]
 8003d8e:	6869      	ldr	r1, [r5, #4]
 8003d90:	eb0a 0709 	add.w	r7, sl, r9
 8003d94:	42bb      	cmp	r3, r7
 8003d96:	b085      	sub	sp, #20
 8003d98:	bfb8      	it	lt
 8003d9a:	3101      	addlt	r1, #1
 8003d9c:	f7ff fed4 	bl	8003b48 <_Balloc>
 8003da0:	b930      	cbnz	r0, 8003db0 <__multiply+0x44>
 8003da2:	4602      	mov	r2, r0
 8003da4:	4b42      	ldr	r3, [pc, #264]	; (8003eb0 <__multiply+0x144>)
 8003da6:	4843      	ldr	r0, [pc, #268]	; (8003eb4 <__multiply+0x148>)
 8003da8:	f240 115d 	movw	r1, #349	; 0x15d
 8003dac:	f000 fc70 	bl	8004690 <__assert_func>
 8003db0:	f100 0614 	add.w	r6, r0, #20
 8003db4:	eb06 0887 	add.w	r8, r6, r7, lsl #2
 8003db8:	4633      	mov	r3, r6
 8003dba:	2200      	movs	r2, #0
 8003dbc:	4543      	cmp	r3, r8
 8003dbe:	d31e      	bcc.n	8003dfe <__multiply+0x92>
 8003dc0:	f105 0c14 	add.w	ip, r5, #20
 8003dc4:	f104 0314 	add.w	r3, r4, #20
 8003dc8:	eb0c 0c8a 	add.w	ip, ip, sl, lsl #2
 8003dcc:	eb03 0289 	add.w	r2, r3, r9, lsl #2
 8003dd0:	9202      	str	r2, [sp, #8]
 8003dd2:	ebac 0205 	sub.w	r2, ip, r5
 8003dd6:	3a15      	subs	r2, #21
 8003dd8:	f022 0203 	bic.w	r2, r2, #3
 8003ddc:	3204      	adds	r2, #4
 8003dde:	f105 0115 	add.w	r1, r5, #21
 8003de2:	458c      	cmp	ip, r1
 8003de4:	bf38      	it	cc
 8003de6:	2204      	movcc	r2, #4
 8003de8:	9201      	str	r2, [sp, #4]
 8003dea:	9a02      	ldr	r2, [sp, #8]
 8003dec:	9303      	str	r3, [sp, #12]
 8003dee:	429a      	cmp	r2, r3
 8003df0:	d808      	bhi.n	8003e04 <__multiply+0x98>
 8003df2:	2f00      	cmp	r7, #0
 8003df4:	dc55      	bgt.n	8003ea2 <__multiply+0x136>
 8003df6:	6107      	str	r7, [r0, #16]
 8003df8:	b005      	add	sp, #20
 8003dfa:	e8bd 8ff0 	ldmia.w	sp!, {r4, r5, r6, r7, r8, r9, sl, fp, pc}
 8003dfe:	f843 2b04 	str.w	r2, [r3], #4
 8003e02:	e7db      	b.n	8003dbc <__multiply+0x50>
 8003e04:	f8b3 a000 	ldrh.w	sl, [r3]
 8003e08:	f1ba 0f00 	cmp.w	sl, #0
